

HI-TECH Software PIC LITE Macro Assembler V9.83 build 10920 
                                                                                               Fri Sep 12 10:40:45 2014

HI-TECH Software Omniscient Code Generator (Lite mode) build 10920
     1  0000                     opt subtitle "HI-TECH Software Omniscient Code Generator (Lite mode) build 10920"
     2                           
     3                           opt pagewidth 120
     4                           
     5                           	opt lm
     6                           
     7                           	processor	16F877A
     8                           clrc	macro
     9                           	bcf	3,0
    10  0000                     	endm
    11                           clrz	macro
    12                           	bcf	3,2
    13  0000                     	endm
    14                           setc	macro
    15                           	bsf	3,0
    16  0000                     	endm
    17                           setz	macro
    18                           	bsf	3,2
    19  0000                     	endm
    20                           skipc	macro
    21                           	btfss	3,0
    22  0000                     	endm
    23                           skipz	macro
    24                           	btfss	3,2
    25  0000                     	endm
    26                           skipnc	macro
    27                           	btfsc	3,0
    28  0000                     	endm
    29                           skipnz	macro
    30                           	btfsc	3,2
    31  0000                     	endm
    32  0000                     indf	equ	0
    33  0000                     indf0	equ	0
    34  0002                     pc	equ	2
    35  0002                     pcl	equ	2
    36  0003                     status	equ	3
    37  0004                     fsr	equ	4
    38  0004                     fsr0	equ	4
    39  0001                     c	equ	1
    40  0000                     z	equ	0
    41  000A                     pclath	equ	10
    42                           # 3 "E:\Mechatronics Assignment 2\Main.c"
    43                           	psect config,class=CONFIG,delta=2 ;#
    44                           # 3 "E:\Mechatronics Assignment 2\Main.c"
    45  2007  FF32               	dw 0xFFFE & 0xFFFB & 0xFFFF & 0xFFBF & 0xFFF7 & 0xFFFF & 0xFF7F & 0xFFFF ;#
    46                           	FNCALL	_main,_init
    47                           	FNCALL	_main,_init_adc
    48                           	FNCALL	_main,_lcd_init
    49                           	FNCALL	_main,_infrared
    50                           	FNCALL	_infrared,_adc_read_channel
    51                           	FNCALL	_infrared,___lwtoft
    52                           	FNCALL	_infrared,___ftadd
    53                           	FNCALL	_infrared,___awtoft
    54                           	FNCALL	_infrared,___ftdiv
    55                           	FNCALL	_infrared,___ftge
    56                           	FNCALL	_infrared,___ftmul
    57                           	FNCALL	_infrared,___ftneg
    58                           	FNCALL	_infrared,_lcd_set_cursor
    59                           	FNCALL	_infrared,_lcd_write_string
    60                           	FNCALL	_infrared,___fttol
    61                           	FNCALL	_infrared,_lcd_write_4_digit_bcd
    62                           	FNCALL	_lcd_init,_lcd_write_control
    63                           	FNCALL	_lcd_write_4_digit_bcd,_lcd_write_data
    64                           	FNCALL	_lcd_write_string,_lcd_write_data
    65                           	FNCALL	_lcd_set_cursor,_lcd_write_control
    66                           	FNCALL	___lwtoft,___ftpack
    67                           	FNCALL	___awtoft,___ftpack
    68                           	FNCALL	___ftmul,___ftpack
    69                           	FNCALL	___ftdiv,___ftpack
    70                           	FNCALL	___ftadd,___ftpack
    71                           	FNCALL	_adc_read_channel,_adc_read
    72                           	FNROOT	_main
    73                           	FNCALL	_isr1,___lwmod
    74                           	FNCALL	intlevel1,_isr1
    75                           	global	intlevel1
    76                           	FNROOT	intlevel1
    77                           	global	_RTC_Counter
    78                           	global	_RTC_FLAG_10MS
    79                           	global	_RTC_FLAG_125MS
    80                           	global	_RTC_FLAG_1MS
    81                           	global	_RTC_FLAG_500MS
    82                           	global	_RTC_FLAG_50MS
    83                           	global	_ADCON0
    84                           psect	text558,local,class=CODE,delta=2
    85                           global __ptext558
    86  0000                     __ptext558:
    87  001F                     _ADCON0	set	31
    88                           	global	_ADRESH
    89  001E                     _ADRESH	set	30
    90                           	global	_PORTA
    91  0005                     _PORTA	set	5
    92                           	global	_PORTD
    93  0008                     _PORTD	set	8
    94                           	global	_PORTE
    95  0009                     _PORTE	set	9
    96                           	global	_TMR0
    97  0001                     _TMR0	set	1
    98                           	global	_CARRY
    99  0018                     _CARRY	set	24
   100                           	global	_CHS0
   101  00FB                     _CHS0	set	251
   102                           	global	_CHS1
   103  00FC                     _CHS1	set	252
   104                           	global	_CHS2
   105  00FD                     _CHS2	set	253
   106                           	global	_GIE
   107  005F                     _GIE	set	95
   108                           	global	_GO
   109  00FA                     _GO	set	250
   110                           	global	_RB0
   111  0030                     _RB0	set	48
   112                           	global	_RE0
   113  0048                     _RE0	set	72
   114                           	global	_RE1
   115  0049                     _RE1	set	73
   116                           	global	_RE2
   117  004A                     _RE2	set	74
   118                           	global	_TMR0IE
   119  005D                     _TMR0IE	set	93
   120                           	global	_TMR0IF
   121  005A                     _TMR0IF	set	90
   122                           	global	_ADCON1
   123  009F                     _ADCON1	set	159
   124                           	global	_ADRESL
   125  009E                     _ADRESL	set	158
   126                           	global	_OPTION_REG
   127  0081                     _OPTION_REG	set	129
   128                           	global	_TRISA
   129  0085                     _TRISA	set	133
   130                           	global	_TRISB
   131  0086                     _TRISB	set	134
   132                           	global	_TRISD
   133  0088                     _TRISD	set	136
   134                           	global	_TRISE
   135  0089                     _TRISE	set	137
   136                           	global	_EEADR
   137  010D                     _EEADR	set	269
   138                           	global	_EEDATA
   139  010C                     _EEDATA	set	268
   140                           	global	_EECON1
   141  018C                     _EECON1	set	396
   142                           	global	_EECON2
   143  018D                     _EECON2	set	397
   144                           	global	_RD
   145  0C60                     _RD	set	3168
   146                           	global	_WR
   147  0C61                     _WR	set	3169
   148                           	global	_WREN
   149  0C62                     _WREN	set	3170
   150                           psect	strings,class=STRING,delta=2
   151                           global __pstrings
   152  0800                     __pstrings:
   153                           ;	global	stringdir,stringtab,__stringbase
   154  0800                     stringtab:
   155                           ;	String table - string pointers are 1 byte each
   156  0800                     stringcode:stringdir:
      + 0800                     stringdir:	
   157  0800  3008               movlw high(stringdir)
   158  0801  008A               movwf pclath
   159  0802  0804               movf fsr,w
   160  0803  0A84               incf fsr
   161  0804  0782               	addwf pc
   162  0805                     __stringbase:
   163  0805  3400               	retlw	0
   164                           psect	strings
   165                           	
   166  0806                     STR_1:	
   167  0806  3444               	retlw	68	;'D'
   168  0807  3469               	retlw	105	;'i'
   169  0808  3473               	retlw	115	;'s'
   170  0809  3474               	retlw	116	;'t'
   171  080A  3461               	retlw	97	;'a'
   172  080B  346E               	retlw	110	;'n'
   173  080C  3463               	retlw	99	;'c'
   174  080D  3465               	retlw	101	;'e'
   175  080E  343A               	retlw	58	;':'
   176  080F  3420               	retlw	32	;' '
   177  0810  3400               	retlw	0
   178                           psect	strings
   179                           	
   180  0811                     STR_2:	
   181  0811  3441               	retlw	65	;'A'
   182  0812  3444               	retlw	68	;'D'
   183  0813  3443               	retlw	67	;'C'
   184  0814  343A               	retlw	58	;':'
   185  0815  3420               	retlw	32	;' '
   186  0816  3400               	retlw	0
   187                           psect	strings
   188                           	file	"Assignment2Sensing.as"
   189                           	line	#
   190                           psect cinit,class=CODE,delta=2
   191                           global start_initialization
   192  0C0D                     start_initialization:
   193                           
   194                           psect	bitbssCOMMON,class=COMMON,bit,space=1
   195                           global __pbitbssCOMMON
   196  03D8                     __pbitbssCOMMON:
   197  03D8                     _RTC_FLAG_10MS:
   198  03D8                            ds      1
   199                           
   200  03D9                     _RTC_FLAG_125MS:
   201  03D9                            ds      1
   202                           
   203  03DA                     _RTC_FLAG_1MS:
   204  03DA                            ds      1
   205                           
   206  03DB                     _RTC_FLAG_500MS:
   207  03DB                            ds      1
   208                           
   209  03DC                     _RTC_FLAG_50MS:
   210  03DC                            ds      1
   211                           
   212                           psect	bssCOMMON,class=COMMON,space=1
   213                           global __pbssCOMMON
   214  007C                     __pbssCOMMON:
   215  007C                     _RTC_Counter:
   216  007C                            ds      2
   217                           
   218                           ; Clear objects allocated to BITCOMMON
   219                           psect cinit,class=CODE,delta=2
   220  0C0D  01FB               	clrf	((__pbitbssCOMMON/8)+0)&07Fh
   221                           ; Clear objects allocated to COMMON
   222                           psect cinit,class=CODE,delta=2
   223  0C0E  01FC               	clrf	((__pbssCOMMON)+0)&07Fh
   224  0C0F  01FD               	clrf	((__pbssCOMMON)+1)&07Fh
   225                           psect cinit,class=CODE,delta=2
   226                           global end_of_initialization
   227                           
   228                           ;End of C runtime variable initialization code
   229                           
   230  0C10                     end_of_initialization:
   231  0C10  0183               clrf status
   232  0C11  120A  158A  2C72   ljmp _main	;jump to C main() function
   233                           psect	cstackCOMMON,class=COMMON,space=1
   234                           global __pcstackCOMMON
   235  0071                     __pcstackCOMMON:
   236                           	global	?_lcd_set_cursor
   237  0071                     ?_lcd_set_cursor:	; 0 bytes @ 0x0
   238                           	global	?_lcd_write_string
   239  0071                     ?_lcd_write_string:	; 0 bytes @ 0x0
   240                           	global	?_init_adc
   241  0071                     ?_init_adc:	; 0 bytes @ 0x0
   242                           	global	?_lcd_init
   243  0071                     ?_lcd_init:	; 0 bytes @ 0x0
   244                           	global	?_init
   245  0071                     ?_init:	; 0 bytes @ 0x0
   246                           	global	?_isr1
   247  0071                     ?_isr1:	; 0 bytes @ 0x0
   248                           	global	?_infrared
   249  0071                     ?_infrared:	; 0 bytes @ 0x0
   250                           	global	?_main
   251  0071                     ?_main:	; 0 bytes @ 0x0
   252                           	global	?_lcd_write_control
   253  0071                     ?_lcd_write_control:	; 0 bytes @ 0x0
   254                           	global	?_lcd_write_data
   255  0071                     ?_lcd_write_data:	; 0 bytes @ 0x0
   256                           	global	?___lwmod
   257  0071                     ?___lwmod:	; 2 bytes @ 0x0
   258                           	global	___lwmod@divisor
   259  0071                     ___lwmod@divisor:	; 2 bytes @ 0x0
   260  0071                     	ds	2
   261                           	global	___lwmod@dividend
   262  0073                     ___lwmod@dividend:	; 2 bytes @ 0x2
   263  0073                     	ds	2
   264                           	global	??___lwmod
   265  0075                     ??___lwmod:	; 0 bytes @ 0x4
   266  0075                     	ds	1
   267                           	global	___lwmod@counter
   268  0076                     ___lwmod@counter:	; 1 bytes @ 0x5
   269  0076                     	ds	1
   270                           	global	??_isr1
   271  0077                     ??_isr1:	; 0 bytes @ 0x6
   272  0077                     	ds	4
   273                           psect	cstackBANK0,class=BANK0,space=1
   274                           global __pcstackBANK0
   275  0020                     __pcstackBANK0:
   276                           	global	??_init_adc
   277  0020                     ??_init_adc:	; 0 bytes @ 0x0
   278                           	global	??_init
   279  0020                     ??_init:	; 0 bytes @ 0x0
   280                           	global	??_lcd_write_control
   281  0020                     ??_lcd_write_control:	; 0 bytes @ 0x0
   282                           	global	??_lcd_write_data
   283  0020                     ??_lcd_write_data:	; 0 bytes @ 0x0
   284                           	global	?___ftge
   285  0020                     ?___ftge:	; 1 bit 
   286                           	global	?_adc_read
   287  0020                     ?_adc_read:	; 2 bytes @ 0x0
   288                           	global	?___ftpack
   289  0020                     ?___ftpack:	; 3 bytes @ 0x0
   290                           	global	?___fttol
   291  0020                     ?___fttol:	; 4 bytes @ 0x0
   292                           	global	___fttol@f1
   293  0020                     ___fttol@f1:	; 3 bytes @ 0x0
   294                           	global	___ftge@ff1
   295  0020                     ___ftge@ff1:	; 3 bytes @ 0x0
   296                           	global	___ftpack@arg
   297  0020                     ___ftpack@arg:	; 3 bytes @ 0x0
   298  0020                     	ds	2
   299                           	global	??_adc_read
   300  0022                     ??_adc_read:	; 0 bytes @ 0x2
   301                           	global	lcd_write_control@databyte
   302  0022                     lcd_write_control@databyte:	; 1 bytes @ 0x2
   303                           	global	lcd_write_data@databyte
   304  0022                     lcd_write_data@databyte:	; 1 bytes @ 0x2
   305  0022                     	ds	1
   306                           	global	??_lcd_set_cursor
   307  0023                     ??_lcd_set_cursor:	; 0 bytes @ 0x3
   308                           	global	??_lcd_write_string
   309  0023                     ??_lcd_write_string:	; 0 bytes @ 0x3
   310                           	global	??_lcd_init
   311  0023                     ??_lcd_init:	; 0 bytes @ 0x3
   312                           	global	lcd_set_cursor@address
   313  0023                     lcd_set_cursor@address:	; 1 bytes @ 0x3
   314                           	global	___ftpack@exp
   315  0023                     ___ftpack@exp:	; 1 bytes @ 0x3
   316                           	global	___ftge@ff2
   317  0023                     ___ftge@ff2:	; 3 bytes @ 0x3
   318  0023                     	ds	1
   319                           	global	??___fttol
   320  0024                     ??___fttol:	; 0 bytes @ 0x4
   321                           	global	lcd_write_string@s
   322  0024                     lcd_write_string@s:	; 1 bytes @ 0x4
   323                           	global	___ftpack@sign
   324  0024                     ___ftpack@sign:	; 1 bytes @ 0x4
   325  0024                     	ds	1
   326                           	global	??___ftpack
   327  0025                     ??___ftpack:	; 0 bytes @ 0x5
   328                           	global	adc_read@adc_value
   329  0025                     adc_read@adc_value:	; 2 bytes @ 0x5
   330  0025                     	ds	1
   331                           	global	??___ftge
   332  0026                     ??___ftge:	; 0 bytes @ 0x6
   333  0026                     	ds	1
   334                           	global	?_adc_read_channel
   335  0027                     ?_adc_read_channel:	; 2 bytes @ 0x7
   336  0027                     	ds	1
   337                           	global	?___awtoft
   338  0028                     ?___awtoft:	; 3 bytes @ 0x8
   339                           	global	?___ftneg
   340  0028                     ?___ftneg:	; 3 bytes @ 0x8
   341                           	global	___fttol@sign1
   342  0028                     ___fttol@sign1:	; 1 bytes @ 0x8
   343                           	global	___awtoft@c
   344  0028                     ___awtoft@c:	; 2 bytes @ 0x8
   345                           	global	___ftneg@f1
   346  0028                     ___ftneg@f1:	; 3 bytes @ 0x8
   347  0028                     	ds	1
   348                           	global	??_adc_read_channel
   349  0029                     ??_adc_read_channel:	; 0 bytes @ 0x9
   350                           	global	___fttol@lval
   351  0029                     ___fttol@lval:	; 4 bytes @ 0x9
   352  0029                     	ds	1
   353                           	global	adc_read_channel@channel
   354  002A                     adc_read_channel@channel:	; 1 bytes @ 0xA
   355  002A                     	ds	1
   356                           	global	??___awtoft
   357  002B                     ??___awtoft:	; 0 bytes @ 0xB
   358                           	global	??___ftneg
   359  002B                     ??___ftneg:	; 0 bytes @ 0xB
   360                           	global	?___lwtoft
   361  002B                     ?___lwtoft:	; 3 bytes @ 0xB
   362                           	global	___lwtoft@c
   363  002B                     ___lwtoft@c:	; 2 bytes @ 0xB
   364  002B                     	ds	2
   365                           	global	___fttol@exp1
   366  002D                     ___fttol@exp1:	; 1 bytes @ 0xD
   367                           	global	___awtoft@sign
   368  002D                     ___awtoft@sign:	; 1 bytes @ 0xD
   369  002D                     	ds	1
   370                           	global	?_lcd_write_4_digit_bcd
   371  002E                     ?_lcd_write_4_digit_bcd:	; 0 bytes @ 0xE
   372                           	global	??___lwtoft
   373  002E                     ??___lwtoft:	; 0 bytes @ 0xE
   374                           	global	?___ftdiv
   375  002E                     ?___ftdiv:	; 3 bytes @ 0xE
   376                           	global	lcd_write_4_digit_bcd@data
   377  002E                     lcd_write_4_digit_bcd@data:	; 2 bytes @ 0xE
   378                           	global	___ftdiv@f2
   379  002E                     ___ftdiv@f2:	; 3 bytes @ 0xE
   380  002E                     	ds	1
   381                           	global	?___ftadd
   382  002F                     ?___ftadd:	; 3 bytes @ 0xF
   383                           	global	___ftadd@f1
   384  002F                     ___ftadd@f1:	; 3 bytes @ 0xF
   385  002F                     	ds	1
   386                           	global	??_lcd_write_4_digit_bcd
   387  0030                     ??_lcd_write_4_digit_bcd:	; 0 bytes @ 0x10
   388                           	global	lcd_write_4_digit_bcd@TensDigit
   389  0030                     lcd_write_4_digit_bcd@TensDigit:	; 2 bytes @ 0x10
   390  0030                     	ds	1
   391                           	global	___ftdiv@f1
   392  0031                     ___ftdiv@f1:	; 3 bytes @ 0x11
   393  0031                     	ds	1
   394                           	global	lcd_write_4_digit_bcd@HunsDigit
   395  0032                     lcd_write_4_digit_bcd@HunsDigit:	; 2 bytes @ 0x12
   396                           	global	___ftadd@f2
   397  0032                     ___ftadd@f2:	; 3 bytes @ 0x12
   398  0032                     	ds	2
   399                           	global	??___ftdiv
   400  0034                     ??___ftdiv:	; 0 bytes @ 0x14
   401                           	global	lcd_write_4_digit_bcd@ThousDigit
   402  0034                     lcd_write_4_digit_bcd@ThousDigit:	; 2 bytes @ 0x14
   403  0034                     	ds	1
   404                           	global	??___ftadd
   405  0035                     ??___ftadd:	; 0 bytes @ 0x15
   406  0035                     	ds	1
   407                           	global	lcd_write_4_digit_bcd@OnesDigit
   408  0036                     lcd_write_4_digit_bcd@OnesDigit:	; 2 bytes @ 0x16
   409  0036                     	ds	2
   410                           	global	___ftdiv@cntr
   411  0038                     ___ftdiv@cntr:	; 1 bytes @ 0x18
   412  0038                     	ds	1
   413                           	global	___ftadd@sign
   414  0039                     ___ftadd@sign:	; 1 bytes @ 0x19
   415                           	global	___ftdiv@f3
   416  0039                     ___ftdiv@f3:	; 3 bytes @ 0x19
   417  0039                     	ds	1
   418                           	global	___ftadd@exp2
   419  003A                     ___ftadd@exp2:	; 1 bytes @ 0x1A
   420  003A                     	ds	1
   421                           	global	___ftadd@exp1
   422  003B                     ___ftadd@exp1:	; 1 bytes @ 0x1B
   423  003B                     	ds	1
   424                           	global	?___ftmul
   425  003C                     ?___ftmul:	; 3 bytes @ 0x1C
   426                           	global	___ftdiv@exp
   427  003C                     ___ftdiv@exp:	; 1 bytes @ 0x1C
   428                           	global	___ftmul@f1
   429  003C                     ___ftmul@f1:	; 3 bytes @ 0x1C
   430  003C                     	ds	1
   431                           	global	___ftdiv@sign
   432  003D                     ___ftdiv@sign:	; 1 bytes @ 0x1D
   433  003D                     	ds	2
   434                           	global	___ftmul@f2
   435  003F                     ___ftmul@f2:	; 3 bytes @ 0x1F
   436  003F                     	ds	3
   437                           	global	??___ftmul
   438  0042                     ??___ftmul:	; 0 bytes @ 0x22
   439  0042                     	ds	4
   440                           	global	___ftmul@exp
   441  0046                     ___ftmul@exp:	; 1 bytes @ 0x26
   442  0046                     	ds	1
   443                           	global	___ftmul@f3_as_product
   444  0047                     ___ftmul@f3_as_product:	; 3 bytes @ 0x27
   445  0047                     	ds	3
   446                           	global	___ftmul@cntr
   447  004A                     ___ftmul@cntr:	; 1 bytes @ 0x2A
   448  004A                     	ds	1
   449                           	global	___ftmul@sign
   450  004B                     ___ftmul@sign:	; 1 bytes @ 0x2B
   451  004B                     	ds	1
   452                           	global	??_infrared
   453  004C                     ??_infrared:	; 0 bytes @ 0x2C
   454                           	global	infrared@adcVals
   455  004C                     infrared@adcVals:	; 3 bytes @ 0x2C
   456  004C                     	ds	3
   457                           	global	infrared@i
   458  004F                     infrared@i:	; 2 bytes @ 0x2F
   459  004F                     	ds	2
   460                           	global	_infrared$4525
   461  0051                     _infrared$4525:	; 3 bytes @ 0x31
   462  0051                     	ds	3
   463                           	global	infrared@total
   464  0054                     infrared@total:	; 3 bytes @ 0x34
   465  0054                     	ds	3
   466                           	global	??_main
   467  0057                     ??_main:	; 0 bytes @ 0x37
   468 ;;Data sizes: Strings 17, constant 0, data 0, bss 2, persistent 0 stack 0
   469 ;;Auto spaces:   Size  Autos    Used
   470 ;; COMMON          13     10      13
   471 ;; BANK0           80     55      55
   472 ;; BANK1           80      0       0
   473 ;; BANK3           85      0       0
   474 ;; BANK2           96      0       0
   475                           
   476 ;;
   477 ;; Pointer list with targets:
   478                           
   479 ;; ?___ftpack	float  size(1) Largest target is 0
   480 ;;
   481 ;; ?_adc_read	unsigned int  size(1) Largest target is 0
   482 ;;
   483 ;; ?_adc_read_channel	unsigned int  size(1) Largest target is 0
   484 ;;
   485 ;; ?___ftneg	float  size(1) Largest target is 0
   486 ;;
   487 ;; ?___fttol	long  size(1) Largest target is 0
   488 ;;
   489 ;; ?___ftmul	float  size(1) Largest target is 0
   490 ;;
   491 ;; ?___ftdiv	float  size(1) Largest target is 0
   492 ;;
   493 ;; ?___awtoft	float  size(1) Largest target is 0
   494 ;;
   495 ;; ?___ftadd	float  size(1) Largest target is 0
   496 ;;
   497 ;; ?___lwtoft	float  size(1) Largest target is 0
   498 ;;
   499 ;; ?___lwmod	unsigned int  size(1) Largest target is 0
   500 ;;
   501 ;; lcd_write_string@s	PTR unsigned char  size(1) Largest target is 11
   502 ;;		 -> STR_2(CODE[6]), STR_1(CODE[11]), 
   503 ;;
   504                           
   505                           
   506 ;;
   507 ;; Critical Paths under _main in COMMON
   508 ;;
   509 ;;   None.
   510 ;;
   511 ;; Critical Paths under _isr1 in COMMON
   512 ;;
   513 ;;   _isr1->___lwmod
   514 ;;
   515 ;; Critical Paths under _main in BANK0
   516 ;;
   517 ;;   _main->_infrared
   518 ;;   _infrared->___ftmul
   519 ;;   _lcd_init->_lcd_write_control
   520 ;;   _lcd_write_4_digit_bcd->___fttol
   521 ;;   _lcd_write_string->_lcd_write_data
   522 ;;   _lcd_set_cursor->_lcd_write_control
   523 ;;   ___lwtoft->_adc_read_channel
   524 ;;   ___awtoft->___ftpack
   525 ;;   ___ftmul->___ftadd
   526 ;;   ___ftdiv->___awtoft
   527 ;;   ___ftadd->___lwtoft
   528 ;;   _adc_read_channel->_adc_read
   529 ;;   ___ftneg->___ftpack
   530 ;;
   531 ;; Critical Paths under _isr1 in BANK0
   532 ;;
   533 ;;   None.
   534 ;;
   535 ;; Critical Paths under _main in BANK1
   536 ;;
   537 ;;   None.
   538 ;;
   539 ;; Critical Paths under _isr1 in BANK1
   540 ;;
   541 ;;   None.
   542 ;;
   543 ;; Critical Paths under _main in BANK3
   544 ;;
   545 ;;   None.
   546 ;;
   547 ;; Critical Paths under _isr1 in BANK3
   548 ;;
   549 ;;   None.
   550 ;;
   551 ;; Critical Paths under _main in BANK2
   552 ;;
   553 ;;   None.
   554 ;;
   555 ;; Critical Paths under _isr1 in BANK2
   556 ;;
   557 ;;   None.
   558                           
   559 ;;
   560 ;;Main: autosize = 0, tempsize = 0, incstack = 0, save=0
   561 ;;
   562                           
   563 ;;
   564 ;;Call Graph Tables:
   565 ;;
   566 ;; ---------------------------------------------------------------------------------
   567 ;; (Depth) Function   	        Calls       Base Space   Used Autos Params    Refs
   568 ;; ---------------------------------------------------------------------------------
   569 ;; (0) _main                                                 0     0      0    5250
   570 ;;                               _init
   571 ;;                           _init_adc
   572 ;;                           _lcd_init
   573 ;;                           _infrared
   574 ;; ---------------------------------------------------------------------------------
   575 ;; (1) _infrared                                            29    29      0    5228
   576 ;;                                             44 BANK0     11    11      0
   577 ;;                   _adc_read_channel
   578 ;;                           ___lwtoft
   579 ;;                            ___ftadd
   580 ;;                           ___awtoft
   581 ;;                            ___ftdiv
   582 ;;                             ___ftge
   583 ;;                            ___ftmul
   584 ;;                            ___ftneg
   585 ;;                     _lcd_set_cursor
   586 ;;                   _lcd_write_string
   587 ;;                            ___fttol
   588 ;;              _lcd_write_4_digit_bcd
   589 ;; ---------------------------------------------------------------------------------
   590 ;; (1) _lcd_init                                             0     0      0      22
   591 ;;                  _lcd_write_control
   592 ;; ---------------------------------------------------------------------------------
   593 ;; (2) _lcd_write_4_digit_bcd                               10     8      2     274
   594 ;;                                             14 BANK0     10     8      2
   595 ;;                     _lcd_write_data
   596 ;;                            ___fttol (ARG)
   597 ;; ---------------------------------------------------------------------------------
   598 ;; (2) _lcd_write_string                                     2     2      0      67
   599 ;;                                              3 BANK0      2     2      0
   600 ;;                     _lcd_write_data
   601 ;; ---------------------------------------------------------------------------------
   602 ;; (2) _lcd_set_cursor                                       1     1      0      45
   603 ;;                                              3 BANK0      1     1      0
   604 ;;                  _lcd_write_control
   605 ;; ---------------------------------------------------------------------------------
   606 ;; (2) ___lwtoft                                             4     1      3     231
   607 ;;                                             11 BANK0      4     1      3
   608 ;;                           ___ftpack
   609 ;;                   _adc_read_channel (ARG)
   610 ;; ---------------------------------------------------------------------------------
   611 ;; (2) ___awtoft                                             6     3      3     300
   612 ;;                                              8 BANK0      6     3      3
   613 ;;                           ___ftpack
   614 ;; ---------------------------------------------------------------------------------
   615 ;; (2) ___ftmul                                             16    10      6     535
   616 ;;                                             28 BANK0     16    10      6
   617 ;;                           ___ftpack
   618 ;;                            ___ftadd (ARG)
   619 ;;                            ___ftneg (ARG)
   620 ;; ---------------------------------------------------------------------------------
   621 ;; (2) ___ftdiv                                             16    10      6     489
   622 ;;                                             14 BANK0     16    10      6
   623 ;;                           ___ftpack
   624 ;;                           ___awtoft (ARG)
   625 ;; ---------------------------------------------------------------------------------
   626 ;; (2) ___ftadd                                             13     7      6    1049
   627 ;;                                             15 BANK0     13     7      6
   628 ;;                           ___ftpack
   629 ;;                           ___lwtoft (ARG)
   630 ;;                   _adc_read_channel (ARG)
   631 ;;                            ___ftneg (ARG)
   632 ;; ---------------------------------------------------------------------------------
   633 ;; (3) _lcd_write_data                                       3     3      0      22
   634 ;;                                              0 BANK0      3     3      0
   635 ;; ---------------------------------------------------------------------------------
   636 ;; (3) _lcd_write_control                                    3     3      0      22
   637 ;;                                              0 BANK0      3     3      0
   638 ;; ---------------------------------------------------------------------------------
   639 ;; (1) _init_adc                                             1     1      0       0
   640 ;;                                              0 BANK0      1     1      0
   641 ;; ---------------------------------------------------------------------------------
   642 ;; (2) _adc_read_channel                                     4     2      2      47
   643 ;;                                              7 BANK0      4     2      2
   644 ;;                           _adc_read
   645 ;; ---------------------------------------------------------------------------------
   646 ;; (2) ___ftge                                              12     6      6     136
   647 ;;                                              0 BANK0     12     6      6
   648 ;; ---------------------------------------------------------------------------------
   649 ;; (2) ___ftneg                                              3     0      3      45
   650 ;;                                              8 BANK0      3     0      3
   651 ;;                           ___ftpack (ARG)
   652 ;; ---------------------------------------------------------------------------------
   653 ;; (2) ___fttol                                             14    10      4     252
   654 ;;                                              0 BANK0     14    10      4
   655 ;; ---------------------------------------------------------------------------------
   656 ;; (3) ___ftpack                                             8     3      5     209
   657 ;;                                              0 BANK0      8     3      5
   658 ;; ---------------------------------------------------------------------------------
   659 ;; (3) _adc_read                                             7     5      2      25
   660 ;;                                              0 BANK0      7     5      2
   661 ;; ---------------------------------------------------------------------------------
   662 ;; (1) _init                                                 0     0      0       0
   663 ;; ---------------------------------------------------------------------------------
   664 ;; Estimated maximum stack depth 3
   665 ;; ---------------------------------------------------------------------------------
   666 ;; (Depth) Function   	        Calls       Base Space   Used Autos Params    Refs
   667 ;; ---------------------------------------------------------------------------------
   668 ;; (4) _isr1                                                 4     4      0     105
   669 ;;                                              6 COMMON     4     4      0
   670 ;;                            ___lwmod
   671 ;; ---------------------------------------------------------------------------------
   672 ;; (5) ___lwmod                                              6     2      4     105
   673 ;;                                              0 COMMON     6     2      4
   674 ;; ---------------------------------------------------------------------------------
   675 ;; Estimated maximum stack depth 5
   676 ;; ---------------------------------------------------------------------------------
   677                           
   678 ;; Call Graph Graphs:
   679                           
   680 ;; _main (ROOT)
   681 ;;   _init
   682 ;;   _init_adc
   683 ;;   _lcd_init
   684 ;;     _lcd_write_control
   685 ;;   _infrared
   686 ;;     _adc_read_channel
   687 ;;       _adc_read
   688 ;;     ___lwtoft
   689 ;;       ___ftpack
   690 ;;       _adc_read_channel (ARG)
   691 ;;         _adc_read
   692 ;;     ___ftadd
   693 ;;       ___ftpack
   694 ;;       ___lwtoft (ARG)
   695 ;;         ___ftpack
   696 ;;         _adc_read_channel (ARG)
   697 ;;           _adc_read
   698 ;;       _adc_read_channel (ARG)
   699 ;;         _adc_read
   700 ;;       ___ftneg (ARG)
   701 ;;         ___ftpack (ARG)
   702 ;;     ___awtoft
   703 ;;       ___ftpack
   704 ;;     ___ftdiv
   705 ;;       ___ftpack
   706 ;;       ___awtoft (ARG)
   707 ;;         ___ftpack
   708 ;;     ___ftge
   709 ;;     ___ftmul
   710 ;;       ___ftpack
   711 ;;       ___ftadd (ARG)
   712 ;;         ___ftpack
   713 ;;         ___lwtoft (ARG)
   714 ;;           ___ftpack
   715 ;;           _adc_read_channel (ARG)
   716 ;;             _adc_read
   717 ;;         _adc_read_channel (ARG)
   718 ;;           _adc_read
   719 ;;         ___ftneg (ARG)
   720 ;;           ___ftpack (ARG)
   721 ;;       ___ftneg (ARG)
   722 ;;         ___ftpack (ARG)
   723 ;;     ___ftneg
   724 ;;       ___ftpack (ARG)
   725 ;;     _lcd_set_cursor
   726 ;;       _lcd_write_control
   727 ;;     _lcd_write_string
   728 ;;       _lcd_write_data
   729 ;;     ___fttol
   730 ;;     _lcd_write_4_digit_bcd
   731 ;;       _lcd_write_data
   732 ;;       ___fttol (ARG)
   733 ;;
   734 ;; _isr1 (ROOT)
   735 ;;   ___lwmod
   736 ;;
   737                           
   738 ;; Address spaces:
   739                           
   740 ;;Name               Size   Autos  Total    Cost      Usage
   741 ;;BITCOMMON            D      0       1       0        7.7%
   742 ;;EEDATA             100      0       0       0        0.0%
   743 ;;NULL                 0      0       0       0        0.0%
   744 ;;CODE                 0      0       0       0        0.0%
   745 ;;COMMON               D      A       D       1      100.0%
   746 ;;BITSFR0              0      0       0       1        0.0%
   747 ;;SFR0                 0      0       0       1        0.0%
   748 ;;BITSFR1              0      0       0       2        0.0%
   749 ;;SFR1                 0      0       0       2        0.0%
   750 ;;STACK                0      0       7       2        0.0%
   751 ;;ABS                  0      0      44       3        0.0%
   752 ;;BITBANK0            50      0       0       4        0.0%
   753 ;;BITSFR3              0      0       0       4        0.0%
   754 ;;SFR3                 0      0       0       4        0.0%
   755 ;;BANK0               50     37      37       5       68.8%
   756 ;;BITSFR2              0      0       0       5        0.0%
   757 ;;SFR2                 0      0       0       5        0.0%
   758 ;;BITBANK1            50      0       0       6        0.0%
   759 ;;BANK1               50      0       0       7        0.0%
   760 ;;BITBANK3            55      0       0       8        0.0%
   761 ;;BANK3               55      0       0       9        0.0%
   762 ;;BITBANK2            60      0       0      10        0.0%
   763 ;;BANK2               60      0       0      11        0.0%
   764 ;;DATA                 0      0      4B      12        0.0%
   765                           
   766                           	global	_main
   767                           psect	maintext,global,class=CODE,delta=2
   768                           global __pmaintext
   769  0C72                     __pmaintext:
   770                           
   771 ;; *************** function _main *****************
   772 ;; Defined at:
   773 ;;		line 114 in file "E:\Mechatronics Assignment 2\Main.c"
   774 ;; Parameters:    Size  Location     Type
   775 ;;		None
   776 ;; Auto vars:     Size  Location     Type
   777 ;;		None
   778 ;; Return value:  Size  Location     Type
   779 ;;		None               void
   780 ;; Registers used:
   781 ;;		wreg, fsr0l, fsr0h, status,2, status,0, pclath, cstack
   782 ;; Tracked objects:
   783 ;;		On entry : 17F/0
   784 ;;		On exit  : 0/0
   785 ;;		Unchanged: 0/0
   786 ;; Data sizes:     COMMON   BANK0   BANK1   BANK3   BANK2
   787 ;;      Params:         0       0       0       0       0
   788 ;;      Locals:         0       0       0       0       0
   789 ;;      Temps:          0       0       0       0       0
   790 ;;      Totals:         0       0       0       0       0
   791 ;;Total ram usage:        0 bytes
   792 ;; Hardware stack levels required when called:    5
   793 ;; This function calls:
   794 ;;		_init
   795 ;;		_init_adc
   796 ;;		_lcd_init
   797 ;;		_infrared
   798 ;; This function is called by:
   799 ;;		Startup code after reset
   800 ;; This function uses a non-reentrant model
   801 ;;
   802                           psect	maintext
   803                           	file	"E:\Mechatronics Assignment 2\Main.c"
   804                           	line	114
   805                           	global	__size_of_main
   806  001A                     	__size_of_main	equ	__end_of_main-_main
   807                           	
   808  0C72                     _main:	
   809                           	opt	stack 3
   810                           ; Regs used in _main: [wreg-fsr0h+status,2+status,0+pclath+cstack]
   811                           	line	115
   812                           	
   813  0C72                     l6419:	
   814                           ;Main.c: 115: init();
   815  0C72  120A  158A  2414   	fcall	_init
              120A  158A         
   816                           	line	116
   817                           ;Main.c: 116: init_adc();
   818  0C77  120A  158A  245C   	fcall	_init_adc
              120A  158A         
   819                           	line	117
   820                           ;Main.c: 117: lcd_init();
   821  0C7C  120A  158A  24A7   	fcall	_lcd_init
              120A  158A         
   822  0C81  2C82               	goto	l6421
   823                           	line	119
   824                           ;Main.c: 119: while(1)
   825                           	
   826  0C82                     l1423:	
   827                           	line	121
   828                           	
   829  0C82                     l6421:	
   830                           ;Main.c: 120: {
   831                           ;Main.c: 121: infrared();
   832  0C82  120A  118A  237D   	fcall	_infrared
              120A  158A         
   833  0C87  2C82               	goto	l6421
   834                           	line	123
   835                           	
   836  0C88                     l1424:	
   837                           	line	119
   838  0C88  2C82               	goto	l6421
   839                           	
   840  0C89                     l1425:	
   841                           	line	124
   842                           	
   843  0C89                     l1426:	
   844                           	global	start
   845  0C89  120A  118A  2812   	ljmp	start
   846                           	opt stack 0
   847                           GLOBAL	__end_of_main
   848  0C8C                     	__end_of_main:
   849 ;; =============== function _main ends ============
   850                           
   851                           	signat	_main,88
   852                           	global	_infrared
   853                           psect	text559,local,class=CODE,delta=2
   854                           global __ptext559
   855  037D                     __ptext559:
   856                           
   857 ;; *************** function _infrared *****************
   858 ;; Defined at:
   859 ;;		line 47 in file "E:\Mechatronics Assignment 2\Main.c"
   860 ;; Parameters:    Size  Location     Type
   861 ;;		None
   862 ;; Auto vars:     Size  Location     Type
   863 ;;  total           3   52[BANK0 ] PTR unsigned char 
   864 ;;  adcVals         3   44[BANK0 ] PTR unsigned char 
   865 ;;  i               2   47[BANK0 ] int 
   866 ;; Return value:  Size  Location     Type
   867 ;;		None               void
   868 ;; Registers used:
   869 ;;		wreg, fsr0l, fsr0h, status,2, status,0, pclath, cstack
   870 ;; Tracked objects:
   871 ;;		On entry : 0/0
   872 ;;		On exit  : 0/0
   873 ;;		Unchanged: 0/0
   874 ;; Data sizes:     COMMON   BANK0   BANK1   BANK3   BANK2
   875 ;;      Params:         0       0       0       0       0
   876 ;;      Locals:         0      11       0       0       0
   877 ;;      Temps:          0       0       0       0       0
   878 ;;      Totals:         0      11       0       0       0
   879 ;;Total ram usage:       11 bytes
   880 ;; Hardware stack levels used:    1
   881 ;; Hardware stack levels required when called:    4
   882 ;; This function calls:
   883 ;;		_adc_read_channel
   884 ;;		___lwtoft
   885 ;;		___ftadd
   886 ;;		___awtoft
   887 ;;		___ftdiv
   888 ;;		___ftge
   889 ;;		___ftmul
   890 ;;		___ftneg
   891 ;;		_lcd_set_cursor
   892 ;;		_lcd_write_string
   893 ;;		___fttol
   894 ;;		_lcd_write_4_digit_bcd
   895 ;; This function is called by:
   896 ;;		_main
   897 ;; This function uses a non-reentrant model
   898 ;;
   899                           psect	text559
   900                           	file	"E:\Mechatronics Assignment 2\Main.c"
   901                           	line	47
   902                           	global	__size_of_infrared
   903  0483                     	__size_of_infrared	equ	__end_of_infrared-_infrared
   904                           	
   905  037D                     _infrared:	
   906                           	opt	stack 3
   907                           ; Regs used in _infrared: [wreg-fsr0h+status,2+status,0+pclath+cstack]
   908                           	line	48
   909                           	
   910  037D                     l6347:	
   911                           ;Main.c: 48: double adcVals = 0;
   912  037D  3000               	movlw	0x0
   913  037E  1283               	bcf	status, 5	;RP0=0, select bank0
   914  037F  1303               	bcf	status, 6	;RP1=0, select bank0
   915  0380  00CC               	movwf	(infrared@adcVals)
   916  0381  3000               	movlw	0x0
   917  0382  00CD               	movwf	(infrared@adcVals+1)
   918  0383  3000               	movlw	0x0
   919  0384  00CE               	movwf	(infrared@adcVals+2)
   920                           	line	49
   921                           ;Main.c: 49: double total = 0;
   922  0385  3000               	movlw	0x0
   923  0386  00D4               	movwf	(infrared@total)
   924  0387  3000               	movlw	0x0
   925  0388  00D5               	movwf	(infrared@total+1)
   926  0389  3000               	movlw	0x0
   927  038A  00D6               	movwf	(infrared@total+2)
   928                           	line	51
   929                           	
   930  038B                     l6349:	
   931                           ;Main.c: 50: int i;
   932                           ;Main.c: 51: i = 0;
   933  038B  01CF               	clrf	(infrared@i)
   934  038C  01D0               	clrf	(infrared@i+1)
   935                           	line	53
   936                           ;Main.c: 53: while (RTC_FLAG_125MS == 0)
   937  038D  2BC3               	goto	l6355
   938                           	
   939  038E                     l1405:	
   940                           	line	55
   941                           	
   942  038E                     l6351:	
   943                           ;Main.c: 54: {
   944                           ;Main.c: 55: i++;
   945  038E  3001               	movlw	low(01h)
   946  038F  07CF               	addwf	(infrared@i),f
   947  0390  1803               	skipnc
   948  0391  0AD0               	incf	(infrared@i+1),f
   949  0392  3000               	movlw	high(01h)
   950  0393  07D0               	addwf	(infrared@i+1),f
   951                           	line	56
   952                           	
   953  0394                     l6353:	
   954                           ;Main.c: 56: total = total + adc_read_channel(0);
   955  0394  0854               	movf	(infrared@total),w
   956  0395  00AF               	movwf	(?___ftadd)
   957  0396  0855               	movf	(infrared@total+1),w
   958  0397  00B0               	movwf	(?___ftadd+1)
   959  0398  0856               	movf	(infrared@total+2),w
   960  0399  00B1               	movwf	(?___ftadd+2)
   961  039A  3000               	movlw	(0)
   962  039B  120A  158A  2531   	fcall	_adc_read_channel
              120A  118A         
   963  03A0  1283               	bcf	status, 5	;RP0=0, select bank0
   964  03A1  1303               	bcf	status, 6	;RP1=0, select bank0
   965  03A2  0828               	movf	(1+(?_adc_read_channel)),w
   966  03A3  01AC               	clrf	(?___lwtoft+1)
   967  03A4  07AC               	addwf	(?___lwtoft+1)
   968  03A5  0827               	movf	(0+(?_adc_read_channel)),w
   969  03A6  01AB               	clrf	(?___lwtoft)
   970  03A7  07AB               	addwf	(?___lwtoft)
   971                           
   972  03A8  120A  158A  248C   	fcall	___lwtoft
              120A  118A         
   973  03AD  1283               	bcf	status, 5	;RP0=0, select bank0
   974  03AE  1303               	bcf	status, 6	;RP1=0, select bank0
   975  03AF  082B               	movf	(0+(?___lwtoft)),w
   976  03B0  00B2               	movwf	0+(?___ftadd)+03h
   977  03B1  082C               	movf	(1+(?___lwtoft)),w
   978  03B2  00B3               	movwf	1+(?___ftadd)+03h
   979  03B3  082D               	movf	(2+(?___lwtoft)),w
   980  03B4  00B4               	movwf	2+(?___ftadd)+03h
   981  03B5  120A  118A  2237   	fcall	___ftadd
              120A  118A         
   982  03BA  1283               	bcf	status, 5	;RP0=0, select bank0
   983  03BB  1303               	bcf	status, 6	;RP1=0, select bank0
   984  03BC  082F               	movf	(0+(?___ftadd)),w
   985  03BD  00D4               	movwf	(infrared@total)
   986  03BE  0830               	movf	(1+(?___ftadd)),w
   987  03BF  00D5               	movwf	(infrared@total+1)
   988  03C0  0831               	movf	(2+(?___ftadd)),w
   989  03C1  00D6               	movwf	(infrared@total+2)
   990  03C2  2BC3               	goto	l6355
   991                           	line	57
   992                           	
   993  03C3                     l1404:	
   994                           	line	53
   995                           	
   996  03C3                     l6355:	
   997  03C3  1CFB               	btfss	(_RTC_FLAG_125MS/8),(_RTC_FLAG_125MS)&7
   998  03C4  2BC6               	goto	u3401
   999  03C5  2BC7               	goto	u3400
  1000  03C6                     u3401:
  1001  03C6  2B8E               	goto	l6351
  1002  03C7                     u3400:
  1003                           	
  1004  03C7                     l1406:	
  1005                           	line	59
  1006                           ;Main.c: 57: }
  1007                           ;Main.c: 59: RTC_FLAG_125MS = 0;
  1008  03C7  10FB               	bcf	(_RTC_FLAG_125MS/8),(_RTC_FLAG_125MS)&7
  1009                           	line	60
  1010                           	
  1011  03C8                     l6357:	
  1012                           ;Main.c: 60: total = total/i;
  1013  03C8  0850               	movf	(infrared@i+1),w
  1014  03C9  01A9               	clrf	(?___awtoft+1)
  1015  03CA  07A9               	addwf	(?___awtoft+1)
  1016  03CB  084F               	movf	(infrared@i),w
  1017  03CC  01A8               	clrf	(?___awtoft)
  1018  03CD  07A8               	addwf	(?___awtoft)
  1019                           
  1020  03CE  120A  158A  24D2   	fcall	___awtoft
              120A  118A         
  1021  03D3  1283               	bcf	status, 5	;RP0=0, select bank0
  1022  03D4  1303               	bcf	status, 6	;RP1=0, select bank0
  1023  03D5  0828               	movf	(0+(?___awtoft)),w
  1024  03D6  00AE               	movwf	(?___ftdiv)
  1025  03D7  0829               	movf	(1+(?___awtoft)),w
  1026  03D8  00AF               	movwf	(?___ftdiv+1)
  1027  03D9  082A               	movf	(2+(?___awtoft)),w
  1028  03DA  00B0               	movwf	(?___ftdiv+2)
  1029  03DB  0854               	movf	(infrared@total),w
  1030  03DC  00B1               	movwf	0+(?___ftdiv)+03h
  1031  03DD  0855               	movf	(infrared@total+1),w
  1032  03DE  00B2               	movwf	1+(?___ftdiv)+03h
  1033  03DF  0856               	movf	(infrared@total+2),w
  1034  03E0  00B3               	movwf	2+(?___ftdiv)+03h
  1035  03E1  120A  118A  2081   	fcall	___ftdiv
              120A  118A         
  1036  03E6  1283               	bcf	status, 5	;RP0=0, select bank0
  1037  03E7  1303               	bcf	status, 6	;RP1=0, select bank0
  1038  03E8  082E               	movf	(0+(?___ftdiv)),w
  1039  03E9  00D4               	movwf	(infrared@total)
  1040  03EA  082F               	movf	(1+(?___ftdiv)),w
  1041  03EB  00D5               	movwf	(infrared@total+1)
  1042  03EC  0830               	movf	(2+(?___ftdiv)),w
  1043  03ED  00D6               	movwf	(infrared@total+2)
  1044                           	line	61
  1045                           	
  1046  03EE                     l6359:	
  1047                           ;Main.c: 61: adcVals = total;
  1048  03EE  0854               	movf	(infrared@total),w
  1049  03EF  00CC               	movwf	(infrared@adcVals)
  1050  03F0  0855               	movf	(infrared@total+1),w
  1051  03F1  00CD               	movwf	(infrared@adcVals+1)
  1052  03F2  0856               	movf	(infrared@total+2),w
  1053  03F3  00CE               	movwf	(infrared@adcVals+2)
  1054                           	line	63
  1055                           	
  1056  03F4                     l6361:	
  1057                           ;Main.c: 63: total = total/202;
  1058  03F4  3000               	movlw	0x0
  1059  03F5  00AE               	movwf	(?___ftdiv)
  1060  03F6  304A               	movlw	0x4a
  1061  03F7  00AF               	movwf	(?___ftdiv+1)
  1062  03F8  3043               	movlw	0x43
  1063  03F9  00B0               	movwf	(?___ftdiv+2)
  1064  03FA  0854               	movf	(infrared@total),w
  1065  03FB  00B1               	movwf	0+(?___ftdiv)+03h
  1066  03FC  0855               	movf	(infrared@total+1),w
  1067  03FD  00B2               	movwf	1+(?___ftdiv)+03h
  1068  03FE  0856               	movf	(infrared@total+2),w
  1069  03FF  00B3               	movwf	2+(?___ftdiv)+03h
  1070  0400  120A  118A  2081   	fcall	___ftdiv
              120A  118A         
  1071  0405  1283               	bcf	status, 5	;RP0=0, select bank0
  1072  0406  1303               	bcf	status, 6	;RP1=0, select bank0
  1073  0407  082E               	movf	(0+(?___ftdiv)),w
  1074  0408  00D4               	movwf	(infrared@total)
  1075  0409  082F               	movf	(1+(?___ftdiv)),w
  1076  040A  00D5               	movwf	(infrared@total+1)
  1077  040B  0830               	movf	(2+(?___ftdiv)),w
  1078  040C  00D6               	movwf	(infrared@total+2)
  1079                           	line	67
  1080                           	
  1081  040D                     l6363:	
  1082                           ;Main.c: 67: if (total >= 2.5 && total < 3)
  1083  040D  0854               	movf	(infrared@total),w
  1084  040E  00A0               	movwf	(?___ftge)
  1085  040F  0855               	movf	(infrared@total+1),w
  1086  0410  00A1               	movwf	(?___ftge+1)
  1087  0411  0856               	movf	(infrared@total+2),w
  1088  0412  00A2               	movwf	(?___ftge+2)
  1089  0413  3000               	movlw	0x0
  1090  0414  00A3               	movwf	0+(?___ftge)+03h
  1091  0415  3020               	movlw	0x20
  1092  0416  00A4               	movwf	1+(?___ftge)+03h
  1093  0417  3040               	movlw	0x40
  1094  0418  00A5               	movwf	2+(?___ftge)+03h
  1095  0419  120A  158A  2572   	fcall	___ftge
              120A  118A         
  1096  041E  1C03               	btfss	status,0
  1097  041F  2C21               	goto	u3411
  1098  0420  2C22               	goto	u3410
  1099  0421                     u3411:
  1100  0421  2C8E               	goto	l6369
  1101  0422                     u3410:
  1102                           	
  1103  0422                     l6365:	
  1104  0422  1283               	bcf	status, 5	;RP0=0, select bank0
  1105  0423  1303               	bcf	status, 6	;RP1=0, select bank0
  1106  0424  0854               	movf	(infrared@total),w
  1107  0425  00A0               	movwf	(?___ftge)
  1108  0426  0855               	movf	(infrared@total+1),w
  1109  0427  00A1               	movwf	(?___ftge+1)
  1110  0428  0856               	movf	(infrared@total+2),w
  1111  0429  00A2               	movwf	(?___ftge+2)
  1112  042A  3000               	movlw	0x0
  1113  042B  00A3               	movwf	0+(?___ftge)+03h
  1114  042C  3040               	movlw	0x40
  1115  042D  00A4               	movwf	1+(?___ftge)+03h
  1116  042E  3040               	movlw	0x40
  1117  042F  00A5               	movwf	2+(?___ftge)+03h
  1118  0430  120A  158A  2572   	fcall	___ftge
              120A  118A         
  1119  0435  1803               	btfsc	status,0
  1120  0436  2C38               	goto	u3421
  1121  0437  2C39               	goto	u3420
  1122  0438                     u3421:
  1123  0438  2C8E               	goto	l6369
  1124  0439                     u3420:
  1125                           	line	69
  1126                           	
  1127  0439                     l6367:	
  1128                           ;Main.c: 68: {
  1129                           ;Main.c: 69: total = 20 - 20*(total - 2.5);
  1130  0439  1283               	bcf	status, 5	;RP0=0, select bank0
  1131  043A  1303               	bcf	status, 6	;RP1=0, select bank0
  1132  043B  0854               	movf	(infrared@total),w
  1133  043C  00B2               	movwf	0+(?___ftadd)+03h
  1134  043D  0855               	movf	(infrared@total+1),w
  1135  043E  00B3               	movwf	1+(?___ftadd)+03h
  1136  043F  0856               	movf	(infrared@total+2),w
  1137  0440  00B4               	movwf	2+(?___ftadd)+03h
  1138  0441  3000               	movlw	0x0
  1139  0442  00AF               	movwf	(?___ftadd)
  1140  0443  3020               	movlw	0x20
  1141  0444  00B0               	movwf	(?___ftadd+1)
  1142  0445  30C0               	movlw	0xc0
  1143  0446  00B1               	movwf	(?___ftadd+2)
  1144  0447  120A  118A  2237   	fcall	___ftadd
              120A  118A         
  1145  044C  1283               	bcf	status, 5	;RP0=0, select bank0
  1146  044D  1303               	bcf	status, 6	;RP1=0, select bank0
  1147  044E  082F               	movf	(0+(?___ftadd)),w
  1148  044F  00BF               	movwf	0+(?___ftmul)+03h
  1149  0450  0830               	movf	(1+(?___ftadd)),w
  1150  0451  00C0               	movwf	1+(?___ftmul)+03h
  1151  0452  0831               	movf	(2+(?___ftadd)),w
  1152  0453  00C1               	movwf	2+(?___ftmul)+03h
  1153  0454  3000               	movlw	0x0
  1154  0455  00BC               	movwf	(?___ftmul)
  1155  0456  30A0               	movlw	0xa0
  1156  0457  00BD               	movwf	(?___ftmul+1)
  1157  0458  3041               	movlw	0x41
  1158  0459  00BE               	movwf	(?___ftmul+2)
  1159  045A  120A  118A  2149   	fcall	___ftmul
              120A  118A         
  1160  045F  1283               	bcf	status, 5	;RP0=0, select bank0
  1161  0460  1303               	bcf	status, 6	;RP1=0, select bank0
  1162  0461  083C               	movf	(0+(?___ftmul)),w
  1163  0462  00A8               	movwf	(?___ftneg)
  1164  0463  083D               	movf	(1+(?___ftmul)),w
  1165  0464  00A9               	movwf	(?___ftneg+1)
  1166  0465  083E               	movf	(2+(?___ftmul)),w
  1167  0466  00AA               	movwf	(?___ftneg+2)
  1168  0467  120A  158A  2427   	fcall	___ftneg
              120A  118A         
  1169  046C  1283               	bcf	status, 5	;RP0=0, select bank0
  1170  046D  1303               	bcf	status, 6	;RP1=0, select bank0
  1171  046E  0828               	movf	(0+(?___ftneg)),w
  1172  046F  00D1               	movwf	(_infrared$4525)
  1173  0470  0829               	movf	(1+(?___ftneg)),w
  1174  0471  00D2               	movwf	(_infrared$4525+1)
  1175  0472  082A               	movf	(2+(?___ftneg)),w
  1176  0473  00D3               	movwf	(_infrared$4525+2)
  1177                           ;Main.c: 68: {
  1178                           ;Main.c: 69: total = 20 - 20*(total - 2.5);
  1179  0474  3000               	movlw	0x0
  1180  0475  00AF               	movwf	(?___ftadd)
  1181  0476  30A0               	movlw	0xa0
  1182  0477  00B0               	movwf	(?___ftadd+1)
  1183  0478  3041               	movlw	0x41
  1184  0479  00B1               	movwf	(?___ftadd+2)
  1185  047A  0851               	movf	(_infrared$4525),w
  1186  047B  00B2               	movwf	0+(?___ftadd)+03h
  1187  047C  0852               	movf	(_infrared$4525+1),w
  1188  047D  00B3               	movwf	1+(?___ftadd)+03h
  1189  047E  0853               	movf	(_infrared$4525+2),w
  1190  047F  00B4               	movwf	2+(?___ftadd)+03h
  1191  0480  120A  118A  2237   	fcall	___ftadd
              120A  118A         
  1192  0485  1283               	bcf	status, 5	;RP0=0, select bank0
  1193  0486  1303               	bcf	status, 6	;RP1=0, select bank0
  1194  0487  082F               	movf	(0+(?___ftadd)),w
  1195  0488  00D4               	movwf	(infrared@total)
  1196  0489  0830               	movf	(1+(?___ftadd)),w
  1197  048A  00D5               	movwf	(infrared@total+1)
  1198  048B  0831               	movf	(2+(?___ftadd)),w
  1199  048C  00D6               	movwf	(infrared@total+2)
  1200                           	line	70
  1201                           ;Main.c: 70: }
  1202  048D  2FA6               	goto	l6405
  1203                           	line	71
  1204                           	
  1205  048E                     l1407:	
  1206                           	
  1207  048E                     l6369:	
  1208                           ;Main.c: 71: else if (total >= 2 && total < 2.5)
  1209  048E  1283               	bcf	status, 5	;RP0=0, select bank0
  1210  048F  1303               	bcf	status, 6	;RP1=0, select bank0
  1211  0490  0854               	movf	(infrared@total),w
  1212  0491  00A0               	movwf	(?___ftge)
  1213  0492  0855               	movf	(infrared@total+1),w
  1214  0493  00A1               	movwf	(?___ftge+1)
  1215  0494  0856               	movf	(infrared@total+2),w
  1216  0495  00A2               	movwf	(?___ftge+2)
  1217  0496  3000               	movlw	0x0
  1218  0497  00A3               	movwf	0+(?___ftge)+03h
  1219  0498  3000               	movlw	0x0
  1220  0499  00A4               	movwf	1+(?___ftge)+03h
  1221  049A  3040               	movlw	0x40
  1222  049B  00A5               	movwf	2+(?___ftge)+03h
  1223  049C  120A  158A  2572   	fcall	___ftge
              120A  118A         
  1224  04A1  1C03               	btfss	status,0
  1225  04A2  2CA4               	goto	u3431
  1226  04A3  2CA5               	goto	u3430
  1227  04A4                     u3431:
  1228  04A4  2D11               	goto	l6375
  1229  04A5                     u3430:
  1230                           	
  1231  04A5                     l6371:	
  1232  04A5  1283               	bcf	status, 5	;RP0=0, select bank0
  1233  04A6  1303               	bcf	status, 6	;RP1=0, select bank0
  1234  04A7  0854               	movf	(infrared@total),w
  1235  04A8  00A0               	movwf	(?___ftge)
  1236  04A9  0855               	movf	(infrared@total+1),w
  1237  04AA  00A1               	movwf	(?___ftge+1)
  1238  04AB  0856               	movf	(infrared@total+2),w
  1239  04AC  00A2               	movwf	(?___ftge+2)
  1240  04AD  3000               	movlw	0x0
  1241  04AE  00A3               	movwf	0+(?___ftge)+03h
  1242  04AF  3020               	movlw	0x20
  1243  04B0  00A4               	movwf	1+(?___ftge)+03h
  1244  04B1  3040               	movlw	0x40
  1245  04B2  00A5               	movwf	2+(?___ftge)+03h
  1246  04B3  120A  158A  2572   	fcall	___ftge
              120A  118A         
  1247  04B8  1803               	btfsc	status,0
  1248  04B9  2CBB               	goto	u3441
  1249  04BA  2CBC               	goto	u3440
  1250  04BB                     u3441:
  1251  04BB  2D11               	goto	l6375
  1252  04BC                     u3440:
  1253                           	line	73
  1254                           	
  1255  04BC                     l6373:	
  1256                           ;Main.c: 72: {
  1257                           ;Main.c: 73: total = 30 - 20*(total - 2);
  1258  04BC  1283               	bcf	status, 5	;RP0=0, select bank0
  1259  04BD  1303               	bcf	status, 6	;RP1=0, select bank0
  1260  04BE  0854               	movf	(infrared@total),w
  1261  04BF  00B2               	movwf	0+(?___ftadd)+03h
  1262  04C0  0855               	movf	(infrared@total+1),w
  1263  04C1  00B3               	movwf	1+(?___ftadd)+03h
  1264  04C2  0856               	movf	(infrared@total+2),w
  1265  04C3  00B4               	movwf	2+(?___ftadd)+03h
  1266  04C4  3000               	movlw	0x0
  1267  04C5  00AF               	movwf	(?___ftadd)
  1268  04C6  3000               	movlw	0x0
  1269  04C7  00B0               	movwf	(?___ftadd+1)
  1270  04C8  30C0               	movlw	0xc0
  1271  04C9  00B1               	movwf	(?___ftadd+2)
  1272  04CA  120A  118A  2237   	fcall	___ftadd
              120A  118A         
  1273  04CF  1283               	bcf	status, 5	;RP0=0, select bank0
  1274  04D0  1303               	bcf	status, 6	;RP1=0, select bank0
  1275  04D1  082F               	movf	(0+(?___ftadd)),w
  1276  04D2  00BF               	movwf	0+(?___ftmul)+03h
  1277  04D3  0830               	movf	(1+(?___ftadd)),w
  1278  04D4  00C0               	movwf	1+(?___ftmul)+03h
  1279  04D5  0831               	movf	(2+(?___ftadd)),w
  1280  04D6  00C1               	movwf	2+(?___ftmul)+03h
  1281  04D7  3000               	movlw	0x0
  1282  04D8  00BC               	movwf	(?___ftmul)
  1283  04D9  30A0               	movlw	0xa0
  1284  04DA  00BD               	movwf	(?___ftmul+1)
  1285  04DB  3041               	movlw	0x41
  1286  04DC  00BE               	movwf	(?___ftmul+2)
  1287  04DD  120A  118A  2149   	fcall	___ftmul
              120A  118A         
  1288  04E2  1283               	bcf	status, 5	;RP0=0, select bank0
  1289  04E3  1303               	bcf	status, 6	;RP1=0, select bank0
  1290  04E4  083C               	movf	(0+(?___ftmul)),w
  1291  04E5  00A8               	movwf	(?___ftneg)
  1292  04E6  083D               	movf	(1+(?___ftmul)),w
  1293  04E7  00A9               	movwf	(?___ftneg+1)
  1294  04E8  083E               	movf	(2+(?___ftmul)),w
  1295  04E9  00AA               	movwf	(?___ftneg+2)
  1296  04EA  120A  158A  2427   	fcall	___ftneg
              120A  118A         
  1297  04EF  1283               	bcf	status, 5	;RP0=0, select bank0
  1298  04F0  1303               	bcf	status, 6	;RP1=0, select bank0
  1299  04F1  0828               	movf	(0+(?___ftneg)),w
  1300  04F2  00D1               	movwf	(_infrared$4525)
  1301  04F3  0829               	movf	(1+(?___ftneg)),w
  1302  04F4  00D2               	movwf	(_infrared$4525+1)
  1303  04F5  082A               	movf	(2+(?___ftneg)),w
  1304  04F6  00D3               	movwf	(_infrared$4525+2)
  1305                           ;Main.c: 72: {
  1306                           ;Main.c: 73: total = 30 - 20*(total - 2);
  1307  04F7  3000               	movlw	0x0
  1308  04F8  00AF               	movwf	(?___ftadd)
  1309  04F9  30F0               	movlw	0xf0
  1310  04FA  00B0               	movwf	(?___ftadd+1)
  1311  04FB  3041               	movlw	0x41
  1312  04FC  00B1               	movwf	(?___ftadd+2)
  1313  04FD  0851               	movf	(_infrared$4525),w
  1314  04FE  00B2               	movwf	0+(?___ftadd)+03h
  1315  04FF  0852               	movf	(_infrared$4525+1),w
  1316  0500  00B3               	movwf	1+(?___ftadd)+03h
  1317  0501  0853               	movf	(_infrared$4525+2),w
  1318  0502  00B4               	movwf	2+(?___ftadd)+03h
  1319  0503  120A  118A  2237   	fcall	___ftadd
              120A  118A         
  1320  0508  1283               	bcf	status, 5	;RP0=0, select bank0
  1321  0509  1303               	bcf	status, 6	;RP1=0, select bank0
  1322  050A  082F               	movf	(0+(?___ftadd)),w
  1323  050B  00D4               	movwf	(infrared@total)
  1324  050C  0830               	movf	(1+(?___ftadd)),w
  1325  050D  00D5               	movwf	(infrared@total+1)
  1326  050E  0831               	movf	(2+(?___ftadd)),w
  1327  050F  00D6               	movwf	(infrared@total+2)
  1328                           	line	74
  1329                           ;Main.c: 74: }
  1330  0510  2FA6               	goto	l6405
  1331                           	line	75
  1332                           	
  1333  0511                     l1409:	
  1334                           	
  1335  0511                     l6375:	
  1336                           ;Main.c: 75: else if (total >= 1.5 && total < 2)
  1337  0511  1283               	bcf	status, 5	;RP0=0, select bank0
  1338  0512  1303               	bcf	status, 6	;RP1=0, select bank0
  1339  0513  0854               	movf	(infrared@total),w
  1340  0514  00A0               	movwf	(?___ftge)
  1341  0515  0855               	movf	(infrared@total+1),w
  1342  0516  00A1               	movwf	(?___ftge+1)
  1343  0517  0856               	movf	(infrared@total+2),w
  1344  0518  00A2               	movwf	(?___ftge+2)
  1345  0519  3000               	movlw	0x0
  1346  051A  00A3               	movwf	0+(?___ftge)+03h
  1347  051B  30C0               	movlw	0xc0
  1348  051C  00A4               	movwf	1+(?___ftge)+03h
  1349  051D  303F               	movlw	0x3f
  1350  051E  00A5               	movwf	2+(?___ftge)+03h
  1351  051F  120A  158A  2572   	fcall	___ftge
              120A  118A         
  1352  0524  1C03               	btfss	status,0
  1353  0525  2D27               	goto	u3451
  1354  0526  2D28               	goto	u3450
  1355  0527                     u3451:
  1356  0527  2D94               	goto	l6381
  1357  0528                     u3450:
  1358                           	
  1359  0528                     l6377:	
  1360  0528  1283               	bcf	status, 5	;RP0=0, select bank0
  1361  0529  1303               	bcf	status, 6	;RP1=0, select bank0
  1362  052A  0854               	movf	(infrared@total),w
  1363  052B  00A0               	movwf	(?___ftge)
  1364  052C  0855               	movf	(infrared@total+1),w
  1365  052D  00A1               	movwf	(?___ftge+1)
  1366  052E  0856               	movf	(infrared@total+2),w
  1367  052F  00A2               	movwf	(?___ftge+2)
  1368  0530  3000               	movlw	0x0
  1369  0531  00A3               	movwf	0+(?___ftge)+03h
  1370  0532  3000               	movlw	0x0
  1371  0533  00A4               	movwf	1+(?___ftge)+03h
  1372  0534  3040               	movlw	0x40
  1373  0535  00A5               	movwf	2+(?___ftge)+03h
  1374  0536  120A  158A  2572   	fcall	___ftge
              120A  118A         
  1375  053B  1803               	btfsc	status,0
  1376  053C  2D3E               	goto	u3461
  1377  053D  2D3F               	goto	u3460
  1378  053E                     u3461:
  1379  053E  2D94               	goto	l6381
  1380  053F                     u3460:
  1381                           	line	77
  1382                           	
  1383  053F                     l6379:	
  1384                           ;Main.c: 76: {
  1385                           ;Main.c: 77: total = 40 - 20*(total - 1.5);
  1386  053F  1283               	bcf	status, 5	;RP0=0, select bank0
  1387  0540  1303               	bcf	status, 6	;RP1=0, select bank0
  1388  0541  0854               	movf	(infrared@total),w
  1389  0542  00B2               	movwf	0+(?___ftadd)+03h
  1390  0543  0855               	movf	(infrared@total+1),w
  1391  0544  00B3               	movwf	1+(?___ftadd)+03h
  1392  0545  0856               	movf	(infrared@total+2),w
  1393  0546  00B4               	movwf	2+(?___ftadd)+03h
  1394  0547  3000               	movlw	0x0
  1395  0548  00AF               	movwf	(?___ftadd)
  1396  0549  30C0               	movlw	0xc0
  1397  054A  00B0               	movwf	(?___ftadd+1)
  1398  054B  30BF               	movlw	0xbf
  1399  054C  00B1               	movwf	(?___ftadd+2)
  1400  054D  120A  118A  2237   	fcall	___ftadd
              120A  118A         
  1401  0552  1283               	bcf	status, 5	;RP0=0, select bank0
  1402  0553  1303               	bcf	status, 6	;RP1=0, select bank0
  1403  0554  082F               	movf	(0+(?___ftadd)),w
  1404  0555  00BF               	movwf	0+(?___ftmul)+03h
  1405  0556  0830               	movf	(1+(?___ftadd)),w
  1406  0557  00C0               	movwf	1+(?___ftmul)+03h
  1407  0558  0831               	movf	(2+(?___ftadd)),w
  1408  0559  00C1               	movwf	2+(?___ftmul)+03h
  1409  055A  3000               	movlw	0x0
  1410  055B  00BC               	movwf	(?___ftmul)
  1411  055C  30A0               	movlw	0xa0
  1412  055D  00BD               	movwf	(?___ftmul+1)
  1413  055E  3041               	movlw	0x41
  1414  055F  00BE               	movwf	(?___ftmul+2)
  1415  0560  120A  118A  2149   	fcall	___ftmul
              120A  118A         
  1416  0565  1283               	bcf	status, 5	;RP0=0, select bank0
  1417  0566  1303               	bcf	status, 6	;RP1=0, select bank0
  1418  0567  083C               	movf	(0+(?___ftmul)),w
  1419  0568  00A8               	movwf	(?___ftneg)
  1420  0569  083D               	movf	(1+(?___ftmul)),w
  1421  056A  00A9               	movwf	(?___ftneg+1)
  1422  056B  083E               	movf	(2+(?___ftmul)),w
  1423  056C  00AA               	movwf	(?___ftneg+2)
  1424  056D  120A  158A  2427   	fcall	___ftneg
              120A  118A         
  1425  0572  1283               	bcf	status, 5	;RP0=0, select bank0
  1426  0573  1303               	bcf	status, 6	;RP1=0, select bank0
  1427  0574  0828               	movf	(0+(?___ftneg)),w
  1428  0575  00D1               	movwf	(_infrared$4525)
  1429  0576  0829               	movf	(1+(?___ftneg)),w
  1430  0577  00D2               	movwf	(_infrared$4525+1)
  1431  0578  082A               	movf	(2+(?___ftneg)),w
  1432  0579  00D3               	movwf	(_infrared$4525+2)
  1433                           ;Main.c: 76: {
  1434                           ;Main.c: 77: total = 40 - 20*(total - 1.5);
  1435  057A  3000               	movlw	0x0
  1436  057B  00AF               	movwf	(?___ftadd)
  1437  057C  3020               	movlw	0x20
  1438  057D  00B0               	movwf	(?___ftadd+1)
  1439  057E  3042               	movlw	0x42
  1440  057F  00B1               	movwf	(?___ftadd+2)
  1441  0580  0851               	movf	(_infrared$4525),w
  1442  0581  00B2               	movwf	0+(?___ftadd)+03h
  1443  0582  0852               	movf	(_infrared$4525+1),w
  1444  0583  00B3               	movwf	1+(?___ftadd)+03h
  1445  0584  0853               	movf	(_infrared$4525+2),w
  1446  0585  00B4               	movwf	2+(?___ftadd)+03h
  1447  0586  120A  118A  2237   	fcall	___ftadd
              120A  118A         
  1448  058B  1283               	bcf	status, 5	;RP0=0, select bank0
  1449  058C  1303               	bcf	status, 6	;RP1=0, select bank0
  1450  058D  082F               	movf	(0+(?___ftadd)),w
  1451  058E  00D4               	movwf	(infrared@total)
  1452  058F  0830               	movf	(1+(?___ftadd)),w
  1453  0590  00D5               	movwf	(infrared@total+1)
  1454  0591  0831               	movf	(2+(?___ftadd)),w
  1455  0592  00D6               	movwf	(infrared@total+2)
  1456                           	line	78
  1457                           ;Main.c: 78: }
  1458  0593  2FA6               	goto	l6405
  1459                           	line	79
  1460                           	
  1461  0594                     l1411:	
  1462                           	
  1463  0594                     l6381:	
  1464                           ;Main.c: 79: else if (total >= 1.25 && total < 1.5)
  1465  0594  1283               	bcf	status, 5	;RP0=0, select bank0
  1466  0595  1303               	bcf	status, 6	;RP1=0, select bank0
  1467  0596  0854               	movf	(infrared@total),w
  1468  0597  00A0               	movwf	(?___ftge)
  1469  0598  0855               	movf	(infrared@total+1),w
  1470  0599  00A1               	movwf	(?___ftge+1)
  1471  059A  0856               	movf	(infrared@total+2),w
  1472  059B  00A2               	movwf	(?___ftge+2)
  1473  059C  3000               	movlw	0x0
  1474  059D  00A3               	movwf	0+(?___ftge)+03h
  1475  059E  30A0               	movlw	0xa0
  1476  059F  00A4               	movwf	1+(?___ftge)+03h
  1477  05A0  303F               	movlw	0x3f
  1478  05A1  00A5               	movwf	2+(?___ftge)+03h
  1479  05A2  120A  158A  2572   	fcall	___ftge
              120A  118A         
  1480  05A7  1C03               	btfss	status,0
  1481  05A8  2DAA               	goto	u3471
  1482  05A9  2DAB               	goto	u3470
  1483  05AA                     u3471:
  1484  05AA  2E17               	goto	l6387
  1485  05AB                     u3470:
  1486                           	
  1487  05AB                     l6383:	
  1488  05AB  1283               	bcf	status, 5	;RP0=0, select bank0
  1489  05AC  1303               	bcf	status, 6	;RP1=0, select bank0
  1490  05AD  0854               	movf	(infrared@total),w
  1491  05AE  00A0               	movwf	(?___ftge)
  1492  05AF  0855               	movf	(infrared@total+1),w
  1493  05B0  00A1               	movwf	(?___ftge+1)
  1494  05B1  0856               	movf	(infrared@total+2),w
  1495  05B2  00A2               	movwf	(?___ftge+2)
  1496  05B3  3000               	movlw	0x0
  1497  05B4  00A3               	movwf	0+(?___ftge)+03h
  1498  05B5  30C0               	movlw	0xc0
  1499  05B6  00A4               	movwf	1+(?___ftge)+03h
  1500  05B7  303F               	movlw	0x3f
  1501  05B8  00A5               	movwf	2+(?___ftge)+03h
  1502  05B9  120A  158A  2572   	fcall	___ftge
              120A  118A         
  1503  05BE  1803               	btfsc	status,0
  1504  05BF  2DC1               	goto	u3481
  1505  05C0  2DC2               	goto	u3480
  1506  05C1                     u3481:
  1507  05C1  2E17               	goto	l6387
  1508  05C2                     u3480:
  1509                           	line	81
  1510                           	
  1511  05C2                     l6385:	
  1512                           ;Main.c: 80: {
  1513                           ;Main.c: 81: total = 50 - 40*(total - 1.25);
  1514  05C2  1283               	bcf	status, 5	;RP0=0, select bank0
  1515  05C3  1303               	bcf	status, 6	;RP1=0, select bank0
  1516  05C4  0854               	movf	(infrared@total),w
  1517  05C5  00B2               	movwf	0+(?___ftadd)+03h
  1518  05C6  0855               	movf	(infrared@total+1),w
  1519  05C7  00B3               	movwf	1+(?___ftadd)+03h
  1520  05C8  0856               	movf	(infrared@total+2),w
  1521  05C9  00B4               	movwf	2+(?___ftadd)+03h
  1522  05CA  3000               	movlw	0x0
  1523  05CB  00AF               	movwf	(?___ftadd)
  1524  05CC  30A0               	movlw	0xa0
  1525  05CD  00B0               	movwf	(?___ftadd+1)
  1526  05CE  30BF               	movlw	0xbf
  1527  05CF  00B1               	movwf	(?___ftadd+2)
  1528  05D0  120A  118A  2237   	fcall	___ftadd
              120A  118A         
  1529  05D5  1283               	bcf	status, 5	;RP0=0, select bank0
  1530  05D6  1303               	bcf	status, 6	;RP1=0, select bank0
  1531  05D7  082F               	movf	(0+(?___ftadd)),w
  1532  05D8  00BF               	movwf	0+(?___ftmul)+03h
  1533  05D9  0830               	movf	(1+(?___ftadd)),w
  1534  05DA  00C0               	movwf	1+(?___ftmul)+03h
  1535  05DB  0831               	movf	(2+(?___ftadd)),w
  1536  05DC  00C1               	movwf	2+(?___ftmul)+03h
  1537  05DD  3000               	movlw	0x0
  1538  05DE  00BC               	movwf	(?___ftmul)
  1539  05DF  3020               	movlw	0x20
  1540  05E0  00BD               	movwf	(?___ftmul+1)
  1541  05E1  3042               	movlw	0x42
  1542  05E2  00BE               	movwf	(?___ftmul+2)
  1543  05E3  120A  118A  2149   	fcall	___ftmul
              120A  118A         
  1544  05E8  1283               	bcf	status, 5	;RP0=0, select bank0
  1545  05E9  1303               	bcf	status, 6	;RP1=0, select bank0
  1546  05EA  083C               	movf	(0+(?___ftmul)),w
  1547  05EB  00A8               	movwf	(?___ftneg)
  1548  05EC  083D               	movf	(1+(?___ftmul)),w
  1549  05ED  00A9               	movwf	(?___ftneg+1)
  1550  05EE  083E               	movf	(2+(?___ftmul)),w
  1551  05EF  00AA               	movwf	(?___ftneg+2)
  1552  05F0  120A  158A  2427   	fcall	___ftneg
              120A  118A         
  1553  05F5  1283               	bcf	status, 5	;RP0=0, select bank0
  1554  05F6  1303               	bcf	status, 6	;RP1=0, select bank0
  1555  05F7  0828               	movf	(0+(?___ftneg)),w
  1556  05F8  00D1               	movwf	(_infrared$4525)
  1557  05F9  0829               	movf	(1+(?___ftneg)),w
  1558  05FA  00D2               	movwf	(_infrared$4525+1)
  1559  05FB  082A               	movf	(2+(?___ftneg)),w
  1560  05FC  00D3               	movwf	(_infrared$4525+2)
  1561                           ;Main.c: 80: {
  1562                           ;Main.c: 81: total = 50 - 40*(total - 1.25);
  1563  05FD  3000               	movlw	0x0
  1564  05FE  00AF               	movwf	(?___ftadd)
  1565  05FF  3048               	movlw	0x48
  1566  0600  00B0               	movwf	(?___ftadd+1)
  1567  0601  3042               	movlw	0x42
  1568  0602  00B1               	movwf	(?___ftadd+2)
  1569  0603  0851               	movf	(_infrared$4525),w
  1570  0604  00B2               	movwf	0+(?___ftadd)+03h
  1571  0605  0852               	movf	(_infrared$4525+1),w
  1572  0606  00B3               	movwf	1+(?___ftadd)+03h
  1573  0607  0853               	movf	(_infrared$4525+2),w
  1574  0608  00B4               	movwf	2+(?___ftadd)+03h
  1575  0609  120A  118A  2237   	fcall	___ftadd
              120A  118A         
  1576  060E  1283               	bcf	status, 5	;RP0=0, select bank0
  1577  060F  1303               	bcf	status, 6	;RP1=0, select bank0
  1578  0610  082F               	movf	(0+(?___ftadd)),w
  1579  0611  00D4               	movwf	(infrared@total)
  1580  0612  0830               	movf	(1+(?___ftadd)),w
  1581  0613  00D5               	movwf	(infrared@total+1)
  1582  0614  0831               	movf	(2+(?___ftadd)),w
  1583  0615  00D6               	movwf	(infrared@total+2)
  1584                           	line	82
  1585                           ;Main.c: 82: }
  1586  0616  2FA6               	goto	l6405
  1587                           	line	83
  1588                           	
  1589  0617                     l1413:	
  1590                           	
  1591  0617                     l6387:	
  1592                           ;Main.c: 83: else if (total >= 0.9 && total < 1.25)
  1593  0617  1283               	bcf	status, 5	;RP0=0, select bank0
  1594  0618  1303               	bcf	status, 6	;RP1=0, select bank0
  1595  0619  0854               	movf	(infrared@total),w
  1596  061A  00A0               	movwf	(?___ftge)
  1597  061B  0855               	movf	(infrared@total+1),w
  1598  061C  00A1               	movwf	(?___ftge+1)
  1599  061D  0856               	movf	(infrared@total+2),w
  1600  061E  00A2               	movwf	(?___ftge+2)
  1601  061F  3066               	movlw	0x66
  1602  0620  00A3               	movwf	0+(?___ftge)+03h
  1603  0621  3066               	movlw	0x66
  1604  0622  00A4               	movwf	1+(?___ftge)+03h
  1605  0623  303F               	movlw	0x3f
  1606  0624  00A5               	movwf	2+(?___ftge)+03h
  1607  0625  120A  158A  2572   	fcall	___ftge
              120A  118A         
  1608  062A  1C03               	btfss	status,0
  1609  062B  2E2D               	goto	u3491
  1610  062C  2E2E               	goto	u3490
  1611  062D                     u3491:
  1612  062D  2E9A               	goto	l6393
  1613  062E                     u3490:
  1614                           	
  1615  062E                     l6389:	
  1616  062E  1283               	bcf	status, 5	;RP0=0, select bank0
  1617  062F  1303               	bcf	status, 6	;RP1=0, select bank0
  1618  0630  0854               	movf	(infrared@total),w
  1619  0631  00A0               	movwf	(?___ftge)
  1620  0632  0855               	movf	(infrared@total+1),w
  1621  0633  00A1               	movwf	(?___ftge+1)
  1622  0634  0856               	movf	(infrared@total+2),w
  1623  0635  00A2               	movwf	(?___ftge+2)
  1624  0636  3000               	movlw	0x0
  1625  0637  00A3               	movwf	0+(?___ftge)+03h
  1626  0638  30A0               	movlw	0xa0
  1627  0639  00A4               	movwf	1+(?___ftge)+03h
  1628  063A  303F               	movlw	0x3f
  1629  063B  00A5               	movwf	2+(?___ftge)+03h
  1630  063C  120A  158A  2572   	fcall	___ftge
              120A  118A         
  1631  0641  1803               	btfsc	status,0
  1632  0642  2E44               	goto	u3501
  1633  0643  2E45               	goto	u3500
  1634  0644                     u3501:
  1635  0644  2E9A               	goto	l6393
  1636  0645                     u3500:
  1637                           	line	85
  1638                           	
  1639  0645                     l6391:	
  1640                           ;Main.c: 84: {
  1641                           ;Main.c: 85: total = 70 - 40*(total - 0.9);
  1642  0645  1283               	bcf	status, 5	;RP0=0, select bank0
  1643  0646  1303               	bcf	status, 6	;RP1=0, select bank0
  1644  0647  0854               	movf	(infrared@total),w
  1645  0648  00B2               	movwf	0+(?___ftadd)+03h
  1646  0649  0855               	movf	(infrared@total+1),w
  1647  064A  00B3               	movwf	1+(?___ftadd)+03h
  1648  064B  0856               	movf	(infrared@total+2),w
  1649  064C  00B4               	movwf	2+(?___ftadd)+03h
  1650  064D  3066               	movlw	0x66
  1651  064E  00AF               	movwf	(?___ftadd)
  1652  064F  3066               	movlw	0x66
  1653  0650  00B0               	movwf	(?___ftadd+1)
  1654  0651  30BF               	movlw	0xbf
  1655  0652  00B1               	movwf	(?___ftadd+2)
  1656  0653  120A  118A  2237   	fcall	___ftadd
              120A  118A         
  1657  0658  1283               	bcf	status, 5	;RP0=0, select bank0
  1658  0659  1303               	bcf	status, 6	;RP1=0, select bank0
  1659  065A  082F               	movf	(0+(?___ftadd)),w
  1660  065B  00BF               	movwf	0+(?___ftmul)+03h
  1661  065C  0830               	movf	(1+(?___ftadd)),w
  1662  065D  00C0               	movwf	1+(?___ftmul)+03h
  1663  065E  0831               	movf	(2+(?___ftadd)),w
  1664  065F  00C1               	movwf	2+(?___ftmul)+03h
  1665  0660  3000               	movlw	0x0
  1666  0661  00BC               	movwf	(?___ftmul)
  1667  0662  3020               	movlw	0x20
  1668  0663  00BD               	movwf	(?___ftmul+1)
  1669  0664  3042               	movlw	0x42
  1670  0665  00BE               	movwf	(?___ftmul+2)
  1671  0666  120A  118A  2149   	fcall	___ftmul
              120A  118A         
  1672  066B  1283               	bcf	status, 5	;RP0=0, select bank0
  1673  066C  1303               	bcf	status, 6	;RP1=0, select bank0
  1674  066D  083C               	movf	(0+(?___ftmul)),w
  1675  066E  00A8               	movwf	(?___ftneg)
  1676  066F  083D               	movf	(1+(?___ftmul)),w
  1677  0670  00A9               	movwf	(?___ftneg+1)
  1678  0671  083E               	movf	(2+(?___ftmul)),w
  1679  0672  00AA               	movwf	(?___ftneg+2)
  1680  0673  120A  158A  2427   	fcall	___ftneg
              120A  118A         
  1681  0678  1283               	bcf	status, 5	;RP0=0, select bank0
  1682  0679  1303               	bcf	status, 6	;RP1=0, select bank0
  1683  067A  0828               	movf	(0+(?___ftneg)),w
  1684  067B  00D1               	movwf	(_infrared$4525)
  1685  067C  0829               	movf	(1+(?___ftneg)),w
  1686  067D  00D2               	movwf	(_infrared$4525+1)
  1687  067E  082A               	movf	(2+(?___ftneg)),w
  1688  067F  00D3               	movwf	(_infrared$4525+2)
  1689                           ;Main.c: 84: {
  1690                           ;Main.c: 85: total = 70 - 40*(total - 0.9);
  1691  0680  3000               	movlw	0x0
  1692  0681  00AF               	movwf	(?___ftadd)
  1693  0682  308C               	movlw	0x8c
  1694  0683  00B0               	movwf	(?___ftadd+1)
  1695  0684  3042               	movlw	0x42
  1696  0685  00B1               	movwf	(?___ftadd+2)
  1697  0686  0851               	movf	(_infrared$4525),w
  1698  0687  00B2               	movwf	0+(?___ftadd)+03h
  1699  0688  0852               	movf	(_infrared$4525+1),w
  1700  0689  00B3               	movwf	1+(?___ftadd)+03h
  1701  068A  0853               	movf	(_infrared$4525+2),w
  1702  068B  00B4               	movwf	2+(?___ftadd)+03h
  1703  068C  120A  118A  2237   	fcall	___ftadd
              120A  118A         
  1704  0691  1283               	bcf	status, 5	;RP0=0, select bank0
  1705  0692  1303               	bcf	status, 6	;RP1=0, select bank0
  1706  0693  082F               	movf	(0+(?___ftadd)),w
  1707  0694  00D4               	movwf	(infrared@total)
  1708  0695  0830               	movf	(1+(?___ftadd)),w
  1709  0696  00D5               	movwf	(infrared@total+1)
  1710  0697  0831               	movf	(2+(?___ftadd)),w
  1711  0698  00D6               	movwf	(infrared@total+2)
  1712                           	line	86
  1713                           ;Main.c: 86: }
  1714  0699  2FA6               	goto	l6405
  1715                           	line	87
  1716                           	
  1717  069A                     l1415:	
  1718                           	
  1719  069A                     l6393:	
  1720                           ;Main.c: 87: else if (total >= 0.65 && total < 0.9)
  1721  069A  1283               	bcf	status, 5	;RP0=0, select bank0
  1722  069B  1303               	bcf	status, 6	;RP1=0, select bank0
  1723  069C  0854               	movf	(infrared@total),w
  1724  069D  00A0               	movwf	(?___ftge)
  1725  069E  0855               	movf	(infrared@total+1),w
  1726  069F  00A1               	movwf	(?___ftge+1)
  1727  06A0  0856               	movf	(infrared@total+2),w
  1728  06A1  00A2               	movwf	(?___ftge+2)
  1729  06A2  3066               	movlw	0x66
  1730  06A3  00A3               	movwf	0+(?___ftge)+03h
  1731  06A4  3026               	movlw	0x26
  1732  06A5  00A4               	movwf	1+(?___ftge)+03h
  1733  06A6  303F               	movlw	0x3f
  1734  06A7  00A5               	movwf	2+(?___ftge)+03h
  1735  06A8  120A  158A  2572   	fcall	___ftge
              120A  118A         
  1736  06AD  1C03               	btfss	status,0
  1737  06AE  2EB0               	goto	u3511
  1738  06AF  2EB1               	goto	u3510
  1739  06B0                     u3511:
  1740  06B0  2F1D               	goto	l6399
  1741  06B1                     u3510:
  1742                           	
  1743  06B1                     l6395:	
  1744  06B1  1283               	bcf	status, 5	;RP0=0, select bank0
  1745  06B2  1303               	bcf	status, 6	;RP1=0, select bank0
  1746  06B3  0854               	movf	(infrared@total),w
  1747  06B4  00A0               	movwf	(?___ftge)
  1748  06B5  0855               	movf	(infrared@total+1),w
  1749  06B6  00A1               	movwf	(?___ftge+1)
  1750  06B7  0856               	movf	(infrared@total+2),w
  1751  06B8  00A2               	movwf	(?___ftge+2)
  1752  06B9  3066               	movlw	0x66
  1753  06BA  00A3               	movwf	0+(?___ftge)+03h
  1754  06BB  3066               	movlw	0x66
  1755  06BC  00A4               	movwf	1+(?___ftge)+03h
  1756  06BD  303F               	movlw	0x3f
  1757  06BE  00A5               	movwf	2+(?___ftge)+03h
  1758  06BF  120A  158A  2572   	fcall	___ftge
              120A  118A         
  1759  06C4  1803               	btfsc	status,0
  1760  06C5  2EC7               	goto	u3521
  1761  06C6  2EC8               	goto	u3520
  1762  06C7                     u3521:
  1763  06C7  2F1D               	goto	l6399
  1764  06C8                     u3520:
  1765                           	line	89
  1766                           	
  1767  06C8                     l6397:	
  1768                           ;Main.c: 88: {
  1769                           ;Main.c: 89: total = 100 - (30/0.25)*(total - 0.65);
  1770  06C8  1283               	bcf	status, 5	;RP0=0, select bank0
  1771  06C9  1303               	bcf	status, 6	;RP1=0, select bank0
  1772  06CA  0854               	movf	(infrared@total),w
  1773  06CB  00B2               	movwf	0+(?___ftadd)+03h
  1774  06CC  0855               	movf	(infrared@total+1),w
  1775  06CD  00B3               	movwf	1+(?___ftadd)+03h
  1776  06CE  0856               	movf	(infrared@total+2),w
  1777  06CF  00B4               	movwf	2+(?___ftadd)+03h
  1778  06D0  3066               	movlw	0x66
  1779  06D1  00AF               	movwf	(?___ftadd)
  1780  06D2  3026               	movlw	0x26
  1781  06D3  00B0               	movwf	(?___ftadd+1)
  1782  06D4  30BF               	movlw	0xbf
  1783  06D5  00B1               	movwf	(?___ftadd+2)
  1784  06D6  120A  118A  2237   	fcall	___ftadd
              120A  118A         
  1785  06DB  1283               	bcf	status, 5	;RP0=0, select bank0
  1786  06DC  1303               	bcf	status, 6	;RP1=0, select bank0
  1787  06DD  082F               	movf	(0+(?___ftadd)),w
  1788  06DE  00BF               	movwf	0+(?___ftmul)+03h
  1789  06DF  0830               	movf	(1+(?___ftadd)),w
  1790  06E0  00C0               	movwf	1+(?___ftmul)+03h
  1791  06E1  0831               	movf	(2+(?___ftadd)),w
  1792  06E2  00C1               	movwf	2+(?___ftmul)+03h
  1793  06E3  3000               	movlw	0x0
  1794  06E4  00BC               	movwf	(?___ftmul)
  1795  06E5  30F0               	movlw	0xf0
  1796  06E6  00BD               	movwf	(?___ftmul+1)
  1797  06E7  3042               	movlw	0x42
  1798  06E8  00BE               	movwf	(?___ftmul+2)
  1799  06E9  120A  118A  2149   	fcall	___ftmul
              120A  118A         
  1800  06EE  1283               	bcf	status, 5	;RP0=0, select bank0
  1801  06EF  1303               	bcf	status, 6	;RP1=0, select bank0
  1802  06F0  083C               	movf	(0+(?___ftmul)),w
  1803  06F1  00A8               	movwf	(?___ftneg)
  1804  06F2  083D               	movf	(1+(?___ftmul)),w
  1805  06F3  00A9               	movwf	(?___ftneg+1)
  1806  06F4  083E               	movf	(2+(?___ftmul)),w
  1807  06F5  00AA               	movwf	(?___ftneg+2)
  1808  06F6  120A  158A  2427   	fcall	___ftneg
              120A  118A         
  1809  06FB  1283               	bcf	status, 5	;RP0=0, select bank0
  1810  06FC  1303               	bcf	status, 6	;RP1=0, select bank0
  1811  06FD  0828               	movf	(0+(?___ftneg)),w
  1812  06FE  00D1               	movwf	(_infrared$4525)
  1813  06FF  0829               	movf	(1+(?___ftneg)),w
  1814  0700  00D2               	movwf	(_infrared$4525+1)
  1815  0701  082A               	movf	(2+(?___ftneg)),w
  1816  0702  00D3               	movwf	(_infrared$4525+2)
  1817                           ;Main.c: 88: {
  1818                           ;Main.c: 89: total = 100 - (30/0.25)*(total - 0.65);
  1819  0703  3000               	movlw	0x0
  1820  0704  00AF               	movwf	(?___ftadd)
  1821  0705  30C8               	movlw	0xc8
  1822  0706  00B0               	movwf	(?___ftadd+1)
  1823  0707  3042               	movlw	0x42
  1824  0708  00B1               	movwf	(?___ftadd+2)
  1825  0709  0851               	movf	(_infrared$4525),w
  1826  070A  00B2               	movwf	0+(?___ftadd)+03h
  1827  070B  0852               	movf	(_infrared$4525+1),w
  1828  070C  00B3               	movwf	1+(?___ftadd)+03h
  1829  070D  0853               	movf	(_infrared$4525+2),w
  1830  070E  00B4               	movwf	2+(?___ftadd)+03h
  1831  070F  120A  118A  2237   	fcall	___ftadd
              120A  118A         
  1832  0714  1283               	bcf	status, 5	;RP0=0, select bank0
  1833  0715  1303               	bcf	status, 6	;RP1=0, select bank0
  1834  0716  082F               	movf	(0+(?___ftadd)),w
  1835  0717  00D4               	movwf	(infrared@total)
  1836  0718  0830               	movf	(1+(?___ftadd)),w
  1837  0719  00D5               	movwf	(infrared@total+1)
  1838  071A  0831               	movf	(2+(?___ftadd)),w
  1839  071B  00D6               	movwf	(infrared@total+2)
  1840                           	line	90
  1841                           ;Main.c: 90: }
  1842  071C  2FA6               	goto	l6405
  1843                           	line	91
  1844                           	
  1845  071D                     l1417:	
  1846                           	
  1847  071D                     l6399:	
  1848                           ;Main.c: 91: else if (total >= 0.5 && total < 0.65)
  1849  071D  1283               	bcf	status, 5	;RP0=0, select bank0
  1850  071E  1303               	bcf	status, 6	;RP1=0, select bank0
  1851  071F  0854               	movf	(infrared@total),w
  1852  0720  00A0               	movwf	(?___ftge)
  1853  0721  0855               	movf	(infrared@total+1),w
  1854  0722  00A1               	movwf	(?___ftge+1)
  1855  0723  0856               	movf	(infrared@total+2),w
  1856  0724  00A2               	movwf	(?___ftge+2)
  1857  0725  3000               	movlw	0x0
  1858  0726  00A3               	movwf	0+(?___ftge)+03h
  1859  0727  3000               	movlw	0x0
  1860  0728  00A4               	movwf	1+(?___ftge)+03h
  1861  0729  303F               	movlw	0x3f
  1862  072A  00A5               	movwf	2+(?___ftge)+03h
  1863  072B  120A  158A  2572   	fcall	___ftge
              120A  118A         
  1864  0730  1C03               	btfss	status,0
  1865  0731  2F33               	goto	u3531
  1866  0732  2F34               	goto	u3530
  1867  0733                     u3531:
  1868  0733  2FA6               	goto	l6405
  1869  0734                     u3530:
  1870                           	
  1871  0734                     l6401:	
  1872  0734  1283               	bcf	status, 5	;RP0=0, select bank0
  1873  0735  1303               	bcf	status, 6	;RP1=0, select bank0
  1874  0736  0854               	movf	(infrared@total),w
  1875  0737  00A0               	movwf	(?___ftge)
  1876  0738  0855               	movf	(infrared@total+1),w
  1877  0739  00A1               	movwf	(?___ftge+1)
  1878  073A  0856               	movf	(infrared@total+2),w
  1879  073B  00A2               	movwf	(?___ftge+2)
  1880  073C  3066               	movlw	0x66
  1881  073D  00A3               	movwf	0+(?___ftge)+03h
  1882  073E  3026               	movlw	0x26
  1883  073F  00A4               	movwf	1+(?___ftge)+03h
  1884  0740  303F               	movlw	0x3f
  1885  0741  00A5               	movwf	2+(?___ftge)+03h
  1886  0742  120A  158A  2572   	fcall	___ftge
              120A  118A         
  1887  0747  1803               	btfsc	status,0
  1888  0748  2F4A               	goto	u3541
  1889  0749  2F4B               	goto	u3540
  1890  074A                     u3541:
  1891  074A  2FA6               	goto	l6405
  1892  074B                     u3540:
  1893                           	line	93
  1894                           	
  1895  074B                     l6403:	
  1896                           ;Main.c: 92: {
  1897                           ;Main.c: 93: total = 140 - (40/0.15)*(total - 0.5);
  1898  074B  1283               	bcf	status, 5	;RP0=0, select bank0
  1899  074C  1303               	bcf	status, 6	;RP1=0, select bank0
  1900  074D  0854               	movf	(infrared@total),w
  1901  074E  00B2               	movwf	0+(?___ftadd)+03h
  1902  074F  0855               	movf	(infrared@total+1),w
  1903  0750  00B3               	movwf	1+(?___ftadd)+03h
  1904  0751  0856               	movf	(infrared@total+2),w
  1905  0752  00B4               	movwf	2+(?___ftadd)+03h
  1906  0753  3000               	movlw	0x0
  1907  0754  00AF               	movwf	(?___ftadd)
  1908  0755  3000               	movlw	0x0
  1909  0756  00B0               	movwf	(?___ftadd+1)
  1910  0757  30BF               	movlw	0xbf
  1911  0758  00B1               	movwf	(?___ftadd+2)
  1912  0759  120A  118A  2237   	fcall	___ftadd
              120A  118A         
  1913  075E  1283               	bcf	status, 5	;RP0=0, select bank0
  1914  075F  1303               	bcf	status, 6	;RP1=0, select bank0
  1915  0760  082F               	movf	(0+(?___ftadd)),w
  1916  0761  00BF               	movwf	0+(?___ftmul)+03h
  1917  0762  0830               	movf	(1+(?___ftadd)),w
  1918  0763  00C0               	movwf	1+(?___ftmul)+03h
  1919  0764  0831               	movf	(2+(?___ftadd)),w
  1920  0765  00C1               	movwf	2+(?___ftmul)+03h
  1921  0766  3055               	movlw	0x55
  1922  0767  00BC               	movwf	(?___ftmul)
  1923  0768  3085               	movlw	0x85
  1924  0769  00BD               	movwf	(?___ftmul+1)
  1925  076A  3043               	movlw	0x43
  1926  076B  00BE               	movwf	(?___ftmul+2)
  1927  076C  120A  118A  2149   	fcall	___ftmul
              120A  118A         
  1928  0771  1283               	bcf	status, 5	;RP0=0, select bank0
  1929  0772  1303               	bcf	status, 6	;RP1=0, select bank0
  1930  0773  083C               	movf	(0+(?___ftmul)),w
  1931  0774  00A8               	movwf	(?___ftneg)
  1932  0775  083D               	movf	(1+(?___ftmul)),w
  1933  0776  00A9               	movwf	(?___ftneg+1)
  1934  0777  083E               	movf	(2+(?___ftmul)),w
  1935  0778  00AA               	movwf	(?___ftneg+2)
  1936  0779  120A  158A  2427   	fcall	___ftneg
              120A  118A         
  1937  077E  1283               	bcf	status, 5	;RP0=0, select bank0
  1938  077F  1303               	bcf	status, 6	;RP1=0, select bank0
  1939  0780  0828               	movf	(0+(?___ftneg)),w
  1940  0781  00D1               	movwf	(_infrared$4525)
  1941  0782  0829               	movf	(1+(?___ftneg)),w
  1942  0783  00D2               	movwf	(_infrared$4525+1)
  1943  0784  082A               	movf	(2+(?___ftneg)),w
  1944  0785  00D3               	movwf	(_infrared$4525+2)
  1945                           ;Main.c: 92: {
  1946                           ;Main.c: 93: total = 140 - (40/0.15)*(total - 0.5);
  1947  0786  3000               	movlw	0x0
  1948  0787  00AF               	movwf	(?___ftadd)
  1949  0788  300C               	movlw	0xc
  1950  0789  00B0               	movwf	(?___ftadd+1)
  1951  078A  3043               	movlw	0x43
  1952  078B  00B1               	movwf	(?___ftadd+2)
  1953  078C  0851               	movf	(_infrared$4525),w
  1954  078D  00B2               	movwf	0+(?___ftadd)+03h
  1955  078E  0852               	movf	(_infrared$4525+1),w
  1956  078F  00B3               	movwf	1+(?___ftadd)+03h
  1957  0790  0853               	movf	(_infrared$4525+2),w
  1958  0791  00B4               	movwf	2+(?___ftadd)+03h
  1959  0792  120A  118A  2237   	fcall	___ftadd
              120A  118A         
  1960  0797  1283               	bcf	status, 5	;RP0=0, select bank0
  1961  0798  1303               	bcf	status, 6	;RP1=0, select bank0
  1962  0799  082F               	movf	(0+(?___ftadd)),w
  1963  079A  00D4               	movwf	(infrared@total)
  1964  079B  0830               	movf	(1+(?___ftadd)),w
  1965  079C  00D5               	movwf	(infrared@total+1)
  1966  079D  0831               	movf	(2+(?___ftadd)),w
  1967  079E  00D6               	movwf	(infrared@total+2)
  1968  079F  2FA6               	goto	l6405
  1969                           	line	94
  1970                           	
  1971  07A0                     l1419:	
  1972  07A0  2FA6               	goto	l6405
  1973                           	line	98
  1974                           	
  1975  07A1                     l1418:	
  1976  07A1  2FA6               	goto	l6405
  1977                           	
  1978  07A2                     l1416:	
  1979  07A2  2FA6               	goto	l6405
  1980                           	
  1981  07A3                     l1414:	
  1982  07A3  2FA6               	goto	l6405
  1983                           	
  1984  07A4                     l1412:	
  1985  07A4  2FA6               	goto	l6405
  1986                           	
  1987  07A5                     l1410:	
  1988  07A5  2FA6               	goto	l6405
  1989                           	
  1990  07A6                     l1408:	
  1991                           	
  1992  07A6                     l6405:	
  1993                           ;Main.c: 94: }
  1994                           ;Main.c: 98: RTC_FLAG_500MS = 0;
  1995  07A6  11FB               	bcf	(_RTC_FLAG_500MS/8),(_RTC_FLAG_500MS)&7
  1996                           	line	99
  1997                           ;Main.c: 99: lcd_set_cursor(0);
  1998  07A7  3000               	movlw	(0)
  1999  07A8  120A  158A  241C   	fcall	_lcd_set_cursor
              120A  118A         
  2000                           	line	100
  2001                           	
  2002  07AD                     l6407:	
  2003                           ;Main.c: 100: lcd_write_string("Distance: ");
  2004  07AD  3001               	movlw	((STR_1-__stringbase))&0ffh
  2005  07AE  120A  118A  2018   	fcall	_lcd_write_string
              120A  118A         
  2006                           	line	102
  2007                           	
  2008  07B3                     l6409:	
  2009                           ;Main.c: 102: lcd_set_cursor(10);
  2010  07B3  300A               	movlw	(0Ah)
  2011  07B4  120A  158A  241C   	fcall	_lcd_set_cursor
              120A  118A         
  2012                           	line	103
  2013                           	
  2014  07B9                     l6411:	
  2015                           ;Main.c: 103: lcd_write_4_digit_bcd(total);
  2016  07B9  1283               	bcf	status, 5	;RP0=0, select bank0
  2017  07BA  1303               	bcf	status, 6	;RP1=0, select bank0
  2018  07BB  0854               	movf	(infrared@total),w
  2019  07BC  00A0               	movwf	(?___fttol)
  2020  07BD  0855               	movf	(infrared@total+1),w
  2021  07BE  00A1               	movwf	(?___fttol+1)
  2022  07BF  0856               	movf	(infrared@total+2),w
  2023  07C0  00A2               	movwf	(?___fttol+2)
  2024  07C1  120A  158A  275A   	fcall	___fttol
              120A  118A         
  2025  07C6  1283               	bcf	status, 5	;RP0=0, select bank0
  2026  07C7  1303               	bcf	status, 6	;RP1=0, select bank0
  2027  07C8  0821               	movf	1+(((0+(?___fttol)))),w
  2028  07C9  01AF               	clrf	(?_lcd_write_4_digit_bcd+1)
  2029  07CA  07AF               	addwf	(?_lcd_write_4_digit_bcd+1)
  2030  07CB  0820               	movf	0+(((0+(?___fttol)))),w
  2031  07CC  01AE               	clrf	(?_lcd_write_4_digit_bcd)
  2032  07CD  07AE               	addwf	(?_lcd_write_4_digit_bcd)
  2033                           
  2034  07CE  120A  158A  26DB   	fcall	_lcd_write_4_digit_bcd
              120A  118A         
  2035                           	line	105
  2036                           	
  2037  07D3                     l6413:	
  2038                           ;Main.c: 105: lcd_set_cursor(0x40);
  2039  07D3  3040               	movlw	(040h)
  2040  07D4  120A  158A  241C   	fcall	_lcd_set_cursor
              120A  118A         
  2041                           	line	106
  2042                           ;Main.c: 106: lcd_write_string("ADC: ");
  2043  07D9  300C               	movlw	((STR_2-__stringbase))&0ffh
  2044  07DA  120A  118A  2018   	fcall	_lcd_write_string
              120A  118A         
  2045                           	line	108
  2046                           	
  2047  07DF                     l6415:	
  2048                           ;Main.c: 108: lcd_set_cursor(0x4A);
  2049  07DF  304A               	movlw	(04Ah)
  2050  07E0  120A  158A  241C   	fcall	_lcd_set_cursor
              120A  118A         
  2051                           	line	109
  2052                           	
  2053  07E5                     l6417:	
  2054                           ;Main.c: 109: lcd_write_4_digit_bcd(adcVals);
  2055  07E5  1283               	bcf	status, 5	;RP0=0, select bank0
  2056  07E6  1303               	bcf	status, 6	;RP1=0, select bank0
  2057  07E7  084C               	movf	(infrared@adcVals),w
  2058  07E8  00A0               	movwf	(?___fttol)
  2059  07E9  084D               	movf	(infrared@adcVals+1),w
  2060  07EA  00A1               	movwf	(?___fttol+1)
  2061  07EB  084E               	movf	(infrared@adcVals+2),w
  2062  07EC  00A2               	movwf	(?___fttol+2)
  2063  07ED  120A  158A  275A   	fcall	___fttol
              120A  118A         
  2064  07F2  1283               	bcf	status, 5	;RP0=0, select bank0
  2065  07F3  1303               	bcf	status, 6	;RP1=0, select bank0
  2066  07F4  0821               	movf	1+(((0+(?___fttol)))),w
  2067  07F5  01AF               	clrf	(?_lcd_write_4_digit_bcd+1)
  2068  07F6  07AF               	addwf	(?_lcd_write_4_digit_bcd+1)
  2069  07F7  0820               	movf	0+(((0+(?___fttol)))),w
  2070  07F8  01AE               	clrf	(?_lcd_write_4_digit_bcd)
  2071  07F9  07AE               	addwf	(?_lcd_write_4_digit_bcd)
  2072                           
  2073  07FA  120A  158A  26DB   	fcall	_lcd_write_4_digit_bcd
              120A  118A         
  2074                           	line	110
  2075                           	
  2076  07FF                     l1420:	
  2077  07FF  0008               	return
  2078                           	opt stack 0
  2079                           GLOBAL	__end_of_infrared
  2080  0800                     	__end_of_infrared:
  2081 ;; =============== function _infrared ends ============
  2082                           
  2083                           	signat	_infrared,88
  2084                           	global	_lcd_init
  2085                           psect	text560,local,class=CODE,delta=2
  2086                           global __ptext560
  2087  0CA7                     __ptext560:
  2088                           
  2089 ;; *************** function _lcd_init *****************
  2090 ;; Defined at:
  2091 ;;		line 108 in file "E:\Mechatronics Assignment 2\lcd.c"
  2092 ;; Parameters:    Size  Location     Type
  2093 ;;		None
  2094 ;; Auto vars:     Size  Location     Type
  2095 ;;		None
  2096 ;; Return value:  Size  Location     Type
  2097 ;;		None               void
  2098 ;; Registers used:
  2099 ;;		wreg, status,2, status,0, pclath, cstack
  2100 ;; Tracked objects:
  2101 ;;		On entry : 0/0
  2102 ;;		On exit  : 0/0
  2103 ;;		Unchanged: 0/0
  2104 ;; Data sizes:     COMMON   BANK0   BANK1   BANK3   BANK2
  2105 ;;      Params:         0       0       0       0       0
  2106 ;;      Locals:         0       0       0       0       0
  2107 ;;      Temps:          0       0       0       0       0
  2108 ;;      Totals:         0       0       0       0       0
  2109 ;;Total ram usage:        0 bytes
  2110 ;; Hardware stack levels used:    1
  2111 ;; Hardware stack levels required when called:    3
  2112 ;; This function calls:
  2113 ;;		_lcd_write_control
  2114 ;; This function is called by:
  2115 ;;		_main
  2116 ;; This function uses a non-reentrant model
  2117 ;;
  2118                           psect	text560
  2119                           	file	"E:\Mechatronics Assignment 2\lcd.c"
  2120                           	line	108
  2121                           	global	__size_of_lcd_init
  2122  002B                     	__size_of_lcd_init	equ	__end_of_lcd_init-_lcd_init
  2123                           	
  2124  0CA7                     _lcd_init:	
  2125                           	opt	stack 4
  2126                           ; Regs used in _lcd_init: [wreg+status,2+status,0+pclath+cstack]
  2127                           	line	112
  2128                           	
  2129  0CA7                     l6327:	
  2130                           ;lcd.c: 112: ADCON1 = 0b00000010;
  2131  0CA7  3002               	movlw	(02h)
  2132  0CA8  1683               	bsf	status, 5	;RP0=1, select bank1
  2133  0CA9  1303               	bcf	status, 6	;RP1=0, select bank1
  2134  0CAA  009F               	movwf	(159)^080h	;volatile
  2135                           	line	115
  2136                           	
  2137  0CAB                     l6329:	
  2138                           ;lcd.c: 115: PORTD = 0;
  2139  0CAB  1283               	bcf	status, 5	;RP0=0, select bank0
  2140  0CAC  1303               	bcf	status, 6	;RP1=0, select bank0
  2141  0CAD  0188               	clrf	(8)	;volatile
  2142                           	line	116
  2143                           	
  2144  0CAE                     l6331:	
  2145                           ;lcd.c: 116: PORTE = 0;
  2146  0CAE  0189               	clrf	(9)	;volatile
  2147                           	line	118
  2148                           	
  2149  0CAF                     l6333:	
  2150                           ;lcd.c: 118: TRISD = 0b00000000;
  2151  0CAF  1683               	bsf	status, 5	;RP0=1, select bank1
  2152  0CB0  1303               	bcf	status, 6	;RP1=0, select bank1
  2153  0CB1  0188               	clrf	(136)^080h	;volatile
  2154                           	line	119
  2155                           	
  2156  0CB2                     l6335:	
  2157                           ;lcd.c: 119: TRISE = 0b00000000;
  2158  0CB2  0189               	clrf	(137)^080h	;volatile
  2159                           	line	122
  2160                           	
  2161  0CB3                     l6337:	
  2162                           ;lcd.c: 122: lcd_write_control(0b00000001);
  2163  0CB3  3001               	movlw	(01h)
  2164  0CB4  120A  158A  2448   	fcall	_lcd_write_control
              120A  158A         
  2165                           	line	123
  2166                           	
  2167  0CB9                     l6339:	
  2168                           ;lcd.c: 123: lcd_write_control(0b00111000);
  2169  0CB9  3038               	movlw	(038h)
  2170  0CBA  120A  158A  2448   	fcall	_lcd_write_control
              120A  158A         
  2171                           	line	124
  2172                           	
  2173  0CBF                     l6341:	
  2174                           ;lcd.c: 124: lcd_write_control(0b00001100);
  2175  0CBF  300C               	movlw	(0Ch)
  2176  0CC0  120A  158A  2448   	fcall	_lcd_write_control
              120A  158A         
  2177                           	line	125
  2178                           	
  2179  0CC5                     l6343:	
  2180                           ;lcd.c: 125: lcd_write_control(0b00000110);
  2181  0CC5  3006               	movlw	(06h)
  2182  0CC6  120A  158A  2448   	fcall	_lcd_write_control
              120A  158A         
  2183                           	line	126
  2184                           	
  2185  0CCB                     l6345:	
  2186                           ;lcd.c: 126: lcd_write_control(0b00000010);
  2187  0CCB  3002               	movlw	(02h)
  2188  0CCC  120A  158A  2448   	fcall	_lcd_write_control
              120A  158A         
  2189                           	line	128
  2190                           	
  2191  0CD1                     l2852:	
  2192  0CD1  0008               	return
  2193                           	opt stack 0
  2194                           GLOBAL	__end_of_lcd_init
  2195  0CD2                     	__end_of_lcd_init:
  2196 ;; =============== function _lcd_init ends ============
  2197                           
  2198                           	signat	_lcd_init,88
  2199                           	global	_lcd_write_4_digit_bcd
  2200                           psect	text561,local,class=CODE,delta=2
  2201                           global __ptext561
  2202  0EDB                     __ptext561:
  2203                           
  2204 ;; *************** function _lcd_write_4_digit_bcd *****************
  2205 ;; Defined at:
  2206 ;;		line 73 in file "E:\Mechatronics Assignment 2\lcd.c"
  2207 ;; Parameters:    Size  Location     Type
  2208 ;;  data            2   14[BANK0 ] unsigned int 
  2209 ;; Auto vars:     Size  Location     Type
  2210 ;;  OnesDigit       2   22[BANK0 ] unsigned int 
  2211 ;;  ThousDigit      2   20[BANK0 ] unsigned int 
  2212 ;;  HunsDigit       2   18[BANK0 ] unsigned int 
  2213 ;;  TensDigit       2   16[BANK0 ] unsigned int 
  2214 ;; Return value:  Size  Location     Type
  2215 ;;		None               void
  2216 ;; Registers used:
  2217 ;;		wreg, status,2, status,0, pclath, cstack
  2218 ;; Tracked objects:
  2219 ;;		On entry : 0/0
  2220 ;;		On exit  : 0/0
  2221 ;;		Unchanged: 0/0
  2222 ;; Data sizes:     COMMON   BANK0   BANK1   BANK3   BANK2
  2223 ;;      Params:         0       2       0       0       0
  2224 ;;      Locals:         0       8       0       0       0
  2225 ;;      Temps:          0       0       0       0       0
  2226 ;;      Totals:         0      10       0       0       0
  2227 ;;Total ram usage:       10 bytes
  2228 ;; Hardware stack levels used:    1
  2229 ;; Hardware stack levels required when called:    3
  2230 ;; This function calls:
  2231 ;;		_lcd_write_data
  2232 ;; This function is called by:
  2233 ;;		_infrared
  2234 ;; This function uses a non-reentrant model
  2235 ;;
  2236                           psect	text561
  2237                           	file	"E:\Mechatronics Assignment 2\lcd.c"
  2238                           	line	73
  2239                           	global	__size_of_lcd_write_4_digit_bcd
  2240  007F                     	__size_of_lcd_write_4_digit_bcd	equ	__end_of_lcd_write_4_digit_bcd-_lcd_write_4_digit_b
                                 cd
  2241                           	
  2242  0EDB                     _lcd_write_4_digit_bcd:	
  2243                           	opt	stack 3
  2244                           ; Regs used in _lcd_write_4_digit_bcd: [wreg+status,2+status,0+pclath+cstack]
  2245                           	line	77
  2246                           	
  2247  0EDB                     l6299:	
  2248                           ;lcd.c: 74: unsigned int OnesDigit, TensDigit, HunsDigit, ThousDigit;
  2249                           ;lcd.c: 77: OnesDigit = data;
  2250  0EDB  1283               	bcf	status, 5	;RP0=0, select bank0
  2251  0EDC  1303               	bcf	status, 6	;RP1=0, select bank0
  2252  0EDD  082F               	movf	(lcd_write_4_digit_bcd@data+1),w
  2253  0EDE  01B7               	clrf	(lcd_write_4_digit_bcd@OnesDigit+1)
  2254  0EDF  07B7               	addwf	(lcd_write_4_digit_bcd@OnesDigit+1)
  2255  0EE0  082E               	movf	(lcd_write_4_digit_bcd@data),w
  2256  0EE1  01B6               	clrf	(lcd_write_4_digit_bcd@OnesDigit)
  2257  0EE2  07B6               	addwf	(lcd_write_4_digit_bcd@OnesDigit)
  2258                           
  2259                           	line	78
  2260                           	
  2261  0EE3                     l6301:	
  2262                           ;lcd.c: 78: TensDigit = 0;
  2263  0EE3  01B0               	clrf	(lcd_write_4_digit_bcd@TensDigit)
  2264  0EE4  01B1               	clrf	(lcd_write_4_digit_bcd@TensDigit+1)
  2265                           	line	79
  2266                           	
  2267  0EE5                     l6303:	
  2268                           ;lcd.c: 79: HunsDigit = 0;
  2269  0EE5  01B2               	clrf	(lcd_write_4_digit_bcd@HunsDigit)
  2270  0EE6  01B3               	clrf	(lcd_write_4_digit_bcd@HunsDigit+1)
  2271                           	line	80
  2272                           	
  2273  0EE7                     l6305:	
  2274                           ;lcd.c: 80: ThousDigit = 0;
  2275  0EE7  01B4               	clrf	(lcd_write_4_digit_bcd@ThousDigit)
  2276  0EE8  01B5               	clrf	(lcd_write_4_digit_bcd@ThousDigit+1)
  2277                           	line	83
  2278                           ;lcd.c: 83: while (OnesDigit >= 1000)
  2279  0EE9  2EF9               	goto	l6311
  2280                           	
  2281  0EEA                     l2841:	
  2282                           	line	85
  2283                           	
  2284  0EEA                     l6307:	
  2285                           ;lcd.c: 84: {
  2286                           ;lcd.c: 85: OnesDigit = OnesDigit - 1000;
  2287  0EEA  0836               	movf	(lcd_write_4_digit_bcd@OnesDigit),w
  2288  0EEB  3E18               	addlw	low(0FC18h)
  2289  0EEC  00B6               	movwf	(lcd_write_4_digit_bcd@OnesDigit)
  2290  0EED  0837               	movf	(lcd_write_4_digit_bcd@OnesDigit+1),w
  2291  0EEE  1803               	skipnc
  2292  0EEF  3E01               	addlw	1
  2293  0EF0  3EFC               	addlw	high(0FC18h)
  2294  0EF1  00B7               	movwf	1+(lcd_write_4_digit_bcd@OnesDigit)
  2295                           	line	86
  2296                           	
  2297  0EF2                     l6309:	
  2298                           ;lcd.c: 86: ThousDigit++;
  2299  0EF2  3001               	movlw	low(01h)
  2300  0EF3  07B4               	addwf	(lcd_write_4_digit_bcd@ThousDigit),f
  2301  0EF4  1803               	skipnc
  2302  0EF5  0AB5               	incf	(lcd_write_4_digit_bcd@ThousDigit+1),f
  2303  0EF6  3000               	movlw	high(01h)
  2304  0EF7  07B5               	addwf	(lcd_write_4_digit_bcd@ThousDigit+1),f
  2305  0EF8  2EF9               	goto	l6311
  2306                           	line	87
  2307                           	
  2308  0EF9                     l2840:	
  2309                           	line	83
  2310                           	
  2311  0EF9                     l6311:	
  2312  0EF9  3003               	movlw	high(03E8h)
  2313  0EFA  0237               	subwf	(lcd_write_4_digit_bcd@OnesDigit+1),w
  2314  0EFB  30E8               	movlw	low(03E8h)
  2315  0EFC  1903               	skipnz
  2316  0EFD  0236               	subwf	(lcd_write_4_digit_bcd@OnesDigit),w
  2317  0EFE  1803               	skipnc
  2318  0EFF  2F01               	goto	u3371
  2319  0F00  2F02               	goto	u3370
  2320  0F01                     u3371:
  2321  0F01  2EEA               	goto	l6307
  2322  0F02                     u3370:
  2323  0F02  2F13               	goto	l6317
  2324                           	
  2325  0F03                     l2842:	
  2326                           	line	89
  2327                           ;lcd.c: 87: }
  2328                           ;lcd.c: 89: while (OnesDigit >= 100)
  2329  0F03  2F13               	goto	l6317
  2330                           	
  2331  0F04                     l2844:	
  2332                           	line	91
  2333                           	
  2334  0F04                     l6313:	
  2335                           ;lcd.c: 90: {
  2336                           ;lcd.c: 91: OnesDigit = OnesDigit - 100;
  2337  0F04  0836               	movf	(lcd_write_4_digit_bcd@OnesDigit),w
  2338  0F05  3E9C               	addlw	low(0FF9Ch)
  2339  0F06  00B6               	movwf	(lcd_write_4_digit_bcd@OnesDigit)
  2340  0F07  0837               	movf	(lcd_write_4_digit_bcd@OnesDigit+1),w
  2341  0F08  1803               	skipnc
  2342  0F09  3E01               	addlw	1
  2343  0F0A  3EFF               	addlw	high(0FF9Ch)
  2344  0F0B  00B7               	movwf	1+(lcd_write_4_digit_bcd@OnesDigit)
  2345                           	line	92
  2346                           	
  2347  0F0C                     l6315:	
  2348                           ;lcd.c: 92: HunsDigit++;
  2349  0F0C  3001               	movlw	low(01h)
  2350  0F0D  07B2               	addwf	(lcd_write_4_digit_bcd@HunsDigit),f
  2351  0F0E  1803               	skipnc
  2352  0F0F  0AB3               	incf	(lcd_write_4_digit_bcd@HunsDigit+1),f
  2353  0F10  3000               	movlw	high(01h)
  2354  0F11  07B3               	addwf	(lcd_write_4_digit_bcd@HunsDigit+1),f
  2355  0F12  2F13               	goto	l6317
  2356                           	line	93
  2357                           	
  2358  0F13                     l2843:	
  2359                           	line	89
  2360                           	
  2361  0F13                     l6317:	
  2362  0F13  3000               	movlw	high(064h)
  2363  0F14  0237               	subwf	(lcd_write_4_digit_bcd@OnesDigit+1),w
  2364  0F15  3064               	movlw	low(064h)
  2365  0F16  1903               	skipnz
  2366  0F17  0236               	subwf	(lcd_write_4_digit_bcd@OnesDigit),w
  2367  0F18  1803               	skipnc
  2368  0F19  2F1B               	goto	u3381
  2369  0F1A  2F1C               	goto	u3380
  2370  0F1B                     u3381:
  2371  0F1B  2F04               	goto	l6313
  2372  0F1C                     u3380:
  2373  0F1C  2F2D               	goto	l6323
  2374                           	
  2375  0F1D                     l2845:	
  2376                           	line	95
  2377                           ;lcd.c: 93: }
  2378                           ;lcd.c: 95: while (OnesDigit >= 10)
  2379  0F1D  2F2D               	goto	l6323
  2380                           	
  2381  0F1E                     l2847:	
  2382                           	line	97
  2383                           	
  2384  0F1E                     l6319:	
  2385                           ;lcd.c: 96: {
  2386                           ;lcd.c: 97: OnesDigit = OnesDigit - 10;
  2387  0F1E  0836               	movf	(lcd_write_4_digit_bcd@OnesDigit),w
  2388  0F1F  3EF6               	addlw	low(0FFF6h)
  2389  0F20  00B6               	movwf	(lcd_write_4_digit_bcd@OnesDigit)
  2390  0F21  0837               	movf	(lcd_write_4_digit_bcd@OnesDigit+1),w
  2391  0F22  1803               	skipnc
  2392  0F23  3E01               	addlw	1
  2393  0F24  3EFF               	addlw	high(0FFF6h)
  2394  0F25  00B7               	movwf	1+(lcd_write_4_digit_bcd@OnesDigit)
  2395                           	line	98
  2396                           	
  2397  0F26                     l6321:	
  2398                           ;lcd.c: 98: TensDigit++;
  2399  0F26  3001               	movlw	low(01h)
  2400  0F27  07B0               	addwf	(lcd_write_4_digit_bcd@TensDigit),f
  2401  0F28  1803               	skipnc
  2402  0F29  0AB1               	incf	(lcd_write_4_digit_bcd@TensDigit+1),f
  2403  0F2A  3000               	movlw	high(01h)
  2404  0F2B  07B1               	addwf	(lcd_write_4_digit_bcd@TensDigit+1),f
  2405  0F2C  2F2D               	goto	l6323
  2406                           	line	99
  2407                           	
  2408  0F2D                     l2846:	
  2409                           	line	95
  2410                           	
  2411  0F2D                     l6323:	
  2412  0F2D  3000               	movlw	high(0Ah)
  2413  0F2E  0237               	subwf	(lcd_write_4_digit_bcd@OnesDigit+1),w
  2414  0F2F  300A               	movlw	low(0Ah)
  2415  0F30  1903               	skipnz
  2416  0F31  0236               	subwf	(lcd_write_4_digit_bcd@OnesDigit),w
  2417  0F32  1803               	skipnc
  2418  0F33  2F35               	goto	u3391
  2419  0F34  2F36               	goto	u3390
  2420  0F35                     u3391:
  2421  0F35  2F1E               	goto	l6319
  2422  0F36                     u3390:
  2423  0F36  2F37               	goto	l6325
  2424                           	
  2425  0F37                     l2848:	
  2426                           	line	101
  2427                           	
  2428  0F37                     l6325:	
  2429                           ;lcd.c: 99: }
  2430                           ;lcd.c: 101: lcd_write_data((unsigned char)ThousDigit + 48);
  2431  0F37  0834               	movf	(lcd_write_4_digit_bcd@ThousDigit),w
  2432  0F38  3E30               	addlw	030h
  2433  0F39  120A  158A  2435   	fcall	_lcd_write_data
              120A  158A         
  2434                           	line	102
  2435                           ;lcd.c: 102: lcd_write_data((unsigned char)HunsDigit + 48);
  2436  0F3E  1283               	bcf	status, 5	;RP0=0, select bank0
  2437  0F3F  1303               	bcf	status, 6	;RP1=0, select bank0
  2438  0F40  0832               	movf	(lcd_write_4_digit_bcd@HunsDigit),w
  2439  0F41  3E30               	addlw	030h
  2440  0F42  120A  158A  2435   	fcall	_lcd_write_data
              120A  158A         
  2441                           	line	103
  2442                           ;lcd.c: 103: lcd_write_data((unsigned char)TensDigit + 48);
  2443  0F47  1283               	bcf	status, 5	;RP0=0, select bank0
  2444  0F48  1303               	bcf	status, 6	;RP1=0, select bank0
  2445  0F49  0830               	movf	(lcd_write_4_digit_bcd@TensDigit),w
  2446  0F4A  3E30               	addlw	030h
  2447  0F4B  120A  158A  2435   	fcall	_lcd_write_data
              120A  158A         
  2448                           	line	104
  2449                           ;lcd.c: 104: lcd_write_data((unsigned char)OnesDigit + 48);
  2450  0F50  1283               	bcf	status, 5	;RP0=0, select bank0
  2451  0F51  1303               	bcf	status, 6	;RP1=0, select bank0
  2452  0F52  0836               	movf	(lcd_write_4_digit_bcd@OnesDigit),w
  2453  0F53  3E30               	addlw	030h
  2454  0F54  120A  158A  2435   	fcall	_lcd_write_data
              120A  158A         
  2455                           	line	105
  2456                           	
  2457  0F59                     l2849:	
  2458  0F59  0008               	return
  2459                           	opt stack 0
  2460                           GLOBAL	__end_of_lcd_write_4_digit_bcd
  2461  0F5A                     	__end_of_lcd_write_4_digit_bcd:
  2462 ;; =============== function _lcd_write_4_digit_bcd ends ============
  2463                           
  2464                           	signat	_lcd_write_4_digit_bcd,4216
  2465                           	global	_lcd_write_string
  2466                           psect	text562,local,class=CODE,delta=2
  2467                           global __ptext562
  2468  0018                     __ptext562:
  2469                           
  2470 ;; *************** function _lcd_write_string *****************
  2471 ;; Defined at:
  2472 ;;		line 47 in file "E:\Mechatronics Assignment 2\lcd.c"
  2473 ;; Parameters:    Size  Location     Type
  2474 ;;  s               1    wreg     PTR unsigned char 
  2475 ;;		 -> STR_2(6), STR_1(11), 
  2476 ;; Auto vars:     Size  Location     Type
  2477 ;;  s               1    4[BANK0 ] PTR unsigned char 
  2478 ;;		 -> STR_2(6), STR_1(11), 
  2479 ;; Return value:  Size  Location     Type
  2480 ;;		None               void
  2481 ;; Registers used:
  2482 ;;		wreg, fsr0l, fsr0h, status,2, status,0, pclath, cstack
  2483 ;; Tracked objects:
  2484 ;;		On entry : 0/0
  2485 ;;		On exit  : 0/0
  2486 ;;		Unchanged: 0/0
  2487 ;; Data sizes:     COMMON   BANK0   BANK1   BANK3   BANK2
  2488 ;;      Params:         0       0       0       0       0
  2489 ;;      Locals:         0       1       0       0       0
  2490 ;;      Temps:          0       1       0       0       0
  2491 ;;      Totals:         0       2       0       0       0
  2492 ;;Total ram usage:        2 bytes
  2493 ;; Hardware stack levels used:    1
  2494 ;; Hardware stack levels required when called:    3
  2495 ;; This function calls:
  2496 ;;		_lcd_write_data
  2497 ;; This function is called by:
  2498 ;;		_infrared
  2499 ;; This function uses a non-reentrant model
  2500 ;;
  2501                           psect	text562
  2502                           	file	"E:\Mechatronics Assignment 2\lcd.c"
  2503                           	line	47
  2504                           	global	__size_of_lcd_write_string
  2505  0025                     	__size_of_lcd_write_string	equ	__end_of_lcd_write_string-_lcd_write_string
  2506                           	
  2507  0018                     _lcd_write_string:	
  2508                           	opt	stack 3
  2509                           ; Regs used in _lcd_write_string: [wreg-fsr0h+status,2+status,0+pclath+cstack]
  2510                           ;lcd_write_string@s stored from wreg
  2511  0018  1283               	bcf	status, 5	;RP0=0, select bank0
  2512  0019  1303               	bcf	status, 6	;RP1=0, select bank0
  2513  001A  00A4               	movwf	(lcd_write_string@s)
  2514                           	line	49
  2515                           	
  2516  001B                     l6291:	
  2517                           ;lcd.c: 49: while(*s) lcd_write_data(*s++);
  2518  001B  282F               	goto	l6297
  2519                           	
  2520  001C                     l2829:	
  2521                           	
  2522  001C                     l6293:	
  2523  001C  0824               	movf	(lcd_write_string@s),w
  2524  001D  0084               	movwf	fsr0
  2525  001E  120A  158A  2000   	fcall	stringdir
              120A  118A         
  2526  0023  120A  158A  2435   	fcall	_lcd_write_data
              120A  118A         
  2527                           	
  2528  0028                     l6295:	
  2529  0028  3001               	movlw	(01h)
  2530  0029  1283               	bcf	status, 5	;RP0=0, select bank0
  2531  002A  1303               	bcf	status, 6	;RP1=0, select bank0
  2532  002B  00A3               	movwf	(??_lcd_write_string+0)+0
  2533  002C  0823               	movf	(??_lcd_write_string+0)+0,w
  2534  002D  07A4               	addwf	(lcd_write_string@s),f
  2535  002E  282F               	goto	l6297
  2536                           	
  2537  002F                     l2828:	
  2538                           	
  2539  002F                     l6297:	
  2540  002F  0824               	movf	(lcd_write_string@s),w
  2541  0030  0084               	movwf	fsr0
  2542  0031  120A  158A  2000   	fcall	stringdir
              120A  118A         
  2543  0036  3800               	iorlw	0
  2544  0037  1D03               	skipz
  2545  0038  283A               	goto	u3361
  2546  0039  283B               	goto	u3360
  2547  003A                     u3361:
  2548  003A  281C               	goto	l6293
  2549  003B                     u3360:
  2550  003B  283C               	goto	l2831
  2551                           	
  2552  003C                     l2830:	
  2553                           	line	50
  2554                           	
  2555  003C                     l2831:	
  2556  003C  0008               	return
  2557                           	opt stack 0
  2558                           GLOBAL	__end_of_lcd_write_string
  2559  003D                     	__end_of_lcd_write_string:
  2560 ;; =============== function _lcd_write_string ends ============
  2561                           
  2562                           	signat	_lcd_write_string,4216
  2563                           	global	_lcd_set_cursor
  2564                           psect	text563,local,class=CODE,delta=2
  2565                           global __ptext563
  2566  0C1C                     __ptext563:
  2567                           
  2568 ;; *************** function _lcd_set_cursor *****************
  2569 ;; Defined at:
  2570 ;;		line 41 in file "E:\Mechatronics Assignment 2\lcd.c"
  2571 ;; Parameters:    Size  Location     Type
  2572 ;;  address         1    wreg     unsigned char 
  2573 ;; Auto vars:     Size  Location     Type
  2574 ;;  address         1    3[BANK0 ] unsigned char 
  2575 ;; Return value:  Size  Location     Type
  2576 ;;		None               void
  2577 ;; Registers used:
  2578 ;;		wreg, status,2, status,0, pclath, cstack
  2579 ;; Tracked objects:
  2580 ;;		On entry : 0/0
  2581 ;;		On exit  : 0/0
  2582 ;;		Unchanged: 0/0
  2583 ;; Data sizes:     COMMON   BANK0   BANK1   BANK3   BANK2
  2584 ;;      Params:         0       0       0       0       0
  2585 ;;      Locals:         0       1       0       0       0
  2586 ;;      Temps:          0       0       0       0       0
  2587 ;;      Totals:         0       1       0       0       0
  2588 ;;Total ram usage:        1 bytes
  2589 ;; Hardware stack levels used:    1
  2590 ;; Hardware stack levels required when called:    3
  2591 ;; This function calls:
  2592 ;;		_lcd_write_control
  2593 ;; This function is called by:
  2594 ;;		_infrared
  2595 ;; This function uses a non-reentrant model
  2596 ;;
  2597                           psect	text563
  2598                           	file	"E:\Mechatronics Assignment 2\lcd.c"
  2599                           	line	41
  2600                           	global	__size_of_lcd_set_cursor
  2601  000B                     	__size_of_lcd_set_cursor	equ	__end_of_lcd_set_cursor-_lcd_set_cursor
  2602                           	
  2603  0C1C                     _lcd_set_cursor:	
  2604                           	opt	stack 3
  2605                           ; Regs used in _lcd_set_cursor: [wreg+status,2+status,0+pclath+cstack]
  2606                           ;lcd_set_cursor@address stored from wreg
  2607  0C1C  1283               	bcf	status, 5	;RP0=0, select bank0
  2608  0C1D  1303               	bcf	status, 6	;RP1=0, select bank0
  2609  0C1E  00A3               	movwf	(lcd_set_cursor@address)
  2610                           	line	42
  2611                           	
  2612  0C1F                     l6287:	
  2613                           ;lcd.c: 42: address |= 0b10000000;
  2614  0C1F  17A3               	bsf	(lcd_set_cursor@address)+(7/8),(7)&7
  2615                           	line	43
  2616                           	
  2617  0C20                     l6289:	
  2618                           ;lcd.c: 43: lcd_write_control(address);
  2619  0C20  0823               	movf	(lcd_set_cursor@address),w
  2620  0C21  120A  158A  2448   	fcall	_lcd_write_control
              120A  158A         
  2621                           	line	44
  2622                           	
  2623  0C26                     l2825:	
  2624  0C26  0008               	return
  2625                           	opt stack 0
  2626                           GLOBAL	__end_of_lcd_set_cursor
  2627  0C27                     	__end_of_lcd_set_cursor:
  2628 ;; =============== function _lcd_set_cursor ends ============
  2629                           
  2630                           	signat	_lcd_set_cursor,4216
  2631                           	global	___lwtoft
  2632                           psect	text564,local,class=CODE,delta=2
  2633                           global __ptext564
  2634  0C8C                     __ptext564:
  2635                           
  2636 ;; *************** function ___lwtoft *****************
  2637 ;; Defined at:
  2638 ;;		line 29 in file "C:\Program Files (x86)\HI-TECH Software\PICC\9.83\sources\lwtoft.c"
  2639 ;; Parameters:    Size  Location     Type
  2640 ;;  c               2   11[BANK0 ] unsigned int 
  2641 ;; Auto vars:     Size  Location     Type
  2642 ;;		None
  2643 ;; Return value:  Size  Location     Type
  2644 ;;                  3   11[BANK0 ] float 
  2645 ;; Registers used:
  2646 ;;		wreg, status,2, status,0, pclath, cstack
  2647 ;; Tracked objects:
  2648 ;;		On entry : 0/0
  2649 ;;		On exit  : 0/0
  2650 ;;		Unchanged: 0/0
  2651 ;; Data sizes:     COMMON   BANK0   BANK1   BANK3   BANK2
  2652 ;;      Params:         0       3       0       0       0
  2653 ;;      Locals:         0       0       0       0       0
  2654 ;;      Temps:          0       1       0       0       0
  2655 ;;      Totals:         0       4       0       0       0
  2656 ;;Total ram usage:        4 bytes
  2657 ;; Hardware stack levels used:    1
  2658 ;; Hardware stack levels required when called:    3
  2659 ;; This function calls:
  2660 ;;		___ftpack
  2661 ;; This function is called by:
  2662 ;;		_infrared
  2663 ;; This function uses a non-reentrant model
  2664 ;;
  2665                           psect	text564
  2666                           	file	"C:\Program Files (x86)\HI-TECH Software\PICC\9.83\sources\lwtoft.c"
  2667                           	line	29
  2668                           	global	__size_of___lwtoft
  2669  001B                     	__size_of___lwtoft	equ	__end_of___lwtoft-___lwtoft
  2670                           	
  2671  0C8C                     ___lwtoft:	
  2672                           	opt	stack 3
  2673                           ; Regs used in ___lwtoft: [wreg+status,2+status,0+pclath+cstack]
  2674                           	line	30
  2675                           	
  2676  0C8C                     l6283:	
  2677  0C8C  1283               	bcf	status, 5	;RP0=0, select bank0
  2678  0C8D  1303               	bcf	status, 6	;RP1=0, select bank0
  2679  0C8E  082B               	movf	(___lwtoft@c),w
  2680  0C8F  00A0               	movwf	(?___ftpack)
  2681  0C90  082C               	movf	(___lwtoft@c+1),w
  2682  0C91  00A1               	movwf	(?___ftpack+1)
  2683  0C92  01A2               	clrf	(?___ftpack+2)
  2684  0C93  308E               	movlw	(08Eh)
  2685  0C94  00AE               	movwf	(??___lwtoft+0)+0
  2686  0C95  082E               	movf	(??___lwtoft+0)+0,w
  2687  0C96  00A3               	movwf	0+(?___ftpack)+03h
  2688  0C97  01A4               	clrf	0+(?___ftpack)+04h
  2689  0C98  120A  158A  25E0   	fcall	___ftpack
              120A  158A         
  2690  0C9D  1283               	bcf	status, 5	;RP0=0, select bank0
  2691  0C9E  1303               	bcf	status, 6	;RP1=0, select bank0
  2692  0C9F  0820               	movf	(0+(?___ftpack)),w
  2693  0CA0  00AB               	movwf	(?___lwtoft)
  2694  0CA1  0821               	movf	(1+(?___ftpack)),w
  2695  0CA2  00AC               	movwf	(?___lwtoft+1)
  2696  0CA3  0822               	movf	(2+(?___ftpack)),w
  2697  0CA4  00AD               	movwf	(?___lwtoft+2)
  2698  0CA5  2CA6               	goto	l3758
  2699                           	
  2700  0CA6                     l6285:	
  2701                           	line	31
  2702                           	
  2703  0CA6                     l3758:	
  2704  0CA6  0008               	return
  2705                           	opt stack 0
  2706                           GLOBAL	__end_of___lwtoft
  2707  0CA7                     	__end_of___lwtoft:
  2708 ;; =============== function ___lwtoft ends ============
  2709                           
  2710                           	signat	___lwtoft,4219
  2711                           	global	___awtoft
  2712                           psect	text565,local,class=CODE,delta=2
  2713                           global __ptext565
  2714  0CD2                     __ptext565:
  2715                           
  2716 ;; *************** function ___awtoft *****************
  2717 ;; Defined at:
  2718 ;;		line 33 in file "C:\Program Files (x86)\HI-TECH Software\PICC\9.83\sources\awtoft.c"
  2719 ;; Parameters:    Size  Location     Type
  2720 ;;  c               2    8[BANK0 ] int 
  2721 ;; Auto vars:     Size  Location     Type
  2722 ;;  sign            1   13[BANK0 ] unsigned char 
  2723 ;; Return value:  Size  Location     Type
  2724 ;;                  3    8[BANK0 ] float 
  2725 ;; Registers used:
  2726 ;;		wreg, status,2, status,0, pclath, cstack
  2727 ;; Tracked objects:
  2728 ;;		On entry : 0/0
  2729 ;;		On exit  : 0/0
  2730 ;;		Unchanged: 0/0
  2731 ;; Data sizes:     COMMON   BANK0   BANK1   BANK3   BANK2
  2732 ;;      Params:         0       3       0       0       0
  2733 ;;      Locals:         0       1       0       0       0
  2734 ;;      Temps:          0       2       0       0       0
  2735 ;;      Totals:         0       6       0       0       0
  2736 ;;Total ram usage:        6 bytes
  2737 ;; Hardware stack levels used:    1
  2738 ;; Hardware stack levels required when called:    3
  2739 ;; This function calls:
  2740 ;;		___ftpack
  2741 ;; This function is called by:
  2742 ;;		_infrared
  2743 ;; This function uses a non-reentrant model
  2744 ;;
  2745                           psect	text565
  2746                           	file	"C:\Program Files (x86)\HI-TECH Software\PICC\9.83\sources\awtoft.c"
  2747                           	line	33
  2748                           	global	__size_of___awtoft
  2749  002C                     	__size_of___awtoft	equ	__end_of___awtoft-___awtoft
  2750                           	
  2751  0CD2                     ___awtoft:	
  2752                           	opt	stack 3
  2753                           ; Regs used in ___awtoft: [wreg+status,2+status,0+pclath+cstack]
  2754                           	line	36
  2755                           	
  2756  0CD2                     l6275:	
  2757  0CD2  1283               	bcf	status, 5	;RP0=0, select bank0
  2758  0CD3  1303               	bcf	status, 6	;RP1=0, select bank0
  2759  0CD4  01AD               	clrf	(___awtoft@sign)
  2760                           	line	37
  2761  0CD5  1FA9               	btfss	(___awtoft@c+1),7
  2762  0CD6  2CD8               	goto	u3351
  2763  0CD7  2CD9               	goto	u3350
  2764  0CD8                     u3351:
  2765  0CD8  2CE2               	goto	l6279
  2766  0CD9                     u3350:
  2767                           	line	38
  2768                           	
  2769  0CD9                     l6277:	
  2770  0CD9  09A8               	comf	(___awtoft@c),f
  2771  0CDA  09A9               	comf	(___awtoft@c+1),f
  2772  0CDB  0AA8               	incf	(___awtoft@c),f
  2773  0CDC  1903               	skipnz
  2774  0CDD  0AA9               	incf	(___awtoft@c+1),f
  2775                           	line	39
  2776  0CDE  01AD               	clrf	(___awtoft@sign)
  2777  0CDF  1403               	bsf	status,0
  2778  0CE0  0DAD               	rlf	(___awtoft@sign),f
  2779  0CE1  2CE2               	goto	l6279
  2780                           	line	40
  2781                           	
  2782  0CE2                     l3671:	
  2783                           	line	41
  2784                           	
  2785  0CE2                     l6279:	
  2786  0CE2  0828               	movf	(___awtoft@c),w
  2787  0CE3  00A0               	movwf	(?___ftpack)
  2788  0CE4  0829               	movf	(___awtoft@c+1),w
  2789  0CE5  00A1               	movwf	(?___ftpack+1)
  2790  0CE6  01A2               	clrf	(?___ftpack+2)
  2791  0CE7  308E               	movlw	(08Eh)
  2792  0CE8  00AB               	movwf	(??___awtoft+0)+0
  2793  0CE9  082B               	movf	(??___awtoft+0)+0,w
  2794  0CEA  00A3               	movwf	0+(?___ftpack)+03h
  2795  0CEB  082D               	movf	(___awtoft@sign),w
  2796  0CEC  00AC               	movwf	(??___awtoft+1)+0
  2797  0CED  082C               	movf	(??___awtoft+1)+0,w
  2798  0CEE  00A4               	movwf	0+(?___ftpack)+04h
  2799  0CEF  120A  158A  25E0   	fcall	___ftpack
              120A  158A         
  2800  0CF4  1283               	bcf	status, 5	;RP0=0, select bank0
  2801  0CF5  1303               	bcf	status, 6	;RP1=0, select bank0
  2802  0CF6  0820               	movf	(0+(?___ftpack)),w
  2803  0CF7  00A8               	movwf	(?___awtoft)
  2804  0CF8  0821               	movf	(1+(?___ftpack)),w
  2805  0CF9  00A9               	movwf	(?___awtoft+1)
  2806  0CFA  0822               	movf	(2+(?___ftpack)),w
  2807  0CFB  00AA               	movwf	(?___awtoft+2)
  2808  0CFC  2CFD               	goto	l3672
  2809                           	
  2810  0CFD                     l6281:	
  2811                           	line	42
  2812                           	
  2813  0CFD                     l3672:	
  2814  0CFD  0008               	return
  2815                           	opt stack 0
  2816                           GLOBAL	__end_of___awtoft
  2817  0CFE                     	__end_of___awtoft:
  2818 ;; =============== function ___awtoft ends ============
  2819                           
  2820                           	signat	___awtoft,4219
  2821                           	global	___ftmul
  2822                           psect	text566,local,class=CODE,delta=2
  2823                           global __ptext566
  2824  0149                     __ptext566:
  2825                           
  2826 ;; *************** function ___ftmul *****************
  2827 ;; Defined at:
  2828 ;;		line 52 in file "C:\Program Files (x86)\HI-TECH Software\PICC\9.83\sources\ftmul.c"
  2829 ;; Parameters:    Size  Location     Type
  2830 ;;  f1              3   28[BANK0 ] float 
  2831 ;;  f2              3   31[BANK0 ] float 
  2832 ;; Auto vars:     Size  Location     Type
  2833 ;;  f3_as_produc    3   39[BANK0 ] unsigned um
  2834 ;;  sign            1   43[BANK0 ] unsigned char 
  2835 ;;  cntr            1   42[BANK0 ] unsigned char 
  2836 ;;  exp             1   38[BANK0 ] unsigned char 
  2837 ;; Return value:  Size  Location     Type
  2838 ;;                  3   28[BANK0 ] float 
  2839 ;; Registers used:
  2840 ;;		wreg, status,2, status,0, pclath, cstack
  2841 ;; Tracked objects:
  2842 ;;		On entry : 0/0
  2843 ;;		On exit  : 0/0
  2844 ;;		Unchanged: 0/0
  2845 ;; Data sizes:     COMMON   BANK0   BANK1   BANK3   BANK2
  2846 ;;      Params:         0       6       0       0       0
  2847 ;;      Locals:         0       6       0       0       0
  2848 ;;      Temps:          0       4       0       0       0
  2849 ;;      Totals:         0      16       0       0       0
  2850 ;;Total ram usage:       16 bytes
  2851 ;; Hardware stack levels used:    1
  2852 ;; Hardware stack levels required when called:    3
  2853 ;; This function calls:
  2854 ;;		___ftpack
  2855 ;; This function is called by:
  2856 ;;		_infrared
  2857 ;; This function uses a non-reentrant model
  2858 ;;
  2859                           psect	text566
  2860                           	file	"C:\Program Files (x86)\HI-TECH Software\PICC\9.83\sources\ftmul.c"
  2861                           	line	52
  2862                           	global	__size_of___ftmul
  2863  00EE                     	__size_of___ftmul	equ	__end_of___ftmul-___ftmul
  2864                           	
  2865  0149                     ___ftmul:	
  2866                           	opt	stack 3
  2867                           ; Regs used in ___ftmul: [wreg+status,2+status,0+pclath+cstack]
  2868                           	line	56
  2869                           	
  2870  0149                     l6225:	
  2871  0149  1283               	bcf	status, 5	;RP0=0, select bank0
  2872  014A  1303               	bcf	status, 6	;RP1=0, select bank0
  2873  014B  083C               	movf	(___ftmul@f1),w
  2874  014C  00C2               	movwf	((??___ftmul+0)+0)
  2875  014D  083D               	movf	(___ftmul@f1+1),w
  2876  014E  00C3               	movwf	((??___ftmul+0)+0+1)
  2877  014F  083E               	movf	(___ftmul@f1+2),w
  2878  0150  00C4               	movwf	((??___ftmul+0)+0+2)
  2879  0151  1003               	clrc
  2880  0152  0D43               	rlf	(??___ftmul+0)+1,w
  2881  0153  0D44               	rlf	(??___ftmul+0)+2,w
  2882  0154  00C5               	movwf	(??___ftmul+3)+0
  2883  0155  0845               	movf	(??___ftmul+3)+0,w
  2884  0156  00C6               	movwf	(___ftmul@exp)
  2885  0157  08C6               	movf	((___ftmul@exp)),f
  2886  0158  1D03               	skipz
  2887  0159  295B               	goto	u3211
  2888  015A  295C               	goto	u3210
  2889  015B                     u3211:
  2890  015B  2964               	goto	l6231
  2891  015C                     u3210:
  2892                           	line	57
  2893                           	
  2894  015C                     l6227:	
  2895  015C  3000               	movlw	0x0
  2896  015D  00BC               	movwf	(?___ftmul)
  2897  015E  3000               	movlw	0x0
  2898  015F  00BD               	movwf	(?___ftmul+1)
  2899  0160  3000               	movlw	0x0
  2900  0161  00BE               	movwf	(?___ftmul+2)
  2901  0162  2A36               	goto	l3634
  2902                           	
  2903  0163                     l6229:	
  2904  0163  2A36               	goto	l3634
  2905                           	
  2906  0164                     l3633:	
  2907                           	line	58
  2908                           	
  2909  0164                     l6231:	
  2910  0164  083F               	movf	(___ftmul@f2),w
  2911  0165  00C2               	movwf	((??___ftmul+0)+0)
  2912  0166  0840               	movf	(___ftmul@f2+1),w
  2913  0167  00C3               	movwf	((??___ftmul+0)+0+1)
  2914  0168  0841               	movf	(___ftmul@f2+2),w
  2915  0169  00C4               	movwf	((??___ftmul+0)+0+2)
  2916  016A  1003               	clrc
  2917  016B  0D43               	rlf	(??___ftmul+0)+1,w
  2918  016C  0D44               	rlf	(??___ftmul+0)+2,w
  2919  016D  00C5               	movwf	(??___ftmul+3)+0
  2920  016E  0845               	movf	(??___ftmul+3)+0,w
  2921  016F  00CB               	movwf	(___ftmul@sign)
  2922  0170  08CB               	movf	((___ftmul@sign)),f
  2923  0171  1D03               	skipz
  2924  0172  2974               	goto	u3221
  2925  0173  2975               	goto	u3220
  2926  0174                     u3221:
  2927  0174  297D               	goto	l6237
  2928  0175                     u3220:
  2929                           	line	59
  2930                           	
  2931  0175                     l6233:	
  2932  0175  3000               	movlw	0x0
  2933  0176  00BC               	movwf	(?___ftmul)
  2934  0177  3000               	movlw	0x0
  2935  0178  00BD               	movwf	(?___ftmul+1)
  2936  0179  3000               	movlw	0x0
  2937  017A  00BE               	movwf	(?___ftmul+2)
  2938  017B  2A36               	goto	l3634
  2939                           	
  2940  017C                     l6235:	
  2941  017C  2A36               	goto	l3634
  2942                           	
  2943  017D                     l3635:	
  2944                           	line	60
  2945                           	
  2946  017D                     l6237:	
  2947  017D  084B               	movf	(___ftmul@sign),w
  2948  017E  3E7B               	addlw	07Bh
  2949  017F  00C2               	movwf	(??___ftmul+0)+0
  2950  0180  0842               	movf	(??___ftmul+0)+0,w
  2951  0181  07C6               	addwf	(___ftmul@exp),f
  2952                           	line	61
  2953  0182  083C               	movf	(___ftmul@f1),w
  2954  0183  00C2               	movwf	((??___ftmul+0)+0)
  2955  0184  083D               	movf	(___ftmul@f1+1),w
  2956  0185  00C3               	movwf	((??___ftmul+0)+0+1)
  2957  0186  083E               	movf	(___ftmul@f1+2),w
  2958  0187  00C4               	movwf	((??___ftmul+0)+0+2)
  2959  0188  3010               	movlw	010h
  2960  0189                     u3235:
  2961  0189  1003               	clrc
  2962  018A  0CC4               	rrf	(??___ftmul+0)+2,f
  2963  018B  0CC3               	rrf	(??___ftmul+0)+1,f
  2964  018C  0CC2               	rrf	(??___ftmul+0)+0,f
  2965  018D                     u3230:
  2966  018D  3EFF               	addlw	-1
  2967  018E  1D03               	skipz
  2968  018F  2989               	goto	u3235
  2969  0190  0842               	movf	0+(??___ftmul+0)+0,w
  2970  0191  00C5               	movwf	(??___ftmul+3)+0
  2971  0192  0845               	movf	(??___ftmul+3)+0,w
  2972  0193  00CB               	movwf	(___ftmul@sign)
  2973                           	line	62
  2974  0194  083F               	movf	(___ftmul@f2),w
  2975  0195  00C2               	movwf	((??___ftmul+0)+0)
  2976  0196  0840               	movf	(___ftmul@f2+1),w
  2977  0197  00C3               	movwf	((??___ftmul+0)+0+1)
  2978  0198  0841               	movf	(___ftmul@f2+2),w
  2979  0199  00C4               	movwf	((??___ftmul+0)+0+2)
  2980  019A  3010               	movlw	010h
  2981  019B                     u3245:
  2982  019B  1003               	clrc
  2983  019C  0CC4               	rrf	(??___ftmul+0)+2,f
  2984  019D  0CC3               	rrf	(??___ftmul+0)+1,f
  2985  019E  0CC2               	rrf	(??___ftmul+0)+0,f
  2986  019F                     u3240:
  2987  019F  3EFF               	addlw	-1
  2988  01A0  1D03               	skipz
  2989  01A1  299B               	goto	u3245
  2990  01A2  0842               	movf	0+(??___ftmul+0)+0,w
  2991  01A3  00C5               	movwf	(??___ftmul+3)+0
  2992  01A4  0845               	movf	(??___ftmul+3)+0,w
  2993  01A5  06CB               	xorwf	(___ftmul@sign),f
  2994                           	line	63
  2995  01A6  3080               	movlw	(080h)
  2996  01A7  00C2               	movwf	(??___ftmul+0)+0
  2997  01A8  0842               	movf	(??___ftmul+0)+0,w
  2998  01A9  05CB               	andwf	(___ftmul@sign),f
  2999                           	line	64
  3000                           	
  3001  01AA                     l6239:	
  3002  01AA  17BD               	bsf	(___ftmul@f1)+(15/8),(15)&7
  3003                           	line	66
  3004                           	
  3005  01AB                     l6241:	
  3006  01AB  17C0               	bsf	(___ftmul@f2)+(15/8),(15)&7
  3007                           	line	67
  3008                           	
  3009  01AC                     l6243:	
  3010  01AC  30FF               	movlw	0FFh
  3011  01AD  05BF               	andwf	(___ftmul@f2),f
  3012  01AE  30FF               	movlw	0FFh
  3013  01AF  05C0               	andwf	(___ftmul@f2+1),f
  3014  01B0  3000               	movlw	0
  3015  01B1  05C1               	andwf	(___ftmul@f2+2),f
  3016                           	line	68
  3017                           	
  3018  01B2                     l6245:	
  3019  01B2  3000               	movlw	0
  3020  01B3  00C7               	movwf	(___ftmul@f3_as_product)
  3021  01B4  3000               	movlw	0
  3022  01B5  00C8               	movwf	(___ftmul@f3_as_product+1)
  3023  01B6  3000               	movlw	0
  3024  01B7  00C9               	movwf	(___ftmul@f3_as_product+2)
  3025                           	line	69
  3026                           	
  3027  01B8                     l6247:	
  3028  01B8  3007               	movlw	(07h)
  3029  01B9  00C2               	movwf	(??___ftmul+0)+0
  3030  01BA  0842               	movf	(??___ftmul+0)+0,w
  3031  01BB  00CA               	movwf	(___ftmul@cntr)
  3032  01BC  29BD               	goto	l6249
  3033                           	line	70
  3034                           	
  3035  01BD                     l3636:	
  3036                           	line	71
  3037                           	
  3038  01BD                     l6249:	
  3039  01BD  1C3C               	btfss	(___ftmul@f1),(0)&7
  3040  01BE  29C0               	goto	u3251
  3041  01BF  29C1               	goto	u3250
  3042  01C0                     u3251:
  3043  01C0  29D2               	goto	l6253
  3044  01C1                     u3250:
  3045                           	line	72
  3046                           	
  3047  01C1                     l6251:	
  3048  01C1  083F               	movf	(___ftmul@f2),w
  3049  01C2  07C7               	addwf	(___ftmul@f3_as_product),f
  3050  01C3  0840               	movf	(___ftmul@f2+1),w
  3051  01C4  1103               	clrz
  3052  01C5  1803               	skipnc
  3053  01C6  0A40               	incf	(___ftmul@f2+1),w
  3054  01C7  1903               	skipnz
  3055  01C8  29CA               	goto	u3261
  3056  01C9  07C8               	addwf	(___ftmul@f3_as_product+1),f
  3057  01CA                     u3261:
  3058  01CA  0841               	movf	(___ftmul@f2+2),w
  3059  01CB  1103               	clrz
  3060  01CC  1803               	skipnc
  3061  01CD  0A41               	incf	(___ftmul@f2+2),w
  3062  01CE  1903               	skipnz
  3063  01CF  29D1               	goto	u3262
  3064  01D0  07C9               	addwf	(___ftmul@f3_as_product+2),f
  3065  01D1                     u3262:
  3066                           
  3067  01D1  29D2               	goto	l6253
  3068                           	
  3069  01D2                     l3637:	
  3070                           	line	73
  3071                           	
  3072  01D2                     l6253:	
  3073  01D2  3001               	movlw	01h
  3074  01D3                     u3275:
  3075  01D3  1003               	clrc
  3076  01D4  0CBE               	rrf	(___ftmul@f1+2),f
  3077  01D5  0CBD               	rrf	(___ftmul@f1+1),f
  3078  01D6  0CBC               	rrf	(___ftmul@f1),f
  3079  01D7  3EFF               	addlw	-1
  3080  01D8  1D03               	skipz
  3081  01D9  29D3               	goto	u3275
  3082                           
  3083                           	line	74
  3084                           	
  3085  01DA                     l6255:	
  3086  01DA  3001               	movlw	01h
  3087  01DB                     u3285:
  3088  01DB  1003               	clrc
  3089  01DC  0DBF               	rlf	(___ftmul@f2),f
  3090  01DD  0DC0               	rlf	(___ftmul@f2+1),f
  3091  01DE  0DC1               	rlf	(___ftmul@f2+2),f
  3092  01DF  3EFF               	addlw	-1
  3093  01E0  1D03               	skipz
  3094  01E1  29DB               	goto	u3285
  3095                           	line	75
  3096                           	
  3097  01E2                     l6257:	
  3098  01E2  3001               	movlw	low(01h)
  3099  01E3  02CA               	subwf	(___ftmul@cntr),f
  3100  01E4  1D03               	btfss	status,2
  3101  01E5  29E7               	goto	u3291
  3102  01E6  29E8               	goto	u3290
  3103  01E7                     u3291:
  3104  01E7  29BD               	goto	l6249
  3105  01E8                     u3290:
  3106  01E8  29E9               	goto	l6259
  3107                           	
  3108  01E9                     l3638:	
  3109                           	line	76
  3110                           	
  3111  01E9                     l6259:	
  3112  01E9  3009               	movlw	(09h)
  3113  01EA  00C2               	movwf	(??___ftmul+0)+0
  3114  01EB  0842               	movf	(??___ftmul+0)+0,w
  3115  01EC  00CA               	movwf	(___ftmul@cntr)
  3116  01ED  29EE               	goto	l6261
  3117                           	line	77
  3118                           	
  3119  01EE                     l3639:	
  3120                           	line	78
  3121                           	
  3122  01EE                     l6261:	
  3123  01EE  1C3C               	btfss	(___ftmul@f1),(0)&7
  3124  01EF  29F1               	goto	u3301
  3125  01F0  29F2               	goto	u3300
  3126  01F1                     u3301:
  3127  01F1  2A03               	goto	l6265
  3128  01F2                     u3300:
  3129                           	line	79
  3130                           	
  3131  01F2                     l6263:	
  3132  01F2  083F               	movf	(___ftmul@f2),w
  3133  01F3  07C7               	addwf	(___ftmul@f3_as_product),f
  3134  01F4  0840               	movf	(___ftmul@f2+1),w
  3135  01F5  1103               	clrz
  3136  01F6  1803               	skipnc
  3137  01F7  0A40               	incf	(___ftmul@f2+1),w
  3138  01F8  1903               	skipnz
  3139  01F9  29FB               	goto	u3311
  3140  01FA  07C8               	addwf	(___ftmul@f3_as_product+1),f
  3141  01FB                     u3311:
  3142  01FB  0841               	movf	(___ftmul@f2+2),w
  3143  01FC  1103               	clrz
  3144  01FD  1803               	skipnc
  3145  01FE  0A41               	incf	(___ftmul@f2+2),w
  3146  01FF  1903               	skipnz
  3147  0200  2A02               	goto	u3312
  3148  0201  07C9               	addwf	(___ftmul@f3_as_product+2),f
  3149  0202                     u3312:
  3150                           
  3151  0202  2A03               	goto	l6265
  3152                           	
  3153  0203                     l3640:	
  3154                           	line	80
  3155                           	
  3156  0203                     l6265:	
  3157  0203  3001               	movlw	01h
  3158  0204                     u3325:
  3159  0204  1003               	clrc
  3160  0205  0CBE               	rrf	(___ftmul@f1+2),f
  3161  0206  0CBD               	rrf	(___ftmul@f1+1),f
  3162  0207  0CBC               	rrf	(___ftmul@f1),f
  3163  0208  3EFF               	addlw	-1
  3164  0209  1D03               	skipz
  3165  020A  2A04               	goto	u3325
  3166                           
  3167                           	line	81
  3168                           	
  3169  020B                     l6267:	
  3170  020B  3001               	movlw	01h
  3171  020C                     u3335:
  3172  020C  1003               	clrc
  3173  020D  0CC9               	rrf	(___ftmul@f3_as_product+2),f
  3174  020E  0CC8               	rrf	(___ftmul@f3_as_product+1),f
  3175  020F  0CC7               	rrf	(___ftmul@f3_as_product),f
  3176  0210  3EFF               	addlw	-1
  3177  0211  1D03               	skipz
  3178  0212  2A0C               	goto	u3335
  3179                           
  3180                           	line	82
  3181                           	
  3182  0213                     l6269:	
  3183  0213  3001               	movlw	low(01h)
  3184  0214  02CA               	subwf	(___ftmul@cntr),f
  3185  0215  1D03               	btfss	status,2
  3186  0216  2A18               	goto	u3341
  3187  0217  2A19               	goto	u3340
  3188  0218                     u3341:
  3189  0218  29EE               	goto	l6261
  3190  0219                     u3340:
  3191  0219  2A1A               	goto	l6271
  3192                           	
  3193  021A                     l3641:	
  3194                           	line	83
  3195                           	
  3196  021A                     l6271:	
  3197  021A  0847               	movf	(___ftmul@f3_as_product),w
  3198  021B  00A0               	movwf	(?___ftpack)
  3199  021C  0848               	movf	(___ftmul@f3_as_product+1),w
  3200  021D  00A1               	movwf	(?___ftpack+1)
  3201  021E  0849               	movf	(___ftmul@f3_as_product+2),w
  3202  021F  00A2               	movwf	(?___ftpack+2)
  3203  0220  0846               	movf	(___ftmul@exp),w
  3204  0221  00C2               	movwf	(??___ftmul+0)+0
  3205  0222  0842               	movf	(??___ftmul+0)+0,w
  3206  0223  00A3               	movwf	0+(?___ftpack)+03h
  3207  0224  084B               	movf	(___ftmul@sign),w
  3208  0225  00C3               	movwf	(??___ftmul+1)+0
  3209  0226  0843               	movf	(??___ftmul+1)+0,w
  3210  0227  00A4               	movwf	0+(?___ftpack)+04h
  3211  0228  120A  158A  25E0   	fcall	___ftpack
              120A  118A         
  3212  022D  1283               	bcf	status, 5	;RP0=0, select bank0
  3213  022E  1303               	bcf	status, 6	;RP1=0, select bank0
  3214  022F  0820               	movf	(0+(?___ftpack)),w
  3215  0230  00BC               	movwf	(?___ftmul)
  3216  0231  0821               	movf	(1+(?___ftpack)),w
  3217  0232  00BD               	movwf	(?___ftmul+1)
  3218  0233  0822               	movf	(2+(?___ftpack)),w
  3219  0234  00BE               	movwf	(?___ftmul+2)
  3220  0235  2A36               	goto	l3634
  3221                           	
  3222  0236                     l6273:	
  3223                           	line	84
  3224                           	
  3225  0236                     l3634:	
  3226  0236  0008               	return
  3227                           	opt stack 0
  3228                           GLOBAL	__end_of___ftmul
  3229  0237                     	__end_of___ftmul:
  3230 ;; =============== function ___ftmul ends ============
  3231                           
  3232                           	signat	___ftmul,8315
  3233                           	global	___ftdiv
  3234                           psect	text567,local,class=CODE,delta=2
  3235                           global __ptext567
  3236  0081                     __ptext567:
  3237                           
  3238 ;; *************** function ___ftdiv *****************
  3239 ;; Defined at:
  3240 ;;		line 50 in file "C:\Program Files (x86)\HI-TECH Software\PICC\9.83\sources\ftdiv.c"
  3241 ;; Parameters:    Size  Location     Type
  3242 ;;  f2              3   14[BANK0 ] float 
  3243 ;;  f1              3   17[BANK0 ] float 
  3244 ;; Auto vars:     Size  Location     Type
  3245 ;;  f3              3   25[BANK0 ] float 
  3246 ;;  sign            1   29[BANK0 ] unsigned char 
  3247 ;;  exp             1   28[BANK0 ] unsigned char 
  3248 ;;  cntr            1   24[BANK0 ] unsigned char 
  3249 ;; Return value:  Size  Location     Type
  3250 ;;                  3   14[BANK0 ] float 
  3251 ;; Registers used:
  3252 ;;		wreg, status,2, status,0, pclath, cstack
  3253 ;; Tracked objects:
  3254 ;;		On entry : 0/0
  3255 ;;		On exit  : 0/0
  3256 ;;		Unchanged: 0/0
  3257 ;; Data sizes:     COMMON   BANK0   BANK1   BANK3   BANK2
  3258 ;;      Params:         0       6       0       0       0
  3259 ;;      Locals:         0       6       0       0       0
  3260 ;;      Temps:          0       4       0       0       0
  3261 ;;      Totals:         0      16       0       0       0
  3262 ;;Total ram usage:       16 bytes
  3263 ;; Hardware stack levels used:    1
  3264 ;; Hardware stack levels required when called:    3
  3265 ;; This function calls:
  3266 ;;		___ftpack
  3267 ;; This function is called by:
  3268 ;;		_infrared
  3269 ;; This function uses a non-reentrant model
  3270 ;;
  3271                           psect	text567
  3272                           	file	"C:\Program Files (x86)\HI-TECH Software\PICC\9.83\sources\ftdiv.c"
  3273                           	line	50
  3274                           	global	__size_of___ftdiv
  3275  00C8                     	__size_of___ftdiv	equ	__end_of___ftdiv-___ftdiv
  3276                           	
  3277  0081                     ___ftdiv:	
  3278                           	opt	stack 3
  3279                           ; Regs used in ___ftdiv: [wreg+status,2+status,0+pclath+cstack]
  3280                           	line	55
  3281                           	
  3282  0081                     l6183:	
  3283  0081  1283               	bcf	status, 5	;RP0=0, select bank0
  3284  0082  1303               	bcf	status, 6	;RP1=0, select bank0
  3285  0083  0831               	movf	(___ftdiv@f1),w
  3286  0084  00B4               	movwf	((??___ftdiv+0)+0)
  3287  0085  0832               	movf	(___ftdiv@f1+1),w
  3288  0086  00B5               	movwf	((??___ftdiv+0)+0+1)
  3289  0087  0833               	movf	(___ftdiv@f1+2),w
  3290  0088  00B6               	movwf	((??___ftdiv+0)+0+2)
  3291  0089  1003               	clrc
  3292  008A  0D35               	rlf	(??___ftdiv+0)+1,w
  3293  008B  0D36               	rlf	(??___ftdiv+0)+2,w
  3294  008C  00B7               	movwf	(??___ftdiv+3)+0
  3295  008D  0837               	movf	(??___ftdiv+3)+0,w
  3296  008E  00BC               	movwf	(___ftdiv@exp)
  3297  008F  08BC               	movf	((___ftdiv@exp)),f
  3298  0090  1D03               	skipz
  3299  0091  2893               	goto	u3131
  3300  0092  2894               	goto	u3130
  3301  0093                     u3131:
  3302  0093  289C               	goto	l6189
  3303  0094                     u3130:
  3304                           	line	56
  3305                           	
  3306  0094                     l6185:	
  3307  0094  3000               	movlw	0x0
  3308  0095  00AE               	movwf	(?___ftdiv)
  3309  0096  3000               	movlw	0x0
  3310  0097  00AF               	movwf	(?___ftdiv+1)
  3311  0098  3000               	movlw	0x0
  3312  0099  00B0               	movwf	(?___ftdiv+2)
  3313  009A  2948               	goto	l3624
  3314                           	
  3315  009B                     l6187:	
  3316  009B  2948               	goto	l3624
  3317                           	
  3318  009C                     l3623:	
  3319                           	line	57
  3320                           	
  3321  009C                     l6189:	
  3322  009C  082E               	movf	(___ftdiv@f2),w
  3323  009D  00B4               	movwf	((??___ftdiv+0)+0)
  3324  009E  082F               	movf	(___ftdiv@f2+1),w
  3325  009F  00B5               	movwf	((??___ftdiv+0)+0+1)
  3326  00A0  0830               	movf	(___ftdiv@f2+2),w
  3327  00A1  00B6               	movwf	((??___ftdiv+0)+0+2)
  3328  00A2  1003               	clrc
  3329  00A3  0D35               	rlf	(??___ftdiv+0)+1,w
  3330  00A4  0D36               	rlf	(??___ftdiv+0)+2,w
  3331  00A5  00B7               	movwf	(??___ftdiv+3)+0
  3332  00A6  0837               	movf	(??___ftdiv+3)+0,w
  3333  00A7  00BD               	movwf	(___ftdiv@sign)
  3334  00A8  08BD               	movf	((___ftdiv@sign)),f
  3335  00A9  1D03               	skipz
  3336  00AA  28AC               	goto	u3141
  3337  00AB  28AD               	goto	u3140
  3338  00AC                     u3141:
  3339  00AC  28B5               	goto	l6195
  3340  00AD                     u3140:
  3341                           	line	58
  3342                           	
  3343  00AD                     l6191:	
  3344  00AD  3000               	movlw	0x0
  3345  00AE  00AE               	movwf	(?___ftdiv)
  3346  00AF  3000               	movlw	0x0
  3347  00B0  00AF               	movwf	(?___ftdiv+1)
  3348  00B1  3000               	movlw	0x0
  3349  00B2  00B0               	movwf	(?___ftdiv+2)
  3350  00B3  2948               	goto	l3624
  3351                           	
  3352  00B4                     l6193:	
  3353  00B4  2948               	goto	l3624
  3354                           	
  3355  00B5                     l3625:	
  3356                           	line	59
  3357                           	
  3358  00B5                     l6195:	
  3359  00B5  3000               	movlw	0
  3360  00B6  00B9               	movwf	(___ftdiv@f3)
  3361  00B7  3000               	movlw	0
  3362  00B8  00BA               	movwf	(___ftdiv@f3+1)
  3363  00B9  3000               	movlw	0
  3364  00BA  00BB               	movwf	(___ftdiv@f3+2)
  3365                           	line	60
  3366                           	
  3367  00BB                     l6197:	
  3368  00BB  3089               	movlw	(089h)
  3369  00BC  073D               	addwf	(___ftdiv@sign),w
  3370  00BD  00B4               	movwf	(??___ftdiv+0)+0
  3371  00BE  0834               	movf	0+(??___ftdiv+0)+0,w
  3372  00BF  02BC               	subwf	(___ftdiv@exp),f
  3373                           	line	61
  3374                           	
  3375  00C0                     l6199:	
  3376  00C0  0831               	movf	(___ftdiv@f1),w
  3377  00C1  00B4               	movwf	((??___ftdiv+0)+0)
  3378  00C2  0832               	movf	(___ftdiv@f1+1),w
  3379  00C3  00B5               	movwf	((??___ftdiv+0)+0+1)
  3380  00C4  0833               	movf	(___ftdiv@f1+2),w
  3381  00C5  00B6               	movwf	((??___ftdiv+0)+0+2)
  3382  00C6  3010               	movlw	010h
  3383  00C7                     u3155:
  3384  00C7  1003               	clrc
  3385  00C8  0CB6               	rrf	(??___ftdiv+0)+2,f
  3386  00C9  0CB5               	rrf	(??___ftdiv+0)+1,f
  3387  00CA  0CB4               	rrf	(??___ftdiv+0)+0,f
  3388  00CB                     u3150:
  3389  00CB  3EFF               	addlw	-1
  3390  00CC  1D03               	skipz
  3391  00CD  28C7               	goto	u3155
  3392  00CE  0834               	movf	0+(??___ftdiv+0)+0,w
  3393  00CF  00B7               	movwf	(??___ftdiv+3)+0
  3394  00D0  0837               	movf	(??___ftdiv+3)+0,w
  3395  00D1  00BD               	movwf	(___ftdiv@sign)
  3396                           	line	62
  3397                           	
  3398  00D2                     l6201:	
  3399  00D2  082E               	movf	(___ftdiv@f2),w
  3400  00D3  00B4               	movwf	((??___ftdiv+0)+0)
  3401  00D4  082F               	movf	(___ftdiv@f2+1),w
  3402  00D5  00B5               	movwf	((??___ftdiv+0)+0+1)
  3403  00D6  0830               	movf	(___ftdiv@f2+2),w
  3404  00D7  00B6               	movwf	((??___ftdiv+0)+0+2)
  3405  00D8  3010               	movlw	010h
  3406  00D9                     u3165:
  3407  00D9  1003               	clrc
  3408  00DA  0CB6               	rrf	(??___ftdiv+0)+2,f
  3409  00DB  0CB5               	rrf	(??___ftdiv+0)+1,f
  3410  00DC  0CB4               	rrf	(??___ftdiv+0)+0,f
  3411  00DD                     u3160:
  3412  00DD  3EFF               	addlw	-1
  3413  00DE  1D03               	skipz
  3414  00DF  28D9               	goto	u3165
  3415  00E0  0834               	movf	0+(??___ftdiv+0)+0,w
  3416  00E1  00B7               	movwf	(??___ftdiv+3)+0
  3417  00E2  0837               	movf	(??___ftdiv+3)+0,w
  3418  00E3  06BD               	xorwf	(___ftdiv@sign),f
  3419                           	line	63
  3420                           	
  3421  00E4                     l6203:	
  3422  00E4  3080               	movlw	(080h)
  3423  00E5  00B4               	movwf	(??___ftdiv+0)+0
  3424  00E6  0834               	movf	(??___ftdiv+0)+0,w
  3425  00E7  05BD               	andwf	(___ftdiv@sign),f
  3426                           	line	64
  3427                           	
  3428  00E8                     l6205:	
  3429  00E8  17B2               	bsf	(___ftdiv@f1)+(15/8),(15)&7
  3430                           	line	65
  3431  00E9  30FF               	movlw	0FFh
  3432  00EA  05B1               	andwf	(___ftdiv@f1),f
  3433  00EB  30FF               	movlw	0FFh
  3434  00EC  05B2               	andwf	(___ftdiv@f1+1),f
  3435  00ED  3000               	movlw	0
  3436  00EE  05B3               	andwf	(___ftdiv@f1+2),f
  3437                           	line	66
  3438                           	
  3439  00EF                     l6207:	
  3440  00EF  17AF               	bsf	(___ftdiv@f2)+(15/8),(15)&7
  3441                           	line	67
  3442  00F0  30FF               	movlw	0FFh
  3443  00F1  05AE               	andwf	(___ftdiv@f2),f
  3444  00F2  30FF               	movlw	0FFh
  3445  00F3  05AF               	andwf	(___ftdiv@f2+1),f
  3446  00F4  3000               	movlw	0
  3447  00F5  05B0               	andwf	(___ftdiv@f2+2),f
  3448                           	line	68
  3449  00F6  3018               	movlw	(018h)
  3450  00F7  00B4               	movwf	(??___ftdiv+0)+0
  3451  00F8  0834               	movf	(??___ftdiv+0)+0,w
  3452  00F9  00B8               	movwf	(___ftdiv@cntr)
  3453  00FA  28FB               	goto	l6209
  3454                           	line	69
  3455                           	
  3456  00FB                     l3626:	
  3457                           	line	70
  3458                           	
  3459  00FB                     l6209:	
  3460  00FB  3001               	movlw	01h
  3461  00FC                     u3175:
  3462  00FC  1003               	clrc
  3463  00FD  0DB9               	rlf	(___ftdiv@f3),f
  3464  00FE  0DBA               	rlf	(___ftdiv@f3+1),f
  3465  00FF  0DBB               	rlf	(___ftdiv@f3+2),f
  3466  0100  3EFF               	addlw	-1
  3467  0101  1D03               	skipz
  3468  0102  28FC               	goto	u3175
  3469                           	line	71
  3470                           	
  3471  0103                     l6211:	
  3472  0103  0830               	movf	(___ftdiv@f2+2),w
  3473  0104  0233               	subwf	(___ftdiv@f1+2),w
  3474  0105  1D03               	skipz
  3475  0106  290D               	goto	u3185
  3476  0107  082F               	movf	(___ftdiv@f2+1),w
  3477  0108  0232               	subwf	(___ftdiv@f1+1),w
  3478  0109  1D03               	skipz
  3479  010A  290D               	goto	u3185
  3480  010B  082E               	movf	(___ftdiv@f2),w
  3481  010C  0231               	subwf	(___ftdiv@f1),w
  3482  010D                     u3185:
  3483  010D  1C03               	skipc
  3484  010E  2910               	goto	u3181
  3485  010F  2911               	goto	u3180
  3486  0110                     u3181:
  3487  0110  291D               	goto	l6217
  3488  0111                     u3180:
  3489                           	line	72
  3490                           	
  3491  0111                     l6213:	
  3492  0111  082E               	movf	(___ftdiv@f2),w
  3493  0112  02B1               	subwf	(___ftdiv@f1),f
  3494  0113  082F               	movf	(___ftdiv@f2+1),w
  3495  0114  1C03               	skipc
  3496  0115  0F2F               	incfsz	(___ftdiv@f2+1),w
  3497  0116  02B2               	subwf	(___ftdiv@f1+1),f
  3498  0117  0830               	movf	(___ftdiv@f2+2),w
  3499  0118  1C03               	skipc
  3500  0119  0A30               	incf	(___ftdiv@f2+2),w
  3501  011A  02B3               	subwf	(___ftdiv@f1+2),f
  3502                           	line	73
  3503                           	
  3504  011B                     l6215:	
  3505  011B  1439               	bsf	(___ftdiv@f3)+(0/8),(0)&7
  3506  011C  291D               	goto	l6217
  3507                           	line	74
  3508                           	
  3509  011D                     l3627:	
  3510                           	line	75
  3511                           	
  3512  011D                     l6217:	
  3513  011D  3001               	movlw	01h
  3514  011E                     u3195:
  3515  011E  1003               	clrc
  3516  011F  0DB1               	rlf	(___ftdiv@f1),f
  3517  0120  0DB2               	rlf	(___ftdiv@f1+1),f
  3518  0121  0DB3               	rlf	(___ftdiv@f1+2),f
  3519  0122  3EFF               	addlw	-1
  3520  0123  1D03               	skipz
  3521  0124  291E               	goto	u3195
  3522                           	line	76
  3523                           	
  3524  0125                     l6219:	
  3525  0125  3001               	movlw	low(01h)
  3526  0126  02B8               	subwf	(___ftdiv@cntr),f
  3527  0127  1D03               	btfss	status,2
  3528  0128  292A               	goto	u3201
  3529  0129  292B               	goto	u3200
  3530  012A                     u3201:
  3531  012A  28FB               	goto	l6209
  3532  012B                     u3200:
  3533  012B  292C               	goto	l6221
  3534                           	
  3535  012C                     l3628:	
  3536                           	line	77
  3537                           	
  3538  012C                     l6221:	
  3539  012C  0839               	movf	(___ftdiv@f3),w
  3540  012D  00A0               	movwf	(?___ftpack)
  3541  012E  083A               	movf	(___ftdiv@f3+1),w
  3542  012F  00A1               	movwf	(?___ftpack+1)
  3543  0130  083B               	movf	(___ftdiv@f3+2),w
  3544  0131  00A2               	movwf	(?___ftpack+2)
  3545  0132  083C               	movf	(___ftdiv@exp),w
  3546  0133  00B4               	movwf	(??___ftdiv+0)+0
  3547  0134  0834               	movf	(??___ftdiv+0)+0,w
  3548  0135  00A3               	movwf	0+(?___ftpack)+03h
  3549  0136  083D               	movf	(___ftdiv@sign),w
  3550  0137  00B5               	movwf	(??___ftdiv+1)+0
  3551  0138  0835               	movf	(??___ftdiv+1)+0,w
  3552  0139  00A4               	movwf	0+(?___ftpack)+04h
  3553  013A  120A  158A  25E0   	fcall	___ftpack
              120A  118A         
  3554  013F  1283               	bcf	status, 5	;RP0=0, select bank0
  3555  0140  1303               	bcf	status, 6	;RP1=0, select bank0
  3556  0141  0820               	movf	(0+(?___ftpack)),w
  3557  0142  00AE               	movwf	(?___ftdiv)
  3558  0143  0821               	movf	(1+(?___ftpack)),w
  3559  0144  00AF               	movwf	(?___ftdiv+1)
  3560  0145  0822               	movf	(2+(?___ftpack)),w
  3561  0146  00B0               	movwf	(?___ftdiv+2)
  3562  0147  2948               	goto	l3624
  3563                           	
  3564  0148                     l6223:	
  3565                           	line	78
  3566                           	
  3567  0148                     l3624:	
  3568  0148  0008               	return
  3569                           	opt stack 0
  3570                           GLOBAL	__end_of___ftdiv
  3571  0149                     	__end_of___ftdiv:
  3572 ;; =============== function ___ftdiv ends ============
  3573                           
  3574                           	signat	___ftdiv,8315
  3575                           	global	___ftadd
  3576                           psect	text568,local,class=CODE,delta=2
  3577                           global __ptext568
  3578  0237                     __ptext568:
  3579                           
  3580 ;; *************** function ___ftadd *****************
  3581 ;; Defined at:
  3582 ;;		line 87 in file "C:\Program Files (x86)\HI-TECH Software\PICC\9.83\sources\ftadd.c"
  3583 ;; Parameters:    Size  Location     Type
  3584 ;;  f1              3   15[BANK0 ] float 
  3585 ;;  f2              3   18[BANK0 ] float 
  3586 ;; Auto vars:     Size  Location     Type
  3587 ;;  exp1            1   27[BANK0 ] unsigned char 
  3588 ;;  exp2            1   26[BANK0 ] unsigned char 
  3589 ;;  sign            1   25[BANK0 ] unsigned char 
  3590 ;; Return value:  Size  Location     Type
  3591 ;;                  3   15[BANK0 ] float 
  3592 ;; Registers used:
  3593 ;;		wreg, status,2, status,0, pclath, cstack
  3594 ;; Tracked objects:
  3595 ;;		On entry : 0/0
  3596 ;;		On exit  : 0/0
  3597 ;;		Unchanged: 0/0
  3598 ;; Data sizes:     COMMON   BANK0   BANK1   BANK3   BANK2
  3599 ;;      Params:         0       6       0       0       0
  3600 ;;      Locals:         0       3       0       0       0
  3601 ;;      Temps:          0       4       0       0       0
  3602 ;;      Totals:         0      13       0       0       0
  3603 ;;Total ram usage:       13 bytes
  3604 ;; Hardware stack levels used:    1
  3605 ;; Hardware stack levels required when called:    3
  3606 ;; This function calls:
  3607 ;;		___ftpack
  3608 ;; This function is called by:
  3609 ;;		_infrared
  3610 ;;		___ftsub
  3611 ;; This function uses a non-reentrant model
  3612 ;;
  3613                           psect	text568
  3614                           	file	"C:\Program Files (x86)\HI-TECH Software\PICC\9.83\sources\ftadd.c"
  3615                           	line	87
  3616                           	global	__size_of___ftadd
  3617  0146                     	__size_of___ftadd	equ	__end_of___ftadd-___ftadd
  3618                           	
  3619  0237                     ___ftadd:	
  3620                           	opt	stack 3
  3621                           ; Regs used in ___ftadd: [wreg+status,2+status,0+pclath+cstack]
  3622                           	line	90
  3623                           	
  3624  0237                     l6113:	
  3625  0237  1283               	bcf	status, 5	;RP0=0, select bank0
  3626  0238  1303               	bcf	status, 6	;RP1=0, select bank0
  3627  0239  082F               	movf	(___ftadd@f1),w
  3628  023A  00B5               	movwf	((??___ftadd+0)+0)
  3629  023B  0830               	movf	(___ftadd@f1+1),w
  3630  023C  00B6               	movwf	((??___ftadd+0)+0+1)
  3631  023D  0831               	movf	(___ftadd@f1+2),w
  3632  023E  00B7               	movwf	((??___ftadd+0)+0+2)
  3633  023F  1003               	clrc
  3634  0240  0D36               	rlf	(??___ftadd+0)+1,w
  3635  0241  0D37               	rlf	(??___ftadd+0)+2,w
  3636  0242  00B8               	movwf	(??___ftadd+3)+0
  3637  0243  0838               	movf	(??___ftadd+3)+0,w
  3638  0244  00BB               	movwf	(___ftadd@exp1)
  3639                           	line	91
  3640  0245  0832               	movf	(___ftadd@f2),w
  3641  0246  00B5               	movwf	((??___ftadd+0)+0)
  3642  0247  0833               	movf	(___ftadd@f2+1),w
  3643  0248  00B6               	movwf	((??___ftadd+0)+0+1)
  3644  0249  0834               	movf	(___ftadd@f2+2),w
  3645  024A  00B7               	movwf	((??___ftadd+0)+0+2)
  3646  024B  1003               	clrc
  3647  024C  0D36               	rlf	(??___ftadd+0)+1,w
  3648  024D  0D37               	rlf	(??___ftadd+0)+2,w
  3649  024E  00B8               	movwf	(??___ftadd+3)+0
  3650  024F  0838               	movf	(??___ftadd+3)+0,w
  3651  0250  00BA               	movwf	(___ftadd@exp2)
  3652                           	line	92
  3653                           	
  3654  0251                     l6115:	
  3655  0251  083B               	movf	(___ftadd@exp1),w
  3656  0252  1D03               	skipz
  3657  0253  2A55               	goto	u2890
  3658  0254  2A66               	goto	l6121
  3659  0255                     u2890:
  3660                           	
  3661  0255                     l6117:	
  3662  0255  083A               	movf	(___ftadd@exp2),w
  3663  0256  023B               	subwf	(___ftadd@exp1),w
  3664  0257  1803               	skipnc
  3665  0258  2A5A               	goto	u2901
  3666  0259  2A5B               	goto	u2900
  3667  025A                     u2901:
  3668  025A  2A6E               	goto	l6125
  3669  025B                     u2900:
  3670                           	
  3671  025B                     l6119:	
  3672  025B  033B               	decf	(___ftadd@exp1),w
  3673  025C  3AFF               	xorlw	0ffh
  3674  025D  073A               	addwf	(___ftadd@exp2),w
  3675  025E  00B5               	movwf	(??___ftadd+0)+0
  3676  025F  3019               	movlw	(019h)
  3677  0260  0235               	subwf	0+(??___ftadd+0)+0,w
  3678  0261  1C03               	skipc
  3679  0262  2A64               	goto	u2911
  3680  0263  2A65               	goto	u2910
  3681  0264                     u2911:
  3682  0264  2A6E               	goto	l6125
  3683  0265                     u2910:
  3684  0265  2A66               	goto	l6121
  3685                           	
  3686  0266                     l3581:	
  3687                           	line	93
  3688                           	
  3689  0266                     l6121:	
  3690  0266  0832               	movf	(___ftadd@f2),w
  3691  0267  00AF               	movwf	(?___ftadd)
  3692  0268  0833               	movf	(___ftadd@f2+1),w
  3693  0269  00B0               	movwf	(?___ftadd+1)
  3694  026A  0834               	movf	(___ftadd@f2+2),w
  3695  026B  00B1               	movwf	(?___ftadd+2)
  3696  026C  2B7C               	goto	l3582
  3697                           	
  3698  026D                     l6123:	
  3699  026D  2B7C               	goto	l3582
  3700                           	
  3701  026E                     l3579:	
  3702                           	line	94
  3703                           	
  3704  026E                     l6125:	
  3705  026E  083A               	movf	(___ftadd@exp2),w
  3706  026F  1D03               	skipz
  3707  0270  2A72               	goto	u2920
  3708  0271  2A82               	goto	l3585
  3709  0272                     u2920:
  3710                           	
  3711  0272                     l6127:	
  3712  0272  083B               	movf	(___ftadd@exp1),w
  3713  0273  023A               	subwf	(___ftadd@exp2),w
  3714  0274  1803               	skipnc
  3715  0275  2A77               	goto	u2931
  3716  0276  2A78               	goto	u2930
  3717  0277                     u2931:
  3718  0277  2A83               	goto	l6131
  3719  0278                     u2930:
  3720                           	
  3721  0278                     l6129:	
  3722  0278  033A               	decf	(___ftadd@exp2),w
  3723  0279  3AFF               	xorlw	0ffh
  3724  027A  073B               	addwf	(___ftadd@exp1),w
  3725  027B  00B5               	movwf	(??___ftadd+0)+0
  3726  027C  3019               	movlw	(019h)
  3727  027D  0235               	subwf	0+(??___ftadd+0)+0,w
  3728  027E  1C03               	skipc
  3729  027F  2A81               	goto	u2941
  3730  0280  2A82               	goto	u2940
  3731  0281                     u2941:
  3732  0281  2A83               	goto	l6131
  3733  0282                     u2940:
  3734                           	
  3735  0282                     l3585:	
  3736                           	line	95
  3737  0282  2B7C               	goto	l3582
  3738                           	
  3739  0283                     l3583:	
  3740                           	line	96
  3741                           	
  3742  0283                     l6131:	
  3743  0283  3006               	movlw	(06h)
  3744  0284  00B5               	movwf	(??___ftadd+0)+0
  3745  0285  0835               	movf	(??___ftadd+0)+0,w
  3746  0286  00B9               	movwf	(___ftadd@sign)
  3747                           	line	97
  3748                           	
  3749  0287                     l6133:	
  3750  0287  1FB1               	btfss	(___ftadd@f1+2),(23)&7
  3751  0288  2A8A               	goto	u2951
  3752  0289  2A8B               	goto	u2950
  3753  028A                     u2951:
  3754  028A  2A8C               	goto	l3586
  3755  028B                     u2950:
  3756                           	line	98
  3757                           	
  3758  028B                     l6135:	
  3759  028B  17B9               	bsf	(___ftadd@sign)+(7/8),(7)&7
  3760                           	
  3761  028C                     l3586:	
  3762                           	line	99
  3763  028C  1FB4               	btfss	(___ftadd@f2+2),(23)&7
  3764  028D  2A8F               	goto	u2961
  3765  028E  2A90               	goto	u2960
  3766  028F                     u2961:
  3767  028F  2A91               	goto	l3587
  3768  0290                     u2960:
  3769                           	line	100
  3770                           	
  3771  0290                     l6137:	
  3772  0290  1739               	bsf	(___ftadd@sign)+(6/8),(6)&7
  3773                           	
  3774  0291                     l3587:	
  3775                           	line	101
  3776  0291  17B0               	bsf	(___ftadd@f1)+(15/8),(15)&7
  3777                           	line	102
  3778                           	
  3779  0292                     l6139:	
  3780  0292  30FF               	movlw	0FFh
  3781  0293  05AF               	andwf	(___ftadd@f1),f
  3782  0294  30FF               	movlw	0FFh
  3783  0295  05B0               	andwf	(___ftadd@f1+1),f
  3784  0296  3000               	movlw	0
  3785  0297  05B1               	andwf	(___ftadd@f1+2),f
  3786                           	line	103
  3787                           	
  3788  0298                     l6141:	
  3789  0298  17B3               	bsf	(___ftadd@f2)+(15/8),(15)&7
  3790                           	line	104
  3791  0299  30FF               	movlw	0FFh
  3792  029A  05B2               	andwf	(___ftadd@f2),f
  3793  029B  30FF               	movlw	0FFh
  3794  029C  05B3               	andwf	(___ftadd@f2+1),f
  3795  029D  3000               	movlw	0
  3796  029E  05B4               	andwf	(___ftadd@f2+2),f
  3797                           	line	106
  3798  029F  083A               	movf	(___ftadd@exp2),w
  3799  02A0  023B               	subwf	(___ftadd@exp1),w
  3800  02A1  1803               	skipnc
  3801  02A2  2AA4               	goto	u2971
  3802  02A3  2AA5               	goto	u2970
  3803  02A4                     u2971:
  3804  02A4  2AD6               	goto	l6153
  3805  02A5                     u2970:
  3806  02A5  2AA6               	goto	l6143
  3807                           	line	109
  3808                           	
  3809  02A6                     l3589:	
  3810                           	line	110
  3811                           	
  3812  02A6                     l6143:	
  3813  02A6  3001               	movlw	01h
  3814  02A7                     u2985:
  3815  02A7  1003               	clrc
  3816  02A8  0DB2               	rlf	(___ftadd@f2),f
  3817  02A9  0DB3               	rlf	(___ftadd@f2+1),f
  3818  02AA  0DB4               	rlf	(___ftadd@f2+2),f
  3819  02AB  3EFF               	addlw	-1
  3820  02AC  1D03               	skipz
  3821  02AD  2AA7               	goto	u2985
  3822                           	line	111
  3823  02AE  3001               	movlw	low(01h)
  3824  02AF  02BA               	subwf	(___ftadd@exp2),f
  3825                           	line	112
  3826                           	
  3827  02B0                     l6145:	
  3828  02B0  083A               	movf	(___ftadd@exp2),w
  3829  02B1  063B               	xorwf	(___ftadd@exp1),w
  3830  02B2  1903               	skipnz
  3831  02B3  2AB5               	goto	u2991
  3832  02B4  2AB6               	goto	u2990
  3833  02B5                     u2991:
  3834  02B5  2ACE               	goto	l6151
  3835  02B6                     u2990:
  3836                           	
  3837  02B6                     l6147:	
  3838  02B6  3001               	movlw	low(01h)
  3839  02B7  02B9               	subwf	(___ftadd@sign),f
  3840  02B8  0839               	movf	((___ftadd@sign)),w
  3841  02B9  3907               	andlw	07h
  3842  02BA  1D03               	btfss	status,2
  3843  02BB  2ABD               	goto	u3001
  3844  02BC  2ABE               	goto	u3000
  3845  02BD                     u3001:
  3846  02BD  2AA6               	goto	l6143
  3847  02BE                     u3000:
  3848  02BE  2ACE               	goto	l6151
  3849                           	
  3850  02BF                     l3591:	
  3851  02BF  2ACE               	goto	l6151
  3852                           	
  3853  02C0                     l3592:	
  3854                           	line	113
  3855  02C0  2ACE               	goto	l6151
  3856                           	
  3857  02C1                     l3594:	
  3858                           	line	114
  3859                           	
  3860  02C1                     l6149:	
  3861  02C1  3001               	movlw	01h
  3862  02C2                     u3015:
  3863  02C2  1003               	clrc
  3864  02C3  0CB1               	rrf	(___ftadd@f1+2),f
  3865  02C4  0CB0               	rrf	(___ftadd@f1+1),f
  3866  02C5  0CAF               	rrf	(___ftadd@f1),f
  3867  02C6  3EFF               	addlw	-1
  3868  02C7  1D03               	skipz
  3869  02C8  2AC2               	goto	u3015
  3870                           
  3871                           	line	115
  3872  02C9  3001               	movlw	(01h)
  3873  02CA  00B5               	movwf	(??___ftadd+0)+0
  3874  02CB  0835               	movf	(??___ftadd+0)+0,w
  3875  02CC  07BB               	addwf	(___ftadd@exp1),f
  3876  02CD  2ACE               	goto	l6151
  3877                           	line	116
  3878                           	
  3879  02CE                     l3593:	
  3880                           	line	113
  3881                           	
  3882  02CE                     l6151:	
  3883  02CE  083B               	movf	(___ftadd@exp1),w
  3884  02CF  063A               	xorwf	(___ftadd@exp2),w
  3885  02D0  1D03               	skipz
  3886  02D1  2AD3               	goto	u3021
  3887  02D2  2AD4               	goto	u3020
  3888  02D3                     u3021:
  3889  02D3  2AC1               	goto	l6149
  3890  02D4                     u3020:
  3891  02D4  2B0D               	goto	l3596
  3892                           	
  3893  02D5                     l3595:	
  3894                           	line	117
  3895  02D5  2B0D               	goto	l3596
  3896                           	
  3897  02D6                     l3588:	
  3898                           	
  3899  02D6                     l6153:	
  3900  02D6  083B               	movf	(___ftadd@exp1),w
  3901  02D7  023A               	subwf	(___ftadd@exp2),w
  3902  02D8  1803               	skipnc
  3903  02D9  2ADB               	goto	u3031
  3904  02DA  2ADC               	goto	u3030
  3905  02DB                     u3031:
  3906  02DB  2B0D               	goto	l3596
  3907  02DC                     u3030:
  3908  02DC  2ADD               	goto	l6155
  3909                           	line	120
  3910                           	
  3911  02DD                     l3598:	
  3912                           	line	121
  3913                           	
  3914  02DD                     l6155:	
  3915  02DD  3001               	movlw	01h
  3916  02DE                     u3045:
  3917  02DE  1003               	clrc
  3918  02DF  0DAF               	rlf	(___ftadd@f1),f
  3919  02E0  0DB0               	rlf	(___ftadd@f1+1),f
  3920  02E1  0DB1               	rlf	(___ftadd@f1+2),f
  3921  02E2  3EFF               	addlw	-1
  3922  02E3  1D03               	skipz
  3923  02E4  2ADE               	goto	u3045
  3924                           	line	122
  3925  02E5  3001               	movlw	low(01h)
  3926  02E6  02BB               	subwf	(___ftadd@exp1),f
  3927                           	line	123
  3928                           	
  3929  02E7                     l6157:	
  3930  02E7  083A               	movf	(___ftadd@exp2),w
  3931  02E8  063B               	xorwf	(___ftadd@exp1),w
  3932  02E9  1903               	skipnz
  3933  02EA  2AEC               	goto	u3051
  3934  02EB  2AED               	goto	u3050
  3935  02EC                     u3051:
  3936  02EC  2B05               	goto	l6163
  3937  02ED                     u3050:
  3938                           	
  3939  02ED                     l6159:	
  3940  02ED  3001               	movlw	low(01h)
  3941  02EE  02B9               	subwf	(___ftadd@sign),f
  3942  02EF  0839               	movf	((___ftadd@sign)),w
  3943  02F0  3907               	andlw	07h
  3944  02F1  1D03               	btfss	status,2
  3945  02F2  2AF4               	goto	u3061
  3946  02F3  2AF5               	goto	u3060
  3947  02F4                     u3061:
  3948  02F4  2ADD               	goto	l6155
  3949  02F5                     u3060:
  3950  02F5  2B05               	goto	l6163
  3951                           	
  3952  02F6                     l3600:	
  3953  02F6  2B05               	goto	l6163
  3954                           	
  3955  02F7                     l3601:	
  3956                           	line	124
  3957  02F7  2B05               	goto	l6163
  3958                           	
  3959  02F8                     l3603:	
  3960                           	line	125
  3961                           	
  3962  02F8                     l6161:	
  3963  02F8  3001               	movlw	01h
  3964  02F9                     u3075:
  3965  02F9  1003               	clrc
  3966  02FA  0CB4               	rrf	(___ftadd@f2+2),f
  3967  02FB  0CB3               	rrf	(___ftadd@f2+1),f
  3968  02FC  0CB2               	rrf	(___ftadd@f2),f
  3969  02FD  3EFF               	addlw	-1
  3970  02FE  1D03               	skipz
  3971  02FF  2AF9               	goto	u3075
  3972                           
  3973                           	line	126
  3974  0300  3001               	movlw	(01h)
  3975  0301  00B5               	movwf	(??___ftadd+0)+0
  3976  0302  0835               	movf	(??___ftadd+0)+0,w
  3977  0303  07BA               	addwf	(___ftadd@exp2),f
  3978  0304  2B05               	goto	l6163
  3979                           	line	127
  3980                           	
  3981  0305                     l3602:	
  3982                           	line	124
  3983                           	
  3984  0305                     l6163:	
  3985  0305  083B               	movf	(___ftadd@exp1),w
  3986  0306  063A               	xorwf	(___ftadd@exp2),w
  3987  0307  1D03               	skipz
  3988  0308  2B0A               	goto	u3081
  3989  0309  2B0B               	goto	u3080
  3990  030A                     u3081:
  3991  030A  2AF8               	goto	l6161
  3992  030B                     u3080:
  3993  030B  2B0D               	goto	l3596
  3994                           	
  3995  030C                     l3604:	
  3996  030C  2B0D               	goto	l3596
  3997                           	line	128
  3998                           	
  3999  030D                     l3597:	
  4000                           	line	129
  4001                           	
  4002  030D                     l3596:	
  4003  030D  1FB9               	btfss	(___ftadd@sign),(7)&7
  4004  030E  2B10               	goto	u3091
  4005  030F  2B11               	goto	u3090
  4006  0310                     u3091:
  4007  0310  2B22               	goto	l6167
  4008  0311                     u3090:
  4009                           	line	131
  4010                           	
  4011  0311                     l6165:	
  4012  0311  30FF               	movlw	0FFh
  4013  0312  06AF               	xorwf	(___ftadd@f1),f
  4014  0313  30FF               	movlw	0FFh
  4015  0314  06B0               	xorwf	(___ftadd@f1+1),f
  4016  0315  30FF               	movlw	0FFh
  4017  0316  06B1               	xorwf	(___ftadd@f1+2),f
  4018                           	line	132
  4019  0317  3001               	movlw	01h
  4020  0318  07AF               	addwf	(___ftadd@f1),f
  4021  0319  3000               	movlw	0
  4022  031A  1803               	skipnc
  4023  031B  3001               movlw 1
  4024  031C  07B0               	addwf	(___ftadd@f1+1),f
  4025  031D  3000               	movlw	0
  4026  031E  1803               	skipnc
  4027  031F  3001               movlw 1
  4028  0320  07B1               	addwf	(___ftadd@f1+2),f
  4029  0321  2B22               	goto	l6167
  4030                           	line	133
  4031                           	
  4032  0322                     l3605:	
  4033                           	line	134
  4034                           	
  4035  0322                     l6167:	
  4036  0322  1F39               	btfss	(___ftadd@sign),(6)&7
  4037  0323  2B25               	goto	u3101
  4038  0324  2B26               	goto	u3100
  4039  0325                     u3101:
  4040  0325  2B37               	goto	l6171
  4041  0326                     u3100:
  4042                           	line	136
  4043                           	
  4044  0326                     l6169:	
  4045  0326  30FF               	movlw	0FFh
  4046  0327  06B2               	xorwf	(___ftadd@f2),f
  4047  0328  30FF               	movlw	0FFh
  4048  0329  06B3               	xorwf	(___ftadd@f2+1),f
  4049  032A  30FF               	movlw	0FFh
  4050  032B  06B4               	xorwf	(___ftadd@f2+2),f
  4051                           	line	137
  4052  032C  3001               	movlw	01h
  4053  032D  07B2               	addwf	(___ftadd@f2),f
  4054  032E  3000               	movlw	0
  4055  032F  1803               	skipnc
  4056  0330  3001               movlw 1
  4057  0331  07B3               	addwf	(___ftadd@f2+1),f
  4058  0332  3000               	movlw	0
  4059  0333  1803               	skipnc
  4060  0334  3001               movlw 1
  4061  0335  07B4               	addwf	(___ftadd@f2+2),f
  4062  0336  2B37               	goto	l6171
  4063                           	line	138
  4064                           	
  4065  0337                     l3606:	
  4066                           	line	139
  4067                           	
  4068  0337                     l6171:	
  4069  0337  01B9               	clrf	(___ftadd@sign)
  4070                           	line	140
  4071  0338  082F               	movf	(___ftadd@f1),w
  4072  0339  07B2               	addwf	(___ftadd@f2),f
  4073  033A  0830               	movf	(___ftadd@f1+1),w
  4074  033B  1103               	clrz
  4075  033C  1803               	skipnc
  4076  033D  0A30               	incf	(___ftadd@f1+1),w
  4077  033E  1903               	skipnz
  4078  033F  2B41               	goto	u3111
  4079  0340  07B3               	addwf	(___ftadd@f2+1),f
  4080  0341                     u3111:
  4081  0341  0831               	movf	(___ftadd@f1+2),w
  4082  0342  1103               	clrz
  4083  0343  1803               	skipnc
  4084  0344  0A31               	incf	(___ftadd@f1+2),w
  4085  0345  1903               	skipnz
  4086  0346  2B48               	goto	u3112
  4087  0347  07B4               	addwf	(___ftadd@f2+2),f
  4088  0348                     u3112:
  4089                           
  4090                           	line	141
  4091                           	
  4092  0348                     l6173:	
  4093  0348  1FB4               	btfss	(___ftadd@f2+2),(23)&7
  4094  0349  2B4B               	goto	u3121
  4095  034A  2B4C               	goto	u3120
  4096  034B                     u3121:
  4097  034B  2B60               	goto	l6179
  4098  034C                     u3120:
  4099                           	line	142
  4100                           	
  4101  034C                     l6175:	
  4102  034C  30FF               	movlw	0FFh
  4103  034D  06B2               	xorwf	(___ftadd@f2),f
  4104  034E  30FF               	movlw	0FFh
  4105  034F  06B3               	xorwf	(___ftadd@f2+1),f
  4106  0350  30FF               	movlw	0FFh
  4107  0351  06B4               	xorwf	(___ftadd@f2+2),f
  4108                           	line	143
  4109  0352  3001               	movlw	01h
  4110  0353  07B2               	addwf	(___ftadd@f2),f
  4111  0354  3000               	movlw	0
  4112  0355  1803               	skipnc
  4113  0356  3001               movlw 1
  4114  0357  07B3               	addwf	(___ftadd@f2+1),f
  4115  0358  3000               	movlw	0
  4116  0359  1803               	skipnc
  4117  035A  3001               movlw 1
  4118  035B  07B4               	addwf	(___ftadd@f2+2),f
  4119                           	line	144
  4120                           	
  4121  035C                     l6177:	
  4122  035C  01B9               	clrf	(___ftadd@sign)
  4123  035D  1403               	bsf	status,0
  4124  035E  0DB9               	rlf	(___ftadd@sign),f
  4125  035F  2B60               	goto	l6179
  4126                           	line	145
  4127                           	
  4128  0360                     l3607:	
  4129                           	line	146
  4130                           	
  4131  0360                     l6179:	
  4132  0360  0832               	movf	(___ftadd@f2),w
  4133  0361  00A0               	movwf	(?___ftpack)
  4134  0362  0833               	movf	(___ftadd@f2+1),w
  4135  0363  00A1               	movwf	(?___ftpack+1)
  4136  0364  0834               	movf	(___ftadd@f2+2),w
  4137  0365  00A2               	movwf	(?___ftpack+2)
  4138  0366  083B               	movf	(___ftadd@exp1),w
  4139  0367  00B5               	movwf	(??___ftadd+0)+0
  4140  0368  0835               	movf	(??___ftadd+0)+0,w
  4141  0369  00A3               	movwf	0+(?___ftpack)+03h
  4142  036A  0839               	movf	(___ftadd@sign),w
  4143  036B  00B6               	movwf	(??___ftadd+1)+0
  4144  036C  0836               	movf	(??___ftadd+1)+0,w
  4145  036D  00A4               	movwf	0+(?___ftpack)+04h
  4146  036E  120A  158A  25E0   	fcall	___ftpack
              120A  118A         
  4147  0373  1283               	bcf	status, 5	;RP0=0, select bank0
  4148  0374  1303               	bcf	status, 6	;RP1=0, select bank0
  4149  0375  0820               	movf	(0+(?___ftpack)),w
  4150  0376  00AF               	movwf	(?___ftadd)
  4151  0377  0821               	movf	(1+(?___ftpack)),w
  4152  0378  00B0               	movwf	(?___ftadd+1)
  4153  0379  0822               	movf	(2+(?___ftpack)),w
  4154  037A  00B1               	movwf	(?___ftadd+2)
  4155  037B  2B7C               	goto	l3582
  4156                           	
  4157  037C                     l6181:	
  4158                           	line	148
  4159                           	
  4160  037C                     l3582:	
  4161  037C  0008               	return
  4162                           	opt stack 0
  4163                           GLOBAL	__end_of___ftadd
  4164  037D                     	__end_of___ftadd:
  4165 ;; =============== function ___ftadd ends ============
  4166                           
  4167                           	signat	___ftadd,8315
  4168                           	global	_lcd_write_data
  4169                           psect	text569,local,class=CODE,delta=2
  4170                           global __ptext569
  4171  0C35                     __ptext569:
  4172                           
  4173 ;; *************** function _lcd_write_data *****************
  4174 ;; Defined at:
  4175 ;;		line 29 in file "E:\Mechatronics Assignment 2\lcd.c"
  4176 ;; Parameters:    Size  Location     Type
  4177 ;;  databyte        1    wreg     unsigned char 
  4178 ;; Auto vars:     Size  Location     Type
  4179 ;;  databyte        1    2[BANK0 ] unsigned char 
  4180 ;; Return value:  Size  Location     Type
  4181 ;;		None               void
  4182 ;; Registers used:
  4183 ;;		wreg
  4184 ;; Tracked objects:
  4185 ;;		On entry : 0/0
  4186 ;;		On exit  : 0/0
  4187 ;;		Unchanged: 0/0
  4188 ;; Data sizes:     COMMON   BANK0   BANK1   BANK3   BANK2
  4189 ;;      Params:         0       0       0       0       0
  4190 ;;      Locals:         0       1       0       0       0
  4191 ;;      Temps:          0       2       0       0       0
  4192 ;;      Totals:         0       3       0       0       0
  4193 ;;Total ram usage:        3 bytes
  4194 ;; Hardware stack levels used:    1
  4195 ;; Hardware stack levels required when called:    2
  4196 ;; This function calls:
  4197 ;;		Nothing
  4198 ;; This function is called by:
  4199 ;;		_lcd_write_string
  4200 ;;		_lcd_write_4_digit_bcd
  4201 ;;		_lcd_write_2_digit_bcd
  4202 ;; This function uses a non-reentrant model
  4203 ;;
  4204                           psect	text569
  4205                           	file	"E:\Mechatronics Assignment 2\lcd.c"
  4206                           	line	29
  4207                           	global	__size_of_lcd_write_data
  4208  0013                     	__size_of_lcd_write_data	equ	__end_of_lcd_write_data-_lcd_write_data
  4209                           	
  4210  0C35                     _lcd_write_data:	
  4211                           	opt	stack 3
  4212                           ; Regs used in _lcd_write_data: [wreg]
  4213                           ;lcd_write_data@databyte stored from wreg
  4214  0C35  1283               	bcf	status, 5	;RP0=0, select bank0
  4215  0C36  1303               	bcf	status, 6	;RP1=0, select bank0
  4216  0C37  00A2               	movwf	(lcd_write_data@databyte)
  4217                           	line	30
  4218                           	
  4219  0C38                     l6105:	
  4220                           ;lcd.c: 30: RE2 = 0;
  4221  0C38  1109               	bcf	(74/8),(74)&7
  4222                           	line	31
  4223                           ;lcd.c: 31: RE1 = 0;
  4224  0C39  1089               	bcf	(73/8),(73)&7
  4225                           	line	32
  4226                           ;lcd.c: 32: RE0 = 1;
  4227  0C3A  1409               	bsf	(72/8),(72)&7
  4228                           	line	33
  4229                           	
  4230  0C3B                     l6107:	
  4231                           ;lcd.c: 33: PORTD = databyte;
  4232  0C3B  0822               	movf	(lcd_write_data@databyte),w
  4233  0C3C  0088               	movwf	(8)	;volatile
  4234                           	line	34
  4235                           	
  4236  0C3D                     l6109:	
  4237                           ;lcd.c: 34: RE2 = 1;
  4238  0C3D  1509               	bsf	(74/8),(74)&7
  4239                           	line	35
  4240                           	
  4241  0C3E                     l6111:	
  4242                           ;lcd.c: 35: RE2 = 0;
  4243  0C3E  1109               	bcf	(74/8),(74)&7
  4244                           	line	36
  4245                           ;lcd.c: 36: _delay((unsigned long)((1)*(20000000/4000.0)));
  4246                           	opt asmopt_off
  4247  0C3F  3007               movlw	7
  4248  0C40  00A1               movwf	((??_lcd_write_data+0)+0+1),f
  4249  0C41  307D               	movlw	125
  4250  0C42  00A0               movwf	((??_lcd_write_data+0)+0),f
  4251  0C43                     u3557:
  4252  0C43  0BA0               	decfsz	((??_lcd_write_data+0)+0),f
  4253  0C44  2C43               	goto	u3557
  4254  0C45  0BA1               	decfsz	((??_lcd_write_data+0)+0+1),f
  4255  0C46  2C43               	goto	u3557
  4256                           opt asmopt_on
  4257                           
  4258                           	line	37
  4259                           	
  4260  0C47                     l2822:	
  4261  0C47  0008               	return
  4262                           	opt stack 0
  4263                           GLOBAL	__end_of_lcd_write_data
  4264  0C48                     	__end_of_lcd_write_data:
  4265 ;; =============== function _lcd_write_data ends ============
  4266                           
  4267                           	signat	_lcd_write_data,4216
  4268                           	global	_lcd_write_control
  4269                           psect	text570,local,class=CODE,delta=2
  4270                           global __ptext570
  4271  0C48                     __ptext570:
  4272                           
  4273 ;; *************** function _lcd_write_control *****************
  4274 ;; Defined at:
  4275 ;;		line 17 in file "E:\Mechatronics Assignment 2\lcd.c"
  4276 ;; Parameters:    Size  Location     Type
  4277 ;;  databyte        1    wreg     unsigned char 
  4278 ;; Auto vars:     Size  Location     Type
  4279 ;;  databyte        1    2[BANK0 ] unsigned char 
  4280 ;; Return value:  Size  Location     Type
  4281 ;;		None               void
  4282 ;; Registers used:
  4283 ;;		wreg
  4284 ;; Tracked objects:
  4285 ;;		On entry : 0/0
  4286 ;;		On exit  : 0/0
  4287 ;;		Unchanged: 0/0
  4288 ;; Data sizes:     COMMON   BANK0   BANK1   BANK3   BANK2
  4289 ;;      Params:         0       0       0       0       0
  4290 ;;      Locals:         0       1       0       0       0
  4291 ;;      Temps:          0       2       0       0       0
  4292 ;;      Totals:         0       3       0       0       0
  4293 ;;Total ram usage:        3 bytes
  4294 ;; Hardware stack levels used:    1
  4295 ;; Hardware stack levels required when called:    2
  4296 ;; This function calls:
  4297 ;;		Nothing
  4298 ;; This function is called by:
  4299 ;;		_lcd_set_cursor
  4300 ;;		_lcd_init
  4301 ;; This function uses a non-reentrant model
  4302 ;;
  4303                           psect	text570
  4304                           	file	"E:\Mechatronics Assignment 2\lcd.c"
  4305                           	line	17
  4306                           	global	__size_of_lcd_write_control
  4307  0014                     	__size_of_lcd_write_control	equ	__end_of_lcd_write_control-_lcd_write_control
  4308                           	
  4309  0C48                     _lcd_write_control:	
  4310                           	opt	stack 3
  4311                           ; Regs used in _lcd_write_control: [wreg]
  4312                           ;lcd_write_control@databyte stored from wreg
  4313  0C48  1283               	bcf	status, 5	;RP0=0, select bank0
  4314  0C49  1303               	bcf	status, 6	;RP1=0, select bank0
  4315  0C4A  00A2               	movwf	(lcd_write_control@databyte)
  4316                           	line	18
  4317                           	
  4318  0C4B                     l6097:	
  4319                           ;lcd.c: 18: RE2 = 0;
  4320  0C4B  1109               	bcf	(74/8),(74)&7
  4321                           	line	19
  4322                           ;lcd.c: 19: RE1 = 0;
  4323  0C4C  1089               	bcf	(73/8),(73)&7
  4324                           	line	20
  4325                           ;lcd.c: 20: RE0 = 0;
  4326  0C4D  1009               	bcf	(72/8),(72)&7
  4327                           	line	21
  4328                           	
  4329  0C4E                     l6099:	
  4330                           ;lcd.c: 21: PORTD = databyte;
  4331  0C4E  0822               	movf	(lcd_write_control@databyte),w
  4332  0C4F  0088               	movwf	(8)	;volatile
  4333                           	line	22
  4334                           	
  4335  0C50                     l6101:	
  4336                           ;lcd.c: 22: RE2 = 1;
  4337  0C50  1509               	bsf	(74/8),(74)&7
  4338                           	line	23
  4339                           	
  4340  0C51                     l6103:	
  4341                           ;lcd.c: 23: RE2 = 0;
  4342  0C51  1109               	bcf	(74/8),(74)&7
  4343                           	line	24
  4344                           ;lcd.c: 24: _delay((unsigned long)((2)*(20000000/4000.0)));
  4345                           	opt asmopt_off
  4346  0C52  300D               movlw	13
  4347  0C53  00A1               movwf	((??_lcd_write_control+0)+0+1),f
  4348  0C54  30FB               	movlw	251
  4349  0C55  00A0               movwf	((??_lcd_write_control+0)+0),f
  4350  0C56                     u3567:
  4351  0C56  0BA0               	decfsz	((??_lcd_write_control+0)+0),f
  4352  0C57  2C56               	goto	u3567
  4353  0C58  0BA1               	decfsz	((??_lcd_write_control+0)+0+1),f
  4354  0C59  2C56               	goto	u3567
  4355  0C5A  2C5B               	nop2
  4356                           opt asmopt_on
  4357                           
  4358                           	line	25
  4359                           	
  4360  0C5B                     l2819:	
  4361  0C5B  0008               	return
  4362                           	opt stack 0
  4363                           GLOBAL	__end_of_lcd_write_control
  4364  0C5C                     	__end_of_lcd_write_control:
  4365 ;; =============== function _lcd_write_control ends ============
  4366                           
  4367                           	signat	_lcd_write_control,4216
  4368                           	global	_init_adc
  4369                           psect	text571,local,class=CODE,delta=2
  4370                           global __ptext571
  4371  0C5C                     __ptext571:
  4372                           
  4373 ;; *************** function _init_adc *****************
  4374 ;; Defined at:
  4375 ;;		line 47 in file "E:\Mechatronics Assignment 2\adc.c"
  4376 ;; Parameters:    Size  Location     Type
  4377 ;;		None
  4378 ;; Auto vars:     Size  Location     Type
  4379 ;;		None
  4380 ;; Return value:  Size  Location     Type
  4381 ;;		None               void
  4382 ;; Registers used:
  4383 ;;		wreg, status,2
  4384 ;; Tracked objects:
  4385 ;;		On entry : 0/0
  4386 ;;		On exit  : 0/0
  4387 ;;		Unchanged: 0/0
  4388 ;; Data sizes:     COMMON   BANK0   BANK1   BANK3   BANK2
  4389 ;;      Params:         0       0       0       0       0
  4390 ;;      Locals:         0       0       0       0       0
  4391 ;;      Temps:          0       1       0       0       0
  4392 ;;      Totals:         0       1       0       0       0
  4393 ;;Total ram usage:        1 bytes
  4394 ;; Hardware stack levels used:    1
  4395 ;; Hardware stack levels required when called:    2
  4396 ;; This function calls:
  4397 ;;		Nothing
  4398 ;; This function is called by:
  4399 ;;		_main
  4400 ;; This function uses a non-reentrant model
  4401 ;;
  4402                           psect	text571
  4403                           	file	"E:\Mechatronics Assignment 2\adc.c"
  4404                           	line	47
  4405                           	global	__size_of_init_adc
  4406  0016                     	__size_of_init_adc	equ	__end_of_init_adc-_init_adc
  4407                           	
  4408  0C5C                     _init_adc:	
  4409                           	opt	stack 5
  4410                           ; Regs used in _init_adc: [wreg+status,2]
  4411                           	line	49
  4412                           	
  4413  0C5C                     l6087:	
  4414                           ;adc.c: 49: PORTA = 0;
  4415  0C5C  1283               	bcf	status, 5	;RP0=0, select bank0
  4416  0C5D  1303               	bcf	status, 6	;RP1=0, select bank0
  4417  0C5E  0185               	clrf	(5)	;volatile
  4418                           	line	50
  4419                           	
  4420  0C5F                     l6089:	
  4421                           ;adc.c: 50: TRISA = 0b00111111;
  4422  0C5F  303F               	movlw	(03Fh)
  4423  0C60  1683               	bsf	status, 5	;RP0=1, select bank1
  4424  0C61  1303               	bcf	status, 6	;RP1=0, select bank1
  4425  0C62  0085               	movwf	(133)^080h	;volatile
  4426                           	line	53
  4427                           	
  4428  0C63                     l6091:	
  4429                           ;adc.c: 53: ADCON0 = 0b10100001;
  4430  0C63  30A1               	movlw	(0A1h)
  4431  0C64  1283               	bcf	status, 5	;RP0=0, select bank0
  4432  0C65  1303               	bcf	status, 6	;RP1=0, select bank0
  4433  0C66  009F               	movwf	(31)	;volatile
  4434                           	line	54
  4435                           	
  4436  0C67                     l6093:	
  4437                           ;adc.c: 54: ADCON1 = 0b00000010;
  4438  0C67  3002               	movlw	(02h)
  4439  0C68  1683               	bsf	status, 5	;RP0=1, select bank1
  4440  0C69  1303               	bcf	status, 6	;RP1=0, select bank1
  4441  0C6A  009F               	movwf	(159)^080h	;volatile
  4442                           	line	56
  4443                           	
  4444  0C6B                     l6095:	
  4445                           ;adc.c: 56: _delay((unsigned long)((50)*(20000000/4000000.0)));
  4446                           	opt asmopt_off
  4447  0C6B  3053               movlw	83
  4448  0C6C  1283               	bcf	status, 5	;RP0=0, select bank0
  4449  0C6D  1303               	bcf	status, 6	;RP1=0, select bank0
  4450  0C6E  00A0               movwf	(??_init_adc+0)+0,f
  4451  0C6F                     u3577:
  4452  0C6F  0BA0               decfsz	(??_init_adc+0)+0,f
  4453  0C70  2C6F               	goto	u3577
  4454                           opt asmopt_on
  4455                           
  4456                           	line	58
  4457                           	
  4458  0C71                     l2126:	
  4459  0C71  0008               	return
  4460                           	opt stack 0
  4461                           GLOBAL	__end_of_init_adc
  4462  0C72                     	__end_of_init_adc:
  4463 ;; =============== function _init_adc ends ============
  4464                           
  4465                           	signat	_init_adc,88
  4466                           	global	_adc_read_channel
  4467                           psect	text572,local,class=CODE,delta=2
  4468                           global __ptext572
  4469  0D31                     __ptext572:
  4470                           
  4471 ;; *************** function _adc_read_channel *****************
  4472 ;; Defined at:
  4473 ;;		line 6 in file "E:\Mechatronics Assignment 2\adc.c"
  4474 ;; Parameters:    Size  Location     Type
  4475 ;;  channel         1    wreg     unsigned char 
  4476 ;; Auto vars:     Size  Location     Type
  4477 ;;  channel         1   10[BANK0 ] unsigned char 
  4478 ;; Return value:  Size  Location     Type
  4479 ;;                  2    7[BANK0 ] unsigned int 
  4480 ;; Registers used:
  4481 ;;		wreg, fsr0l, fsr0h, status,2, status,0, pclath, cstack
  4482 ;; Tracked objects:
  4483 ;;		On entry : 0/0
  4484 ;;		On exit  : 0/0
  4485 ;;		Unchanged: 0/0
  4486 ;; Data sizes:     COMMON   BANK0   BANK1   BANK3   BANK2
  4487 ;;      Params:         0       2       0       0       0
  4488 ;;      Locals:         0       1       0       0       0
  4489 ;;      Temps:          0       1       0       0       0
  4490 ;;      Totals:         0       4       0       0       0
  4491 ;;Total ram usage:        4 bytes
  4492 ;; Hardware stack levels used:    1
  4493 ;; Hardware stack levels required when called:    3
  4494 ;; This function calls:
  4495 ;;		_adc_read
  4496 ;; This function is called by:
  4497 ;;		_infrared
  4498 ;; This function uses a non-reentrant model
  4499 ;;
  4500                           psect	text572
  4501                           	file	"E:\Mechatronics Assignment 2\adc.c"
  4502                           	line	6
  4503                           	global	__size_of_adc_read_channel
  4504  0041                     	__size_of_adc_read_channel	equ	__end_of_adc_read_channel-_adc_read_channel
  4505                           	
  4506  0D31                     _adc_read_channel:	
  4507                           	opt	stack 3
  4508                           ; Regs used in _adc_read_channel: [wreg-fsr0h+status,2+status,0+pclath+cstack]
  4509                           ;adc_read_channel@channel stored from wreg
  4510  0D31  1283               	bcf	status, 5	;RP0=0, select bank0
  4511  0D32  1303               	bcf	status, 6	;RP1=0, select bank0
  4512  0D33  00AA               	movwf	(adc_read_channel@channel)
  4513                           	line	7
  4514                           	
  4515  0D34                     l6071:	
  4516                           ;adc.c: 7: switch(channel)
  4517  0D34  2D4E               	goto	l6079
  4518                           	line	9
  4519                           ;adc.c: 8: {
  4520                           ;adc.c: 9: case 0:
  4521                           	
  4522  0D35                     l2116:	
  4523                           	line	10
  4524                           ;adc.c: 10: CHS0 = 0;
  4525  0D35  119F               	bcf	(251/8),(251)&7
  4526                           	line	11
  4527                           ;adc.c: 11: CHS1 = 0;
  4528  0D36  121F               	bcf	(252/8),(252)&7
  4529                           	line	12
  4530                           ;adc.c: 12: CHS2 = 0;
  4531  0D37  129F               	bcf	(253/8),(253)&7
  4532                           	line	13
  4533                           ;adc.c: 13: break;
  4534  0D38  2D5F               	goto	l6081
  4535                           	line	14
  4536                           ;adc.c: 14: case 1:
  4537                           	
  4538  0D39                     l2118:	
  4539                           	line	15
  4540                           ;adc.c: 15: CHS0 = 1;
  4541  0D39  159F               	bsf	(251/8),(251)&7
  4542                           	line	16
  4543                           ;adc.c: 16: CHS1 = 0;
  4544  0D3A  121F               	bcf	(252/8),(252)&7
  4545                           	line	17
  4546                           ;adc.c: 17: CHS2 = 0;
  4547  0D3B  129F               	bcf	(253/8),(253)&7
  4548                           	line	18
  4549                           ;adc.c: 18: break;
  4550  0D3C  2D5F               	goto	l6081
  4551                           	line	19
  4552                           ;adc.c: 19: case 2:
  4553                           	
  4554  0D3D                     l2119:	
  4555                           	line	20
  4556                           ;adc.c: 20: CHS0 = 0;
  4557  0D3D  119F               	bcf	(251/8),(251)&7
  4558                           	line	21
  4559                           ;adc.c: 21: CHS1 = 1;
  4560  0D3E  161F               	bsf	(252/8),(252)&7
  4561                           	line	22
  4562                           ;adc.c: 22: CHS2 = 0;
  4563  0D3F  129F               	bcf	(253/8),(253)&7
  4564                           	line	23
  4565                           ;adc.c: 23: break;
  4566  0D40  2D5F               	goto	l6081
  4567                           	line	24
  4568                           ;adc.c: 24: case 3:
  4569                           	
  4570  0D41                     l2120:	
  4571                           	line	25
  4572                           ;adc.c: 25: CHS0 = 1;
  4573  0D41  159F               	bsf	(251/8),(251)&7
  4574                           	line	26
  4575                           ;adc.c: 26: CHS1 = 1;
  4576  0D42  161F               	bsf	(252/8),(252)&7
  4577                           	line	27
  4578                           ;adc.c: 27: CHS2 = 0;
  4579  0D43  129F               	bcf	(253/8),(253)&7
  4580                           	line	28
  4581                           ;adc.c: 28: break;
  4582  0D44  2D5F               	goto	l6081
  4583                           	line	29
  4584                           ;adc.c: 29: case 4:
  4585                           	
  4586  0D45                     l2121:	
  4587                           	line	30
  4588                           ;adc.c: 30: CHS0 = 0;
  4589  0D45  119F               	bcf	(251/8),(251)&7
  4590                           	line	31
  4591                           ;adc.c: 31: CHS1 = 0;
  4592  0D46  121F               	bcf	(252/8),(252)&7
  4593                           	line	32
  4594                           ;adc.c: 32: CHS2 = 1;
  4595  0D47  169F               	bsf	(253/8),(253)&7
  4596                           	line	33
  4597                           ;adc.c: 33: break;
  4598  0D48  2D5F               	goto	l6081
  4599                           	line	36
  4600                           ;adc.c: 36: default:
  4601                           	
  4602  0D49                     l2122:	
  4603                           	line	37
  4604                           	
  4605  0D49                     l6073:	
  4606                           ;adc.c: 37: return 0;
  4607  0D49  01A7               	clrf	(?_adc_read_channel)
  4608  0D4A  01A8               	clrf	(?_adc_read_channel+1)
  4609  0D4B  2D71               	goto	l2123
  4610                           	
  4611  0D4C                     l6075:	
  4612  0D4C  2D71               	goto	l2123
  4613                           	line	38
  4614                           	
  4615  0D4D                     l6077:	
  4616                           ;adc.c: 38: }
  4617  0D4D  2D5F               	goto	l6081
  4618                           	line	7
  4619                           	
  4620  0D4E                     l2115:	
  4621                           	
  4622  0D4E                     l6079:	
  4623  0D4E  082A               	movf	(adc_read_channel@channel),w
  4624                           	; Switch size 1, requested type "space"
  4625                           ; Number of cases is 5, Range of values is 0 to 4
  4626                           ; switch strategies available:
  4627                           ; Name         Instructions Cycles
  4628                           ; simple_byte           16     9 (average)
  4629                           ; direct_byte           23     8 (fixed)
  4630                           ; jumptable            260     6 (fixed)
  4631                           ; rangetable             9     6 (fixed)
  4632                           ; spacedrange           16     9 (fixed)
  4633                           ; locatedrange           5     3 (fixed)
  4634                           ;	Chosen strategy is simple_byte
  4635                           
  4636                           	opt asmopt_off
  4637  0D4F  3A00               	xorlw	0^0	; case 0
  4638  0D50  1903               	skipnz
  4639  0D51  2D35               	goto	l2116
  4640  0D52  3A01               	xorlw	1^0	; case 1
  4641  0D53  1903               	skipnz
  4642  0D54  2D39               	goto	l2118
  4643  0D55  3A03               	xorlw	2^1	; case 2
  4644  0D56  1903               	skipnz
  4645  0D57  2D3D               	goto	l2119
  4646  0D58  3A01               	xorlw	3^2	; case 3
  4647  0D59  1903               	skipnz
  4648  0D5A  2D41               	goto	l2120
  4649  0D5B  3A07               	xorlw	4^3	; case 4
  4650  0D5C  1903               	skipnz
  4651  0D5D  2D45               	goto	l2121
  4652  0D5E  2D49               	goto	l6073
  4653                           	opt asmopt_on
  4654                           
  4655                           	line	38
  4656                           	
  4657  0D5F                     l2117:	
  4658                           	line	40
  4659                           	
  4660  0D5F                     l6081:	
  4661                           ;adc.c: 40: _delay((unsigned long)((50)*(20000000/4000000.0)));
  4662                           	opt asmopt_off
  4663  0D5F  3053               movlw	83
  4664  0D60  00A9               movwf	(??_adc_read_channel+0)+0,f
  4665  0D61                     u3587:
  4666  0D61  0BA9               decfsz	(??_adc_read_channel+0)+0,f
  4667  0D62  2D61               	goto	u3587
  4668                           opt asmopt_on
  4669                           
  4670                           	line	42
  4671                           	
  4672  0D63                     l6083:	
  4673                           ;adc.c: 42: return adc_read();
  4674  0D63  120A  158A  24FE   	fcall	_adc_read
              120A  158A         
  4675  0D68  1283               	bcf	status, 5	;RP0=0, select bank0
  4676  0D69  1303               	bcf	status, 6	;RP1=0, select bank0
  4677  0D6A  0821               	movf	(1+(?_adc_read)),w
  4678  0D6B  01A8               	clrf	(?_adc_read_channel+1)
  4679  0D6C  07A8               	addwf	(?_adc_read_channel+1)
  4680  0D6D  0820               	movf	(0+(?_adc_read)),w
  4681  0D6E  01A7               	clrf	(?_adc_read_channel)
  4682  0D6F  07A7               	addwf	(?_adc_read_channel)
  4683                           
  4684  0D70  2D71               	goto	l2123
  4685                           	
  4686  0D71                     l6085:	
  4687                           	line	44
  4688                           	
  4689  0D71                     l2123:	
  4690  0D71  0008               	return
  4691                           	opt stack 0
  4692                           GLOBAL	__end_of_adc_read_channel
  4693  0D72                     	__end_of_adc_read_channel:
  4694 ;; =============== function _adc_read_channel ends ============
  4695                           
  4696                           	signat	_adc_read_channel,4218
  4697                           	global	___ftge
  4698                           psect	text573,local,class=CODE,delta=2
  4699                           global __ptext573
  4700  0D72                     __ptext573:
  4701                           
  4702 ;; *************** function ___ftge *****************
  4703 ;; Defined at:
  4704 ;;		line 5 in file "C:\Program Files (x86)\HI-TECH Software\PICC\9.83\sources\ftge.c"
  4705 ;; Parameters:    Size  Location     Type
  4706 ;;  ff1             3    0[BANK0 ] float 
  4707 ;;  ff2             3    3[BANK0 ] float 
  4708 ;; Auto vars:     Size  Location     Type
  4709 ;;		None
  4710 ;; Return value:  Size  Location     Type
  4711 ;;		None               void
  4712 ;; Registers used:
  4713 ;;		wreg, status,2, status,0
  4714 ;; Tracked objects:
  4715 ;;		On entry : 0/0
  4716 ;;		On exit  : 0/0
  4717 ;;		Unchanged: 0/0
  4718 ;; Data sizes:     COMMON   BANK0   BANK1   BANK3   BANK2
  4719 ;;      Params:         0       6       0       0       0
  4720 ;;      Locals:         0       0       0       0       0
  4721 ;;      Temps:          0       6       0       0       0
  4722 ;;      Totals:         0      12       0       0       0
  4723 ;;Total ram usage:       12 bytes
  4724 ;; Hardware stack levels used:    1
  4725 ;; Hardware stack levels required when called:    2
  4726 ;; This function calls:
  4727 ;;		Nothing
  4728 ;; This function is called by:
  4729 ;;		_infrared
  4730 ;; This function uses a non-reentrant model
  4731 ;;
  4732                           psect	text573
  4733                           	file	"C:\Program Files (x86)\HI-TECH Software\PICC\9.83\sources\ftge.c"
  4734                           	line	5
  4735                           	global	__size_of___ftge
  4736  006E                     	__size_of___ftge	equ	__end_of___ftge-___ftge
  4737                           	
  4738  0D72                     ___ftge:	
  4739                           	opt	stack 4
  4740                           ; Regs used in ___ftge: [wreg+status,2+status,0]
  4741                           	line	6
  4742                           	
  4743  0D72                     l6009:	
  4744  0D72  1283               	bcf	status, 5	;RP0=0, select bank0
  4745  0D73  1303               	bcf	status, 6	;RP1=0, select bank0
  4746  0D74  1FA2               	btfss	(___ftge@ff1+2),(23)&7
  4747  0D75  2D77               	goto	u2781
  4748  0D76  2D78               	goto	u2780
  4749  0D77                     u2781:
  4750  0D77  2D9E               	goto	l6013
  4751  0D78                     u2780:
  4752                           	line	7
  4753                           	
  4754  0D78                     l6011:	
  4755  0D78  3000               	movlw	0
  4756  0D79  00A6               	movwf	((??___ftge+0)+0)
  4757  0D7A  3000               	movlw	0
  4758  0D7B  00A7               	movwf	((??___ftge+0)+0+1)
  4759  0D7C  3080               	movlw	080h
  4760  0D7D  00A8               	movwf	((??___ftge+0)+0+2)
  4761  0D7E  0920               	comf	(___ftge@ff1),w
  4762  0D7F  00A9               	movwf	(??___ftge+3)+0
  4763  0D80  0921               	comf	(___ftge@ff1+1),w
  4764  0D81  00AA               	movwf	((??___ftge+3)+0+1)
  4765  0D82  0922               	comf	(___ftge@ff1+2),w
  4766  0D83  00AB               	movwf	((??___ftge+3)+0+2)
  4767  0D84  0AA9               	incf	(??___ftge+3)+0,f
  4768  0D85  1903               	skipnz
  4769  0D86  0AAA               	incf	((??___ftge+3)+0+1),f
  4770  0D87  1903               	skipnz
  4771  0D88  0AAB               	incf	((??___ftge+3)+0+2),f
  4772  0D89  0829               	movf	0+(??___ftge+3)+0,w
  4773  0D8A  07A6               	addwf	(??___ftge+0)+0,f
  4774  0D8B  082A               	movf	1+(??___ftge+3)+0,w
  4775  0D8C  1803               	skipnc
  4776  0D8D  0F2A               	incfsz	1+(??___ftge+3)+0,w
  4777  0D8E  2D90               	goto	u2791
  4778  0D8F  2D91               	goto	u2792
  4779  0D90                     u2791:
  4780  0D90  07A7               	addwf	(??___ftge+0)+1,f
  4781                           	
  4782  0D91                     u2792:
  4783  0D91  082B               	movf	2+(??___ftge+3)+0,w
  4784  0D92  1803               	skipnc
  4785  0D93  0F2B               	incfsz	2+(??___ftge+3)+0,w
  4786  0D94  2D96               	goto	u2793
  4787  0D95  2D97               	goto	u2794
  4788  0D96                     u2793:
  4789  0D96  07A8               	addwf	(??___ftge+0)+2,f
  4790                           	
  4791  0D97                     u2794:
  4792  0D97  0826               	movf	0+(??___ftge+0)+0,w
  4793  0D98  00A0               	movwf	(___ftge@ff1)
  4794  0D99  0827               	movf	1+(??___ftge+0)+0,w
  4795  0D9A  00A1               	movwf	(___ftge@ff1+1)
  4796  0D9B  0828               	movf	2+(??___ftge+0)+0,w
  4797  0D9C  00A2               	movwf	(___ftge@ff1+2)
  4798  0D9D  2D9E               	goto	l6013
  4799                           	
  4800  0D9E                     l3702:	
  4801                           	line	8
  4802                           	
  4803  0D9E                     l6013:	
  4804  0D9E  1FA5               	btfss	(___ftge@ff2+2),(23)&7
  4805  0D9F  2DA1               	goto	u2801
  4806  0DA0  2DA2               	goto	u2800
  4807  0DA1                     u2801:
  4808  0DA1  2DC8               	goto	l6017
  4809  0DA2                     u2800:
  4810                           	line	9
  4811                           	
  4812  0DA2                     l6015:	
  4813  0DA2  3000               	movlw	0
  4814  0DA3  00A6               	movwf	((??___ftge+0)+0)
  4815  0DA4  3000               	movlw	0
  4816  0DA5  00A7               	movwf	((??___ftge+0)+0+1)
  4817  0DA6  3080               	movlw	080h
  4818  0DA7  00A8               	movwf	((??___ftge+0)+0+2)
  4819  0DA8  0923               	comf	(___ftge@ff2),w
  4820  0DA9  00A9               	movwf	(??___ftge+3)+0
  4821  0DAA  0924               	comf	(___ftge@ff2+1),w
  4822  0DAB  00AA               	movwf	((??___ftge+3)+0+1)
  4823  0DAC  0925               	comf	(___ftge@ff2+2),w
  4824  0DAD  00AB               	movwf	((??___ftge+3)+0+2)
  4825  0DAE  0AA9               	incf	(??___ftge+3)+0,f
  4826  0DAF  1903               	skipnz
  4827  0DB0  0AAA               	incf	((??___ftge+3)+0+1),f
  4828  0DB1  1903               	skipnz
  4829  0DB2  0AAB               	incf	((??___ftge+3)+0+2),f
  4830  0DB3  0829               	movf	0+(??___ftge+3)+0,w
  4831  0DB4  07A6               	addwf	(??___ftge+0)+0,f
  4832  0DB5  082A               	movf	1+(??___ftge+3)+0,w
  4833  0DB6  1803               	skipnc
  4834  0DB7  0F2A               	incfsz	1+(??___ftge+3)+0,w
  4835  0DB8  2DBA               	goto	u2811
  4836  0DB9  2DBB               	goto	u2812
  4837  0DBA                     u2811:
  4838  0DBA  07A7               	addwf	(??___ftge+0)+1,f
  4839                           	
  4840  0DBB                     u2812:
  4841  0DBB  082B               	movf	2+(??___ftge+3)+0,w
  4842  0DBC  1803               	skipnc
  4843  0DBD  0F2B               	incfsz	2+(??___ftge+3)+0,w
  4844  0DBE  2DC0               	goto	u2813
  4845  0DBF  2DC1               	goto	u2814
  4846  0DC0                     u2813:
  4847  0DC0  07A8               	addwf	(??___ftge+0)+2,f
  4848                           	
  4849  0DC1                     u2814:
  4850  0DC1  0826               	movf	0+(??___ftge+0)+0,w
  4851  0DC2  00A3               	movwf	(___ftge@ff2)
  4852  0DC3  0827               	movf	1+(??___ftge+0)+0,w
  4853  0DC4  00A4               	movwf	(___ftge@ff2+1)
  4854  0DC5  0828               	movf	2+(??___ftge+0)+0,w
  4855  0DC6  00A5               	movwf	(___ftge@ff2+2)
  4856  0DC7  2DC8               	goto	l6017
  4857                           	
  4858  0DC8                     l3703:	
  4859                           	line	10
  4860                           	
  4861  0DC8                     l6017:	
  4862  0DC8  3080               	movlw	080h
  4863  0DC9  06A2               	xorwf	(___ftge@ff1+2),f
  4864                           	line	11
  4865                           	
  4866  0DCA                     l6019:	
  4867  0DCA  3080               	movlw	080h
  4868  0DCB  06A5               	xorwf	(___ftge@ff2+2),f
  4869                           	line	12
  4870                           	
  4871  0DCC                     l6021:	
  4872  0DCC  0825               	movf	(___ftge@ff2+2),w
  4873  0DCD  0222               	subwf	(___ftge@ff1+2),w
  4874  0DCE  1D03               	skipz
  4875  0DCF  2DD6               	goto	u2825
  4876  0DD0  0824               	movf	(___ftge@ff2+1),w
  4877  0DD1  0221               	subwf	(___ftge@ff1+1),w
  4878  0DD2  1D03               	skipz
  4879  0DD3  2DD6               	goto	u2825
  4880  0DD4  0823               	movf	(___ftge@ff2),w
  4881  0DD5  0220               	subwf	(___ftge@ff1),w
  4882  0DD6                     u2825:
  4883  0DD6  1803               	skipnc
  4884  0DD7  2DD9               	goto	u2821
  4885  0DD8  2DDA               	goto	u2820
  4886  0DD9                     u2821:
  4887  0DD9  2DDC               	goto	l6025
  4888  0DDA                     u2820:
  4889                           	
  4890  0DDA                     l6023:	
  4891  0DDA  1003               	clrc
  4892                           	
  4893  0DDB  2DDF               	goto	l3704
  4894                           	
  4895  0DDC                     l5875:	
  4896                           	
  4897  0DDC                     l6025:	
  4898  0DDC  1403               	setc
  4899                           	
  4900  0DDD  2DDF               	goto	l3704
  4901                           	
  4902  0DDE                     l5877:	
  4903  0DDE  2DDF               	goto	l3704
  4904                           	
  4905  0DDF                     l6027:	
  4906                           	line	13
  4907                           	
  4908  0DDF                     l3704:	
  4909  0DDF  0008               	return
  4910                           	opt stack 0
  4911                           GLOBAL	__end_of___ftge
  4912  0DE0                     	__end_of___ftge:
  4913 ;; =============== function ___ftge ends ============
  4914                           
  4915                           	signat	___ftge,8312
  4916                           	global	___ftneg
  4917                           psect	text574,local,class=CODE,delta=2
  4918                           global __ptext574
  4919  0C27                     __ptext574:
  4920                           
  4921 ;; *************** function ___ftneg *****************
  4922 ;; Defined at:
  4923 ;;		line 16 in file "C:\Program Files (x86)\HI-TECH Software\PICC\9.83\sources\ftneg.c"
  4924 ;; Parameters:    Size  Location     Type
  4925 ;;  f1              3    8[BANK0 ] float 
  4926 ;; Auto vars:     Size  Location     Type
  4927 ;;		None
  4928 ;; Return value:  Size  Location     Type
  4929 ;;                  3    8[BANK0 ] float 
  4930 ;; Registers used:
  4931 ;;		wreg
  4932 ;; Tracked objects:
  4933 ;;		On entry : 0/0
  4934 ;;		On exit  : 0/0
  4935 ;;		Unchanged: 0/0
  4936 ;; Data sizes:     COMMON   BANK0   BANK1   BANK3   BANK2
  4937 ;;      Params:         0       3       0       0       0
  4938 ;;      Locals:         0       0       0       0       0
  4939 ;;      Temps:          0       0       0       0       0
  4940 ;;      Totals:         0       3       0       0       0
  4941 ;;Total ram usage:        3 bytes
  4942 ;; Hardware stack levels used:    1
  4943 ;; Hardware stack levels required when called:    2
  4944 ;; This function calls:
  4945 ;;		Nothing
  4946 ;; This function is called by:
  4947 ;;		_infrared
  4948 ;; This function uses a non-reentrant model
  4949 ;;
  4950                           psect	text574
  4951                           	file	"C:\Program Files (x86)\HI-TECH Software\PICC\9.83\sources\ftneg.c"
  4952                           	line	16
  4953                           	global	__size_of___ftneg
  4954  000E                     	__size_of___ftneg	equ	__end_of___ftneg-___ftneg
  4955                           	
  4956  0C27                     ___ftneg:	
  4957                           	opt	stack 4
  4958                           ; Regs used in ___ftneg: [wreg]
  4959                           	line	17
  4960                           	
  4961  0C27                     l6001:	
  4962  0C27  1283               	bcf	status, 5	;RP0=0, select bank0
  4963  0C28  1303               	bcf	status, 6	;RP1=0, select bank0
  4964  0C29  082A               	movf	(___ftneg@f1+2),w
  4965  0C2A  0429               	iorwf	(___ftneg@f1+1),w
  4966  0C2B  0428               	iorwf	(___ftneg@f1),w
  4967  0C2C  1903               	skipnz
  4968  0C2D  2C2F               	goto	u2771
  4969  0C2E  2C30               	goto	u2770
  4970  0C2F                     u2771:
  4971  0C2F  2C33               	goto	l6005
  4972  0C30                     u2770:
  4973                           	line	18
  4974                           	
  4975  0C30                     l6003:	
  4976  0C30  3080               	movlw	080h
  4977  0C31  06AA               	xorwf	(___ftneg@f1+2),f
  4978  0C32  2C33               	goto	l6005
  4979                           	
  4980  0C33                     l3698:	
  4981                           	line	19
  4982                           	
  4983  0C33                     l6005:	
  4984  0C33  2C34               	goto	l3699
  4985                           	
  4986  0C34                     l6007:	
  4987                           	line	20
  4988                           	
  4989  0C34                     l3699:	
  4990  0C34  0008               	return
  4991                           	opt stack 0
  4992                           GLOBAL	__end_of___ftneg
  4993  0C35                     	__end_of___ftneg:
  4994 ;; =============== function ___ftneg ends ============
  4995                           
  4996                           	signat	___ftneg,4219
  4997                           	global	___fttol
  4998                           psect	text575,local,class=CODE,delta=2
  4999                           global __ptext575
  5000  0F5A                     __ptext575:
  5001                           
  5002 ;; *************** function ___fttol *****************
  5003 ;; Defined at:
  5004 ;;		line 45 in file "C:\Program Files (x86)\HI-TECH Software\PICC\9.83\sources\fttol.c"
  5005 ;; Parameters:    Size  Location     Type
  5006 ;;  f1              3    0[BANK0 ] float 
  5007 ;; Auto vars:     Size  Location     Type
  5008 ;;  lval            4    9[BANK0 ] unsigned long 
  5009 ;;  exp1            1   13[BANK0 ] unsigned char 
  5010 ;;  sign1           1    8[BANK0 ] unsigned char 
  5011 ;; Return value:  Size  Location     Type
  5012 ;;                  4    0[BANK0 ] long 
  5013 ;; Registers used:
  5014 ;;		wreg, status,2, status,0
  5015 ;; Tracked objects:
  5016 ;;		On entry : 0/0
  5017 ;;		On exit  : 0/0
  5018 ;;		Unchanged: 0/0
  5019 ;; Data sizes:     COMMON   BANK0   BANK1   BANK3   BANK2
  5020 ;;      Params:         0       4       0       0       0
  5021 ;;      Locals:         0       6       0       0       0
  5022 ;;      Temps:          0       4       0       0       0
  5023 ;;      Totals:         0      14       0       0       0
  5024 ;;Total ram usage:       14 bytes
  5025 ;; Hardware stack levels used:    1
  5026 ;; Hardware stack levels required when called:    2
  5027 ;; This function calls:
  5028 ;;		Nothing
  5029 ;; This function is called by:
  5030 ;;		_infrared
  5031 ;; This function uses a non-reentrant model
  5032 ;;
  5033                           psect	text575
  5034                           	file	"C:\Program Files (x86)\HI-TECH Software\PICC\9.83\sources\fttol.c"
  5035                           	line	45
  5036                           	global	__size_of___fttol
  5037  00A6                     	__size_of___fttol	equ	__end_of___fttol-___fttol
  5038                           	
  5039  0F5A                     ___fttol:	
  5040                           	opt	stack 4
  5041                           ; Regs used in ___fttol: [wreg+status,2+status,0]
  5042                           	line	49
  5043                           	
  5044  0F5A                     l5945:	
  5045  0F5A  1283               	bcf	status, 5	;RP0=0, select bank0
  5046  0F5B  1303               	bcf	status, 6	;RP1=0, select bank0
  5047  0F5C  0820               	movf	(___fttol@f1),w
  5048  0F5D  00A4               	movwf	((??___fttol+0)+0)
  5049  0F5E  0821               	movf	(___fttol@f1+1),w
  5050  0F5F  00A5               	movwf	((??___fttol+0)+0+1)
  5051  0F60  0822               	movf	(___fttol@f1+2),w
  5052  0F61  00A6               	movwf	((??___fttol+0)+0+2)
  5053  0F62  1003               	clrc
  5054  0F63  0D25               	rlf	(??___fttol+0)+1,w
  5055  0F64  0D26               	rlf	(??___fttol+0)+2,w
  5056  0F65  00A7               	movwf	(??___fttol+3)+0
  5057  0F66  0827               	movf	(??___fttol+3)+0,w
  5058  0F67  00AD               	movwf	(___fttol@exp1)
  5059  0F68  08AD               	movf	((___fttol@exp1)),f
  5060  0F69  1D03               	skipz
  5061  0F6A  2F6C               	goto	u2661
  5062  0F6B  2F6D               	goto	u2660
  5063  0F6C                     u2661:
  5064  0F6C  2F77               	goto	l5951
  5065  0F6D                     u2660:
  5066                           	line	50
  5067                           	
  5068  0F6D                     l5947:	
  5069  0F6D  3000               	movlw	0
  5070  0F6E  00A3               	movwf	(?___fttol+3)
  5071  0F6F  3000               	movlw	0
  5072  0F70  00A2               	movwf	(?___fttol+2)
  5073  0F71  3000               	movlw	0
  5074  0F72  00A1               	movwf	(?___fttol+1)
  5075  0F73  3000               	movlw	0
  5076  0F74  00A0               	movwf	(?___fttol)
  5077                           
  5078  0F75  2FFF               	goto	l3645
  5079                           	
  5080  0F76                     l5949:	
  5081  0F76  2FFF               	goto	l3645
  5082                           	
  5083  0F77                     l3644:	
  5084                           	line	51
  5085                           	
  5086  0F77                     l5951:	
  5087  0F77  0820               	movf	(___fttol@f1),w
  5088  0F78  00A4               	movwf	((??___fttol+0)+0)
  5089  0F79  0821               	movf	(___fttol@f1+1),w
  5090  0F7A  00A5               	movwf	((??___fttol+0)+0+1)
  5091  0F7B  0822               	movf	(___fttol@f1+2),w
  5092  0F7C  00A6               	movwf	((??___fttol+0)+0+2)
  5093  0F7D  3017               	movlw	017h
  5094  0F7E                     u2675:
  5095  0F7E  1003               	clrc
  5096  0F7F  0CA6               	rrf	(??___fttol+0)+2,f
  5097  0F80  0CA5               	rrf	(??___fttol+0)+1,f
  5098  0F81  0CA4               	rrf	(??___fttol+0)+0,f
  5099  0F82                     u2670:
  5100  0F82  3EFF               	addlw	-1
  5101  0F83  1D03               	skipz
  5102  0F84  2F7E               	goto	u2675
  5103  0F85  0824               	movf	0+(??___fttol+0)+0,w
  5104  0F86  00A7               	movwf	(??___fttol+3)+0
  5105  0F87  0827               	movf	(??___fttol+3)+0,w
  5106  0F88  00A8               	movwf	(___fttol@sign1)
  5107                           	line	52
  5108                           	
  5109  0F89                     l5953:	
  5110  0F89  17A1               	bsf	(___fttol@f1)+(15/8),(15)&7
  5111                           	line	53
  5112                           	
  5113  0F8A                     l5955:	
  5114  0F8A  30FF               	movlw	0FFh
  5115  0F8B  05A0               	andwf	(___fttol@f1),f
  5116  0F8C  30FF               	movlw	0FFh
  5117  0F8D  05A1               	andwf	(___fttol@f1+1),f
  5118  0F8E  3000               	movlw	0
  5119  0F8F  05A2               	andwf	(___fttol@f1+2),f
  5120                           	line	54
  5121                           	
  5122  0F90                     l5957:	
  5123  0F90  0820               	movf	(___fttol@f1),w
  5124  0F91  00A9               	movwf	(___fttol@lval)
  5125  0F92  0821               	movf	(___fttol@f1+1),w
  5126  0F93  00AA               	movwf	((___fttol@lval))+1
  5127  0F94  0822               	movf	(___fttol@f1+2),w
  5128  0F95  00AB               	movwf	((___fttol@lval))+2
  5129  0F96  01AC               	clrf	((___fttol@lval))+3
  5130                           	line	55
  5131                           	
  5132  0F97                     l5959:	
  5133  0F97  308E               	movlw	low(08Eh)
  5134  0F98  02AD               	subwf	(___fttol@exp1),f
  5135                           	line	56
  5136                           	
  5137  0F99                     l5961:	
  5138  0F99  1FAD               	btfss	(___fttol@exp1),7
  5139  0F9A  2F9C               	goto	u2681
  5140  0F9B  2F9D               	goto	u2680
  5141  0F9C                     u2681:
  5142  0F9C  2FC2               	goto	l5971
  5143  0F9D                     u2680:
  5144                           	line	57
  5145                           	
  5146  0F9D                     l5963:	
  5147  0F9D  082D               	movf	(___fttol@exp1),w
  5148  0F9E  3A80               	xorlw	80h
  5149  0F9F  3E8F               	addlw	-((-15)^80h)
  5150  0FA0  1803               	skipnc
  5151  0FA1  2FA3               	goto	u2691
  5152  0FA2  2FA4               	goto	u2690
  5153  0FA3                     u2691:
  5154  0FA3  2FAF               	goto	l5969
  5155  0FA4                     u2690:
  5156                           	line	58
  5157                           	
  5158  0FA4                     l5965:	
  5159  0FA4  3000               	movlw	0
  5160  0FA5  00A3               	movwf	(?___fttol+3)
  5161  0FA6  3000               	movlw	0
  5162  0FA7  00A2               	movwf	(?___fttol+2)
  5163  0FA8  3000               	movlw	0
  5164  0FA9  00A1               	movwf	(?___fttol+1)
  5165  0FAA  3000               	movlw	0
  5166  0FAB  00A0               	movwf	(?___fttol)
  5167                           
  5168  0FAC  2FFF               	goto	l3645
  5169                           	
  5170  0FAD                     l5967:	
  5171  0FAD  2FFF               	goto	l3645
  5172                           	
  5173  0FAE                     l3647:	
  5174  0FAE  2FAF               	goto	l5969
  5175                           	line	59
  5176                           	
  5177  0FAF                     l3648:	
  5178                           	line	60
  5179                           	
  5180  0FAF                     l5969:	
  5181  0FAF  3001               	movlw	01h
  5182  0FB0                     u2705:
  5183  0FB0  1003               	clrc
  5184  0FB1  0CAC               	rrf	(___fttol@lval+3),f
  5185  0FB2  0CAB               	rrf	(___fttol@lval+2),f
  5186  0FB3  0CAA               	rrf	(___fttol@lval+1),f
  5187  0FB4  0CA9               	rrf	(___fttol@lval),f
  5188  0FB5  3EFF               	addlw	-1
  5189  0FB6  1D03               	skipz
  5190  0FB7  2FB0               	goto	u2705
  5191                           
  5192                           	line	61
  5193  0FB8  3001               	movlw	(01h)
  5194  0FB9  00A4               	movwf	(??___fttol+0)+0
  5195  0FBA  0824               	movf	(??___fttol+0)+0,w
  5196  0FBB  07AD               	addwf	(___fttol@exp1),f
  5197  0FBC  1D03               	btfss	status,2
  5198  0FBD  2FBF               	goto	u2711
  5199  0FBE  2FC0               	goto	u2710
  5200  0FBF                     u2711:
  5201  0FBF  2FAF               	goto	l5969
  5202  0FC0                     u2710:
  5203  0FC0  2FE6               	goto	l5981
  5204                           	
  5205  0FC1                     l3649:	
  5206                           	line	62
  5207  0FC1  2FE6               	goto	l5981
  5208                           	
  5209  0FC2                     l3646:	
  5210                           	line	63
  5211                           	
  5212  0FC2                     l5971:	
  5213  0FC2  3018               	movlw	(018h)
  5214  0FC3  022D               	subwf	(___fttol@exp1),w
  5215  0FC4  1C03               	skipc
  5216  0FC5  2FC7               	goto	u2721
  5217  0FC6  2FC8               	goto	u2720
  5218  0FC7                     u2721:
  5219  0FC7  2FDF               	goto	l5979
  5220  0FC8                     u2720:
  5221                           	line	64
  5222                           	
  5223  0FC8                     l5973:	
  5224  0FC8  3000               	movlw	0
  5225  0FC9  00A3               	movwf	(?___fttol+3)
  5226  0FCA  3000               	movlw	0
  5227  0FCB  00A2               	movwf	(?___fttol+2)
  5228  0FCC  3000               	movlw	0
  5229  0FCD  00A1               	movwf	(?___fttol+1)
  5230  0FCE  3000               	movlw	0
  5231  0FCF  00A0               	movwf	(?___fttol)
  5232                           
  5233  0FD0  2FFF               	goto	l3645
  5234                           	
  5235  0FD1                     l5975:	
  5236  0FD1  2FFF               	goto	l3645
  5237                           	
  5238  0FD2                     l3651:	
  5239                           	line	65
  5240  0FD2  2FDF               	goto	l5979
  5241                           	
  5242  0FD3                     l3653:	
  5243                           	line	66
  5244                           	
  5245  0FD3                     l5977:	
  5246  0FD3  3001               	movlw	01h
  5247  0FD4  00A4               	movwf	(??___fttol+0)+0
  5248  0FD5                     u2735:
  5249  0FD5  1003               	clrc
  5250  0FD6  0DA9               	rlf	(___fttol@lval),f
  5251  0FD7  0DAA               	rlf	(___fttol@lval+1),f
  5252  0FD8  0DAB               	rlf	(___fttol@lval+2),f
  5253  0FD9  0DAC               	rlf	(___fttol@lval+3),f
  5254  0FDA  0BA4               	decfsz	(??___fttol+0)+0
  5255  0FDB  2FD5               	goto	u2735
  5256                           	line	67
  5257  0FDC  3001               	movlw	low(01h)
  5258  0FDD  02AD               	subwf	(___fttol@exp1),f
  5259  0FDE  2FDF               	goto	l5979
  5260                           	line	68
  5261                           	
  5262  0FDF                     l3652:	
  5263                           	line	65
  5264                           	
  5265  0FDF                     l5979:	
  5266  0FDF  08AD               	movf	(___fttol@exp1),f
  5267  0FE0  1D03               	skipz
  5268  0FE1  2FE3               	goto	u2741
  5269  0FE2  2FE4               	goto	u2740
  5270  0FE3                     u2741:
  5271  0FE3  2FD3               	goto	l5977
  5272  0FE4                     u2740:
  5273  0FE4  2FE6               	goto	l5981
  5274                           	
  5275  0FE5                     l3654:	
  5276  0FE5  2FE6               	goto	l5981
  5277                           	line	69
  5278                           	
  5279  0FE6                     l3650:	
  5280                           	line	70
  5281                           	
  5282  0FE6                     l5981:	
  5283  0FE6  0828               	movf	(___fttol@sign1),w
  5284  0FE7  1D03               	skipz
  5285  0FE8  2FEA               	goto	u2750
  5286  0FE9  2FF6               	goto	l5985
  5287  0FEA                     u2750:
  5288                           	line	71
  5289                           	
  5290  0FEA                     l5983:	
  5291  0FEA  09A9               	comf	(___fttol@lval),f
  5292  0FEB  09AA               	comf	(___fttol@lval+1),f
  5293  0FEC  09AB               	comf	(___fttol@lval+2),f
  5294  0FED  09AC               	comf	(___fttol@lval+3),f
  5295  0FEE  0AA9               	incf	(___fttol@lval),f
  5296  0FEF  1903               	skipnz
  5297  0FF0  0AAA               	incf	(___fttol@lval+1),f
  5298  0FF1  1903               	skipnz
  5299  0FF2  0AAB               	incf	(___fttol@lval+2),f
  5300  0FF3  1903               	skipnz
  5301  0FF4  0AAC               	incf	(___fttol@lval+3),f
  5302  0FF5  2FF6               	goto	l5985
  5303                           	
  5304  0FF6                     l3655:	
  5305                           	line	72
  5306                           	
  5307  0FF6                     l5985:	
  5308  0FF6  082C               	movf	(___fttol@lval+3),w
  5309  0FF7  00A3               	movwf	(?___fttol+3)
  5310  0FF8  082B               	movf	(___fttol@lval+2),w
  5311  0FF9  00A2               	movwf	(?___fttol+2)
  5312  0FFA  082A               	movf	(___fttol@lval+1),w
  5313  0FFB  00A1               	movwf	(?___fttol+1)
  5314  0FFC  0829               	movf	(___fttol@lval),w
  5315  0FFD  00A0               	movwf	(?___fttol)
  5316                           
  5317  0FFE  2FFF               	goto	l3645
  5318                           	
  5319  0FFF                     l5987:	
  5320                           	line	73
  5321                           	
  5322  0FFF                     l3645:	
  5323  0FFF  0008               	return
  5324                           	opt stack 0
  5325                           GLOBAL	__end_of___fttol
  5326  1000                     	__end_of___fttol:
  5327 ;; =============== function ___fttol ends ============
  5328                           
  5329                           	signat	___fttol,4220
  5330                           	global	___ftpack
  5331                           psect	text576,local,class=CODE,delta=2
  5332                           global __ptext576
  5333  0DE0                     __ptext576:
  5334                           
  5335 ;; *************** function ___ftpack *****************
  5336 ;; Defined at:
  5337 ;;		line 63 in file "C:\Program Files (x86)\HI-TECH Software\PICC\9.83\sources\float.c"
  5338 ;; Parameters:    Size  Location     Type
  5339 ;;  arg             3    0[BANK0 ] unsigned um
  5340 ;;  exp             1    3[BANK0 ] unsigned char 
  5341 ;;  sign            1    4[BANK0 ] unsigned char 
  5342 ;; Auto vars:     Size  Location     Type
  5343 ;;		None
  5344 ;; Return value:  Size  Location     Type
  5345 ;;                  3    0[BANK0 ] float 
  5346 ;; Registers used:
  5347 ;;		wreg, status,2, status,0
  5348 ;; Tracked objects:
  5349 ;;		On entry : 0/0
  5350 ;;		On exit  : 0/0
  5351 ;;		Unchanged: 0/0
  5352 ;; Data sizes:     COMMON   BANK0   BANK1   BANK3   BANK2
  5353 ;;      Params:         0       5       0       0       0
  5354 ;;      Locals:         0       0       0       0       0
  5355 ;;      Temps:          0       3       0       0       0
  5356 ;;      Totals:         0       8       0       0       0
  5357 ;;Total ram usage:        8 bytes
  5358 ;; Hardware stack levels used:    1
  5359 ;; Hardware stack levels required when called:    2
  5360 ;; This function calls:
  5361 ;;		Nothing
  5362 ;; This function is called by:
  5363 ;;		___ftadd
  5364 ;;		___ftdiv
  5365 ;;		___ftmul
  5366 ;;		___awtoft
  5367 ;;		___lwtoft
  5368 ;;		___lbtoft
  5369 ;;		___abtoft
  5370 ;;		___altoft
  5371 ;;		___lltoft
  5372 ;;		___attoft
  5373 ;;		___lttoft
  5374 ;; This function uses a non-reentrant model
  5375 ;;
  5376                           psect	text576
  5377                           	file	"C:\Program Files (x86)\HI-TECH Software\PICC\9.83\sources\float.c"
  5378                           	line	63
  5379                           	global	__size_of___ftpack
  5380  007D                     	__size_of___ftpack	equ	__end_of___ftpack-___ftpack
  5381                           	
  5382  0DE0                     ___ftpack:	
  5383                           	opt	stack 3
  5384                           ; Regs used in ___ftpack: [wreg+status,2+status,0]
  5385                           	line	64
  5386                           	
  5387  0DE0                     l5909:	
  5388  0DE0  1283               	bcf	status, 5	;RP0=0, select bank0
  5389  0DE1  1303               	bcf	status, 6	;RP1=0, select bank0
  5390  0DE2  0823               	movf	(___ftpack@exp),w
  5391  0DE3  1D03               	skipz
  5392  0DE4  2DE6               	goto	u2550
  5393  0DE5  2DEE               	goto	l5913
  5394  0DE6                     u2550:
  5395                           	
  5396  0DE6                     l5911:	
  5397  0DE6  0822               	movf	(___ftpack@arg+2),w
  5398  0DE7  0421               	iorwf	(___ftpack@arg+1),w
  5399  0DE8  0420               	iorwf	(___ftpack@arg),w
  5400  0DE9  1D03               	skipz
  5401  0DEA  2DEC               	goto	u2561
  5402  0DEB  2DED               	goto	u2560
  5403  0DEC                     u2561:
  5404  0DEC  2E04               	goto	l5919
  5405  0DED                     u2560:
  5406  0DED  2DEE               	goto	l5913
  5407                           	
  5408  0DEE                     l3869:	
  5409                           	line	65
  5410                           	
  5411  0DEE                     l5913:	
  5412  0DEE  3000               	movlw	0x0
  5413  0DEF  00A0               	movwf	(?___ftpack)
  5414  0DF0  3000               	movlw	0x0
  5415  0DF1  00A1               	movwf	(?___ftpack+1)
  5416  0DF2  3000               	movlw	0x0
  5417  0DF3  00A2               	movwf	(?___ftpack+2)
  5418  0DF4  2E5C               	goto	l3870
  5419                           	
  5420  0DF5                     l5915:	
  5421  0DF5  2E5C               	goto	l3870
  5422                           	
  5423  0DF6                     l3867:	
  5424                           	line	66
  5425  0DF6  2E04               	goto	l5919
  5426                           	
  5427  0DF7                     l3872:	
  5428                           	line	67
  5429                           	
  5430  0DF7                     l5917:	
  5431  0DF7  3001               	movlw	(01h)
  5432  0DF8  00A5               	movwf	(??___ftpack+0)+0
  5433  0DF9  0825               	movf	(??___ftpack+0)+0,w
  5434  0DFA  07A3               	addwf	(___ftpack@exp),f
  5435                           	line	68
  5436  0DFB  3001               	movlw	01h
  5437  0DFC                     u2575:
  5438  0DFC  1003               	clrc
  5439  0DFD  0CA2               	rrf	(___ftpack@arg+2),f
  5440  0DFE  0CA1               	rrf	(___ftpack@arg+1),f
  5441  0DFF  0CA0               	rrf	(___ftpack@arg),f
  5442  0E00  3EFF               	addlw	-1
  5443  0E01  1D03               	skipz
  5444  0E02  2DFC               	goto	u2575
  5445                           
  5446  0E03  2E04               	goto	l5919
  5447                           	line	69
  5448                           	
  5449  0E04                     l3871:	
  5450                           	line	66
  5451                           	
  5452  0E04                     l5919:	
  5453  0E04  30FE               	movlw	low highword(0FE0000h)
  5454  0E05  0522               	andwf	(___ftpack@arg+2),w
  5455  0E06  1D03               	btfss	status,2
  5456  0E07  2E09               	goto	u2581
  5457  0E08  2E0A               	goto	u2580
  5458  0E09                     u2581:
  5459  0E09  2DF7               	goto	l5917
  5460  0E0A                     u2580:
  5461  0E0A  2E22               	goto	l3874
  5462                           	
  5463  0E0B                     l3873:	
  5464                           	line	70
  5465  0E0B  2E22               	goto	l3874
  5466                           	
  5467  0E0C                     l3875:	
  5468                           	line	71
  5469                           	
  5470  0E0C                     l5921:	
  5471  0E0C  3001               	movlw	(01h)
  5472  0E0D  00A5               	movwf	(??___ftpack+0)+0
  5473  0E0E  0825               	movf	(??___ftpack+0)+0,w
  5474  0E0F  07A3               	addwf	(___ftpack@exp),f
  5475                           	line	72
  5476                           	
  5477  0E10                     l5923:	
  5478  0E10  3001               	movlw	01h
  5479  0E11  07A0               	addwf	(___ftpack@arg),f
  5480  0E12  3000               	movlw	0
  5481  0E13  1803               	skipnc
  5482  0E14  3001               movlw 1
  5483  0E15  07A1               	addwf	(___ftpack@arg+1),f
  5484  0E16  3000               	movlw	0
  5485  0E17  1803               	skipnc
  5486  0E18  3001               movlw 1
  5487  0E19  07A2               	addwf	(___ftpack@arg+2),f
  5488                           	line	73
  5489                           	
  5490  0E1A                     l5925:	
  5491  0E1A  3001               	movlw	01h
  5492  0E1B                     u2595:
  5493  0E1B  1003               	clrc
  5494  0E1C  0CA2               	rrf	(___ftpack@arg+2),f
  5495  0E1D  0CA1               	rrf	(___ftpack@arg+1),f
  5496  0E1E  0CA0               	rrf	(___ftpack@arg),f
  5497  0E1F  3EFF               	addlw	-1
  5498  0E20  1D03               	skipz
  5499  0E21  2E1B               	goto	u2595
  5500                           
  5501                           	line	74
  5502                           	
  5503  0E22                     l3874:	
  5504                           	line	70
  5505  0E22  30FF               	movlw	low highword(0FF0000h)
  5506  0E23  0522               	andwf	(___ftpack@arg+2),w
  5507  0E24  1D03               	btfss	status,2
  5508  0E25  2E27               	goto	u2601
  5509  0E26  2E28               	goto	u2600
  5510  0E27                     u2601:
  5511  0E27  2E0C               	goto	l5921
  5512  0E28                     u2600:
  5513  0E28  2E35               	goto	l5929
  5514                           	
  5515  0E29                     l3876:	
  5516                           	line	75
  5517  0E29  2E35               	goto	l5929
  5518                           	
  5519  0E2A                     l3878:	
  5520                           	line	76
  5521                           	
  5522  0E2A                     l5927:	
  5523  0E2A  3001               	movlw	low(01h)
  5524  0E2B  02A3               	subwf	(___ftpack@exp),f
  5525                           	line	77
  5526  0E2C  3001               	movlw	01h
  5527  0E2D                     u2615:
  5528  0E2D  1003               	clrc
  5529  0E2E  0DA0               	rlf	(___ftpack@arg),f
  5530  0E2F  0DA1               	rlf	(___ftpack@arg+1),f
  5531  0E30  0DA2               	rlf	(___ftpack@arg+2),f
  5532  0E31  3EFF               	addlw	-1
  5533  0E32  1D03               	skipz
  5534  0E33  2E2D               	goto	u2615
  5535  0E34  2E35               	goto	l5929
  5536                           	line	78
  5537                           	
  5538  0E35                     l3877:	
  5539                           	line	75
  5540                           	
  5541  0E35                     l5929:	
  5542  0E35  1FA1               	btfss	(___ftpack@arg+1),(15)&7
  5543  0E36  2E38               	goto	u2621
  5544  0E37  2E39               	goto	u2620
  5545  0E38                     u2621:
  5546  0E38  2E2A               	goto	l5927
  5547  0E39                     u2620:
  5548                           	
  5549  0E39                     l3879:	
  5550                           	line	79
  5551  0E39  1823               	btfsc	(___ftpack@exp),(0)&7
  5552  0E3A  2E3C               	goto	u2631
  5553  0E3B  2E3D               	goto	u2630
  5554  0E3C                     u2631:
  5555  0E3C  2E43               	goto	l3880
  5556  0E3D                     u2630:
  5557                           	line	80
  5558                           	
  5559  0E3D                     l5931:	
  5560  0E3D  30FF               	movlw	0FFh
  5561  0E3E  05A0               	andwf	(___ftpack@arg),f
  5562  0E3F  307F               	movlw	07Fh
  5563  0E40  05A1               	andwf	(___ftpack@arg+1),f
  5564  0E41  30FF               	movlw	0FFh
  5565  0E42  05A2               	andwf	(___ftpack@arg+2),f
  5566                           	
  5567  0E43                     l3880:	
  5568                           	line	81
  5569  0E43  1003               	clrc
  5570  0E44  0CA3               	rrf	(___ftpack@exp),f
  5571                           
  5572                           	line	82
  5573                           	
  5574  0E45                     l5933:	
  5575  0E45  0823               	movf	(___ftpack@exp),w
  5576  0E46  00A5               	movwf	((??___ftpack+0)+0)
  5577  0E47  01A6               	clrf	((??___ftpack+0)+0+1)
  5578  0E48  01A7               	clrf	((??___ftpack+0)+0+2)
  5579  0E49  3010               	movlw	010h
  5580  0E4A                     u2645:
  5581  0E4A  1003               	clrc
  5582  0E4B  0DA5               	rlf	(??___ftpack+0)+0,f
  5583  0E4C  0DA6               	rlf	(??___ftpack+0)+1,f
  5584  0E4D  0DA7               	rlf	(??___ftpack+0)+2,f
  5585  0E4E                     u2640:
  5586  0E4E  3EFF               	addlw	-1
  5587  0E4F  1D03               	skipz
  5588  0E50  2E4A               	goto	u2645
  5589  0E51  0825               	movf	0+(??___ftpack+0)+0,w
  5590  0E52  04A0               	iorwf	(___ftpack@arg),f
  5591  0E53  0826               	movf	1+(??___ftpack+0)+0,w
  5592  0E54  04A1               	iorwf	(___ftpack@arg+1),f
  5593  0E55  0827               	movf	2+(??___ftpack+0)+0,w
  5594  0E56  04A2               	iorwf	(___ftpack@arg+2),f
  5595                           	line	83
  5596                           	
  5597  0E57                     l5935:	
  5598  0E57  0824               	movf	(___ftpack@sign),w
  5599  0E58  1D03               	skipz
  5600  0E59  2E5B               	goto	u2650
  5601  0E5A  2E5C               	goto	l3881
  5602  0E5B                     u2650:
  5603                           	line	84
  5604                           	
  5605  0E5B                     l5937:	
  5606  0E5B  17A2               	bsf	(___ftpack@arg)+(23/8),(23)&7
  5607                           	
  5608  0E5C                     l3881:	
  5609                           	line	85
  5610                           	line	86
  5611                           	
  5612  0E5C                     l3870:	
  5613  0E5C  0008               	return
  5614                           	opt stack 0
  5615                           GLOBAL	__end_of___ftpack
  5616  0E5D                     	__end_of___ftpack:
  5617 ;; =============== function ___ftpack ends ============
  5618                           
  5619                           	signat	___ftpack,12411
  5620                           	global	_adc_read
  5621                           psect	text577,local,class=CODE,delta=2
  5622                           global __ptext577
  5623  0CFE                     __ptext577:
  5624                           
  5625 ;; *************** function _adc_read *****************
  5626 ;; Defined at:
  5627 ;;		line 62 in file "E:\Mechatronics Assignment 2\adc.c"
  5628 ;; Parameters:    Size  Location     Type
  5629 ;;		None
  5630 ;; Auto vars:     Size  Location     Type
  5631 ;;  adc_value       2    5[BANK0 ] volatile unsigned int 
  5632 ;; Return value:  Size  Location     Type
  5633 ;;                  2    0[BANK0 ] unsigned int 
  5634 ;; Registers used:
  5635 ;;		wreg, status,2, status,0
  5636 ;; Tracked objects:
  5637 ;;		On entry : 0/0
  5638 ;;		On exit  : 0/0
  5639 ;;		Unchanged: 0/0
  5640 ;; Data sizes:     COMMON   BANK0   BANK1   BANK3   BANK2
  5641 ;;      Params:         0       2       0       0       0
  5642 ;;      Locals:         0       2       0       0       0
  5643 ;;      Temps:          0       3       0       0       0
  5644 ;;      Totals:         0       7       0       0       0
  5645 ;;Total ram usage:        7 bytes
  5646 ;; Hardware stack levels used:    1
  5647 ;; Hardware stack levels required when called:    2
  5648 ;; This function calls:
  5649 ;;		Nothing
  5650 ;; This function is called by:
  5651 ;;		_adc_read_channel
  5652 ;; This function uses a non-reentrant model
  5653 ;;
  5654                           psect	text577
  5655                           	file	"E:\Mechatronics Assignment 2\adc.c"
  5656                           	line	62
  5657                           	global	__size_of_adc_read
  5658  0033                     	__size_of_adc_read	equ	__end_of_adc_read-_adc_read
  5659                           	
  5660  0CFE                     _adc_read:	
  5661                           	opt	stack 3
  5662                           ; Regs used in _adc_read: [wreg+status,2+status,0]
  5663                           	line	65
  5664                           	
  5665  0CFE                     l5887:	
  5666                           ;adc.c: 63: volatile unsigned int adc_value;
  5667                           ;adc.c: 65: ADRESH = 0;
  5668  0CFE  1283               	bcf	status, 5	;RP0=0, select bank0
  5669  0CFF  1303               	bcf	status, 6	;RP1=0, select bank0
  5670  0D00  019E               	clrf	(30)	;volatile
  5671                           	line	67
  5672                           	
  5673  0D01                     l5889:	
  5674                           ;adc.c: 67: GO = 1;
  5675  0D01  151F               	bsf	(250/8),(250)&7
  5676                           	line	68
  5677                           ;adc.c: 68: while(GO) continue;
  5678  0D02  2D03               	goto	l2129
  5679                           	
  5680  0D03                     l2130:	
  5681                           	
  5682  0D03                     l2129:	
  5683  0D03  191F               	btfsc	(250/8),(250)&7
  5684  0D04  2D06               	goto	u2511
  5685  0D05  2D07               	goto	u2510
  5686  0D06                     u2511:
  5687  0D06  2D03               	goto	l2129
  5688  0D07                     u2510:
  5689  0D07  2D08               	goto	l5891
  5690                           	
  5691  0D08                     l2131:	
  5692                           	line	74
  5693                           	
  5694  0D08                     l5891:	
  5695                           ;adc.c: 74: adc_value = ADRESH;
  5696  0D08  081E               	movf	(30),w	;volatile
  5697  0D09  00A2               	movwf	(??_adc_read+0)+0
  5698  0D0A  01A3               	clrf	(??_adc_read+0)+0+1
  5699  0D0B  0822               	movf	0+(??_adc_read+0)+0,w
  5700  0D0C  00A5               	movwf	(adc_read@adc_value)	;volatile
  5701  0D0D  0823               	movf	1+(??_adc_read+0)+0,w
  5702  0D0E  00A6               	movwf	(adc_read@adc_value+1)	;volatile
  5703                           	line	75
  5704                           ;adc.c: 75: adc_value <<=2;
  5705  0D0F  3002               	movlw	02h
  5706                           	
  5707  0D10                     u2525:
  5708  0D10  1003               	clrc
  5709  0D11  0DA5               	rlf	(adc_read@adc_value),f	;volatile
  5710  0D12  0DA6               	rlf	(adc_read@adc_value+1),f	;volatile
  5711  0D13  3EFF               	addlw	-1
  5712  0D14  1D03               	skipz
  5713  0D15  2D10               	goto	u2525
  5714                           	line	76
  5715                           	
  5716  0D16                     l5893:	
  5717                           ;adc.c: 76: adc_value |= ADRESL>>6;
  5718  0D16  1683               	bsf	status, 5	;RP0=1, select bank1
  5719  0D17  1303               	bcf	status, 6	;RP1=0, select bank1
  5720  0D18  081E               	movf	(158)^080h,w	;volatile
  5721  0D19  1283               	bcf	status, 5	;RP0=0, select bank0
  5722  0D1A  1303               	bcf	status, 6	;RP1=0, select bank0
  5723  0D1B  00A2               	movwf	(??_adc_read+0)+0
  5724  0D1C  3006               	movlw	06h
  5725  0D1D                     u2535:
  5726  0D1D  1003               	clrc
  5727  0D1E  0CA2               	rrf	(??_adc_read+0)+0,f
  5728  0D1F  3EFF               	addlw	-1
  5729  0D20  1D03               	skipz
  5730  0D21  2D1D               	goto	u2535
  5731  0D22  0822               	movf	0+(??_adc_read+0)+0,w
  5732  0D23  00A3               	movwf	(??_adc_read+1)+0
  5733  0D24  01A4               	clrf	(??_adc_read+1)+0+1
  5734  0D25  0823               	movf	0+(??_adc_read+1)+0,w
  5735  0D26  04A5               	iorwf	(adc_read@adc_value),f	;volatile
  5736  0D27  0824               	movf	1+(??_adc_read+1)+0,w
  5737  0D28  04A6               	iorwf	(adc_read@adc_value+1),f	;volatile
  5738                           	line	79
  5739                           	
  5740  0D29                     l5895:	
  5741                           ;adc.c: 79: return (adc_value);
  5742  0D29  0826               	movf	(adc_read@adc_value+1),w	;volatile
  5743  0D2A  01A1               	clrf	(?_adc_read+1)
  5744  0D2B  07A1               	addwf	(?_adc_read+1)
  5745  0D2C  0825               	movf	(adc_read@adc_value),w	;volatile
  5746  0D2D  01A0               	clrf	(?_adc_read)
  5747  0D2E  07A0               	addwf	(?_adc_read)
  5748                           
  5749  0D2F  2D30               	goto	l2132
  5750                           	
  5751  0D30                     l5897:	
  5752                           	line	80
  5753                           	
  5754  0D30                     l2132:	
  5755  0D30  0008               	return
  5756                           	opt stack 0
  5757                           GLOBAL	__end_of_adc_read
  5758  0D31                     	__end_of_adc_read:
  5759 ;; =============== function _adc_read ends ============
  5760                           
  5761                           	signat	_adc_read,90
  5762                           	global	_init
  5763                           psect	text578,local,class=CODE,delta=2
  5764                           global __ptext578
  5765  0C14                     __ptext578:
  5766                           
  5767 ;; *************** function _init *****************
  5768 ;; Defined at:
  5769 ;;		line 4 in file "E:\Mechatronics Assignment 2\initialise.c"
  5770 ;; Parameters:    Size  Location     Type
  5771 ;;		None
  5772 ;; Auto vars:     Size  Location     Type
  5773 ;;		None
  5774 ;; Return value:  Size  Location     Type
  5775 ;;		None               void
  5776 ;; Registers used:
  5777 ;;		wreg, status,2
  5778 ;; Tracked objects:
  5779 ;;		On entry : 0/0
  5780 ;;		On exit  : 0/0
  5781 ;;		Unchanged: 0/0
  5782 ;; Data sizes:     COMMON   BANK0   BANK1   BANK3   BANK2
  5783 ;;      Params:         0       0       0       0       0
  5784 ;;      Locals:         0       0       0       0       0
  5785 ;;      Temps:          0       0       0       0       0
  5786 ;;      Totals:         0       0       0       0       0
  5787 ;;Total ram usage:        0 bytes
  5788 ;; Hardware stack levels used:    1
  5789 ;; Hardware stack levels required when called:    2
  5790 ;; This function calls:
  5791 ;;		Nothing
  5792 ;; This function is called by:
  5793 ;;		_main
  5794 ;; This function uses a non-reentrant model
  5795 ;;
  5796                           psect	text578
  5797                           	file	"E:\Mechatronics Assignment 2\initialise.c"
  5798                           	line	4
  5799                           	global	__size_of_init
  5800  0008                     	__size_of_init	equ	__end_of_init-_init
  5801                           	
  5802  0C14                     _init:	
  5803                           	opt	stack 5
  5804                           ; Regs used in _init: [wreg+status,2]
  5805                           	line	7
  5806                           	
  5807  0C14                     l5879:	
  5808                           ;initialise.c: 7: TRISB = 0x00;
  5809  0C14  1683               	bsf	status, 5	;RP0=1, select bank1
  5810  0C15  1303               	bcf	status, 6	;RP1=0, select bank1
  5811  0C16  0186               	clrf	(134)^080h	;volatile
  5812                           	line	14
  5813                           	
  5814  0C17                     l5881:	
  5815                           ;initialise.c: 14: OPTION_REG = 0b00000100;
  5816  0C17  3004               	movlw	(04h)
  5817  0C18  0081               	movwf	(129)^080h	;volatile
  5818                           	line	16
  5819                           	
  5820  0C19                     l5883:	
  5821                           ;initialise.c: 16: TMR0IE = 1;
  5822  0C19  168B               	bsf	(93/8),(93)&7
  5823                           	line	20
  5824                           	
  5825  0C1A                     l5885:	
  5826                           ;initialise.c: 20: (GIE = 1);
  5827  0C1A  178B               	bsf	(95/8),(95)&7
  5828                           	line	21
  5829                           	
  5830  0C1B                     l685:	
  5831  0C1B  0008               	return
  5832                           	opt stack 0
  5833                           GLOBAL	__end_of_init
  5834  0C1C                     	__end_of_init:
  5835 ;; =============== function _init ends ============
  5836                           
  5837                           	signat	_init,88
  5838                           	global	_isr1
  5839                           psect	text579,local,class=CODE,delta=2
  5840                           global __ptext579
  5841  0E5D                     __ptext579:
  5842                           
  5843 ;; *************** function _isr1 *****************
  5844 ;; Defined at:
  5845 ;;		line 24 in file "E:\Mechatronics Assignment 2\Main.c"
  5846 ;; Parameters:    Size  Location     Type
  5847 ;;		None
  5848 ;; Auto vars:     Size  Location     Type
  5849 ;;		None
  5850 ;; Return value:  Size  Location     Type
  5851 ;;		None               void
  5852 ;; Registers used:
  5853 ;;		wreg, fsr0l, fsr0h, fsr1l, fsr1h, status,2, status,0, btemp+1, pclath, cstack
  5854 ;; Tracked objects:
  5855 ;;		On entry : 0/0
  5856 ;;		On exit  : 0/0
  5857 ;;		Unchanged: 0/0
  5858 ;; Data sizes:     COMMON   BANK0   BANK1   BANK3   BANK2
  5859 ;;      Params:         0       0       0       0       0
  5860 ;;      Locals:         0       0       0       0       0
  5861 ;;      Temps:          4       0       0       0       0
  5862 ;;      Totals:         4       0       0       0       0
  5863 ;;Total ram usage:        4 bytes
  5864 ;; Hardware stack levels used:    1
  5865 ;; Hardware stack levels required when called:    1
  5866 ;; This function calls:
  5867 ;;		___lwmod
  5868 ;; This function is called by:
  5869 ;;		Interrupt level 1
  5870 ;; This function uses a non-reentrant model
  5871 ;;
  5872                           psect	text579
  5873                           	file	"E:\Mechatronics Assignment 2\Main.c"
  5874                           	line	24
  5875                           	global	__size_of_isr1
  5876  007E                     	__size_of_isr1	equ	__end_of_isr1-_isr1
  5877                           	
  5878  0E5D                     _isr1:	
  5879                           	opt	stack 3
  5880                           ; Regs used in _isr1: [allreg]
  5881                           psect	intentry,class=CODE,delta=2
  5882                           global __pintentry
  5883  0004                     __pintentry:
  5884                           global interrupt_function
  5885  0004                     interrupt_function:
  5886                           	global saved_w
  5887  007E                     	saved_w	set	btemp+0
  5888  0004  00FE               	movwf	saved_w
  5889  0005  0E03               	swapf	status,w
  5890  0006  00F7               	movwf	(??_isr1+0)
  5891  0007  0804               	movf	fsr0,w
  5892  0008  00F8               	movwf	(??_isr1+1)
  5893  0009  080A               	movf	pclath,w
  5894  000A  00F9               	movwf	(??_isr1+2)
  5895  000B  1283               	bcf	status, 5	;RP0=0, select bank0
  5896  000C  1303               	bcf	status, 6	;RP1=0, select bank0
  5897  000D  087F               	movf	btemp+1,w
  5898  000E  00FA               	movwf	(??_isr1+3)
  5899  000F  120A  158A  2E5D   	ljmp	_isr1
  5900                           psect	text579
  5901                           	line	26
  5902                           	
  5903  0E5D                     i1l4661:	
  5904                           ;Main.c: 26: if(TMR0IF)
  5905  0E5D  1D0B               	btfss	(90/8),(90)&7
  5906  0E5E  2E60               	goto	u1_21
  5907  0E5F  2E61               	goto	u1_20
  5908  0E60                     u1_21:
  5909  0E60  2ECE               	goto	i1l1401
  5910  0E61                     u1_20:
  5911                           	line	28
  5912                           	
  5913  0E61                     i1l4663:	
  5914                           ;Main.c: 27: {
  5915                           ;Main.c: 28: TMR0IF = 0;
  5916  0E61  110B               	bcf	(90/8),(90)&7
  5917                           	line	29
  5918                           	
  5919  0E62                     i1l4665:	
  5920                           ;Main.c: 29: TMR0 = 100;
  5921  0E62  3064               	movlw	(064h)
  5922  0E63  0081               	movwf	(1)	;volatile
  5923                           	line	31
  5924                           ;Main.c: 31: RTC_Counter++;
  5925  0E64  3001               	movlw	low(01h)
  5926  0E65  07FC               	addwf	(_RTC_Counter),f	;volatile
  5927  0E66  1803               	skipnc
  5928  0E67  0AFD               	incf	(_RTC_Counter+1),f	;volatile
  5929  0E68  3000               	movlw	high(01h)
  5930  0E69  07FD               	addwf	(_RTC_Counter+1),f	;volatile
  5931                           	line	33
  5932                           	
  5933  0E6A                     i1l4667:	
  5934                           ;Main.c: 33: RTC_FLAG_1MS = 1;
  5935  0E6A  157B               	bsf	(_RTC_FLAG_1MS/8),(_RTC_FLAG_1MS)&7
  5936                           	line	34
  5937                           	
  5938  0E6B                     i1l4669:	
  5939                           ;Main.c: 34: if(RTC_Counter % 10 == 0) RTC_FLAG_10MS = 1;
  5940  0E6B  300A               	movlw	low(0Ah)
  5941  0E6C  00F1               	movwf	(?___lwmod)
  5942  0E6D  3000               	movlw	high(0Ah)
  5943  0E6E  00F2               	movwf	((?___lwmod))+1
  5944  0E6F  087D               	movf	(_RTC_Counter+1),w	;volatile
  5945  0E70  01F4               	clrf	1+(?___lwmod)+02h
  5946  0E71  07F4               	addwf	1+(?___lwmod)+02h
  5947  0E72  087C               	movf	(_RTC_Counter),w	;volatile
  5948  0E73  01F3               	clrf	0+(?___lwmod)+02h
  5949  0E74  07F3               	addwf	0+(?___lwmod)+02h
  5950                           
  5951  0E75  120A  118A  203D   	fcall	___lwmod
              120A  158A         
  5952  0E7A  0872               	movf	((1+(?___lwmod))),w
  5953  0E7B  0471               	iorwf	((0+(?___lwmod))),w
  5954  0E7C  1D03               	skipz
  5955  0E7D  2E7F               	goto	u2_21
  5956  0E7E  2E80               	goto	u2_20
  5957  0E7F                     u2_21:
  5958  0E7F  2E82               	goto	i1l4673
  5959  0E80                     u2_20:
  5960                           	
  5961  0E80                     i1l4671:	
  5962  0E80  147B               	bsf	(_RTC_FLAG_10MS/8),(_RTC_FLAG_10MS)&7
  5963  0E81  2E82               	goto	i1l4673
  5964                           	
  5965  0E82                     i1l1397:	
  5966                           	line	35
  5967                           	
  5968  0E82                     i1l4673:	
  5969                           ;Main.c: 35: if(RTC_Counter % 50 == 0) RTC_FLAG_50MS = 1;
  5970  0E82  3032               	movlw	low(032h)
  5971  0E83  00F1               	movwf	(?___lwmod)
  5972  0E84  3000               	movlw	high(032h)
  5973  0E85  00F2               	movwf	((?___lwmod))+1
  5974  0E86  087D               	movf	(_RTC_Counter+1),w	;volatile
  5975  0E87  01F4               	clrf	1+(?___lwmod)+02h
  5976  0E88  07F4               	addwf	1+(?___lwmod)+02h
  5977  0E89  087C               	movf	(_RTC_Counter),w	;volatile
  5978  0E8A  01F3               	clrf	0+(?___lwmod)+02h
  5979  0E8B  07F3               	addwf	0+(?___lwmod)+02h
  5980                           
  5981  0E8C  120A  118A  203D   	fcall	___lwmod
              120A  158A         
  5982  0E91  0872               	movf	((1+(?___lwmod))),w
  5983  0E92  0471               	iorwf	((0+(?___lwmod))),w
  5984  0E93  1D03               	skipz
  5985  0E94  2E96               	goto	u3_21
  5986  0E95  2E97               	goto	u3_20
  5987  0E96                     u3_21:
  5988  0E96  2E99               	goto	i1l4677
  5989  0E97                     u3_20:
  5990                           	
  5991  0E97                     i1l4675:	
  5992  0E97  167B               	bsf	(_RTC_FLAG_50MS/8),(_RTC_FLAG_50MS)&7
  5993  0E98  2E99               	goto	i1l4677
  5994                           	
  5995  0E99                     i1l1398:	
  5996                           	line	36
  5997                           	
  5998  0E99                     i1l4677:	
  5999                           ;Main.c: 36: if(RTC_Counter % 125 == 0) RTC_FLAG_125MS = 1;
  6000  0E99  307D               	movlw	low(07Dh)
  6001  0E9A  00F1               	movwf	(?___lwmod)
  6002  0E9B  3000               	movlw	high(07Dh)
  6003  0E9C  00F2               	movwf	((?___lwmod))+1
  6004  0E9D  087D               	movf	(_RTC_Counter+1),w	;volatile
  6005  0E9E  01F4               	clrf	1+(?___lwmod)+02h
  6006  0E9F  07F4               	addwf	1+(?___lwmod)+02h
  6007  0EA0  087C               	movf	(_RTC_Counter),w	;volatile
  6008  0EA1  01F3               	clrf	0+(?___lwmod)+02h
  6009  0EA2  07F3               	addwf	0+(?___lwmod)+02h
  6010                           
  6011  0EA3  120A  118A  203D   	fcall	___lwmod
              120A  158A         
  6012  0EA8  0872               	movf	((1+(?___lwmod))),w
  6013  0EA9  0471               	iorwf	((0+(?___lwmod))),w
  6014  0EAA  1D03               	skipz
  6015  0EAB  2EAD               	goto	u4_21
  6016  0EAC  2EAE               	goto	u4_20
  6017  0EAD                     u4_21:
  6018  0EAD  2EB0               	goto	i1l4681
  6019  0EAE                     u4_20:
  6020                           	
  6021  0EAE                     i1l4679:	
  6022  0EAE  14FB               	bsf	(_RTC_FLAG_125MS/8),(_RTC_FLAG_125MS)&7
  6023  0EAF  2EB0               	goto	i1l4681
  6024                           	
  6025  0EB0                     i1l1399:	
  6026                           	line	37
  6027                           	
  6028  0EB0                     i1l4681:	
  6029                           ;Main.c: 37: if(RTC_Counter % 500 == 0)
  6030  0EB0  30F4               	movlw	low(01F4h)
  6031  0EB1  00F1               	movwf	(?___lwmod)
  6032  0EB2  3001               	movlw	high(01F4h)
  6033  0EB3  00F2               	movwf	((?___lwmod))+1
  6034  0EB4  087D               	movf	(_RTC_Counter+1),w	;volatile
  6035  0EB5  01F4               	clrf	1+(?___lwmod)+02h
  6036  0EB6  07F4               	addwf	1+(?___lwmod)+02h
  6037  0EB7  087C               	movf	(_RTC_Counter),w	;volatile
  6038  0EB8  01F3               	clrf	0+(?___lwmod)+02h
  6039  0EB9  07F3               	addwf	0+(?___lwmod)+02h
  6040                           
  6041  0EBA  120A  118A  203D   	fcall	___lwmod
              120A  158A         
  6042  0EBF  0872               	movf	((1+(?___lwmod))),w
  6043  0EC0  0471               	iorwf	((0+(?___lwmod))),w
  6044  0EC1  1D03               	skipz
  6045  0EC2  2EC4               	goto	u5_21
  6046  0EC3  2EC5               	goto	u5_20
  6047  0EC4                     u5_21:
  6048  0EC4  2ECE               	goto	i1l1401
  6049  0EC5                     u5_20:
  6050                           	line	39
  6051                           	
  6052  0EC5                     i1l4683:	
  6053                           ;Main.c: 38: {
  6054                           ;Main.c: 39: RTC_FLAG_500MS = 1;
  6055  0EC5  15FB               	bsf	(_RTC_FLAG_500MS/8),(_RTC_FLAG_500MS)&7
  6056                           	line	40
  6057                           	
  6058  0EC6                     i1l4685:	
  6059                           ;Main.c: 40: RTC_Counter = 0;
  6060  0EC6  01FC               	clrf	(_RTC_Counter)	;volatile
  6061  0EC7  01FD               	clrf	(_RTC_Counter+1)	;volatile
  6062                           	line	41
  6063                           	
  6064  0EC8                     i1l4687:	
  6065                           ;Main.c: 41: RB0 ^= 0x01;
  6066  0EC8  1283               	bcf	status, 5	;RP0=0, select bank0
  6067  0EC9  1303               	bcf	status, 6	;RP1=0, select bank0
  6068  0ECA  3001               	movlw	1<<((48)&7)
  6069  0ECB  0686               	xorwf	((48)/8),f
  6070  0ECC  2ECE               	goto	i1l1401
  6071                           	line	42
  6072                           	
  6073  0ECD                     i1l1400:	
  6074  0ECD  2ECE               	goto	i1l1401
  6075                           	line	43
  6076                           	
  6077  0ECE                     i1l1396:	
  6078                           	line	44
  6079                           	
  6080  0ECE                     i1l1401:	
  6081  0ECE  087A               	movf	(??_isr1+3),w
  6082  0ECF  1283               	bcf	status, 5	;RP0=0, select bank0
  6083  0ED0  1303               	bcf	status, 6	;RP1=0, select bank0
  6084  0ED1  00FF               	movwf	btemp+1
  6085  0ED2  0879               	movf	(??_isr1+2),w
  6086  0ED3  008A               	movwf	pclath
  6087  0ED4  0878               	movf	(??_isr1+1),w
  6088  0ED5  0084               	movwf	fsr0
  6089  0ED6  0E77               	swapf	(??_isr1+0)^0FFFFFF80h,w
  6090  0ED7  0083               	movwf	status
  6091  0ED8  0EFE               	swapf	saved_w,f
  6092  0ED9  0E7E               	swapf	saved_w,w
  6093  0EDA  0009               	retfie
  6094                           	opt stack 0
  6095                           GLOBAL	__end_of_isr1
  6096  0EDB                     	__end_of_isr1:
  6097 ;; =============== function _isr1 ends ============
  6098                           
  6099                           	signat	_isr1,88
  6100                           	global	___lwmod
  6101                           psect	text580,local,class=CODE,delta=2
  6102                           global __ptext580
  6103  003D                     __ptext580:
  6104                           
  6105 ;; *************** function ___lwmod *****************
  6106 ;; Defined at:
  6107 ;;		line 5 in file "C:\Program Files (x86)\HI-TECH Software\PICC\9.83\sources\lwmod.c"
  6108 ;; Parameters:    Size  Location     Type
  6109 ;;  divisor         2    0[COMMON] unsigned int 
  6110 ;;  dividend        2    2[COMMON] unsigned int 
  6111 ;; Auto vars:     Size  Location     Type
  6112 ;;  counter         1    5[COMMON] unsigned char 
  6113 ;; Return value:  Size  Location     Type
  6114 ;;                  2    0[COMMON] unsigned int 
  6115 ;; Registers used:
  6116 ;;		wreg, status,2, status,0
  6117 ;; Tracked objects:
  6118 ;;		On entry : 0/0
  6119 ;;		On exit  : 0/0
  6120 ;;		Unchanged: 0/0
  6121 ;; Data sizes:     COMMON   BANK0   BANK1   BANK3   BANK2
  6122 ;;      Params:         4       0       0       0       0
  6123 ;;      Locals:         1       0       0       0       0
  6124 ;;      Temps:          1       0       0       0       0
  6125 ;;      Totals:         6       0       0       0       0
  6126 ;;Total ram usage:        6 bytes
  6127 ;; Hardware stack levels used:    1
  6128 ;; This function calls:
  6129 ;;		Nothing
  6130 ;; This function is called by:
  6131 ;;		_isr1
  6132 ;; This function uses a non-reentrant model
  6133 ;;
  6134                           psect	text580
  6135                           	file	"C:\Program Files (x86)\HI-TECH Software\PICC\9.83\sources\lwmod.c"
  6136                           	line	5
  6137                           	global	__size_of___lwmod
  6138  0044                     	__size_of___lwmod	equ	__end_of___lwmod-___lwmod
  6139                           	
  6140  003D                     ___lwmod:	
  6141                           	opt	stack 3
  6142                           ; Regs used in ___lwmod: [wreg+status,2+status,0]
  6143                           	line	8
  6144                           	
  6145  003D                     i1l4843:	
  6146  003D  0872               	movf	(___lwmod@divisor+1),w
  6147  003E  0471               	iorwf	(___lwmod@divisor),w
  6148  003F  1903               	skipnz
  6149  0040  2842               	goto	u31_21
  6150  0041  2843               	goto	u31_20
  6151  0042                     u31_21:
  6152  0042  2879               	goto	i1l4861
  6153  0043                     u31_20:
  6154                           	line	9
  6155                           	
  6156  0043                     i1l4845:	
  6157  0043  01F6               	clrf	(___lwmod@counter)
  6158  0044  1403               	bsf	status,0
  6159  0045  0DF6               	rlf	(___lwmod@counter),f
  6160                           	line	10
  6161  0046  2853               	goto	i1l4851
  6162                           	
  6163  0047                     i1l3553:	
  6164                           	line	11
  6165                           	
  6166  0047                     i1l4847:	
  6167  0047  3001               	movlw	01h
  6168                           	
  6169  0048                     u32_25:
  6170  0048  1003               	clrc
  6171  0049  0DF1               	rlf	(___lwmod@divisor),f
  6172  004A  0DF2               	rlf	(___lwmod@divisor+1),f
  6173  004B  3EFF               	addlw	-1
  6174  004C  1D03               	skipz
  6175  004D  2848               	goto	u32_25
  6176                           	line	12
  6177                           	
  6178  004E                     i1l4849:	
  6179  004E  3001               	movlw	(01h)
  6180  004F  00F5               	movwf	(??___lwmod+0)+0
  6181  0050  0875               	movf	(??___lwmod+0)+0,w
  6182  0051  07F6               	addwf	(___lwmod@counter),f
  6183  0052  2853               	goto	i1l4851
  6184                           	line	13
  6185                           	
  6186  0053                     i1l3552:	
  6187                           	line	10
  6188                           	
  6189  0053                     i1l4851:	
  6190  0053  1FF2               	btfss	(___lwmod@divisor+1),(15)&7
  6191  0054  2856               	goto	u33_21
  6192  0055  2857               	goto	u33_20
  6193  0056                     u33_21:
  6194  0056  2847               	goto	i1l4847
  6195  0057                     u33_20:
  6196  0057  2859               	goto	i1l4853
  6197                           	
  6198  0058                     i1l3554:	
  6199  0058  2859               	goto	i1l4853
  6200                           	line	14
  6201                           	
  6202  0059                     i1l3555:	
  6203                           	line	15
  6204                           	
  6205  0059                     i1l4853:	
  6206  0059  0872               	movf	(___lwmod@divisor+1),w
  6207  005A  0274               	subwf	(___lwmod@dividend+1),w
  6208  005B  1D03               	skipz
  6209  005C  285F               	goto	u34_25
  6210  005D  0871               	movf	(___lwmod@divisor),w
  6211  005E  0273               	subwf	(___lwmod@dividend),w
  6212  005F                     u34_25:
  6213  005F  1C03               	skipc
  6214  0060  2862               	goto	u34_21
  6215  0061  2863               	goto	u34_20
  6216  0062                     u34_21:
  6217  0062  286A               	goto	i1l4857
  6218  0063                     u34_20:
  6219                           	line	16
  6220                           	
  6221  0063                     i1l4855:	
  6222  0063  0871               	movf	(___lwmod@divisor),w
  6223  0064  02F3               	subwf	(___lwmod@dividend),f
  6224  0065  0872               	movf	(___lwmod@divisor+1),w
  6225  0066  1C03               	skipc
  6226  0067  03F4               	decf	(___lwmod@dividend+1),f
  6227  0068  02F4               	subwf	(___lwmod@dividend+1),f
  6228  0069  286A               	goto	i1l4857
  6229                           	
  6230  006A                     i1l3556:	
  6231                           	line	17
  6232                           	
  6233  006A                     i1l4857:	
  6234  006A  3001               	movlw	01h
  6235                           	
  6236  006B                     u35_25:
  6237  006B  1003               	clrc
  6238  006C  0CF2               	rrf	(___lwmod@divisor+1),f
  6239  006D  0CF1               	rrf	(___lwmod@divisor),f
  6240  006E  3EFF               	addlw	-1
  6241  006F  1D03               	skipz
  6242  0070  286B               	goto	u35_25
  6243                           	line	18
  6244                           	
  6245  0071                     i1l4859:	
  6246  0071  3001               	movlw	low(01h)
  6247  0072  02F6               	subwf	(___lwmod@counter),f
  6248  0073  1D03               	btfss	status,2
  6249  0074  2876               	goto	u36_21
  6250  0075  2877               	goto	u36_20
  6251  0076                     u36_21:
  6252  0076  2859               	goto	i1l4853
  6253  0077                     u36_20:
  6254  0077  2879               	goto	i1l4861
  6255                           	
  6256  0078                     i1l3557:	
  6257  0078  2879               	goto	i1l4861
  6258                           	line	19
  6259                           	
  6260  0079                     i1l3551:	
  6261                           	line	20
  6262                           	
  6263  0079                     i1l4861:	
  6264  0079  0874               	movf	(___lwmod@dividend+1),w
  6265  007A  01F2               	clrf	(?___lwmod+1)
  6266  007B  07F2               	addwf	(?___lwmod+1)
  6267  007C  0873               	movf	(___lwmod@dividend),w
  6268  007D  01F1               	clrf	(?___lwmod)
  6269  007E  07F1               	addwf	(?___lwmod)
  6270                           
  6271  007F  2880               	goto	i1l3558
  6272                           	
  6273  0080                     i1l4863:	
  6274                           	line	21
  6275                           	
  6276  0080                     i1l3558:	
  6277  0080  0008               	return
  6278                           	opt stack 0
  6279                           GLOBAL	__end_of___lwmod
  6280  0081                     	__end_of___lwmod:
  6281 ;; =============== function ___lwmod ends ============
  6282                           
  6283                           	signat	___lwmod,8314
  6284                           psect	text581,local,class=CODE,delta=2
  6285                           global __ptext581
  6286  0000                     __ptext581:
  6287                           	global	btemp
  6288  007E                     	btemp set 07Eh
  6289                           
  6290                           	DABS	1,126,2	;btemp
  6291                           	global	wtemp0
  6292  007E                     	wtemp0 set btemp


HI-TECH Software PICC Macro Assembler V9.83 build 10920 
Symbol Table                                                                                   Fri Sep 12 10:40:45 2014

      __end_of_lcd_write_control 0C5C                                pc 0002                               _GO 00FA  
                             _RD 0C60                               _WR 0C61                               fsr 0004  
                   ___ftadd@exp1 003B                     ___ftadd@exp2 003A                     ___ftadd@sign 0039  
                            l685 0C1B                              _GIE 005F                              _RB0 0030  
                            _RE0 0048                              _RE1 0049                              _RE2 004A  
                            fsr0 0004                  infrared@adcVals 004C                  ?_lcd_set_cursor 0071  
                   ___ftdiv@cntr 0038                     ___ftdiv@sign 003D                             l2120 0D41  
                           l2121 0D45                             l2130 0D03                             l2122 0D49  
                           l1410 07A5                             l2131 0D08                             l2115 0D4E  
                           l2123 0D71                             l1411 0594                             l2132 0D30  
                           l2116 0D35                             l1420 07FF                             l1412 07A4  
                           l1404 03C3                             l2117 0D5F                             l1413 0617  
                           l1405 038E                             l2118 0D39                             l2126 0C71  
                           l1414 07A3                             l1406 03C7                             l2119 0D3D  
                           l1415 069A                             l1407 048E                             l1423 0C82  
                           l1408 07A6                             l1416 07A2                             l1424 0C88  
                           l2129 0D03                             l1417 071D                             l1409 0511  
                           l1425 0C89                             l1418 07A1                             l1426 0C89  
                           l1419 07A0                             l3600 02F6                             l6001 0C27  
                           l3601 02F7                             l3602 0305                             l6003 0C30  
                           l6011 0D78                             l3603 02F8                             l3604 030C  
                           l6005 0C33                             l6021 0DCC                             l6013 0D9E  
                           l6101 0C50                             l3605 0322                             l3702 0D9E  
                           l2822 0C47                             l3606 0337                             l2830 003C  
                           l6007 0C34                             l6023 0DDA                             l3703 0DC8  
                           l6015 0DA2                             l6103 0C51                             l6111 0C3E  
                           l3607 0360                             l3623 009C                             l2831 003C  
                           l3704 0DDF                             l3624 0148                             l3640 0203  
                           l2840 0EF9                             l6025 0DDC                             l6017 0DC8  
                           l6009 0D72                             l6105 0C38                             l6121 0266  
                           l6113 0237                             l6201 00D2                             l3625 00B5  
                           l3641 021A                             l3633 0164                             l2825 0C26  
                           l2841 0EEA                             l3650 0FE6                             l3626 00FB  
                           l3634 0236                             l2842 0F03                             l3651 0FD2  
                           l6027 0DDF                             l6019 0DCA                             l2819 0C5B  
                           l6107 0C3B                             l6131 0283                             l6123 026D  
                           l6115 0251                             l3627 011D                             l6211 0103  
                           l6203 00E4                             l3635 017D                             l2843 0F13  
                           l3652 0FDF                             l3644 0F77                             l3628 012C  
                           l3636 01BD                             l2828 002F                             l2844 0F04  
                           l2852 0CD1                             l3653 0FD3                             l3645 0FFF  
                           l6109 0C3D                             l6141 0298                             l6133 0287  
                           l3581 0266                             l6125 026E                             l6117 0255  
                           l6221 012C                             l6213 0111                             l6205 00E8  
                           l3637 01D2                             l2829 001C                             l2845 0F1D  
                           l6301 0EE3                             l3654 0FE5                             l3646 0FC2  
                           l3582 037C                             l3638 01E9                             l2846 0F2D  
                           l3655 0FF6                             l3647 0FAE                             l6071 0D34  
                           l3591 02BF                             l6151 02CE                             l6143 02A6  
                           l6135 028B                             l3583 0283                             l6127 0272  
                           l6119 025B                             l6223 0148                             l6215 011B  
                           l6207 00EF                             l3639 01EE                             l6231 0164  
                           l3671 0CE2                             l2847 0F1E                             l6311 0EF9  
                           l6303 0EE5                             l3648 0FAF                             l3592 02C0  
                           l3672 0CFD                             l2848 0F37                             l3649 0FC1  
                           l6073 0D49                             l6081 0D5F                             l6161 02F8  
                           l3593 02CE                             l6145 02B0                             l6153 02D6  
                           l6137 0290                             l6129 0278                             l3585 0282  
                           l6217 011D                             l6209 00FB                             l6241 01AB  
                           l6233 0175                             l6225 0149                             l2849 0F59  
                           l6321 0F26                             l6313 0F04                             l6305 0EE7  
                           l6401 0734                             l3594 02C1                             l3586 028C  
                           l6083 0D63                             l6075 0D4C                             l6091 0C63  
                           l6171 0337                             l6163 0305                             l6155 02DD  
                           l3595 02D5                             l6147 02B6                             l6139 0292  
                           l3587 0291                             l3579 026E                             l6219 0125  
                           l6251 01C1                             l6243 01AC                             l6235 017C  
                           l6227 015C                             l6323 0F2D                             l6315 0F0C  
                           l6307 0EEA                             l6331 0CAE                             l6411 07B9  
                           l6403 074B                             l3588 02D6                             l3596 030D  
                           l6085 0D71                             l6077 0D4D                             l6093 0C67  
                           l6181 037C                             l6173 0348                             l6165 0311  
                           l3597 030D                             l6157 02E7                             l6149 02C1  
                           l3589 02A6                             l6261 01EE                             l6253 01D2  
                           l6245 01B2                             l6237 017D                             l6229 0163  
                           l6325 0F37                             l6317 0F13                             l6309 0EF2  
                           l6341 0CBF                             l6333 0CAF                             l6413 07D3  
                           l6405 07A6                             l6421 0C82                             l3870 0E5C  
                           l3598 02DD                             l3758 0CA6                             l3871 0E04  
                           l6079 0D4E                             l6095 0C6B                             l6087 0C5C  
                           l6175 034C                             l6167 0322                             l6159 02ED  
                           l6191 00AD                             l6183 0081                             l6271 021A  
                           l6263 01F2                             l6255 01DA                             l6247 01B8  
                           l6239 01AA                             l6319 0F1E                             l6343 0CC5  
                           l6335 0CB2                             l6327 0CA7                             l6415 07DF  
                           l6407 07AD                             l6351 038E                             l3880 0E43  
                           l3872 0DF7                             l3881 0E5C                             l3873 0E0B  
                           l6089 0C5F                             l6097 0C4B                             l6177 035C  
                           l6169 0326                             l6193 00B4                             l6185 0094  
                           l6273 0236                             l6265 0203                             l6257 01E2  
                           l6249 01BD                             l6281 0CFD                             l6345 0CCB  
                           l6337 0CB3                             l6329 0CAB                             l6417 07E5  
                           l6409 07B3                             l6361 03F4                             l6353 0394  
                           l3874 0E22                             l3698 0C33                             l3875 0E0C  
                           l3867 0DF6                             l3699 0C34                             l6099 0C4E  
                           l6179 0360                             l6195 00B5                             l6187 009B  
                           l6267 020B                             l6259 01E9                             l6275 0CD2  
                           l6283 0C8C                             l6291 001B                             l6339 0CB9  
                           l6371 04A5                             l6363 040D                             l6355 03C3  
                           l6347 037D                             l6419 0C72                             l3876 0E29  
                           l3877 0E35                             l3869 0DEE                             l6197 00BB  
                           l6189 009C                             l6269 0213                             l6277 0CD9  
                           l6285 0CA6                             l6293 001C                             l6381 0594  
                           l6373 04BC                             l6365 0422                             l6357 03C8  
                           l6349 038B                             l3878 0E2A                             l3879 0E39  
                           l5911 0DE6                             l6199 00C0                             l6279 0CE2  
                           l6287 0C1F                             l6295 0028                             l6391 0645  
                           l6383 05AB                             l6375 0511                             l6367 0439  
                           l6359 03EE                             l5921 0E0C                             l5913 0DEE  
                           l6289 0C20                             l6297 002F                             l6393 069A  
                           l6385 05C2                             l6377 0528                             l6369 048E  
                           l5931 0E3D                             l5923 0E10                             l5915 0DF5  
                           l6299 0EDB                             l6395 06B1                             l6387 0617  
                           l6379 053F                             l5933 0E45                             l5925 0E1A  
                           l5917 0DF7                             l5909 0DE0                             l6397 06C8  
                           l6389 062E                             l5935 0E57                             l5927 0E2A  
                           l5919 0E04                             l5951 0F77                             l6399 071D  
                           l5881 0C17                             l5937 0E5B                             l5929 0E35  
                           l5961 0F99                             l5953 0F89                             l5945 0F5A  
                           l5883 0C19                             l5891 0D08                             l5963 0F9D  
                           l5971 0FC2                             l5955 0F8A                             l5947 0F6D  
                           l5875 0DDC                             l5885 0C1A                             l5893 0D16  
                           l5973 0FC8                             l5981 0FE6                             l5965 0FA4  
                           l5957 0F90                             l5949 0F76                             l5877 0DDE  
                           l5879 0C14                             l5895 0D29                             l5887 0CFE  
                           l5983 0FEA                             l5975 0FD1                             l5967 0FAD  
                           l5959 0F97                             l5897 0D30                             l5889 0D01  
                           l5985 0FF6                             l5977 0FD3                             l5969 0FAF  
                           l5987 0FFF                             l5979 0FDF                             _CHS0 00FB  
                           _CHS1 00FC                             _CHS2 00FD                             STR_1 0806  
                           STR_2 0811                             u3000 02BE                             u3001 02BD  
                           u3100 0326                             u3020 02D4                             u3101 0325  
                           u3021 02D3                             u3030 02DC                             u3111 0341  
                           u3031 02DB                             u3015 02C2                             u3120 034C  
                           u3112 0348                             u3200 012B                             u3121 034B  
                           u3201 012A                             u3050 02ED                             u3130 0094  
                           u3210 015C                             u3051 02EC                             u3131 0093  
                           u3211 015B                             u3060 02F5                             u3140 00AD  
                           u3300 01F2                             u3220 0175                             u3061 02F4  
                           u3045 02DE                             u3141 00AC                             u3301 01F1  
                           u3221 0174                             u2510 0D07                             u3150 00CB  
                           u3230 018D                             u2511 0D06                             u3311 01FB  
                           u2600 0E28                             u3080 030B                             u3160 00DD  
                           u3312 0202                             u3240 019F                             u3400 03C7  
                           u2601 0E27                             u3081 030A                             u3401 03C6  
                           u3090 0311                             u3250 01C1                             u3410 0422  
                           u3091 0310                             u3075 02F9                             u3155 00C7  
                           u3251 01C0                             u3235 0189                             u3411 0421  
                           u2620 0E39                             u3180 0111                             u3340 0219  
                           u3500 0645                             u3420 0439                             u2525 0D10  
                           u2621 0E38                             u3181 0110                             u3165 00D9  
                           u3341 0218                             u3325 0204                             u3261 01CA  
                           u3245 019B                             u3501 0644                             u3421 0438  
                           u2630 0E3D                             u2550 0DE6                             u2710 0FC0  
                           u3262 01D1                             u3350 0CD9                             u3510 06B1  
                           u3430 04A5                             u2535 0D1D                             u2631 0E3C  
                           u2615 0E2D                             u2711 0FBF                             u3175 00FC  
                           u3335 020C                             u3351 0CD8                             u3511 06B0  
                           u3431 04A4                             u2640 0E4E                             u2560 0DED  
                           u2720 0FC8                             u2800 0DA2                             u3360 003B  
                           u3520 06C8                             u3440 04BC                             u2561 0DEC  
                           u2721 0FC7                             u2705 0FB0                             u2801 0DA1  
                           u3185 010D                             u3361 003A                             u3521 06C7  
                           u3441 04BB                             u2650 0E5B                             u3290 01E8  
                           u3370 0F02                             u3530 0734                             u3450 0528  
                           u2811 0DBA                             u3195 011E                             u3291 01E7  
                           u3275 01D3                             u3371 0F01                             u3531 0733  
                           u3451 0527                             u2580 0E0A                             u2740 0FE4  
                           u2660 0F6D                             u2820 0DDA                             u2812 0DBB  
                           u2900 025B                             u3380 0F1C                             u3540 074B  
                           u3460 053F                             u2645 0E4A                             u2581 0E09  
                           u2741 0FE3                             u2661 0F6C                             u2821 0DD9  
                           u2813 0DC0                             u2901 025A                             u3285 01DB  
                           u3381 0F1B                             u3541 074A                             u3461 053E  
                           u2750 0FEA                             u2670 0F82                             u2814 0DC1  
                           u2910 0265                             u3390 0F36                             u3470 05AB  
                           u2575 0DFC                             u2735 0FD5                             u2911 0264  
                           u3391 0F35                             u3471 05AA                             u2680 0F9D  
                           u2920 0272                             u3480 05C2                             u2681 0F9C  
                           u2825 0DD6                             u3481 05C1                             u2690 0FA4  
                           u2770 0C30                             u2930 0278                             u3490 062E  
                           u2595 0E1B                             u2691 0FA3                             u2675 0F7E  
                           u2771 0C2F                             u2931 0277                             u3491 062D  
                           u2780 0D78                             u2940 0282                             u2781 0D77  
                           u3557 0C43                             u2941 0281                             u2950 028B  
                           u2791 0D90                             u3567 0C56                             u2951 028A  
                           u2792 0D91                             u2960 0290                             u2793 0D96  
                           u3577 0C6F                             u2961 028F                             u2794 0D97  
                           u2970 02A5                             u2890 0255                             u3587 0D61  
                           u2971 02A4                             u2990 02B6                             u2991 02B5  
                           u2985 02A7                             _TMR0 0001                             _WREN 0C62  
                           u1_20 0E61                             u1_21 0E60                             u2_20 0E80  
                           u2_21 0E7F                             u3_20 0E97                             u3_21 0E96  
                           u4_20 0EAE                             u4_21 0EAD                             u5_20 0EC5  
                           u5_21 0EC4           __end_of_lcd_write_data 0C48                             _isr1 0E5D  
                           _main 0C72                     ___ftpack@arg 0020                             _init 0C14  
                   ___ftpack@exp 0023                             btemp 007E                             start 0012  
                   ___ftmul@cntr 004A                     ___ftmul@sign 004B                     ___fttol@exp1 002D  
                   ___fttol@lval 0029                            ?_isr1 0071                            ?_main 0071  
                          ?_init 0071                            _EEADR 010D                  __end_of___ftadd 037D  
                          _CARRY 0018                  __end_of___ftdiv 0149                  __end_of___ftneg 0C35  
                __end_of___ftmul 0237                  __end_of___fttol 1000                  __end_of___lwmod 0081  
                          u31_20 0043                            u31_21 0042                            u32_25 0048  
                          u33_20 0057                            u33_21 0056                            u34_20 0063  
                          u34_21 0062                            u34_25 005F                            _PORTA 0005  
                          _PORTD 0008                            u35_25 006B                            _PORTE 0009  
                          u36_20 0077                            u36_21 0076                            _TRISA 0085  
                          _TRISB 0086                            _TRISD 0088                            _TRISE 0089  
         lcd_write_data@databyte 0022                    ___awtoft@sign 002D                    ___ftpack@sign 0024  
                 __pbitbssCOMMON 03D8                            pclath 000A                  ?_lcd_write_data 0071  
              ?_adc_read_channel 0027                            status 0003            _lcd_write_4_digit_bcd 0EDB  
                          wtemp0 007E               ??_adc_read_channel 0029       __size_of_lcd_write_control 0014  
                   __end_of_isr1 0EDB                     __end_of_main 0C8C                     __end_of_init 0C1C  
                         ??_isr1 0077                           ??_main 0057                    ___fttol@sign1 0028  
                         ??_init 0020                           _ADCON0 001F                           _ADCON1 009F  
                         _ADRESH 001E                           _ADRESL 009E                           _EEDATA 010C  
                         _EECON1 018C                           _EECON2 018D                 __end_of___awtoft 0CFE  
               __end_of___ftpack 0E5D                 __end_of_adc_read 0D31                           i1l1400 0ECD  
                         i1l1401 0ECE                           i1l1396 0ECE                           i1l1397 0E82  
                         i1l1398 0E99                           i1l1399 0EB0                           i1l3551 0079  
                         i1l3552 0053                           i1l3553 0047                           i1l3554 0058  
                         i1l3555 0059                           i1l3556 006A                           i1l3557 0078  
                         i1l3558 0080                           i1l4661 0E5D                           i1l4671 0E80  
                         i1l4663 0E61                           i1l4681 0EB0                           i1l4673 0E82  
                         i1l4665 0E62                           i1l4851 0053                           i1l4843 003D  
                         i1l4683 0EC5                           i1l4675 0E97                           i1l4667 0E6A  
                         i1l4853 0059                           i1l4845 0043                           i1l4861 0079  
                         i1l4685 0EC6                           i1l4677 0E99                           i1l4669 0E6B  
                         i1l4863 0080                           i1l4855 0063                           i1l4847 0047  
                         i1l4687 0EC8                           i1l4679 0EAE                           i1l4857 006A  
                         i1l4849 004E                           i1l4859 0071                 __end_of___lwtoft 0CA7  
                         _TMR0IE 005D                           _TMR0IF 005A                 __end_of_lcd_init 0CD2  
                         ___ftge 0D72                        ??___ftadd 0035                        ??___ftdiv 0034  
                      ??___ftneg 002B                        ??___ftmul 0042                        ??___fttol 0024  
                      ??___lwmod 0075                 __end_of_infrared 0800                 __end_of_init_adc 0C72  
       __end_of_lcd_write_string 003D            ___ftmul@f3_as_product 0047                    _infrared$4525 0051  
                         saved_w 007E           ?_lcd_write_4_digit_bcd 002E                lcd_write_string@s 0024  
                     ___ftadd@f1 002F                       ___ftadd@f2 0032                       ___ftge@ff1 0020  
                     ___ftge@ff2 0023                       ___ftdiv@f1 0031                       ___ftdiv@f2 002E  
                     ___ftdiv@f3 0039                       ___ftneg@f1 0028                       ___awtoft@c 0028  
                     ___ftmul@f1 003C                       ___ftmul@f2 003F                       ___fttol@f1 0020  
                 __pcstackCOMMON 0071                       ___lwtoft@c 002B                 ??_lcd_set_cursor 0023  
                     __pmaintext 0C72                          ?___ftge 0020                       __pintentry 0004  
                      ?___awtoft 0028                        ?___ftpack 0020                        ?_adc_read 0020  
                      ?___lwtoft 002B                 ??_lcd_write_data 0020                        ?_lcd_init 0071  
                      ?_infrared 0071                        ?_init_adc 0071                  __size_of___ftge 006E  
                        ___ftadd 0237                          ___ftdiv 0081                          ___ftneg 0C27  
                        ___ftmul 0149                          ___fttol 0F5A                          ___lwmod 003D  
      __size_of_adc_read_channel 0041                       ??___awtoft 002B                       ??___ftpack 0025  
                     ??_adc_read 0022                       ??___lwtoft 002E                       ??_lcd_init 0023  
           end_of_initialization 0C10                       ??_infrared 004C                       ??_init_adc 0020  
              ?_lcd_write_string 0071               ??_lcd_write_string 0023                adc_read@adc_value 0025  
        ??_lcd_write_4_digit_bcd 0030                      ___ftdiv@exp 003C                      ___ftmul@exp 0046  
                 __end_of___ftge 0DE0              start_initialization 0C0D            lcd_set_cursor@address 0023  
                       ??___ftge 0026                   _RTC_FLAG_125MS 03D9                   _RTC_FLAG_500MS 03DB  
               _adc_read_channel 0D31                __size_of___awtoft 002C                __size_of___ftpack 007D  
              __size_of_adc_read 0033                      __pbssCOMMON 007C                __size_of___lwtoft 001B  
                  __pcstackBANK0 0020                __size_of_lcd_init 002B                __size_of_infrared 0483  
              __size_of_init_adc 0016        lcd_write_4_digit_bcd@data 002E                         ?___ftadd 002F  
                      __ptext560 0CA7                        __ptext561 0EDB                        __ptext570 0C48  
                      __ptext562 0018                        __ptext571 0C5C                        __ptext563 0C1C  
                      __ptext580 003D                        __ptext572 0D31                        __ptext564 0C8C  
                      __ptext581 0000                        __ptext573 0D72                        __ptext565 0CD2  
                      __ptext574 0C27                        __ptext566 0149                        __ptext558 0000  
                      __ptext575 0F5A                        __ptext567 0081                        __ptext559 037D  
                      __ptext576 0DE0                        __ptext568 0237                        __ptext577 0CFE  
                      __ptext569 0C35                        __ptext578 0C14                        __ptext579 0E5D  
                       ?___ftdiv 002E                         ?___ftneg 0028                         ?___ftmul 003C  
                       ?___fttol 0020                         ?___lwmod 0071                        __pstrings 0800  
        __size_of_lcd_set_cursor 000B                interrupt_function 0004                      __stringbase 0805  
                  infrared@total 0054   __size_of_lcd_write_4_digit_bcd 007F    __end_of_lcd_write_4_digit_bcd 0F5A  
      __size_of_lcd_write_string 0025          __size_of_lcd_write_data 0013                        infrared@i 004F  
        adc_read_channel@channel 002A                    _RTC_FLAG_10MS 03D8                    _RTC_FLAG_50MS 03DC  
               __size_of___ftadd 0146                 __size_of___ftdiv 00C8                 __size_of___ftneg 000E  
               __size_of___ftmul 00EE                 __size_of___fttol 00A6                 __size_of___lwmod 0044  
                       ___awtoft 0CD2                         ___ftpack 0DE0                         _adc_read 0CFE  
                       ___lwtoft 0C8C                         _lcd_init 0CA7         __end_of_adc_read_channel 0D72  
      lcd_write_control@databyte 0022                         _infrared 037D                         _init_adc 0C5C  
                  __size_of_isr1 007E                    __size_of_main 001A                    __size_of_init 0008  
lcd_write_4_digit_bcd@ThousDigit 0034                     _RTC_FLAG_1MS 03DA   lcd_write_4_digit_bcd@HunsDigit 0032  
 lcd_write_4_digit_bcd@OnesDigit 0036                         intlevel1 0000                   _lcd_set_cursor 0C1C  
               ___lwmod@dividend 0073   lcd_write_4_digit_bcd@TensDigit 0030                        stringcode 0800  
              _lcd_write_control 0C48               ?_lcd_write_control 0071                       _OPTION_REG 0081  
                ___lwmod@divisor 0071                  ___lwmod@counter 0076                         stringdir 0800  
                       stringtab 0800              ??_lcd_write_control 0020           __end_of_lcd_set_cursor 0C27  
               _lcd_write_string 0018                      _RTC_Counter 007C                   _lcd_write_data 0C35  
