opt subtitle "HI-TECH Software Omniscient Code Generator (Lite mode) build 10920"

opt pagewidth 120

	opt lm

	processor	16F877A
clrc	macro
	bcf	3,0
	endm
clrz	macro
	bcf	3,2
	endm
setc	macro
	bsf	3,0
	endm
setz	macro
	bsf	3,2
	endm
skipc	macro
	btfss	3,0
	endm
skipz	macro
	btfss	3,2
	endm
skipnc	macro
	btfsc	3,0
	endm
skipnz	macro
	btfsc	3,2
	endm
indf	equ	0
indf0	equ	0
pc	equ	2
pcl	equ	2
status	equ	3
fsr	equ	4
fsr0	equ	4
c	equ	1
z	equ	0
pclath	equ	10
# 52 "E:\Aldnoah.Zero\Assignment3\Main.c"
	psect config,class=CONFIG,delta=2 ;#
# 52 "E:\Aldnoah.Zero\Assignment3\Main.c"
	dw 0xFFFE & 0xFFFB & 0xFFFF & 0xFFBF & 0xFFF7 & 0xFFFF & 0xFF7F & 0xFFFF ;#
	FNCALL	_main,_init
	FNCALL	_main,_robot_read
	FNCALL	_main,_readAvgDistance
	FNCALL	_main,_UpdateDisplay
	FNCALL	_main,_Menu
	FNCALL	_main,_calibrateIR
	FNCALL	_main,_scan360
	FNCALL	_main,_rotate
	FNCALL	_main,_robotMoveSpeed
	FNCALL	_main,_robotFollow
	FNCALL	_main,___awtoft
	FNCALL	_main,___ftmul
	FNCALL	_main,___fttol
	FNCALL	_main,_robotTurn
	FNCALL	_main,_ChargeMode
	FNCALL	_ChargeMode,_ser_putch
	FNCALL	_ChargeMode,_UpdateDisplay
	FNCALL	_robotFollow,_RobotDrive
	FNCALL	_robotFollow,_readAvgDistance
	FNCALL	_robotFollow,_robot_read
	FNCALL	_robotFollow,_UpdateDisplay
	FNCALL	_robotFollow,_abs
	FNCALL	_robotFollow,___awtoft
	FNCALL	_robotFollow,___ftge
	FNCALL	_robotFollow,___ftdiv
	FNCALL	_robotFollow,___ftmul
	FNCALL	_robotFollow,___fttol
	FNCALL	_robotMoveSpeed,_RobotDrive
	FNCALL	_robotMoveSpeed,_robot_read
	FNCALL	_robotMoveSpeed,_UpdateDisplay
	FNCALL	_robotMoveSpeed,_abs
	FNCALL	_robotMoveSpeed,___awtoft
	FNCALL	_robotMoveSpeed,___ftge
	FNCALL	_robotMoveSpeed,___ftdiv
	FNCALL	_robotMoveSpeed,___ftmul
	FNCALL	_robotMoveSpeed,___fttol
	FNCALL	_scan360,_readAvgDistance
	FNCALL	_scan360,_rotate
	FNCALL	_scan360,_UpdateDisplay
	FNCALL	_calibrateIR,_rotate
	FNCALL	_calibrateIR,_UpdateDisplay
	FNCALL	_UpdateDisplay,_lcd_write_control
	FNCALL	_UpdateDisplay,_sprintf
	FNCALL	_UpdateDisplay,_lcd_set_cursor
	FNCALL	_UpdateDisplay,_lcd_write_string
	FNCALL	_UpdateDisplay,___awmod
	FNCALL	_readAvgDistance,_readDistance
	FNCALL	_readAvgDistance,___lwdiv
	FNCALL	_readAvgDistance,_ADCconvert
	FNCALL	_init,_ser_init
	FNCALL	_init,_init_adc
	FNCALL	_init,_lcd_init
	FNCALL	_init,_robo_init
	FNCALL	_readDistance,_adc_read_channel
	FNCALL	_robot_read,_ser_putch
	FNCALL	_robot_read,_ser_getch
	FNCALL	_lcd_init,_lcd_write_control
	FNCALL	_lcd_write_string,_lcd_write_data
	FNCALL	_lcd_set_cursor,_lcd_write_control
	FNCALL	___awtoft,___ftpack
	FNCALL	___ftmul,___ftpack
	FNCALL	___ftdiv,___ftpack
	FNCALL	_abs,___wmul
	FNCALL	_RobotDrive,_ser_putch
	FNCALL	_ser_getch,_ser_isrx
	FNCALL	_sprintf,___lwdiv
	FNCALL	_sprintf,___lwmod
	FNCALL	_ADCconvert,___wmul
	FNCALL	_ADCconvert,___lwdiv
	FNCALL	_robotTurn,_ser_putch
	FNCALL	_rotate,_spi_transfer
	FNCALL	_robo_init,_ser_putch
	FNCALL	_adc_read_channel,_adc_read
	FNROOT	_main
	FNCALL	_isr1,i1___lwmod
	FNCALL	_isr1,_ReadButtons
	FNCALL	_ReadButtons,_Debounce
	FNCALL	intlevel1,_isr1
	global	intlevel1
	FNROOT	intlevel1
	global	_menuStrings
	global	_shortMenuStrings
	global	_current_step
psect	idataBANK1,class=CODE,space=0,delta=2
global __pidataBANK1
__pidataBANK1:
	file	"E:\Aldnoah.Zero\Assignment3\HMI.c"
	line	49

;initializer for _menuStrings
	retlw	(STR_1-__stringbase)&0ffh
	retlw	(STR_2-__stringbase)&0ffh
	retlw	(STR_3-__stringbase)&0ffh
	retlw	(STR_4-__stringbase)&0ffh
	retlw	(STR_5-__stringbase)&0ffh
	retlw	(STR_6-__stringbase)&0ffh
	line	50

;initializer for _shortMenuStrings
	retlw	(STR_7-__stringbase)&0ffh
	retlw	(STR_8-__stringbase)&0ffh
	retlw	(STR_9-__stringbase)&0ffh
	retlw	(STR_10-__stringbase)&0ffh
	retlw	(STR_11-__stringbase)&0ffh
	retlw	(STR_12-__stringbase)&0ffh
	file	"E:\Aldnoah.Zero\Assignment3\steppermotor.c"
	line	45

;initializer for _current_step
	retlw	03Ch
	global	_dpowers
psect	strings,class=STRING,delta=2
global __pstrings
__pstrings:
;	global	stringdir,stringtab,__stringbase
stringtab:
;	String table - string pointers are 1 byte each
	btfsc	(btemp+1),7
	ljmp	stringcode
	bcf	status,7
	btfsc	(btemp+1),0
	bsf	status,7
	movf	indf,w
	incf fsr
skipnz
incf btemp+1
	return
stringcode:stringdir:
movlw high(stringdir)
movwf pclath
movf fsr,w
incf fsr
	addwf pc
__stringbase:
	retlw	0
psect	strings
	file	"C:\Program Files\HI-TECH Software\PICC\9.83\lib\doprnt.c"
	line	350
_dpowers:
	retlw	01h
	retlw	0

	retlw	0Ah
	retlw	0

	retlw	064h
	retlw	0

	retlw	0E8h
	retlw	03h

	retlw	010h
	retlw	027h

	global	_dpowers
	global	UpdateDisplay@F1249
	global	_rxfifo
	global	_txfifo
	global	_buttonPressed
	global	_CenterPressed
	global	_CenterReleased
	global	_DownPressed
	global	_DownReleased
	global	_LeftPressed
	global	_LeftReleased
	global	_RTC_FLAG_1MS
	global	_RTC_FLAG_250MS
	global	_RTC_FLAG_500MS
	global	_RightPressed
	global	_RightReleased
	global	_UpPressed
	global	_UpReleased
	global	_Disp1
	global	_Disp2
	global	_IRdistance
	global	_RTC_Counter
	global	_TotalDistTravelled
	global	_adcVal
	global	_angleTurned
	global	_distTravelled
	global	_dist_high
	global	_dist_low
	global	_pos
	global	_total
	global	_totalSteps
	global	_AngleHighByte
	global	_AngleLowByte
	global	_BumpSensors
	global	_CenterDebounceCount
	global	_DistHighByte
	global	_DistLowByte
	global	_DownDebounceCount
	global	_LeftDebounceCount
	global	_ROBOTerror
	global	_RightDebounceCount
	global	_UpDebounceCount
	global	_VwallSensor
	global	_currentMenu
	global	_highByte
	global	_lowByte
	global	_rxiptr
	global	_rxoptr
	global	_ser_tmp
	global	_turnhighByte
	global	_turnlowByte
	global	_txiptr
	global	_txoptr
	global	_ADCON0
_ADCON0	set	31
	global	_ADRESH
_ADRESH	set	30
	global	_PORTA
_PORTA	set	5
	global	_PORTD
_PORTD	set	8
	global	_PORTE
_PORTE	set	9
	global	_RCREG
_RCREG	set	26
	global	_SSPBUF
_SSPBUF	set	19
	global	_SSPCON
_SSPCON	set	20
	global	_TMR0
_TMR0	set	1
	global	_TXREG
_TXREG	set	25
	global	AT25256A@CS0
AT25256A@CS0	set	56
	global	AT25256A@CS1
AT25256A@CS1	set	57
	global	_CARRY
_CARRY	set	24
	global	_CHS0
_CHS0	set	251
	global	_CHS1
_CHS1	set	252
	global	_CHS2
_CHS2	set	253
	global	_CREN
_CREN	set	196
	global	_GIE
_GIE	set	95
	global	_GO
_GO	set	250
	global	_OERR
_OERR	set	193
	global	_PEIE
_PEIE	set	94
	global	_RB0
_RB0	set	48
	global	_RB2
_RB2	set	50
	global	_RB3
_RB3	set	51
	global	_RB4
_RB4	set	52
	global	_RB5
_RB5	set	53
	global	_RB6
_RB6	set	54
	global	_RC0
_RC0	set	56
	global	_RC1
_RC1	set	57
	global	_RC2
_RC2	set	58
	global	_RCIF
_RCIF	set	101
	global	_RE0
_RE0	set	72
	global	_RE1
_RE1	set	73
	global	_RE2
_RE2	set	74
	global	_RX9
_RX9	set	198
	global	_SPEN
_SPEN	set	199
	global	_SSPIF
_SSPIF	set	99
	global	_TMR0IE
_TMR0IE	set	93
	global	_TMR0IF
_TMR0IF	set	90
	global	_TXIF
_TXIF	set	100
	global	_ADCON1
_ADCON1	set	159
	global	_ADRESL
_ADRESL	set	158
	global	_OPTION_REG
_OPTION_REG	set	129
	global	_SPBRG
_SPBRG	set	153
	global	_SSPSTAT
_SSPSTAT	set	148
	global	_TRISA
_TRISA	set	133
	global	_TRISB
_TRISB	set	134
	global	_TRISC
_TRISC	set	135
	global	_TRISD
_TRISD	set	136
	global	_TRISE
_TRISE	set	137
	global	_BRGH
_BRGH	set	1218
	global	_RCIE
_RCIE	set	1125
	global	_SYNC
_SYNC	set	1220
	global	_TX9
_TX9	set	1222
	global	_TXEN
_TXEN	set	1221
	global	_TXIE
_TXIE	set	1124
	global	_EEADR
_EEADR	set	269
	global	_EEDATA
_EEDATA	set	268
	global	_EECON1
_EECON1	set	396
	global	_EECON2
_EECON2	set	397
	global	_RD
_RD	set	3168
	global	_WR
_WR	set	3169
	global	_WREN
_WREN	set	3170
	
STR_18:	
	retlw	32	;' '
	retlw	67	;'C'
	retlw	104	;'h'
	retlw	97	;'a'
	retlw	114	;'r'
	retlw	103	;'g'
	retlw	105	;'i'
	retlw	110	;'n'
	retlw	103	;'g'
	retlw	32	;' '
	retlw	77	;'M'
	retlw	111	;'o'
	retlw	100	;'d'
	retlw	101	;'e'
	retlw	32	;' '
	retlw	0
psect	strings
	
STR_14:	
	retlw	90	;'Z'
	retlw	101	;'e'
	retlw	114	;'r'
	retlw	111	;'o'
	retlw	32	;' '
	retlw	83	;'S'
	retlw	116	;'t'
	retlw	101	;'e'
	retlw	112	;'p'
	retlw	95	;'_'
	retlw	77	;'M'
	retlw	111	;'o'
	retlw	116	;'t'
	retlw	111	;'o'
	retlw	114	;'r'
	retlw	0
psect	strings
	
STR_13:	
	retlw	73	;'I'
	retlw	82	;'R'
	retlw	58	;':'
	retlw	37	;'%'
	retlw	100	;'d'
	retlw	99	;'c'
	retlw	109	;'m'
	retlw	32	;' '
	retlw	68	;'D'
	retlw	58	;':'
	retlw	37	;'%'
	retlw	100	;'d'
	retlw	0
psect	strings
	
STR_19:	
	retlw	32	;' '
	retlw	32	;' '
	retlw	69	;'E'
	retlw	88	;'X'
	retlw	73	;'I'
	retlw	84	;'T'
	retlw	32	;' '
	retlw	32	;' '
	retlw	0
psect	strings
	
STR_6:	
	retlw	32	;' '
	retlw	67	;'C'
	retlw	104	;'h'
	retlw	97	;'a'
	retlw	114	;'r'
	retlw	103	;'g'
	retlw	101	;'e'
	retlw	32	;' '
	retlw	0
psect	strings
	
STR_2:	
	retlw	83	;'S'
	retlw	99	;'c'
	retlw	97	;'a'
	retlw	110	;'n'
	retlw	95	;'_'
	retlw	51	;'3'
	retlw	54	;'6'
	retlw	48	;'0'
	retlw	0
psect	strings
	
STR_1:	
	retlw	67	;'C'
	retlw	97	;'a'
	retlw	108	;'l'
	retlw	105	;'i'
	retlw	98	;'b'
	retlw	95	;'_'
	retlw	73	;'I'
	retlw	82	;'R'
	retlw	0
psect	strings
	
STR_5:	
	retlw	70	;'F'
	retlw	108	;'l'
	retlw	119	;'w'
	retlw	95	;'_'
	retlw	87	;'W'
	retlw	97	;'a'
	retlw	108	;'l'
	retlw	108	;'l'
	retlw	0
psect	strings
	
STR_3:	
	retlw	68	;'D'
	retlw	114	;'r'
	retlw	105	;'i'
	retlw	118	;'v'
	retlw	101	;'e'
	retlw	95	;'_'
	retlw	50	;'2'
	retlw	109	;'m'
	retlw	0
psect	strings
	
STR_4:	
	retlw	68	;'D'
	retlw	114	;'r'
	retlw	105	;'i'
	retlw	118	;'v'
	retlw	101	;'e'
	retlw	95	;'_'
	retlw	76	;'L'
	retlw	0
psect	strings
	
STR_16:	
	retlw	67	;'C'
	retlw	79	;'O'
	retlw	78	;'N'
	retlw	70	;'F'
	retlw	73	;'I'
	retlw	82	;'R'
	retlw	77	;'M'
	retlw	0
psect	strings
	
STR_9:	
	retlw	68	;'D'
	retlw	114	;'r'
	retlw	50	;'2'
	retlw	0
psect	strings
	
STR_15:	
	retlw	60	;'<'
	retlw	60	;'<'
	retlw	60	;'<'
	retlw	0
psect	strings
	
STR_17:	
	retlw	62	;'>'
	retlw	62	;'>'
	retlw	62	;'>'
	retlw	0
psect	strings
	
STR_10:	
	retlw	68	;'D'
	retlw	114	;'r'
	retlw	76	;'L'
	retlw	0
psect	strings
	
STR_12:	
	retlw	67	;'C'
	retlw	104	;'h'
	retlw	103	;'g'
	retlw	0
psect	strings
	
STR_7:	
	retlw	67	;'C'
	retlw	97	;'a'
	retlw	108	;'l'
	retlw	0
psect	strings
	
STR_8:	
	retlw	83	;'S'
	retlw	99	;'c'
	retlw	110	;'n'
	retlw	0
psect	strings
	
STR_11:	
	retlw	70	;'F'
	retlw	108	;'l'
	retlw	119	;'w'
	retlw	0
psect	strings
	file	"Assignment3_AldnoahZero.as"
	line	#
psect cinit,class=CODE,delta=2
global start_initialization
start_initialization:

psect	bitbssCOMMON,class=COMMON,bit,space=1
global __pbitbssCOMMON
__pbitbssCOMMON:
_CenterPressed:
       ds      1

_CenterReleased:
       ds      1

_DownPressed:
       ds      1

_DownReleased:
       ds      1

_LeftPressed:
       ds      1

_LeftReleased:
       ds      1

_RTC_FLAG_1MS:
       ds      1

_RTC_FLAG_250MS:
       ds      1

_RTC_FLAG_500MS:
       ds      1

_RightPressed:
       ds      1

_RightReleased:
       ds      1

_UpPressed:
       ds      1

_UpReleased:
       ds      1

psect	bssCOMMON,class=COMMON,space=1
global __pbssCOMMON
__pbssCOMMON:
_buttonPressed:
       ds      1

psect	bssBANK1,class=BANK1,space=1
global __pbssBANK1
__pbssBANK1:
_Disp1:
       ds      2

_Disp2:
       ds      2

_IRdistance:
       ds      2

_RTC_Counter:
       ds      2

_TotalDistTravelled:
       ds      2

_adcVal:
       ds      2

_angleTurned:
       ds      2

_distTravelled:
       ds      2

_dist_high:
       ds      2

_dist_low:
       ds      2

_pos:
       ds      2

_total:
       ds      2

_totalSteps:
       ds      2

_AngleHighByte:
       ds      1

_AngleLowByte:
       ds      1

_BumpSensors:
       ds      1

_CenterDebounceCount:
       ds      1

_DistHighByte:
       ds      1

_DistLowByte:
       ds      1

_DownDebounceCount:
       ds      1

_LeftDebounceCount:
       ds      1

_ROBOTerror:
       ds      1

_RightDebounceCount:
       ds      1

_UpDebounceCount:
       ds      1

_VwallSensor:
       ds      1

_currentMenu:
       ds      1

_highByte:
       ds      1

_lowByte:
       ds      1

_rxiptr:
       ds      1

_rxoptr:
       ds      1

_ser_tmp:
       ds      1

_turnhighByte:
       ds      1

_turnlowByte:
       ds      1

_txiptr:
       ds      1

_txoptr:
       ds      1

psect	dataBANK1,class=BANK1,space=1
global __pdataBANK1
__pdataBANK1:
	file	"E:\Aldnoah.Zero\Assignment3\HMI.c"
	line	49
_menuStrings:
       ds      6

psect	dataBANK1
	file	"E:\Aldnoah.Zero\Assignment3\HMI.c"
	line	50
_shortMenuStrings:
       ds      6

psect	dataBANK1
	file	"E:\Aldnoah.Zero\Assignment3\steppermotor.c"
	line	45
_current_step:
       ds      1

psect	bssBANK3,class=BANK3,space=1
global __pbssBANK3
__pbssBANK3:
UpdateDisplay@F1249:
       ds      16

_rxfifo:
       ds      16

_txfifo:
       ds      16

psect clrtext,class=CODE,delta=2
global clear_ram
;	Called with FSR containing the base address, and
;	W with the last address+1
clear_ram:
	clrwdt			;clear the watchdog before getting into this loop
clrloop:
	clrf	indf		;clear RAM location pointed to by FSR
	incf	fsr,f		;increment pointer
	xorwf	fsr,w		;XOR with final address
	btfsc	status,2	;have we reached the end yet?
	retlw	0		;all done for this memory range, return
	xorwf	fsr,w		;XOR again to restore value
	goto	clrloop		;do the next byte

; Clear objects allocated to BITCOMMON
psect cinit,class=CODE,delta=2
	clrf	((__pbitbssCOMMON/8)+0)&07Fh
	clrf	((__pbitbssCOMMON/8)+1)&07Fh
; Clear objects allocated to COMMON
psect cinit,class=CODE,delta=2
	clrf	((__pbssCOMMON)+0)&07Fh
; Clear objects allocated to BANK1
psect cinit,class=CODE,delta=2
	bcf	status, 7	;select IRP bank0
	movlw	low(__pbssBANK1)
	movwf	fsr
	movlw	low((__pbssBANK1)+030h)
	fcall	clear_ram
; Clear objects allocated to BANK3
psect cinit,class=CODE,delta=2
	bsf	status, 7	;select IRP bank2
	movlw	low(__pbssBANK3)
	movwf	fsr
	movlw	low((__pbssBANK3)+030h)
	fcall	clear_ram
global btemp
psect inittext,class=CODE,delta=2
global init_fetch,btemp
;	Called with low address in FSR and high address in W
init_fetch:
	movf btemp,w
	movwf pclath
	movf btemp+1,w
	movwf pc
global init_ram
;Called with:
;	high address of idata address in btemp 
;	low address of idata address in btemp+1 
;	low address of data in FSR
;	high address + 1 of data in btemp-1
init_ram:
	fcall init_fetch
	movwf indf,f
	incf fsr,f
	movf fsr,w
	xorwf btemp-1,w
	btfsc status,2
	retlw 0
	incf btemp+1,f
	btfsc status,2
	incf btemp,f
	goto init_ram
; Initialize objects allocated to BANK1
psect cinit,class=CODE,delta=2
global init_ram, __pidataBANK1
	bcf	status, 7	;select IRP bank0
	movlw low(__pdataBANK1+13)
	movwf btemp-1,f
	movlw high(__pidataBANK1)
	movwf btemp,f
	movlw low(__pidataBANK1)
	movwf btemp+1,f
	movlw low(__pdataBANK1)
	movwf fsr,f
	fcall init_ram
psect cinit,class=CODE,delta=2
global end_of_initialization

;End of C runtime variable initialization code

end_of_initialization:
clrf status
ljmp _main	;jump to C main() function
psect	cstackBANK1,class=BANK1,space=1
global __pcstackBANK1
__pcstackBANK1:
	global	main@direction1
main@direction1:	; 2 bytes @ 0x0
	ds	2
	global	main@RT2A
main@RT2A:	; 2 bytes @ 0x2
	ds	2
	global	main@shortwall
main@shortwall:	; 2 bytes @ 0x4
	ds	2
	global	main@choice
main@choice:	; 1 bytes @ 0x6
	ds	1
	global	main@shortwall_3025
main@shortwall_3025:	; 2 bytes @ 0x7
	ds	2
	global	main@RT2P
main@RT2P:	; 2 bytes @ 0x9
	ds	2
psect	cstackCOMMON,class=COMMON,space=1
global __pcstackCOMMON
__pcstackCOMMON:
	global	?_ser_init
?_ser_init:	; 0 bytes @ 0x0
	global	?_robo_init
?_robo_init:	; 0 bytes @ 0x0
	global	?_robot_read
?_robot_read:	; 0 bytes @ 0x0
	global	?_readAvgDistance
?_readAvgDistance:	; 0 bytes @ 0x0
	global	?_UpdateDisplay
?_UpdateDisplay:	; 0 bytes @ 0x0
	global	?_calibrateIR
?_calibrateIR:	; 0 bytes @ 0x0
	global	?_ChargeMode
?_ChargeMode:	; 0 bytes @ 0x0
	global	?_ser_putch
?_ser_putch:	; 0 bytes @ 0x0
	global	?_ADCconvert
?_ADCconvert:	; 0 bytes @ 0x0
	global	?_init_adc
?_init_adc:	; 0 bytes @ 0x0
	global	?_lcd_write_control
?_lcd_write_control:	; 0 bytes @ 0x0
	global	?_lcd_write_data
?_lcd_write_data:	; 0 bytes @ 0x0
	global	?_lcd_set_cursor
?_lcd_set_cursor:	; 0 bytes @ 0x0
	global	?_lcd_init
?_lcd_init:	; 0 bytes @ 0x0
	global	?_isr1
?_isr1:	; 0 bytes @ 0x0
	global	?_init
?_init:	; 0 bytes @ 0x0
	global	?_main
?_main:	; 0 bytes @ 0x0
	global	?_Debounce
?_Debounce:	; 0 bytes @ 0x0
	global	??_Debounce
??_Debounce:	; 0 bytes @ 0x0
	global	?_ser_isrx
?_ser_isrx:	; 1 bit 
	global	?_ReadButtons
?_ReadButtons:	; 1 bytes @ 0x0
	global	?_Menu
?_Menu:	; 1 bytes @ 0x0
	global	?_ser_getch
?_ser_getch:	; 1 bytes @ 0x0
	global	?_adc_read_channel
?_adc_read_channel:	; 1 bytes @ 0x0
	global	?_spi_transfer
?_spi_transfer:	; 1 bytes @ 0x0
	global	?i1___lwmod
?i1___lwmod:	; 2 bytes @ 0x0
	global	i1___lwmod@divisor
i1___lwmod@divisor:	; 2 bytes @ 0x0
	ds	1
	global	??_ReadButtons
??_ReadButtons:	; 0 bytes @ 0x1
	ds	1
	global	i1___lwmod@dividend
i1___lwmod@dividend:	; 2 bytes @ 0x2
	ds	2
	global	??i1___lwmod
??i1___lwmod:	; 0 bytes @ 0x4
	ds	1
	global	i1___lwmod@counter
i1___lwmod@counter:	; 1 bytes @ 0x5
	ds	1
	global	??_isr1
??_isr1:	; 0 bytes @ 0x6
	ds	5
psect	cstackBANK0,class=BANK0,space=1
global __pcstackBANK0
__pcstackBANK0:
	global	??_ser_init
??_ser_init:	; 0 bytes @ 0x0
	global	??_Menu
??_Menu:	; 0 bytes @ 0x0
	global	??_ser_putch
??_ser_putch:	; 0 bytes @ 0x0
	global	??_ser_getch
??_ser_getch:	; 0 bytes @ 0x0
	global	??_init_adc
??_init_adc:	; 0 bytes @ 0x0
	global	??_lcd_write_control
??_lcd_write_control:	; 0 bytes @ 0x0
	global	??_lcd_write_data
??_lcd_write_data:	; 0 bytes @ 0x0
	global	??_spi_transfer
??_spi_transfer:	; 0 bytes @ 0x0
	global	??_ser_isrx
??_ser_isrx:	; 0 bytes @ 0x0
	global	?___ftge
?___ftge:	; 1 bit 
	global	?_adc_read
?_adc_read:	; 2 bytes @ 0x0
	global	?___wmul
?___wmul:	; 2 bytes @ 0x0
	global	?___awmod
?___awmod:	; 2 bytes @ 0x0
	global	?___ftpack
?___ftpack:	; 3 bytes @ 0x0
	global	Menu@BTN_input
Menu@BTN_input:	; 1 bytes @ 0x0
	global	___wmul@multiplier
___wmul@multiplier:	; 2 bytes @ 0x0
	global	___awmod@divisor
___awmod@divisor:	; 2 bytes @ 0x0
	global	___ftge@ff1
___ftge@ff1:	; 3 bytes @ 0x0
	global	___ftpack@arg
___ftpack@arg:	; 3 bytes @ 0x0
	ds	1
	global	spi_transfer@temp
spi_transfer@temp:	; 1 bytes @ 0x1
	global	ser_getch@c
ser_getch@c:	; 1 bytes @ 0x1
	global	ser_putch@c
ser_putch@c:	; 1 bytes @ 0x1
	ds	1
	global	??_adc_read
??_adc_read:	; 0 bytes @ 0x2
	global	??_robo_init
??_robo_init:	; 0 bytes @ 0x2
	global	??_robot_read
??_robot_read:	; 0 bytes @ 0x2
	global	?_robotTurn
?_robotTurn:	; 0 bytes @ 0x2
	global	lcd_write_control@databyte
lcd_write_control@databyte:	; 1 bytes @ 0x2
	global	lcd_write_data@databyte
lcd_write_data@databyte:	; 1 bytes @ 0x2
	global	spi_transfer@data
spi_transfer@data:	; 1 bytes @ 0x2
	global	robotTurn@angle
robotTurn@angle:	; 2 bytes @ 0x2
	global	___wmul@multiplicand
___wmul@multiplicand:	; 2 bytes @ 0x2
	global	___awmod@dividend
___awmod@dividend:	; 2 bytes @ 0x2
	ds	1
	global	?_rotate
?_rotate:	; 0 bytes @ 0x3
	global	??_lcd_set_cursor
??_lcd_set_cursor:	; 0 bytes @ 0x3
	global	??_lcd_init
??_lcd_init:	; 0 bytes @ 0x3
	global	??_init
??_init:	; 0 bytes @ 0x3
	global	lcd_set_cursor@address
lcd_set_cursor@address:	; 1 bytes @ 0x3
	global	___ftpack@exp
___ftpack@exp:	; 1 bytes @ 0x3
	global	rotate@numsteps
rotate@numsteps:	; 2 bytes @ 0x3
	global	___ftge@ff2
___ftge@ff2:	; 3 bytes @ 0x3
	ds	1
	global	??_robotTurn
??_robotTurn:	; 0 bytes @ 0x4
	global	??___wmul
??___wmul:	; 0 bytes @ 0x4
	global	??___awmod
??___awmod:	; 0 bytes @ 0x4
	global	robot_read@readType
robot_read@readType:	; 1 bytes @ 0x4
	global	___ftpack@sign
___ftpack@sign:	; 1 bytes @ 0x4
	global	adc_read@adc_value
adc_read@adc_value:	; 2 bytes @ 0x4
	global	___wmul@product
___wmul@product:	; 2 bytes @ 0x4
	ds	1
	global	??___ftpack
??___ftpack:	; 0 bytes @ 0x5
	global	rotate@direction
rotate@direction:	; 1 bytes @ 0x5
	global	___awmod@counter
___awmod@counter:	; 1 bytes @ 0x5
	ds	1
	global	??_rotate
??_rotate:	; 0 bytes @ 0x6
	global	??_adc_read_channel
??_adc_read_channel:	; 0 bytes @ 0x6
	global	??___ftge
??___ftge:	; 0 bytes @ 0x6
	global	?_abs
?_abs:	; 2 bytes @ 0x6
	global	?___lwdiv
?___lwdiv:	; 2 bytes @ 0x6
	global	___awmod@sign
___awmod@sign:	; 1 bytes @ 0x6
	global	abs@v
abs@v:	; 2 bytes @ 0x6
	global	___lwdiv@divisor
___lwdiv@divisor:	; 2 bytes @ 0x6
	ds	1
	global	?_lcd_write_string
?_lcd_write_string:	; 0 bytes @ 0x7
	global	adc_read_channel@channel
adc_read_channel@channel:	; 1 bytes @ 0x7
	global	lcd_write_string@s
lcd_write_string@s:	; 2 bytes @ 0x7
	ds	1
	global	??_abs
??_abs:	; 0 bytes @ 0x8
	global	?_readDistance
?_readDistance:	; 2 bytes @ 0x8
	global	?___fttol
?___fttol:	; 4 bytes @ 0x8
	global	rotate@i
rotate@i:	; 2 bytes @ 0x8
	global	___lwdiv@dividend
___lwdiv@dividend:	; 2 bytes @ 0x8
	global	___fttol@f1
___fttol@f1:	; 3 bytes @ 0x8
	ds	1
	global	??_lcd_write_string
??_lcd_write_string:	; 0 bytes @ 0x9
	ds	1
	global	??_readDistance
??_readDistance:	; 0 bytes @ 0xA
	global	??___lwdiv
??___lwdiv:	; 0 bytes @ 0xA
	ds	1
	global	___lwdiv@quotient
___lwdiv@quotient:	; 2 bytes @ 0xB
	ds	1
	global	??___fttol
??___fttol:	; 0 bytes @ 0xC
	global	readDistance@readVal
readDistance@readVal:	; 2 bytes @ 0xC
	ds	1
	global	___lwdiv@counter
___lwdiv@counter:	; 1 bytes @ 0xD
	ds	1
	global	??_ADCconvert
??_ADCconvert:	; 0 bytes @ 0xE
	global	?___lwmod
?___lwmod:	; 2 bytes @ 0xE
	global	___lwmod@divisor
___lwmod@divisor:	; 2 bytes @ 0xE
	ds	2
	global	??_readAvgDistance
??_readAvgDistance:	; 0 bytes @ 0x10
	global	___fttol@sign1
___fttol@sign1:	; 1 bytes @ 0x10
	global	readAvgDistance@fullval
readAvgDistance@fullval:	; 2 bytes @ 0x10
	global	___lwmod@dividend
___lwmod@dividend:	; 2 bytes @ 0x10
	ds	1
	global	___fttol@lval
___fttol@lval:	; 4 bytes @ 0x11
	ds	1
	global	??___lwmod
??___lwmod:	; 0 bytes @ 0x12
	global	readAvgDistance@j
readAvgDistance@j:	; 2 bytes @ 0x12
	ds	1
	global	___lwmod@counter
___lwmod@counter:	; 1 bytes @ 0x13
	ds	1
	global	?_sprintf
?_sprintf:	; 2 bytes @ 0x14
	global	sprintf@f
sprintf@f:	; 1 bytes @ 0x14
	global	readAvgDistance@tempIR
readAvgDistance@tempIR:	; 2 bytes @ 0x14
	ds	1
	global	___fttol@exp1
___fttol@exp1:	; 1 bytes @ 0x15
	ds	1
	global	?___ftdiv
?___ftdiv:	; 3 bytes @ 0x16
	global	?___awtoft
?___awtoft:	; 3 bytes @ 0x16
	global	readAvgDistance@i
readAvgDistance@i:	; 2 bytes @ 0x16
	global	___awtoft@c
___awtoft@c:	; 2 bytes @ 0x16
	global	___ftdiv@f2
___ftdiv@f2:	; 3 bytes @ 0x16
	ds	3
	global	??_sprintf
??_sprintf:	; 0 bytes @ 0x19
	global	??___awtoft
??___awtoft:	; 0 bytes @ 0x19
	global	___ftdiv@f1
___ftdiv@f1:	; 3 bytes @ 0x19
	ds	2
	global	___awtoft@sign
___awtoft@sign:	; 1 bytes @ 0x1B
	ds	1
	global	??___ftdiv
??___ftdiv:	; 0 bytes @ 0x1C
	global	sprintf@ap
sprintf@ap:	; 1 bytes @ 0x1C
	ds	1
	global	sprintf@flag
sprintf@flag:	; 1 bytes @ 0x1D
	ds	1
	global	sprintf@prec
sprintf@prec:	; 1 bytes @ 0x1E
	ds	1
	global	sprintf@_val
sprintf@_val:	; 4 bytes @ 0x1F
	ds	1
	global	___ftdiv@cntr
___ftdiv@cntr:	; 1 bytes @ 0x20
	ds	1
	global	___ftdiv@f3
___ftdiv@f3:	; 3 bytes @ 0x21
	ds	2
	global	sprintf@sp
sprintf@sp:	; 1 bytes @ 0x23
	ds	1
	global	sprintf@c
sprintf@c:	; 1 bytes @ 0x24
	global	___ftdiv@exp
___ftdiv@exp:	; 1 bytes @ 0x24
	ds	1
	global	??_UpdateDisplay
??_UpdateDisplay:	; 0 bytes @ 0x25
	global	___ftdiv@sign
___ftdiv@sign:	; 1 bytes @ 0x25
	ds	1
	global	?___ftmul
?___ftmul:	; 3 bytes @ 0x26
	global	___ftmul@f1
___ftmul@f1:	; 3 bytes @ 0x26
	ds	3
	global	___ftmul@f2
___ftmul@f2:	; 3 bytes @ 0x29
	global	UpdateDisplay@LCDOutput
UpdateDisplay@LCDOutput:	; 16 bytes @ 0x29
	ds	3
	global	??___ftmul
??___ftmul:	; 0 bytes @ 0x2C
	ds	4
	global	___ftmul@exp
___ftmul@exp:	; 1 bytes @ 0x30
	ds	1
	global	___ftmul@f3_as_product
___ftmul@f3_as_product:	; 3 bytes @ 0x31
	ds	3
	global	___ftmul@cntr
___ftmul@cntr:	; 1 bytes @ 0x34
	ds	1
	global	___ftmul@sign
___ftmul@sign:	; 1 bytes @ 0x35
	ds	1
	global	?_RobotDrive
?_RobotDrive:	; 0 bytes @ 0x36
	global	RobotDrive@speed
RobotDrive@speed:	; 2 bytes @ 0x36
	ds	2
	global	RobotDrive@radius
RobotDrive@radius:	; 2 bytes @ 0x38
	ds	1
	global	??_calibrateIR
??_calibrateIR:	; 0 bytes @ 0x39
	global	??_ChargeMode
??_ChargeMode:	; 0 bytes @ 0x39
	global	?_scan360
?_scan360:	; 2 bytes @ 0x39
	ds	1
	global	??_RobotDrive
??_RobotDrive:	; 0 bytes @ 0x3A
	ds	1
	global	??_scan360
??_scan360:	; 0 bytes @ 0x3B
	global	RobotDrive@speedlowByte
RobotDrive@speedlowByte:	; 1 bytes @ 0x3B
	global	scan360@lowestVal
scan360@lowestVal:	; 2 bytes @ 0x3B
	ds	1
	global	RobotDrive@speedhighByte
RobotDrive@speedhighByte:	; 1 bytes @ 0x3C
	ds	1
	global	RobotDrive@radiuslowByte
RobotDrive@radiuslowByte:	; 1 bytes @ 0x3D
	global	scan360@lowestSteps
scan360@lowestSteps:	; 2 bytes @ 0x3D
	ds	1
	global	RobotDrive@radiushighByte
RobotDrive@radiushighByte:	; 1 bytes @ 0x3E
	ds	1
	global	?_robotMoveSpeed
?_robotMoveSpeed:	; 0 bytes @ 0x3F
	global	?_robotFollow
?_robotFollow:	; 0 bytes @ 0x3F
	global	scan360@steps
scan360@steps:	; 2 bytes @ 0x3F
	global	robotFollow@distance
robotFollow@distance:	; 2 bytes @ 0x3F
	global	robotMoveSpeed@distance
robotMoveSpeed@distance:	; 2 bytes @ 0x3F
	ds	2
	global	robotFollow@speed
robotFollow@speed:	; 2 bytes @ 0x41
	global	robotMoveSpeed@speed
robotMoveSpeed@speed:	; 2 bytes @ 0x41
	ds	2
	global	??_robotMoveSpeed
??_robotMoveSpeed:	; 0 bytes @ 0x43
	global	robotFollow@AdcTarget
robotFollow@AdcTarget:	; 2 bytes @ 0x43
	ds	2
	global	??_robotFollow
??_robotFollow:	; 0 bytes @ 0x45
	ds	1
	global	robotMoveSpeed@remaining
robotMoveSpeed@remaining:	; 3 bytes @ 0x46
	ds	2
	global	robotFollow@remaining
robotFollow@remaining:	; 3 bytes @ 0x48
	ds	1
	global	robotMoveSpeed@temp1
robotMoveSpeed@temp1:	; 2 bytes @ 0x49
	ds	2
	global	robotFollow@temp1
robotFollow@temp1:	; 2 bytes @ 0x4B
	ds	2
	global	??_main
??_main:	; 0 bytes @ 0x4D
	ds	3
;;Data sizes: Strings 147, constant 10, data 13, bss 97, persistent 0 stack 0
;;Auto spaces:   Size  Autos    Used
;; COMMON          14     11      14
;; BANK0           80     80      80
;; BANK1           80     11      72
;; BANK3           96      0      48
;; BANK2           96      0       0

;;
;; Pointer list with targets:

;; ?i1___lwmod	unsigned int  size(1) Largest target is 0
;;
;; ?___ftpack	float  size(1) Largest target is 2
;;		 -> main@RT2P(BANK1[2]), 
;;
;; ?___ftdiv	float  size(1) Largest target is 0
;;
;; ?_abs	int  size(1) Largest target is 0
;;
;; ?___awmod	int  size(1) Largest target is 0
;;
;; ?___wmul	unsigned int  size(1) Largest target is 0
;;
;; ?_readDistance	unsigned int  size(1) Largest target is 0
;;
;; ?___lwdiv	unsigned int  size(1) Largest target is 0
;;
;; ?_scan360	int  size(1) Largest target is 0
;;
;; ?___fttol	long  size(1) Largest target is 0
;;
;; ?___ftmul	float  size(1) Largest target is 0
;;
;; ?___awtoft	float  size(1) Largest target is 0
;;
;; ?___lwmod	unsigned int  size(1) Largest target is 0
;;
;; ?_adc_read	unsigned int  size(1) Largest target is 0
;;
;; sprintf@f	PTR const unsigned char  size(1) Largest target is 13
;;		 -> STR_13(CODE[13]), 
;;
;; sprintf@sp	PTR unsigned char  size(1) Largest target is 16
;;		 -> UpdateDisplay@LCDOutput(BANK0[16]), 
;;
;; ?_sprintf	int  size(1) Largest target is 0
;;
;; sprintf@ap	PTR void [1] size(1) Largest target is 2
;;		 -> ?_sprintf(BANK0[2]), 
;;
;; S8218$_cp	PTR const unsigned char  size(1) Largest target is 0
;;
;; _val._str._cp	PTR const unsigned char  size(1) Largest target is 0
;;
;; shortMenuStrings	PTR const unsigned char [6] size(1) Largest target is 4
;;		 -> STR_12(CODE[4]), STR_11(CODE[4]), STR_10(CODE[4]), STR_9(CODE[4]), 
;;		 -> STR_8(CODE[4]), STR_7(CODE[4]), 
;;
;; menuStrings	PTR const unsigned char [6] size(1) Largest target is 9
;;		 -> STR_6(CODE[9]), STR_5(CODE[9]), STR_4(CODE[8]), STR_3(CODE[9]), 
;;		 -> STR_2(CODE[9]), STR_1(CODE[9]), 
;;
;; lcd_write_string@s	PTR unsigned char  size(2) Largest target is 16
;;		 -> STR_19(CODE[9]), STR_18(CODE[16]), STR_17(CODE[4]), STR_16(CODE[8]), 
;;		 -> STR_15(CODE[4]), STR_14(CODE[16]), UpdateDisplay@LCDOutput(BANK0[16]), STR_12(CODE[4]), 
;;		 -> STR_11(CODE[4]), STR_10(CODE[4]), STR_9(CODE[4]), STR_8(CODE[4]), 
;;		 -> STR_7(CODE[4]), STR_6(CODE[9]), STR_5(CODE[9]), STR_4(CODE[8]), 
;;		 -> STR_3(CODE[9]), STR_2(CODE[9]), STR_1(CODE[9]), 
;;


;;
;; Critical Paths under _main in COMMON
;;
;;   None.
;;
;; Critical Paths under _isr1 in COMMON
;;
;;   _isr1->i1___lwmod
;;   _ReadButtons->_Debounce
;;
;; Critical Paths under _main in BANK0
;;
;;   _main->_robotFollow
;;   _ChargeMode->_UpdateDisplay
;;   _robotFollow->_RobotDrive
;;   _robotMoveSpeed->_RobotDrive
;;   _scan360->_UpdateDisplay
;;   _calibrateIR->_UpdateDisplay
;;   _UpdateDisplay->_sprintf
;;   _readAvgDistance->_ADCconvert
;;   _readDistance->_adc_read_channel
;;   _robot_read->_ser_putch
;;   _robot_read->_ser_getch
;;   _lcd_init->_lcd_write_control
;;   _lcd_write_string->___awmod
;;   _lcd_set_cursor->_lcd_write_control
;;   ___awtoft->___fttol
;;   ___ftmul->___ftdiv
;;   ___ftdiv->___fttol
;;   _abs->___wmul
;;   _RobotDrive->___ftmul
;;   _sprintf->___lwmod
;;   _ADCconvert->___lwdiv
;;   _robotTurn->_ser_putch
;;   _rotate->_spi_transfer
;;   _robo_init->_ser_putch
;;   _adc_read_channel->_adc_read
;;   ___fttol->___ftpack
;;   ___lwmod->___lwdiv
;;   ___lwdiv->___wmul
;;
;; Critical Paths under _isr1 in BANK0
;;
;;   None.
;;
;; Critical Paths under _main in BANK1
;;
;;   None.
;;
;; Critical Paths under _isr1 in BANK1
;;
;;   None.
;;
;; Critical Paths under _main in BANK3
;;
;;   None.
;;
;; Critical Paths under _isr1 in BANK3
;;
;;   None.
;;
;; Critical Paths under _main in BANK2
;;
;;   None.
;;
;; Critical Paths under _isr1 in BANK2
;;
;;   None.

;;
;;Main: autosize = 0, tempsize = 3, incstack = 0, save=0
;;

;;
;;Call Graph Tables:
;;
;; ---------------------------------------------------------------------------------
;; (Depth) Function   	        Calls       Base Space   Used Autos Params    Refs
;; ---------------------------------------------------------------------------------
;; (0) _main                                                14    14      0   16739
;;                                             77 BANK0      3     3      0
;;                                              0 BANK1     11    11      0
;;                               _init
;;                         _robot_read
;;                    _readAvgDistance
;;                      _UpdateDisplay
;;                               _Menu
;;                        _calibrateIR
;;                            _scan360
;;                             _rotate
;;                     _robotMoveSpeed
;;                        _robotFollow
;;                           ___awtoft
;;                            ___ftmul
;;                            ___fttol
;;                          _robotTurn
;;                         _ChargeMode
;; ---------------------------------------------------------------------------------
;; (1) _ChargeMode                                           1     1      0    1305
;;                                             57 BANK0      1     1      0
;;                          _ser_putch
;;                      _UpdateDisplay
;; ---------------------------------------------------------------------------------
;; (1) _robotFollow                                         14     8      6    4403
;;                                             63 BANK0     14     8      6
;;                         _RobotDrive
;;                    _readAvgDistance
;;                         _robot_read
;;                      _UpdateDisplay
;;                                _abs
;;                           ___awtoft
;;                             ___ftge
;;                            ___ftdiv
;;                            ___ftmul
;;                            ___fttol
;; ---------------------------------------------------------------------------------
;; (1) _robotMoveSpeed                                      12     8      4    3668
;;                                             63 BANK0     12     8      4
;;                         _RobotDrive
;;                         _robot_read
;;                      _UpdateDisplay
;;                                _abs
;;                           ___awtoft
;;                             ___ftge
;;                            ___ftdiv
;;                            ___ftmul
;;                            ___fttol
;; ---------------------------------------------------------------------------------
;; (1) _scan360                                              8     6      2    2122
;;                                             57 BANK0      8     6      2
;;                    _readAvgDistance
;;                             _rotate
;;                      _UpdateDisplay
;; ---------------------------------------------------------------------------------
;; (1) _calibrateIR                                          0     0      0    1381
;;                             _rotate
;;                      _UpdateDisplay
;; ---------------------------------------------------------------------------------
;; (2) _UpdateDisplay                                       20    20      0    1283
;;                                             37 BANK0     20    20      0
;;                  _lcd_write_control
;;                            _sprintf
;;                     _lcd_set_cursor
;;                   _lcd_write_string
;;                            ___awmod
;; ---------------------------------------------------------------------------------
;; (2) _readAvgDistance                                      8     8      0     625
;;                                             16 BANK0      8     8      0
;;                       _readDistance
;;                            ___lwdiv
;;                         _ADCconvert
;; ---------------------------------------------------------------------------------
;; (1) _init                                                 1     1      0      44
;;                                              3 BANK0      1     1      0
;;                           _ser_init
;;                           _init_adc
;;                           _lcd_init
;;                          _robo_init
;; ---------------------------------------------------------------------------------
;; (3) _readDistance                                         6     4      2      69
;;                                              8 BANK0      6     4      2
;;                   _adc_read_channel
;; ---------------------------------------------------------------------------------
;; (2) _robot_read                                           3     3      0     111
;;                                              2 BANK0      3     3      0
;;                          _ser_putch
;;                          _ser_getch
;; ---------------------------------------------------------------------------------
;; (2) _lcd_init                                             0     0      0      22
;;                  _lcd_write_control
;; ---------------------------------------------------------------------------------
;; (3) _lcd_write_string                                     2     0      2      67
;;                                              7 BANK0      2     0      2
;;                     _lcd_write_data
;;                            ___awmod (ARG)
;; ---------------------------------------------------------------------------------
;; (3) _lcd_set_cursor                                       1     1      0      45
;;                                              3 BANK0      1     1      0
;;                  _lcd_write_control
;; ---------------------------------------------------------------------------------
;; (1) ___awtoft                                             6     3      3     300
;;                                             22 BANK0      6     3      3
;;                           ___ftpack
;;                            ___fttol (ARG)
;;                                _abs (ARG)
;; ---------------------------------------------------------------------------------
;; (1) ___ftmul                                             16    10      6     535
;;                                             38 BANK0     16    10      6
;;                           ___ftpack
;;                           ___awtoft (ARG)
;;                            ___fttol (ARG)
;;                            ___ftdiv (ARG)
;; ---------------------------------------------------------------------------------
;; (2) ___ftdiv                                             16    10      6     489
;;                                             22 BANK0     16    10      6
;;                           ___ftpack
;;                            ___fttol (ARG)
;; ---------------------------------------------------------------------------------
;; (2) _abs                                                  4     2      2     158
;;                                              6 BANK0      4     2      2
;;                             ___wmul
;; ---------------------------------------------------------------------------------
;; (2) _RobotDrive                                           9     5      4     202
;;                                             54 BANK0      9     5      4
;;                          _ser_putch
;;                            ___fttol (ARG)
;;                            ___ftmul (ARG)
;;                           ___awtoft (ARG)
;;                            ___ftdiv (ARG)
;; ---------------------------------------------------------------------------------
;; (3) _ser_getch                                            2     2      0      23
;;                                              0 BANK0      2     2      0
;;                           _ser_isrx
;; ---------------------------------------------------------------------------------
;; (3) _sprintf                                             17    12      5     798
;;                                             20 BANK0     17    12      5
;;                            ___lwdiv
;;                            ___lwmod
;; ---------------------------------------------------------------------------------
;; (3) _ADCconvert                                           2     2      0     254
;;                                             14 BANK0      2     2      0
;;                             ___wmul
;;                            ___lwdiv
;; ---------------------------------------------------------------------------------
;; (1) _robotTurn                                            2     0      2      66
;;                                              2 BANK0      2     0      2
;;                          _ser_putch
;; ---------------------------------------------------------------------------------
;; (1) _rotate                                               7     4      3      98
;;                                              3 BANK0      7     4      3
;;                       _spi_transfer
;; ---------------------------------------------------------------------------------
;; (2) _robo_init                                            0     0      0      22
;;                          _ser_putch
;; ---------------------------------------------------------------------------------
;; (4) _lcd_write_data                                       3     3      0      22
;;                                              0 BANK0      3     3      0
;; ---------------------------------------------------------------------------------
;; (4) _lcd_write_control                                    3     3      0      22
;;                                              0 BANK0      3     3      0
;; ---------------------------------------------------------------------------------
;; (2) _init_adc                                             1     1      0       0
;;                                              0 BANK0      1     1      0
;; ---------------------------------------------------------------------------------
;; (4) _adc_read_channel                                     2     2      0      46
;;                                              6 BANK0      2     2      0
;;                           _adc_read
;; ---------------------------------------------------------------------------------
;; (3) ___awmod                                              7     3      4     296
;;                                              0 BANK0      7     3      4
;; ---------------------------------------------------------------------------------
;; (2) ___ftge                                              12     6      6     136
;;                                              0 BANK0     12     6      6
;; ---------------------------------------------------------------------------------
;; (1) ___fttol                                             14    10      4     252
;;                                              8 BANK0     14    10      4
;;                           ___ftpack (ARG)
;; ---------------------------------------------------------------------------------
;; (2) ___ftpack                                             8     3      5     209
;;                                              0 BANK0      8     3      5
;; ---------------------------------------------------------------------------------
;; (4) ___lwmod                                              6     2      4     159
;;                                             14 BANK0      6     2      4
;;                            ___lwdiv (ARG)
;; ---------------------------------------------------------------------------------
;; (4) ___lwdiv                                              8     4      4     162
;;                                              6 BANK0      8     4      4
;;                             ___wmul (ARG)
;; ---------------------------------------------------------------------------------
;; (3) ___wmul                                               6     2      4      92
;;                                              0 BANK0      6     2      4
;; ---------------------------------------------------------------------------------
;; (4) _ser_isrx                                             0     0      0       0
;; ---------------------------------------------------------------------------------
;; (2) _spi_transfer                                         3     3      0      30
;;                                              0 BANK0      3     3      0
;; ---------------------------------------------------------------------------------
;; (2) _ser_putch                                            2     2      0      22
;;                                              0 BANK0      2     2      0
;; ---------------------------------------------------------------------------------
;; (1) _Menu                                                 1     1      0      22
;;                                              0 BANK0      1     1      0
;; ---------------------------------------------------------------------------------
;; (2) _ser_init                                             1     1      0       0
;;                                              0 BANK0      1     1      0
;; ---------------------------------------------------------------------------------
;; (5) _adc_read                                             6     4      2      24
;;                                              0 BANK0      6     4      2
;; ---------------------------------------------------------------------------------
;; Estimated maximum stack depth 5
;; ---------------------------------------------------------------------------------
;; (Depth) Function   	        Calls       Base Space   Used Autos Params    Refs
;; ---------------------------------------------------------------------------------
;; (6) _isr1                                                 5     5      0     521
;;                                              6 COMMON     5     5      0
;;                          i1___lwmod
;;                        _ReadButtons
;; ---------------------------------------------------------------------------------
;; (7) _ReadButtons                                          0     0      0       0
;;                           _Debounce
;; ---------------------------------------------------------------------------------
;; (7) i1___lwmod                                            6     2      4     521
;;                                              0 COMMON     6     2      4
;; ---------------------------------------------------------------------------------
;; (8) _Debounce                                             1     1      0       0
;;                                              0 COMMON     1     1      0
;; ---------------------------------------------------------------------------------
;; Estimated maximum stack depth 8
;; ---------------------------------------------------------------------------------

;; Call Graph Graphs:

;; _main (ROOT)
;;   _init
;;     _ser_init
;;     _init_adc
;;     _lcd_init
;;       _lcd_write_control
;;     _robo_init
;;       _ser_putch
;;   _robot_read
;;     _ser_putch
;;     _ser_getch
;;       _ser_isrx
;;   _readAvgDistance
;;     _readDistance
;;       _adc_read_channel
;;         _adc_read
;;     ___lwdiv
;;       ___wmul (ARG)
;;     _ADCconvert
;;       ___wmul
;;       ___lwdiv
;;         ___wmul (ARG)
;;   _UpdateDisplay
;;     _lcd_write_control
;;     _sprintf
;;       ___lwdiv
;;         ___wmul (ARG)
;;       ___lwmod
;;         ___lwdiv (ARG)
;;           ___wmul (ARG)
;;     _lcd_set_cursor
;;       _lcd_write_control
;;     _lcd_write_string
;;       _lcd_write_data
;;       ___awmod (ARG)
;;     ___awmod
;;   _Menu
;;   _calibrateIR
;;     _rotate
;;       _spi_transfer
;;     _UpdateDisplay
;;       _lcd_write_control
;;       _sprintf
;;         ___lwdiv
;;           ___wmul (ARG)
;;         ___lwmod
;;           ___lwdiv (ARG)
;;             ___wmul (ARG)
;;       _lcd_set_cursor
;;         _lcd_write_control
;;       _lcd_write_string
;;         _lcd_write_data
;;         ___awmod (ARG)
;;       ___awmod
;;   _scan360
;;     _readAvgDistance
;;       _readDistance
;;         _adc_read_channel
;;           _adc_read
;;       ___lwdiv
;;         ___wmul (ARG)
;;       _ADCconvert
;;         ___wmul
;;         ___lwdiv
;;           ___wmul (ARG)
;;     _rotate
;;       _spi_transfer
;;     _UpdateDisplay
;;       _lcd_write_control
;;       _sprintf
;;         ___lwdiv
;;           ___wmul (ARG)
;;         ___lwmod
;;           ___lwdiv (ARG)
;;             ___wmul (ARG)
;;       _lcd_set_cursor
;;         _lcd_write_control
;;       _lcd_write_string
;;         _lcd_write_data
;;         ___awmod (ARG)
;;       ___awmod
;;   _rotate
;;     _spi_transfer
;;   _robotMoveSpeed
;;     _RobotDrive
;;       _ser_putch
;;       ___fttol (ARG)
;;         ___ftpack (ARG)
;;       ___ftmul (ARG)
;;         ___ftpack
;;         ___awtoft (ARG)
;;           ___ftpack
;;           ___fttol (ARG)
;;             ___ftpack (ARG)
;;           _abs (ARG)
;;             ___wmul
;;         ___fttol (ARG)
;;           ___ftpack (ARG)
;;         ___ftdiv (ARG)
;;           ___ftpack
;;           ___fttol (ARG)
;;             ___ftpack (ARG)
;;       ___awtoft (ARG)
;;         ___ftpack
;;         ___fttol (ARG)
;;           ___ftpack (ARG)
;;         _abs (ARG)
;;           ___wmul
;;       ___ftdiv (ARG)
;;         ___ftpack
;;         ___fttol (ARG)
;;           ___ftpack (ARG)
;;     _robot_read
;;       _ser_putch
;;       _ser_getch
;;         _ser_isrx
;;     _UpdateDisplay
;;       _lcd_write_control
;;       _sprintf
;;         ___lwdiv
;;           ___wmul (ARG)
;;         ___lwmod
;;           ___lwdiv (ARG)
;;             ___wmul (ARG)
;;       _lcd_set_cursor
;;         _lcd_write_control
;;       _lcd_write_string
;;         _lcd_write_data
;;         ___awmod (ARG)
;;       ___awmod
;;     _abs
;;       ___wmul
;;     ___awtoft
;;       ___ftpack
;;       ___fttol (ARG)
;;         ___ftpack (ARG)
;;       _abs (ARG)
;;         ___wmul
;;     ___ftge
;;     ___ftdiv
;;       ___ftpack
;;       ___fttol (ARG)
;;         ___ftpack (ARG)
;;     ___ftmul
;;       ___ftpack
;;       ___awtoft (ARG)
;;         ___ftpack
;;         ___fttol (ARG)
;;           ___ftpack (ARG)
;;         _abs (ARG)
;;           ___wmul
;;       ___fttol (ARG)
;;         ___ftpack (ARG)
;;       ___ftdiv (ARG)
;;         ___ftpack
;;         ___fttol (ARG)
;;           ___ftpack (ARG)
;;     ___fttol
;;       ___ftpack (ARG)
;;   _robotFollow
;;     _RobotDrive
;;       _ser_putch
;;       ___fttol (ARG)
;;         ___ftpack (ARG)
;;       ___ftmul (ARG)
;;         ___ftpack
;;         ___awtoft (ARG)
;;           ___ftpack
;;           ___fttol (ARG)
;;             ___ftpack (ARG)
;;           _abs (ARG)
;;             ___wmul
;;         ___fttol (ARG)
;;           ___ftpack (ARG)
;;         ___ftdiv (ARG)
;;           ___ftpack
;;           ___fttol (ARG)
;;             ___ftpack (ARG)
;;       ___awtoft (ARG)
;;         ___ftpack
;;         ___fttol (ARG)
;;           ___ftpack (ARG)
;;         _abs (ARG)
;;           ___wmul
;;       ___ftdiv (ARG)
;;         ___ftpack
;;         ___fttol (ARG)
;;           ___ftpack (ARG)
;;     _readAvgDistance
;;       _readDistance
;;         _adc_read_channel
;;           _adc_read
;;       ___lwdiv
;;         ___wmul (ARG)
;;       _ADCconvert
;;         ___wmul
;;         ___lwdiv
;;           ___wmul (ARG)
;;     _robot_read
;;       _ser_putch
;;       _ser_getch
;;         _ser_isrx
;;     _UpdateDisplay
;;       _lcd_write_control
;;       _sprintf
;;         ___lwdiv
;;           ___wmul (ARG)
;;         ___lwmod
;;           ___lwdiv (ARG)
;;             ___wmul (ARG)
;;       _lcd_set_cursor
;;         _lcd_write_control
;;       _lcd_write_string
;;         _lcd_write_data
;;         ___awmod (ARG)
;;       ___awmod
;;     _abs
;;       ___wmul
;;     ___awtoft
;;       ___ftpack
;;       ___fttol (ARG)
;;         ___ftpack (ARG)
;;       _abs (ARG)
;;         ___wmul
;;     ___ftge
;;     ___ftdiv
;;       ___ftpack
;;       ___fttol (ARG)
;;         ___ftpack (ARG)
;;     ___ftmul
;;       ___ftpack
;;       ___awtoft (ARG)
;;         ___ftpack
;;         ___fttol (ARG)
;;           ___ftpack (ARG)
;;         _abs (ARG)
;;           ___wmul
;;       ___fttol (ARG)
;;         ___ftpack (ARG)
;;       ___ftdiv (ARG)
;;         ___ftpack
;;         ___fttol (ARG)
;;           ___ftpack (ARG)
;;     ___fttol
;;       ___ftpack (ARG)
;;   ___awtoft
;;     ___ftpack
;;     ___fttol (ARG)
;;       ___ftpack (ARG)
;;     _abs (ARG)
;;       ___wmul
;;   ___ftmul
;;     ___ftpack
;;     ___awtoft (ARG)
;;       ___ftpack
;;       ___fttol (ARG)
;;         ___ftpack (ARG)
;;       _abs (ARG)
;;         ___wmul
;;     ___fttol (ARG)
;;       ___ftpack (ARG)
;;     ___ftdiv (ARG)
;;       ___ftpack
;;       ___fttol (ARG)
;;         ___ftpack (ARG)
;;   ___fttol
;;     ___ftpack (ARG)
;;   _robotTurn
;;     _ser_putch
;;   _ChargeMode
;;     _ser_putch
;;     _UpdateDisplay
;;       _lcd_write_control
;;       _sprintf
;;         ___lwdiv
;;           ___wmul (ARG)
;;         ___lwmod
;;           ___lwdiv (ARG)
;;             ___wmul (ARG)
;;       _lcd_set_cursor
;;         _lcd_write_control
;;       _lcd_write_string
;;         _lcd_write_data
;;         ___awmod (ARG)
;;       ___awmod
;;
;; _isr1 (ROOT)
;;   i1___lwmod
;;   _ReadButtons
;;     _Debounce
;;

;; Address spaces:

;;Name               Size   Autos  Total    Cost      Usage
;;BANK3               60      0      30       9       50.0%
;;BITBANK3            60      0       0       8        0.0%
;;SFR3                 0      0       0       4        0.0%
;;BITSFR3              0      0       0       4        0.0%
;;BANK2               60      0       0      11        0.0%
;;BITBANK2            60      0       0      10        0.0%
;;SFR2                 0      0       0       5        0.0%
;;BITSFR2              0      0       0       5        0.0%
;;SFR1                 0      0       0       2        0.0%
;;BITSFR1              0      0       0       2        0.0%
;;BANK1               50      B      48       7       90.0%
;;BITBANK1            50      0       0       6        0.0%
;;CODE                 0      0       0       0        0.0%
;;DATA                 0      0      E1      12        0.0%
;;ABS                  0      0      D6       3        0.0%
;;NULL                 0      0       0       0        0.0%
;;STACK                0      0       B       2        0.0%
;;BANK0               50     50      50       5      100.0%
;;BITBANK0            50      0       0       4        0.0%
;;SFR0                 0      0       0       1        0.0%
;;BITSFR0              0      0       0       1        0.0%
;;COMMON               E      B       E       1      100.0%
;;BITCOMMON            E      0       2       0       14.3%
;;EEDATA             100      0       0       0        0.0%

	global	_main
psect	maintext,global,class=CODE,delta=2
global __pmaintext
__pmaintext:

;; *************** function _main *****************
;; Defined at:
;;		line 172 in file "E:\Aldnoah.Zero\Assignment3\Main.c"
;; Parameters:    Size  Location     Type
;;		None
;; Auto vars:     Size  Location     Type
;;  RT2P            2    9[BANK1 ] int 
;;  shortwall       2    7[BANK1 ] int 
;;  RT2A            2    2[BANK1 ] int 
;;  direction1      2    0[BANK1 ] int 
;;  shortwall       2    4[BANK1 ] int 
;;  choice          1    6[BANK1 ] unsigned char 
;; Return value:  Size  Location     Type
;;		None               void
;; Registers used:
;;		wreg, fsr0l, fsr0h, status,2, status,0, btemp+1, pclath, cstack
;; Tracked objects:
;;		On entry : 17F/0
;;		On exit  : 0/0
;;		Unchanged: 0/0
;; Data sizes:     COMMON   BANK0   BANK1   BANK3   BANK2
;;      Params:         0       0       0       0       0
;;      Locals:         0       0      11       0       0
;;      Temps:          0       3       0       0       0
;;      Totals:         0       3      11       0       0
;;Total ram usage:       14 bytes
;; Hardware stack levels required when called:    8
;; This function calls:
;;		_init
;;		_robot_read
;;		_readAvgDistance
;;		_UpdateDisplay
;;		_Menu
;;		_calibrateIR
;;		_scan360
;;		_rotate
;;		_robotMoveSpeed
;;		_robotFollow
;;		___awtoft
;;		___ftmul
;;		___fttol
;;		_robotTurn
;;		_ChargeMode
;; This function is called by:
;;		Startup code after reset
;; This function uses a non-reentrant model
;;
psect	maintext
	file	"E:\Aldnoah.Zero\Assignment3\Main.c"
	line	172
	global	__size_of_main
	__size_of_main	equ	__end_of_main-_main
	
_main:	
	opt	stack 0
; Regs used in _main: [wreg-fsr0h+status,2+status,0+btemp+1+pclath+cstack]
	line	173
	
l11923:	
;Main.c: 173: unsigned char choice = 255;
	movlw	(0FFh)
	bcf	status, 5	;RP0=0, select bank0
	bcf	status, 6	;RP1=0, select bank0
	movwf	(??_main+0)+0
	movf	(??_main+0)+0,w
	bsf	status, 5	;RP0=1, select bank1
	bcf	status, 6	;RP1=0, select bank1
	movwf	(main@choice)^080h
	line	174
	
l11925:	
;Main.c: 174: int shortwall = 0;
	clrf	(main@shortwall)^080h
	clrf	(main@shortwall+1)^080h
	line	177
	
l11927:	
;Main.c: 177: init();
	fcall	_init
	goto	l11929
	line	180
;Main.c: 180: while(1)
	
l2234:	
	line	182
	
l11929:	
;Main.c: 181: {
;Main.c: 182: if (RTC_FLAG_250MS == 1)
	btfss	(_RTC_FLAG_250MS/8),(_RTC_FLAG_250MS)&7
	goto	u5761
	goto	u5760
u5761:
	goto	l11939
u5760:
	line	184
	
l11931:	
;Main.c: 183: {
;Main.c: 184: RTC_FLAG_250MS = 0;
	bcf	(_RTC_FLAG_250MS/8),(_RTC_FLAG_250MS)&7
	line	185
	
l11933:	
;Main.c: 185: robot_read(2);
	movlw	(02h)
	fcall	_robot_read
	line	186
	
l11935:	
;Main.c: 186: readAvgDistance();
	fcall	_readAvgDistance
	line	187
	
l11937:	
;Main.c: 187: UpdateDisplay();
	fcall	_UpdateDisplay
	goto	l11939
	line	188
	
l2235:	
	line	189
	
l11939:	
;Main.c: 188: }
;Main.c: 189: if (buttonPressed)
	movf	(_buttonPressed),w	;volatile
	skipz
	goto	u5770
	goto	l12027
u5770:
	line	192
	
l11941:	
;Main.c: 191: {
;Main.c: 192: choice = Menu(buttonPressed);
	movf	(_buttonPressed),w	;volatile
	fcall	_Menu
	bcf	status, 5	;RP0=0, select bank0
	bcf	status, 6	;RP1=0, select bank0
	movwf	(??_main+0)+0
	movf	(??_main+0)+0,w
	bsf	status, 5	;RP0=1, select bank1
	bcf	status, 6	;RP1=0, select bank1
	movwf	(main@choice)^080h
	line	193
	
l11943:	
;Main.c: 193: buttonPressed = 0;
	clrf	(_buttonPressed)	;volatile
	goto	l12027
	line	194
	
l2236:	
	line	198
;Main.c: 194: }
;Main.c: 198: switch (choice)
	goto	l12027
	line	200
;Main.c: 199: {
;Main.c: 200: case 0:
	
l2238:	
	line	201
	
l11945:	
;Main.c: 201: calibrateIR();
	fcall	_calibrateIR
	line	202
;Main.c: 202: break;
	goto	l12029
	line	203
;Main.c: 203: case 1:
	
l2240:	
	line	204
	
l11947:	
;Main.c: 204: shortwall = scan360();
	fcall	_scan360
	bcf	status, 5	;RP0=0, select bank0
	bcf	status, 6	;RP1=0, select bank0
	movf	(1+(?_scan360)),w
	bsf	status, 5	;RP0=1, select bank1
	bcf	status, 6	;RP1=0, select bank1
	clrf	(main@shortwall+1)^080h
	addwf	(main@shortwall+1)^080h
	bcf	status, 5	;RP0=0, select bank0
	bcf	status, 6	;RP1=0, select bank0
	movf	(0+(?_scan360)),w
	bsf	status, 5	;RP0=1, select bank1
	bcf	status, 6	;RP1=0, select bank1
	clrf	(main@shortwall)^080h
	addwf	(main@shortwall)^080h

	line	205
	
l11949:	
;Main.c: 205: rotate((200 - shortwall), 0);
	comf	(main@shortwall)^080h,w
	bcf	status, 5	;RP0=0, select bank0
	bcf	status, 6	;RP1=0, select bank0
	movwf	(??_main+0)+0
	bsf	status, 5	;RP0=1, select bank1
	bcf	status, 6	;RP1=0, select bank1
	comf	(main@shortwall+1)^080h,w
	bcf	status, 5	;RP0=0, select bank0
	bcf	status, 6	;RP1=0, select bank0
	movwf	((??_main+0)+0+1)
	incf	(??_main+0)+0,f
	skipnz
	incf	((??_main+0)+0+1),f
	movf	0+(??_main+0)+0,w
	addlw	low(0C8h)
	movwf	(?_rotate)
	movf	1+(??_main+0)+0,w
	skipnc
	addlw	1
	addlw	high(0C8h)
	movwf	1+(?_rotate)
	clrf	0+(?_rotate)+02h
	fcall	_rotate
	line	206
;Main.c: 206: break;
	goto	l12029
	line	207
;Main.c: 207: case 2:
	
l2241:	
	line	209
	
l11951:	
;Main.c: 209: robotMoveSpeed(2000, 400);
	movlw	low(07D0h)
	bcf	status, 5	;RP0=0, select bank0
	bcf	status, 6	;RP1=0, select bank0
	movwf	(?_robotMoveSpeed)
	movlw	high(07D0h)
	movwf	((?_robotMoveSpeed))+1
	movlw	low(0190h)
	movwf	0+(?_robotMoveSpeed)+02h
	movlw	high(0190h)
	movwf	(0+(?_robotMoveSpeed)+02h)+1
	fcall	_robotMoveSpeed
	line	210
;Main.c: 210: break;
	goto	l12029
	line	211
;Main.c: 211: case 3:
	
l2242:	
	line	213
	
l11953:	
;Main.c: 213: robotFollow(2000, 400, adcVal);
	movlw	low(07D0h)
	bcf	status, 5	;RP0=0, select bank0
	bcf	status, 6	;RP1=0, select bank0
	movwf	(?_robotFollow)
	movlw	high(07D0h)
	movwf	((?_robotFollow))+1
	movlw	low(0190h)
	movwf	0+(?_robotFollow)+02h
	movlw	high(0190h)
	movwf	(0+(?_robotFollow)+02h)+1
	bsf	status, 5	;RP0=1, select bank1
	bcf	status, 6	;RP1=0, select bank1
	movf	(_adcVal+1)^080h,w	;volatile
	bcf	status, 5	;RP0=0, select bank0
	bcf	status, 6	;RP1=0, select bank0
	clrf	1+(?_robotFollow)+04h
	addwf	1+(?_robotFollow)+04h
	bsf	status, 5	;RP0=1, select bank1
	bcf	status, 6	;RP1=0, select bank1
	movf	(_adcVal)^080h,w	;volatile
	bcf	status, 5	;RP0=0, select bank0
	bcf	status, 6	;RP1=0, select bank0
	clrf	0+(?_robotFollow)+04h
	addwf	0+(?_robotFollow)+04h

	fcall	_robotFollow
	line	215
;Main.c: 215: break;
	goto	l12029
	line	216
;Main.c: 216: case 4:
	
l2243:	
	line	217
	
l11955:	
;Main.c: 217: TotalDistTravelled = 0;
	bsf	status, 5	;RP0=1, select bank1
	bcf	status, 6	;RP1=0, select bank1
	clrf	(_TotalDistTravelled)^080h
	clrf	(_TotalDistTravelled+1)^080h
	line	218
;Main.c: 218: while(!ROBOTerror)
	goto	l12021
	
l2245:	
	line	220
	
l11957:	
;Main.c: 219: {
;Main.c: 220: int shortwall = scan360();
	fcall	_scan360
	bcf	status, 5	;RP0=0, select bank0
	bcf	status, 6	;RP1=0, select bank0
	movf	(1+(?_scan360)),w
	bsf	status, 5	;RP0=1, select bank1
	bcf	status, 6	;RP1=0, select bank1
	clrf	(main@shortwall_3025+1)^080h
	addwf	(main@shortwall_3025+1)^080h
	bcf	status, 5	;RP0=0, select bank0
	bcf	status, 6	;RP1=0, select bank0
	movf	(0+(?_scan360)),w
	bsf	status, 5	;RP0=1, select bank1
	bcf	status, 6	;RP1=0, select bank1
	clrf	(main@shortwall_3025)^080h
	addwf	(main@shortwall_3025)^080h

	line	221
	
l11959:	
;Main.c: 221: int RT2P = 0;
	clrf	(main@RT2P)^080h
	clrf	(main@RT2P+1)^080h
	line	222
	
l11961:	
;Main.c: 222: int direction1 = 0;
	clrf	(main@direction1)^080h
	clrf	(main@direction1+1)^080h
	line	223
	
l11963:	
;Main.c: 223: if (shortwall > 200)
	movf	(main@shortwall_3025+1)^080h,w
	xorlw	80h
	movwf	btemp+1
	movlw	(high(0C9h))^80h
	subwf	btemp+1,w
	skipz
	goto	u5785
	movlw	low(0C9h)
	subwf	(main@shortwall_3025)^080h,w
u5785:

	skipc
	goto	u5781
	goto	u5780
u5781:
	goto	l11967
u5780:
	line	224
	
l11965:	
;Main.c: 224: RT2P = shortwall + 100;
	bsf	status, 5	;RP0=1, select bank1
	bcf	status, 6	;RP1=0, select bank1
	movf	(main@shortwall_3025)^080h,w
	addlw	low(064h)
	movwf	(main@RT2P)^080h
	movf	(main@shortwall_3025+1)^080h,w
	skipnc
	addlw	1
	addlw	high(064h)
	movwf	1+(main@RT2P)^080h
	goto	l11967
	
l2246:	
	line	225
	
l11967:	
;Main.c: 225: if (shortwall < 200)
	bsf	status, 5	;RP0=1, select bank1
	bcf	status, 6	;RP1=0, select bank1
	movf	(main@shortwall_3025+1)^080h,w
	xorlw	80h
	movwf	btemp+1
	movlw	(high(0C8h))^80h
	subwf	btemp+1,w
	skipz
	goto	u5795
	movlw	low(0C8h)
	subwf	(main@shortwall_3025)^080h,w
u5795:

	skipnc
	goto	u5791
	goto	u5790
u5791:
	goto	l11971
u5790:
	line	226
	
l11969:	
;Main.c: 226: RT2P = shortwall - 100;
	bsf	status, 5	;RP0=1, select bank1
	bcf	status, 6	;RP1=0, select bank1
	movf	(main@shortwall_3025)^080h,w
	addlw	low(-100)
	movwf	(main@RT2P)^080h
	movf	(main@shortwall_3025+1)^080h,w
	skipnc
	addlw	1
	addlw	high(-100)
	movwf	1+(main@RT2P)^080h
	goto	l11971
	
l2247:	
	line	228
	
l11971:	
;Main.c: 228: if (RT2P >= 400 && RT2P < 500 )
	bsf	status, 5	;RP0=1, select bank1
	bcf	status, 6	;RP1=0, select bank1
	movf	(main@RT2P+1)^080h,w
	xorlw	80h
	movwf	btemp+1
	movlw	(high(0190h))^80h
	subwf	btemp+1,w
	skipz
	goto	u5805
	movlw	low(0190h)
	subwf	(main@RT2P)^080h,w
u5805:

	skipc
	goto	u5801
	goto	u5800
u5801:
	goto	l11979
u5800:
	
l11973:	
	bsf	status, 5	;RP0=1, select bank1
	bcf	status, 6	;RP1=0, select bank1
	movf	(main@RT2P+1)^080h,w
	xorlw	80h
	movwf	btemp+1
	movlw	(high(01F4h))^80h
	subwf	btemp+1,w
	skipz
	goto	u5815
	movlw	low(01F4h)
	subwf	(main@RT2P)^080h,w
u5815:

	skipnc
	goto	u5811
	goto	u5810
u5811:
	goto	l11979
u5810:
	line	230
	
l11975:	
;Main.c: 229: {
;Main.c: 230: RT2P = RT2P - 400;
	bsf	status, 5	;RP0=1, select bank1
	bcf	status, 6	;RP1=0, select bank1
	movf	(main@RT2P)^080h,w
	addlw	low(-400)
	movwf	(main@RT2P)^080h
	movf	(main@RT2P+1)^080h,w
	skipnc
	addlw	1
	addlw	high(-400)
	movwf	1+(main@RT2P)^080h
	line	231
	
l11977:	
;Main.c: 231: direction1 = 1;
	movlw	low(01h)
	movwf	(main@direction1)^080h
	movlw	high(01h)
	movwf	((main@direction1)^080h)+1
	goto	l11979
	line	232
	
l2248:	
	line	233
	
l11979:	
;Main.c: 232: }
;Main.c: 233: if (RT2P >= 200 && RT2P < 400)
	bsf	status, 5	;RP0=1, select bank1
	bcf	status, 6	;RP1=0, select bank1
	movf	(main@RT2P+1)^080h,w
	xorlw	80h
	movwf	btemp+1
	movlw	(high(0C8h))^80h
	subwf	btemp+1,w
	skipz
	goto	u5825
	movlw	low(0C8h)
	subwf	(main@RT2P)^080h,w
u5825:

	skipc
	goto	u5821
	goto	u5820
u5821:
	goto	l11989
u5820:
	
l11981:	
	bsf	status, 5	;RP0=1, select bank1
	bcf	status, 6	;RP1=0, select bank1
	movf	(main@RT2P+1)^080h,w
	xorlw	80h
	movwf	btemp+1
	movlw	(high(0190h))^80h
	subwf	btemp+1,w
	skipz
	goto	u5835
	movlw	low(0190h)
	subwf	(main@RT2P)^080h,w
u5835:

	skipnc
	goto	u5831
	goto	u5830
u5831:
	goto	l11989
u5830:
	line	235
	
l11983:	
;Main.c: 234: {
;Main.c: 235: RT2P = 400 - RT2P;
	bsf	status, 5	;RP0=1, select bank1
	bcf	status, 6	;RP1=0, select bank1
	comf	(main@RT2P)^080h,w
	bcf	status, 5	;RP0=0, select bank0
	bcf	status, 6	;RP1=0, select bank0
	movwf	(??_main+0)+0
	bsf	status, 5	;RP0=1, select bank1
	bcf	status, 6	;RP1=0, select bank1
	comf	(main@RT2P+1)^080h,w
	bcf	status, 5	;RP0=0, select bank0
	bcf	status, 6	;RP1=0, select bank0
	movwf	((??_main+0)+0+1)
	incf	(??_main+0)+0,f
	skipnz
	incf	((??_main+0)+0+1),f
	movf	0+(??_main+0)+0,w
	addlw	low(0190h)
	bsf	status, 5	;RP0=1, select bank1
	bcf	status, 6	;RP1=0, select bank1
	movwf	(main@RT2P)^080h
	bcf	status, 5	;RP0=0, select bank0
	bcf	status, 6	;RP1=0, select bank0
	movf	1+(??_main+0)+0,w
	skipnc
	addlw	1
	addlw	high(0190h)
	bsf	status, 5	;RP0=1, select bank1
	bcf	status, 6	;RP1=0, select bank1
	movwf	1+(main@RT2P)^080h
	line	236
	
l11985:	
;Main.c: 236: RT2P = RT2P * -1;
	comf	(main@RT2P)^080h,f
	comf	(main@RT2P+1)^080h,f
	incf	(main@RT2P)^080h,f
	skipnz
	incf	(main@RT2P+1)^080h,f
	line	237
	
l11987:	
;Main.c: 237: direction1 = 0;
	clrf	(main@direction1)^080h
	clrf	(main@direction1+1)^080h
	goto	l11989
	line	238
	
l2249:	
	line	239
	
l11989:	
;Main.c: 238: }
;Main.c: 239: if (RT2P < 200 && RT2P >= 0)
	bsf	status, 5	;RP0=1, select bank1
	bcf	status, 6	;RP1=0, select bank1
	movf	(main@RT2P+1)^080h,w
	xorlw	80h
	movwf	btemp+1
	movlw	(high(0C8h))^80h
	subwf	btemp+1,w
	skipz
	goto	u5845
	movlw	low(0C8h)
	subwf	(main@RT2P)^080h,w
u5845:

	skipnc
	goto	u5841
	goto	u5840
u5841:
	goto	l11995
u5840:
	
l11991:	
	bsf	status, 5	;RP0=1, select bank1
	bcf	status, 6	;RP1=0, select bank1
	btfsc	(main@RT2P+1)^080h,7
	goto	u5851
	goto	u5850
u5851:
	goto	l11995
u5850:
	line	241
	
l11993:	
;Main.c: 240: {
;Main.c: 241: direction1 = 1;
	movlw	low(01h)
	movwf	(main@direction1)^080h
	movlw	high(01h)
	movwf	((main@direction1)^080h)+1
	goto	l11995
	line	242
	
l2250:	
	line	243
	
l11995:	
;Main.c: 242: }
;Main.c: 243: if (RT2P < 0 && RT2P >= -200)
	bsf	status, 5	;RP0=1, select bank1
	bcf	status, 6	;RP1=0, select bank1
	btfss	(main@RT2P+1)^080h,7
	goto	u5861
	goto	u5860
u5861:
	goto	l12001
u5860:
	
l11997:	
	movf	(main@RT2P+1)^080h,w
	xorlw	80h
	movwf	btemp+1
	movlw	(high(-200))^80h
	subwf	btemp+1,w
	skipz
	goto	u5875
	movlw	low(-200)
	subwf	(main@RT2P)^080h,w
u5875:

	skipc
	goto	u5871
	goto	u5870
u5871:
	goto	l12001
u5870:
	line	245
	
l11999:	
;Main.c: 244: {
;Main.c: 245: direction1 = 0;
	bsf	status, 5	;RP0=1, select bank1
	bcf	status, 6	;RP1=0, select bank1
	clrf	(main@direction1)^080h
	clrf	(main@direction1+1)^080h
	goto	l12001
	line	246
	
l2251:	
	line	247
	
l12001:	
;Main.c: 246: }
;Main.c: 247: if(RT2P < -200 || RT2P >500)
	bsf	status, 5	;RP0=1, select bank1
	bcf	status, 6	;RP1=0, select bank1
	movf	(main@RT2P+1)^080h,w
	xorlw	80h
	movwf	btemp+1
	movlw	(high(-200))^80h
	subwf	btemp+1,w
	skipz
	goto	u5885
	movlw	low(-200)
	subwf	(main@RT2P)^080h,w
u5885:

	skipc
	goto	u5881
	goto	u5880
u5881:
	goto	l12029
u5880:
	
l12003:	
	bsf	status, 5	;RP0=1, select bank1
	bcf	status, 6	;RP1=0, select bank1
	movf	(main@RT2P+1)^080h,w
	xorlw	80h
	movwf	btemp+1
	movlw	(high(01F5h))^80h
	subwf	btemp+1,w
	skipz
	goto	u5895
	movlw	low(01F5h)
	subwf	(main@RT2P)^080h,w
u5895:

	skipc
	goto	u5891
	goto	u5890
u5891:
	goto	l12005
u5890:
	goto	l12029
	
l2254:	
	line	249
;Main.c: 248: {
;Main.c: 249: break;
	goto	l12029
	line	250
	
l2252:	
	line	252
	
l12005:	
;Main.c: 250: }
;Main.c: 252: rotate((400 - shortwall ), 0);
	bsf	status, 5	;RP0=1, select bank1
	bcf	status, 6	;RP1=0, select bank1
	comf	(main@shortwall_3025)^080h,w
	bcf	status, 5	;RP0=0, select bank0
	bcf	status, 6	;RP1=0, select bank0
	movwf	(??_main+0)+0
	bsf	status, 5	;RP0=1, select bank1
	bcf	status, 6	;RP1=0, select bank1
	comf	(main@shortwall_3025+1)^080h,w
	bcf	status, 5	;RP0=0, select bank0
	bcf	status, 6	;RP1=0, select bank0
	movwf	((??_main+0)+0+1)
	incf	(??_main+0)+0,f
	skipnz
	incf	((??_main+0)+0+1),f
	movf	0+(??_main+0)+0,w
	addlw	low(0190h)
	movwf	(?_rotate)
	movf	1+(??_main+0)+0,w
	skipnc
	addlw	1
	addlw	high(0190h)
	movwf	1+(?_rotate)
	clrf	0+(?_rotate)+02h
	fcall	_rotate
	line	253
	
l12007:	
;Main.c: 253: _delay((unsigned long)((100)*(20000000/4000.0)));
	opt asmopt_off
movlw  3
	bcf	status, 5	;RP0=0, select bank0
	bcf	status, 6	;RP1=0, select bank0
movwf	((??_main+0)+0+2),f
movlw	138
movwf	((??_main+0)+0+1),f
	movlw	86
movwf	((??_main+0)+0),f
u5917:
	decfsz	((??_main+0)+0),f
	goto	u5917
	decfsz	((??_main+0)+0+1),f
	goto	u5917
	decfsz	((??_main+0)+0+2),f
	goto	u5917
	nop2
opt asmopt_on

	line	256
	
l12009:	
;Main.c: 256: int RT2A= RT2P * (36.0/40.0);
	bsf	status, 5	;RP0=1, select bank1
	bcf	status, 6	;RP1=0, select bank1
	movf	(main@RT2P+1)^080h,w
	bcf	status, 5	;RP0=0, select bank0
	bcf	status, 6	;RP1=0, select bank0
	clrf	(?___awtoft+1)
	addwf	(?___awtoft+1)
	bsf	status, 5	;RP0=1, select bank1
	bcf	status, 6	;RP1=0, select bank1
	movf	(main@RT2P)^080h,w
	bcf	status, 5	;RP0=0, select bank0
	bcf	status, 6	;RP1=0, select bank0
	clrf	(?___awtoft)
	addwf	(?___awtoft)

	fcall	___awtoft
	bcf	status, 5	;RP0=0, select bank0
	bcf	status, 6	;RP1=0, select bank0
	movf	(0+(?___awtoft)),w
	movwf	0+(?___ftmul)+03h
	movf	(1+(?___awtoft)),w
	movwf	1+(?___ftmul)+03h
	movf	(2+(?___awtoft)),w
	movwf	2+(?___ftmul)+03h
	movlw	0x66
	movwf	(?___ftmul)
	movlw	0x66
	movwf	(?___ftmul+1)
	movlw	0x3f
	movwf	(?___ftmul+2)
	fcall	___ftmul
	bcf	status, 5	;RP0=0, select bank0
	bcf	status, 6	;RP1=0, select bank0
	movf	(0+(?___ftmul)),w
	movwf	(?___fttol)
	movf	(1+(?___ftmul)),w
	movwf	(?___fttol+1)
	movf	(2+(?___ftmul)),w
	movwf	(?___fttol+2)
	fcall	___fttol
	bcf	status, 5	;RP0=0, select bank0
	bcf	status, 6	;RP1=0, select bank0
	movf	1+(((0+(?___fttol)))),w
	bsf	status, 5	;RP0=1, select bank1
	bcf	status, 6	;RP1=0, select bank1
	clrf	(main@RT2A+1)^080h
	addwf	(main@RT2A+1)^080h
	bcf	status, 5	;RP0=0, select bank0
	bcf	status, 6	;RP1=0, select bank0
	movf	0+(((0+(?___fttol)))),w
	bsf	status, 5	;RP0=1, select bank1
	bcf	status, 6	;RP1=0, select bank1
	clrf	(main@RT2A)^080h
	addwf	(main@RT2A)^080h

	line	257
	
l12011:	
;Main.c: 257: robotTurn(RT2A);
	movf	(main@RT2A+1)^080h,w
	bcf	status, 5	;RP0=0, select bank0
	bcf	status, 6	;RP1=0, select bank0
	clrf	(?_robotTurn+1)
	addwf	(?_robotTurn+1)
	bsf	status, 5	;RP0=1, select bank1
	bcf	status, 6	;RP1=0, select bank1
	movf	(main@RT2A)^080h,w
	bcf	status, 5	;RP0=0, select bank0
	bcf	status, 6	;RP1=0, select bank0
	clrf	(?_robotTurn)
	addwf	(?_robotTurn)

	fcall	_robotTurn
	line	258
	
l12013:	
;Main.c: 258: _delay((unsigned long)((100)*(20000000/4000.0)));
	opt asmopt_off
movlw  3
	bcf	status, 5	;RP0=0, select bank0
	bcf	status, 6	;RP1=0, select bank0
movwf	((??_main+0)+0+2),f
movlw	138
movwf	((??_main+0)+0+1),f
	movlw	86
movwf	((??_main+0)+0),f
u5927:
	decfsz	((??_main+0)+0),f
	goto	u5927
	decfsz	((??_main+0)+0+1),f
	goto	u5927
	decfsz	((??_main+0)+0+2),f
	goto	u5927
	nop2
opt asmopt_on

	line	259
	
l12015:	
;Main.c: 259: rotate(shortwall,0);
	bsf	status, 5	;RP0=1, select bank1
	bcf	status, 6	;RP1=0, select bank1
	movf	(main@shortwall_3025+1)^080h,w
	bcf	status, 5	;RP0=0, select bank0
	bcf	status, 6	;RP1=0, select bank0
	clrf	(?_rotate+1)
	addwf	(?_rotate+1)
	bsf	status, 5	;RP0=1, select bank1
	bcf	status, 6	;RP1=0, select bank1
	movf	(main@shortwall_3025)^080h,w
	bcf	status, 5	;RP0=0, select bank0
	bcf	status, 6	;RP1=0, select bank0
	clrf	(?_rotate)
	addwf	(?_rotate)

	clrf	0+(?_rotate)+02h
	fcall	_rotate
	line	260
	
l12017:	
;Main.c: 260: _delay((unsigned long)((100)*(20000000/4000.0)));
	opt asmopt_off
movlw  3
	bcf	status, 5	;RP0=0, select bank0
	bcf	status, 6	;RP1=0, select bank0
movwf	((??_main+0)+0+2),f
movlw	138
movwf	((??_main+0)+0+1),f
	movlw	86
movwf	((??_main+0)+0),f
u5937:
	decfsz	((??_main+0)+0),f
	goto	u5937
	decfsz	((??_main+0)+0+1),f
	goto	u5937
	decfsz	((??_main+0)+0+2),f
	goto	u5937
	nop2
opt asmopt_on

	line	261
	
l12019:	
;Main.c: 261: robotMoveSpeed(500, 200);
	movlw	low(01F4h)
	bcf	status, 5	;RP0=0, select bank0
	bcf	status, 6	;RP1=0, select bank0
	movwf	(?_robotMoveSpeed)
	movlw	high(01F4h)
	movwf	((?_robotMoveSpeed))+1
	movlw	low(0C8h)
	movwf	0+(?_robotMoveSpeed)+02h
	movlw	high(0C8h)
	movwf	(0+(?_robotMoveSpeed)+02h)+1
	fcall	_robotMoveSpeed
	goto	l12021
	line	262
	
l2244:	
	line	218
	
l12021:	
	bsf	status, 5	;RP0=1, select bank1
	bcf	status, 6	;RP1=0, select bank1
	movf	(_ROBOTerror)^080h,w
	skipz
	goto	u5900
	goto	l11957
u5900:
	goto	l12029
	
l2255:	
	line	264
;Main.c: 262: }
;Main.c: 264: break;
	goto	l12029
	line	266
;Main.c: 266: case 5:
	
l2256:	
	line	267
	
l12023:	
;Main.c: 267: ChargeMode();
	fcall	_ChargeMode
	line	268
;Main.c: 268: break;
	goto	l12029
	line	269
;Main.c: 269: default:
	
l2257:	
	line	271
;Main.c: 271: break;
	goto	l12029
	line	272
	
l12025:	
;Main.c: 272: }
	goto	l12029
	line	198
	
l2237:	
	
l12027:	
	bsf	status, 5	;RP0=1, select bank1
	bcf	status, 6	;RP1=0, select bank1
	movf	(main@choice)^080h,w
	; Switch size 1, requested type "space"
; Number of cases is 6, Range of values is 0 to 5
; switch strategies available:
; Name         Instructions Cycles
; simple_byte           19    10 (average)
; direct_byte           26     8 (fixed)
; jumptable            260     6 (fixed)
; rangetable            10     6 (fixed)
; spacedrange           18     9 (fixed)
; locatedrange           6     3 (fixed)
;	Chosen strategy is simple_byte

	opt asmopt_off
	xorlw	0^0	; case 0
	skipnz
	goto	l11945
	xorlw	1^0	; case 1
	skipnz
	goto	l11947
	xorlw	2^1	; case 2
	skipnz
	goto	l11951
	xorlw	3^2	; case 3
	skipnz
	goto	l11953
	xorlw	4^3	; case 4
	skipnz
	goto	l11955
	xorlw	5^4	; case 5
	skipnz
	goto	l12023
	goto	l12029
	opt asmopt_on

	line	272
	
l2239:	
	line	273
	
l12029:	
;Main.c: 273: choice = 255;
	movlw	(0FFh)
	bcf	status, 5	;RP0=0, select bank0
	bcf	status, 6	;RP1=0, select bank0
	movwf	(??_main+0)+0
	movf	(??_main+0)+0,w
	bsf	status, 5	;RP0=1, select bank1
	bcf	status, 6	;RP1=0, select bank1
	movwf	(main@choice)^080h
	goto	l11929
	line	274
	
l2258:	
	line	180
	goto	l11929
	
l2259:	
	line	275
	
l2260:	
	global	start
	ljmp	start
	opt stack 0
GLOBAL	__end_of_main
	__end_of_main:
;; =============== function _main ends ============

	signat	_main,88
	global	_ChargeMode
psect	text1120,local,class=CODE,delta=2
global __ptext1120
__ptext1120:

;; *************** function _ChargeMode *****************
;; Defined at:
;;		line 321 in file "E:\Aldnoah.Zero\Assignment3\Main.c"
;; Parameters:    Size  Location     Type
;;		None
;; Auto vars:     Size  Location     Type
;;		None
;; Return value:  Size  Location     Type
;;		None               void
;; Registers used:
;;		wreg, fsr0l, fsr0h, status,2, status,0, btemp+1, pclath, cstack
;; Tracked objects:
;;		On entry : 0/0
;;		On exit  : 0/0
;;		Unchanged: 0/0
;; Data sizes:     COMMON   BANK0   BANK1   BANK3   BANK2
;;      Params:         0       0       0       0       0
;;      Locals:         0       0       0       0       0
;;      Temps:          0       1       0       0       0
;;      Totals:         0       1       0       0       0
;;Total ram usage:        1 bytes
;; Hardware stack levels used:    1
;; Hardware stack levels required when called:    6
;; This function calls:
;;		_ser_putch
;;		_UpdateDisplay
;; This function is called by:
;;		_main
;; This function uses a non-reentrant model
;;
psect	text1120
	file	"E:\Aldnoah.Zero\Assignment3\Main.c"
	line	321
	global	__size_of_ChargeMode
	__size_of_ChargeMode	equ	__end_of_ChargeMode-_ChargeMode
	
_ChargeMode:	
	opt	stack 1
; Regs used in _ChargeMode: [wreg-fsr0h+status,2+status,0+btemp+1+pclath+cstack]
	line	323
	
l11901:	
;Main.c: 323: currentMenu = 2;
	movlw	(02h)
	bcf	status, 5	;RP0=0, select bank0
	bcf	status, 6	;RP1=0, select bank0
	movwf	(??_ChargeMode+0)+0
	movf	(??_ChargeMode+0)+0,w
	bsf	status, 5	;RP0=1, select bank1
	bcf	status, 6	;RP1=0, select bank1
	movwf	(_currentMenu)^080h	;volatile
	line	324
	
l11903:	
;Main.c: 324: ser_putch(128);
	movlw	(080h)
	fcall	_ser_putch
	goto	l11905
	line	326
;Main.c: 326: while (1)
	
l2278:	
	line	328
	
l11905:	
;Main.c: 327: {
;Main.c: 328: if (RTC_FLAG_250MS == 1)
	btfss	(_RTC_FLAG_250MS/8),(_RTC_FLAG_250MS)&7
	goto	u5751
	goto	u5750
u5751:
	goto	l11921
u5750:
	line	330
	
l11907:	
;Main.c: 329: {
;Main.c: 330: RTC_FLAG_250MS = 0;
	bcf	(_RTC_FLAG_250MS/8),(_RTC_FLAG_250MS)&7
	line	331
	
l11909:	
;Main.c: 331: UpdateDisplay();
	fcall	_UpdateDisplay
	goto	l11921
	line	332
	
l2279:	
	line	333
;Main.c: 332: }
;Main.c: 333: switch (buttonPressed)
	goto	l11921
	line	335
;Main.c: 334: {
;Main.c: 335: case 1:
	
l2281:	
	line	336
;Main.c: 336: buttonPressed = 0;
	clrf	(_buttonPressed)	;volatile
	line	337
;Main.c: 337: break;
	goto	l11905
	line	338
;Main.c: 338: case 2:
	
l2283:	
	line	339
;Main.c: 339: buttonPressed = 0;
	clrf	(_buttonPressed)	;volatile
	line	340
;Main.c: 340: break;
	goto	l11905
	line	341
;Main.c: 341: case 3:
	
l2284:	
	line	342
;Main.c: 342: buttonPressed = 0;
	clrf	(_buttonPressed)	;volatile
	line	343
;Main.c: 343: break;
	goto	l11905
	line	344
;Main.c: 344: case 4:
	
l2285:	
	line	345
;Main.c: 345: buttonPressed = 0;
	clrf	(_buttonPressed)	;volatile
	line	346
;Main.c: 346: break;
	goto	l11905
	line	347
;Main.c: 347: case 5:
	
l2286:	
	line	348
	
l11911:	
;Main.c: 348: ser_putch(132);
	movlw	(084h)
	fcall	_ser_putch
	line	349
	
l11913:	
;Main.c: 349: buttonPressed = 0;
	clrf	(_buttonPressed)	;volatile
	line	350
	
l11915:	
;Main.c: 350: currentMenu = 0;
	bsf	status, 5	;RP0=1, select bank1
	bcf	status, 6	;RP1=0, select bank1
	clrf	(_currentMenu)^080h	;volatile
	goto	l2287
	line	351
	
l11917:	
;Main.c: 351: return;
	goto	l2287
	line	352
;Main.c: 352: default:
	
l2288:	
	line	353
;Main.c: 353: buttonPressed = 0;
	clrf	(_buttonPressed)	;volatile
	line	354
;Main.c: 354: break;
	goto	l11905
	line	355
	
l11919:	
;Main.c: 355: }
	goto	l11905
	line	333
	
l2280:	
	
l11921:	
	movf	(_buttonPressed),w	;volatile
	; Switch size 1, requested type "space"
; Number of cases is 5, Range of values is 1 to 5
; switch strategies available:
; Name         Instructions Cycles
; simple_byte           16     9 (average)
; direct_byte           26    11 (fixed)
; jumptable            263     9 (fixed)
;	Chosen strategy is simple_byte

	opt asmopt_off
	xorlw	1^0	; case 1
	skipnz
	goto	l2281
	xorlw	2^1	; case 2
	skipnz
	goto	l2283
	xorlw	3^2	; case 3
	skipnz
	goto	l2284
	xorlw	4^3	; case 4
	skipnz
	goto	l2285
	xorlw	5^4	; case 5
	skipnz
	goto	l11911
	goto	l2288
	opt asmopt_on

	line	355
	
l2282:	
	goto	l11905
	line	356
	
l2289:	
	line	326
	goto	l11905
	
l2290:	
	line	357
	
l2287:	
	return
	opt stack 0
GLOBAL	__end_of_ChargeMode
	__end_of_ChargeMode:
;; =============== function _ChargeMode ends ============

	signat	_ChargeMode,88
	global	_robotFollow
psect	text1121,local,class=CODE,delta=2
global __ptext1121
__ptext1121:

;; *************** function _robotFollow *****************
;; Defined at:
;;		line 156 in file "E:\Aldnoah.Zero\Assignment3\robot.c"
;; Parameters:    Size  Location     Type
;;  distance        2   63[BANK0 ] int 
;;  speed           2   65[BANK0 ] int 
;;  AdcTarget       2   67[BANK0 ] int 
;; Auto vars:     Size  Location     Type
;;  remaining       3   72[BANK0 ] float 
;;  temp1           2   75[BANK0 ] int 
;; Return value:  Size  Location     Type
;;		None               void
;; Registers used:
;;		wreg, fsr0l, fsr0h, status,2, status,0, btemp+1, pclath, cstack
;; Tracked objects:
;;		On entry : 0/0
;;		On exit  : 0/0
;;		Unchanged: 0/0
;; Data sizes:     COMMON   BANK0   BANK1   BANK3   BANK2
;;      Params:         0       6       0       0       0
;;      Locals:         0       5       0       0       0
;;      Temps:          0       3       0       0       0
;;      Totals:         0      14       0       0       0
;;Total ram usage:       14 bytes
;; Hardware stack levels used:    1
;; Hardware stack levels required when called:    7
;; This function calls:
;;		_RobotDrive
;;		_readAvgDistance
;;		_robot_read
;;		_UpdateDisplay
;;		_abs
;;		___awtoft
;;		___ftge
;;		___ftdiv
;;		___ftmul
;;		___fttol
;; This function is called by:
;;		_main
;; This function uses a non-reentrant model
;;
psect	text1121
	file	"E:\Aldnoah.Zero\Assignment3\robot.c"
	line	156
	global	__size_of_robotFollow
	__size_of_robotFollow	equ	__end_of_robotFollow-_robotFollow
	
_robotFollow:	
	opt	stack 0
; Regs used in _robotFollow: [wreg-fsr0h+status,2+status,0+btemp+1+pclath+cstack]
	line	157
	
l11855:	
;robot.c: 157: distTravelled = 0;
	bsf	status, 5	;RP0=1, select bank1
	bcf	status, 6	;RP1=0, select bank1
	clrf	(_distTravelled)^080h
	clrf	(_distTravelled+1)^080h
	line	159
	
l11857:	
;robot.c: 158: int temp1;
;robot.c: 159: RobotDrive(speed, 0x7FFF);
	bcf	status, 5	;RP0=0, select bank0
	bcf	status, 6	;RP1=0, select bank0
	movf	(robotFollow@speed+1),w
	clrf	(?_RobotDrive+1)
	addwf	(?_RobotDrive+1)
	movf	(robotFollow@speed),w
	clrf	(?_RobotDrive)
	addwf	(?_RobotDrive)

	movlw	low(07FFFh)
	movwf	0+(?_RobotDrive)+02h
	movlw	high(07FFFh)
	movwf	(0+(?_RobotDrive)+02h)+1
	fcall	_RobotDrive
	line	162
;robot.c: 162: while (abs(distTravelled) < abs(distance))
	goto	l11897
	
l6056:	
	line	164
	
l11859:	
;robot.c: 163: {
;robot.c: 164: readAvgDistance();
	fcall	_readAvgDistance
	line	165
	
l11861:	
;robot.c: 165: if (adcVal > (AdcTarget + 5))
	bcf	status, 5	;RP0=0, select bank0
	bcf	status, 6	;RP1=0, select bank0
	movf	(robotFollow@AdcTarget),w
	addlw	low(05h)
	movwf	(??_robotFollow+0)+0
	movf	(robotFollow@AdcTarget+1),w
	skipnc
	addlw	1
	addlw	high(05h)
	movwf	1+(??_robotFollow+0)+0
	bsf	status, 5	;RP0=1, select bank1
	bcf	status, 6	;RP1=0, select bank1
	movf	(_adcVal+1)^080h,w	;volatile
	bcf	status, 5	;RP0=0, select bank0
	bcf	status, 6	;RP1=0, select bank0
	subwf	1+(??_robotFollow+0)+0,w
	skipz
	goto	u5695
	bsf	status, 5	;RP0=1, select bank1
	bcf	status, 6	;RP1=0, select bank1
	movf	(_adcVal)^080h,w	;volatile
	bcf	status, 5	;RP0=0, select bank0
	bcf	status, 6	;RP1=0, select bank0
	subwf	0+(??_robotFollow+0)+0,w
u5695:
	skipnc
	goto	u5691
	goto	u5690
u5691:
	goto	l11865
u5690:
	line	167
	
l11863:	
;robot.c: 166: {
;robot.c: 167: RobotDrive(speed, 1800);
	movf	(robotFollow@speed+1),w
	clrf	(?_RobotDrive+1)
	addwf	(?_RobotDrive+1)
	movf	(robotFollow@speed),w
	clrf	(?_RobotDrive)
	addwf	(?_RobotDrive)

	movlw	low(0708h)
	movwf	0+(?_RobotDrive)+02h
	movlw	high(0708h)
	movwf	(0+(?_RobotDrive)+02h)+1
	fcall	_RobotDrive
	line	168
;robot.c: 168: }
	goto	l6058
	line	169
	
l6057:	
	
l11865:	
;robot.c: 169: else if (adcVal < (AdcTarget - 5))
	bcf	status, 5	;RP0=0, select bank0
	bcf	status, 6	;RP1=0, select bank0
	movf	(robotFollow@AdcTarget),w
	addlw	low(0FFFBh)
	movwf	(??_robotFollow+0)+0
	movf	(robotFollow@AdcTarget+1),w
	skipnc
	addlw	1
	addlw	high(0FFFBh)
	movwf	1+(??_robotFollow+0)+0
	movf	1+(??_robotFollow+0)+0,w
	bsf	status, 5	;RP0=1, select bank1
	bcf	status, 6	;RP1=0, select bank1
	subwf	(_adcVal+1)^080h,w	;volatile
	skipz
	goto	u5705
	bcf	status, 5	;RP0=0, select bank0
	bcf	status, 6	;RP1=0, select bank0
	movf	0+(??_robotFollow+0)+0,w
	bsf	status, 5	;RP0=1, select bank1
	bcf	status, 6	;RP1=0, select bank1
	subwf	(_adcVal)^080h,w	;volatile
u5705:
	skipnc
	goto	u5701
	goto	u5700
u5701:
	goto	l11869
u5700:
	line	171
	
l11867:	
;robot.c: 170: {
;robot.c: 171: RobotDrive(speed, -1800);
	bcf	status, 5	;RP0=0, select bank0
	bcf	status, 6	;RP1=0, select bank0
	movf	(robotFollow@speed+1),w
	clrf	(?_RobotDrive+1)
	addwf	(?_RobotDrive+1)
	movf	(robotFollow@speed),w
	clrf	(?_RobotDrive)
	addwf	(?_RobotDrive)

	movlw	low(-1800)
	movwf	0+(?_RobotDrive)+02h
	movlw	high(-1800)
	movwf	(0+(?_RobotDrive)+02h)+1
	fcall	_RobotDrive
	line	172
;robot.c: 172: }
	goto	l6058
	line	173
	
l6059:	
	line	175
	
l11869:	
;robot.c: 173: else
;robot.c: 174: {
;robot.c: 175: RobotDrive(speed, 0x7FFF);
	bcf	status, 5	;RP0=0, select bank0
	bcf	status, 6	;RP1=0, select bank0
	movf	(robotFollow@speed+1),w
	clrf	(?_RobotDrive+1)
	addwf	(?_RobotDrive+1)
	movf	(robotFollow@speed),w
	clrf	(?_RobotDrive)
	addwf	(?_RobotDrive)

	movlw	low(07FFFh)
	movwf	0+(?_RobotDrive)+02h
	movlw	high(07FFFh)
	movwf	(0+(?_RobotDrive)+02h)+1
	fcall	_RobotDrive
	goto	l6058
	line	176
	
l6060:	
	
l6058:	
	line	177
;robot.c: 176: }
;robot.c: 177: robot_read(0);
	movlw	(0)
	fcall	_robot_read
	line	178
	
l11871:	
;robot.c: 178: if (BumpSensors || VwallSensor)
	bsf	status, 5	;RP0=1, select bank1
	bcf	status, 6	;RP1=0, select bank1
	movf	(_BumpSensors)^080h,f
	skipz	;volatile
	goto	u5711
	goto	u5710
u5711:
	goto	l11875
u5710:
	
l11873:	
	movf	(_VwallSensor)^080h,w	;volatile
	skipz
	goto	u5720
	goto	l11877
u5720:
	goto	l11875
	
l6063:	
	line	180
	
l11875:	
;robot.c: 179: {
;robot.c: 180: ROBOTerror = 1;
	clrf	(_ROBOTerror)^080h
	bsf	status,0
	rlf	(_ROBOTerror)^080h,f
	line	181
;robot.c: 181: break;
	goto	l11899
	line	182
	
l6061:	
	line	183
	
l11877:	
;robot.c: 182: }
;robot.c: 183: temp1 = DistHighByte;
	movf	(_DistHighByte)^080h,w	;volatile
	bcf	status, 5	;RP0=0, select bank0
	bcf	status, 6	;RP1=0, select bank0
	movwf	(??_robotFollow+0)+0
	clrf	(??_robotFollow+0)+0+1
	movf	0+(??_robotFollow+0)+0,w
	movwf	(robotFollow@temp1)
	movf	1+(??_robotFollow+0)+0,w
	movwf	(robotFollow@temp1+1)
	line	184
	
l11879:	
;robot.c: 184: temp1 = temp1 << 8;
	movf	(robotFollow@temp1+1),w
	movwf	(??_robotFollow+0)+0+1
	movf	(robotFollow@temp1),w
	movwf	(??_robotFollow+0)+0
	movf	(??_robotFollow+0)+0,w
	movwf	(??_robotFollow+0)+1
	clrf	(??_robotFollow+0)+0
	movf	0+(??_robotFollow+0)+0,w
	movwf	(robotFollow@temp1)
	movf	1+(??_robotFollow+0)+0,w
	movwf	(robotFollow@temp1+1)
	line	185
	
l11881:	
;robot.c: 185: temp1 += DistLowByte;
	bsf	status, 5	;RP0=1, select bank1
	bcf	status, 6	;RP1=0, select bank1
	movf	(_DistLowByte)^080h,w	;volatile
	bcf	status, 5	;RP0=0, select bank0
	bcf	status, 6	;RP1=0, select bank0
	movwf	(??_robotFollow+0)+0
	clrf	(??_robotFollow+0)+0+1
	movf	0+(??_robotFollow+0)+0,w
	addwf	(robotFollow@temp1),f
	skipnc
	incf	(robotFollow@temp1+1),f
	movf	1+(??_robotFollow+0)+0,w
	addwf	(robotFollow@temp1+1),f
	line	186
	
l11883:	
;robot.c: 186: distTravelled += temp1;
	movf	(robotFollow@temp1),w
	bsf	status, 5	;RP0=1, select bank1
	bcf	status, 6	;RP1=0, select bank1
	addwf	(_distTravelled)^080h,f
	skipnc
	incf	(_distTravelled+1)^080h,f
	bcf	status, 5	;RP0=0, select bank0
	bcf	status, 6	;RP1=0, select bank0
	movf	(robotFollow@temp1+1),w
	bsf	status, 5	;RP0=1, select bank1
	bcf	status, 6	;RP1=0, select bank1
	addwf	(_distTravelled+1)^080h,f
	line	187
	
l11885:	
;robot.c: 187: TotalDistTravelled += temp1;
	bcf	status, 5	;RP0=0, select bank0
	bcf	status, 6	;RP1=0, select bank0
	movf	(robotFollow@temp1),w
	bsf	status, 5	;RP0=1, select bank1
	bcf	status, 6	;RP1=0, select bank1
	addwf	(_TotalDistTravelled)^080h,f
	skipnc
	incf	(_TotalDistTravelled+1)^080h,f
	bcf	status, 5	;RP0=0, select bank0
	bcf	status, 6	;RP1=0, select bank0
	movf	(robotFollow@temp1+1),w
	bsf	status, 5	;RP0=1, select bank1
	bcf	status, 6	;RP1=0, select bank1
	addwf	(_TotalDistTravelled+1)^080h,f
	line	188
	
l11887:	
;robot.c: 188: Disp2 = distTravelled;
	movf	(_distTravelled+1)^080h,w
	clrf	(_Disp2+1)^080h
	addwf	(_Disp2+1)^080h
	movf	(_distTravelled)^080h,w
	clrf	(_Disp2)^080h
	addwf	(_Disp2)^080h

	line	189
	
l11889:	
;robot.c: 189: UpdateDisplay();
	fcall	_UpdateDisplay
	line	190
	
l11891:	
;robot.c: 190: float remaining = abs(distance) - abs(distTravelled) ;
	bsf	status, 5	;RP0=1, select bank1
	bcf	status, 6	;RP1=0, select bank1
	movf	(_distTravelled+1)^080h,w
	bcf	status, 5	;RP0=0, select bank0
	bcf	status, 6	;RP1=0, select bank0
	clrf	(?_abs+1)
	addwf	(?_abs+1)
	bsf	status, 5	;RP0=1, select bank1
	bcf	status, 6	;RP1=0, select bank1
	movf	(_distTravelled)^080h,w
	bcf	status, 5	;RP0=0, select bank0
	bcf	status, 6	;RP1=0, select bank0
	clrf	(?_abs)
	addwf	(?_abs)

	fcall	_abs
	bcf	status, 5	;RP0=0, select bank0
	bcf	status, 6	;RP1=0, select bank0
	comf	(0+(?_abs)),w
	movwf	(??_robotFollow+0)+0
	comf	(1+(?_abs)),w
	movwf	((??_robotFollow+0)+0+1)
	incf	(??_robotFollow+0)+0,f
	skipnz
	incf	((??_robotFollow+0)+0+1),f
	movf	(robotFollow@distance+1),w
	clrf	(?_abs+1)
	addwf	(?_abs+1)
	movf	(robotFollow@distance),w
	clrf	(?_abs)
	addwf	(?_abs)

	fcall	_abs
	bcf	status, 5	;RP0=0, select bank0
	bcf	status, 6	;RP1=0, select bank0
	movf	0+(??_robotFollow+0)+0,w
	addwf	(0+(?_abs)),w
	movwf	(?___awtoft)
	movf	1+(??_robotFollow+0)+0,w
	skipnc
	incf	1+(??_robotFollow+0)+0,w
	addwf	(1+(?_abs)),w
	movwf	1+(?___awtoft)
	fcall	___awtoft
	bcf	status, 5	;RP0=0, select bank0
	bcf	status, 6	;RP1=0, select bank0
	movf	(0+(?___awtoft)),w
	movwf	(robotFollow@remaining)
	movf	(1+(?___awtoft)),w
	movwf	(robotFollow@remaining+1)
	movf	(2+(?___awtoft)),w
	movwf	(robotFollow@remaining+2)
	line	191
	
l11893:	
;robot.c: 191: if ( remaining < 100)
	movf	(robotFollow@remaining),w
	movwf	(?___ftge)
	movf	(robotFollow@remaining+1),w
	movwf	(?___ftge+1)
	movf	(robotFollow@remaining+2),w
	movwf	(?___ftge+2)
	movlw	0x0
	movwf	0+(?___ftge)+03h
	movlw	0xc8
	movwf	1+(?___ftge)+03h
	movlw	0x42
	movwf	2+(?___ftge)+03h
	fcall	___ftge
	btfsc	status,0
	goto	u5731
	goto	u5730
u5731:
	goto	l11897
u5730:
	line	193
	
l11895:	
;robot.c: 192: {
;robot.c: 193: RobotDrive(speed * (remaining/100.0), 0x7FFF);
	bcf	status, 5	;RP0=0, select bank0
	bcf	status, 6	;RP1=0, select bank0
	movf	(robotFollow@speed+1),w
	clrf	(?___awtoft+1)
	addwf	(?___awtoft+1)
	movf	(robotFollow@speed),w
	clrf	(?___awtoft)
	addwf	(?___awtoft)

	fcall	___awtoft
	bcf	status, 5	;RP0=0, select bank0
	bcf	status, 6	;RP1=0, select bank0
	movf	(0+(?___awtoft)),w
	movwf	0+(?___ftmul)+03h
	movf	(1+(?___awtoft)),w
	movwf	1+(?___ftmul)+03h
	movf	(2+(?___awtoft)),w
	movwf	2+(?___ftmul)+03h
	movf	(robotFollow@remaining),w
	movwf	0+(?___ftdiv)+03h
	movf	(robotFollow@remaining+1),w
	movwf	1+(?___ftdiv)+03h
	movf	(robotFollow@remaining+2),w
	movwf	2+(?___ftdiv)+03h
	movlw	0x0
	movwf	(?___ftdiv)
	movlw	0xc8
	movwf	(?___ftdiv+1)
	movlw	0x42
	movwf	(?___ftdiv+2)
	fcall	___ftdiv
	bcf	status, 5	;RP0=0, select bank0
	bcf	status, 6	;RP1=0, select bank0
	movf	(0+(?___ftdiv)),w
	movwf	(?___ftmul)
	movf	(1+(?___ftdiv)),w
	movwf	(?___ftmul+1)
	movf	(2+(?___ftdiv)),w
	movwf	(?___ftmul+2)
	fcall	___ftmul
	bcf	status, 5	;RP0=0, select bank0
	bcf	status, 6	;RP1=0, select bank0
	movf	(0+(?___ftmul)),w
	movwf	(?___fttol)
	movf	(1+(?___ftmul)),w
	movwf	(?___fttol+1)
	movf	(2+(?___ftmul)),w
	movwf	(?___fttol+2)
	fcall	___fttol
	bcf	status, 5	;RP0=0, select bank0
	bcf	status, 6	;RP1=0, select bank0
	movf	1+(((0+(?___fttol)))),w
	clrf	(?_RobotDrive+1)
	addwf	(?_RobotDrive+1)
	movf	0+(((0+(?___fttol)))),w
	clrf	(?_RobotDrive)
	addwf	(?_RobotDrive)

	movlw	low(07FFFh)
	movwf	0+(?_RobotDrive)+02h
	movlw	high(07FFFh)
	movwf	(0+(?_RobotDrive)+02h)+1
	fcall	_RobotDrive
	goto	l11897
	line	194
	
l6065:	
	goto	l11897
	line	195
	
l6055:	
	line	162
	
l11897:	
	bsf	status, 5	;RP0=1, select bank1
	bcf	status, 6	;RP1=0, select bank1
	movf	(_distTravelled+1)^080h,w
	bcf	status, 5	;RP0=0, select bank0
	bcf	status, 6	;RP1=0, select bank0
	clrf	(?_abs+1)
	addwf	(?_abs+1)
	bsf	status, 5	;RP0=1, select bank1
	bcf	status, 6	;RP1=0, select bank1
	movf	(_distTravelled)^080h,w
	bcf	status, 5	;RP0=0, select bank0
	bcf	status, 6	;RP1=0, select bank0
	clrf	(?_abs)
	addwf	(?_abs)

	fcall	_abs
	bcf	status, 5	;RP0=0, select bank0
	bcf	status, 6	;RP1=0, select bank0
	movf	(0+?_abs),w
	movwf	(??_robotFollow+0)+0
	movf	(1+?_abs),w
	movwf	((??_robotFollow+0)+0+1)
	movf	(robotFollow@distance+1),w
	clrf	(?_abs+1)
	addwf	(?_abs+1)
	movf	(robotFollow@distance),w
	clrf	(?_abs)
	addwf	(?_abs)

	fcall	_abs
	bcf	status, 5	;RP0=0, select bank0
	bcf	status, 6	;RP1=0, select bank0
	movf	1+(??_robotFollow+0)+0,w
	xorlw	80h
	movwf	(??_robotFollow+2)+0
	movf	(1+(?_abs)),w
	xorlw	80h
	subwf	(??_robotFollow+2)+0,w
	skipz
	goto	u5745
	movf	(0+(?_abs)),w
	subwf	0+(??_robotFollow+0)+0,w
u5745:

	skipc
	goto	u5741
	goto	u5740
u5741:
	goto	l11859
u5740:
	goto	l11899
	
l6064:	
	line	197
	
l11899:	
;robot.c: 194: }
;robot.c: 195: }
;robot.c: 197: RobotDrive(0, 0x7FFF);
	movlw	low(0)
	bcf	status, 5	;RP0=0, select bank0
	bcf	status, 6	;RP1=0, select bank0
	movwf	(?_RobotDrive)
	movlw	high(0)
	movwf	((?_RobotDrive))+1
	movlw	low(07FFFh)
	movwf	0+(?_RobotDrive)+02h
	movlw	high(07FFFh)
	movwf	(0+(?_RobotDrive)+02h)+1
	fcall	_RobotDrive
	line	199
	
l6066:	
	return
	opt stack 0
GLOBAL	__end_of_robotFollow
	__end_of_robotFollow:
;; =============== function _robotFollow ends ============

	signat	_robotFollow,12408
	global	_robotMoveSpeed
psect	text1122,local,class=CODE,delta=2
global __ptext1122
__ptext1122:

;; *************** function _robotMoveSpeed *****************
;; Defined at:
;;		line 206 in file "E:\Aldnoah.Zero\Assignment3\robot.c"
;; Parameters:    Size  Location     Type
;;  distance        2   63[BANK0 ] int 
;;  speed           2   65[BANK0 ] int 
;; Auto vars:     Size  Location     Type
;;  remaining       3   70[BANK0 ] float 
;;  temp1           2   73[BANK0 ] int 
;; Return value:  Size  Location     Type
;;		None               void
;; Registers used:
;;		wreg, fsr0l, fsr0h, status,2, status,0, btemp+1, pclath, cstack
;; Tracked objects:
;;		On entry : 0/0
;;		On exit  : 0/0
;;		Unchanged: 0/0
;; Data sizes:     COMMON   BANK0   BANK1   BANK3   BANK2
;;      Params:         0       4       0       0       0
;;      Locals:         0       5       0       0       0
;;      Temps:          0       3       0       0       0
;;      Totals:         0      12       0       0       0
;;Total ram usage:       12 bytes
;; Hardware stack levels used:    1
;; Hardware stack levels required when called:    6
;; This function calls:
;;		_RobotDrive
;;		_robot_read
;;		_UpdateDisplay
;;		_abs
;;		___awtoft
;;		___ftge
;;		___ftdiv
;;		___ftmul
;;		___fttol
;; This function is called by:
;;		_main
;; This function uses a non-reentrant model
;;
psect	text1122
	file	"E:\Aldnoah.Zero\Assignment3\robot.c"
	line	206
	global	__size_of_robotMoveSpeed
	__size_of_robotMoveSpeed	equ	__end_of_robotMoveSpeed-_robotMoveSpeed
	
_robotMoveSpeed:	
	opt	stack 1
; Regs used in _robotMoveSpeed: [wreg-fsr0h+status,2+status,0+btemp+1+pclath+cstack]
	line	207
	
l11819:	
;robot.c: 207: distTravelled = 0;
	bsf	status, 5	;RP0=1, select bank1
	bcf	status, 6	;RP1=0, select bank1
	clrf	(_distTravelled)^080h
	clrf	(_distTravelled+1)^080h
	line	209
	
l11821:	
;robot.c: 208: int temp1;
;robot.c: 209: RobotDrive(speed, 0x7FFF);
	bcf	status, 5	;RP0=0, select bank0
	bcf	status, 6	;RP1=0, select bank0
	movf	(robotMoveSpeed@speed+1),w
	clrf	(?_RobotDrive+1)
	addwf	(?_RobotDrive+1)
	movf	(robotMoveSpeed@speed),w
	clrf	(?_RobotDrive)
	addwf	(?_RobotDrive)

	movlw	low(07FFFh)
	movwf	0+(?_RobotDrive)+02h
	movlw	high(07FFFh)
	movwf	(0+(?_RobotDrive)+02h)+1
	fcall	_RobotDrive
	line	212
;robot.c: 212: while (abs(distTravelled) < abs(distance))
	goto	l11851
	
l6070:	
	line	214
	
l11823:	
;robot.c: 213: {
;robot.c: 214: robot_read(0);
	movlw	(0)
	fcall	_robot_read
	line	215
	
l11825:	
;robot.c: 215: if (BumpSensors || VwallSensor)
	bsf	status, 5	;RP0=1, select bank1
	bcf	status, 6	;RP1=0, select bank1
	movf	(_BumpSensors)^080h,f
	skipz	;volatile
	goto	u5651
	goto	u5650
u5651:
	goto	l11829
u5650:
	
l11827:	
	movf	(_VwallSensor)^080h,w	;volatile
	skipz
	goto	u5660
	goto	l11831
u5660:
	goto	l11829
	
l6073:	
	line	217
	
l11829:	
;robot.c: 216: {
;robot.c: 217: ROBOTerror = 1;
	clrf	(_ROBOTerror)^080h
	bsf	status,0
	rlf	(_ROBOTerror)^080h,f
	line	218
;robot.c: 218: break;
	goto	l11853
	line	219
	
l6071:	
	line	220
	
l11831:	
;robot.c: 219: }
;robot.c: 220: temp1 = DistHighByte;
	movf	(_DistHighByte)^080h,w	;volatile
	bcf	status, 5	;RP0=0, select bank0
	bcf	status, 6	;RP1=0, select bank0
	movwf	(??_robotMoveSpeed+0)+0
	clrf	(??_robotMoveSpeed+0)+0+1
	movf	0+(??_robotMoveSpeed+0)+0,w
	movwf	(robotMoveSpeed@temp1)
	movf	1+(??_robotMoveSpeed+0)+0,w
	movwf	(robotMoveSpeed@temp1+1)
	line	221
	
l11833:	
;robot.c: 221: temp1 = temp1 << 8;
	movf	(robotMoveSpeed@temp1+1),w
	movwf	(??_robotMoveSpeed+0)+0+1
	movf	(robotMoveSpeed@temp1),w
	movwf	(??_robotMoveSpeed+0)+0
	movf	(??_robotMoveSpeed+0)+0,w
	movwf	(??_robotMoveSpeed+0)+1
	clrf	(??_robotMoveSpeed+0)+0
	movf	0+(??_robotMoveSpeed+0)+0,w
	movwf	(robotMoveSpeed@temp1)
	movf	1+(??_robotMoveSpeed+0)+0,w
	movwf	(robotMoveSpeed@temp1+1)
	line	222
	
l11835:	
;robot.c: 222: temp1 += DistLowByte;
	bsf	status, 5	;RP0=1, select bank1
	bcf	status, 6	;RP1=0, select bank1
	movf	(_DistLowByte)^080h,w	;volatile
	bcf	status, 5	;RP0=0, select bank0
	bcf	status, 6	;RP1=0, select bank0
	movwf	(??_robotMoveSpeed+0)+0
	clrf	(??_robotMoveSpeed+0)+0+1
	movf	0+(??_robotMoveSpeed+0)+0,w
	addwf	(robotMoveSpeed@temp1),f
	skipnc
	incf	(robotMoveSpeed@temp1+1),f
	movf	1+(??_robotMoveSpeed+0)+0,w
	addwf	(robotMoveSpeed@temp1+1),f
	line	223
	
l11837:	
;robot.c: 223: distTravelled += temp1;
	movf	(robotMoveSpeed@temp1),w
	bsf	status, 5	;RP0=1, select bank1
	bcf	status, 6	;RP1=0, select bank1
	addwf	(_distTravelled)^080h,f
	skipnc
	incf	(_distTravelled+1)^080h,f
	bcf	status, 5	;RP0=0, select bank0
	bcf	status, 6	;RP1=0, select bank0
	movf	(robotMoveSpeed@temp1+1),w
	bsf	status, 5	;RP0=1, select bank1
	bcf	status, 6	;RP1=0, select bank1
	addwf	(_distTravelled+1)^080h,f
	line	224
	
l11839:	
;robot.c: 224: TotalDistTravelled += temp1;
	bcf	status, 5	;RP0=0, select bank0
	bcf	status, 6	;RP1=0, select bank0
	movf	(robotMoveSpeed@temp1),w
	bsf	status, 5	;RP0=1, select bank1
	bcf	status, 6	;RP1=0, select bank1
	addwf	(_TotalDistTravelled)^080h,f
	skipnc
	incf	(_TotalDistTravelled+1)^080h,f
	bcf	status, 5	;RP0=0, select bank0
	bcf	status, 6	;RP1=0, select bank0
	movf	(robotMoveSpeed@temp1+1),w
	bsf	status, 5	;RP0=1, select bank1
	bcf	status, 6	;RP1=0, select bank1
	addwf	(_TotalDistTravelled+1)^080h,f
	line	225
	
l11841:	
;robot.c: 225: Disp2 = distTravelled;
	movf	(_distTravelled+1)^080h,w
	clrf	(_Disp2+1)^080h
	addwf	(_Disp2+1)^080h
	movf	(_distTravelled)^080h,w
	clrf	(_Disp2)^080h
	addwf	(_Disp2)^080h

	line	226
	
l11843:	
;robot.c: 226: UpdateDisplay();
	fcall	_UpdateDisplay
	line	227
	
l11845:	
;robot.c: 227: float remaining = abs(distance) - abs(distTravelled) ;
	bsf	status, 5	;RP0=1, select bank1
	bcf	status, 6	;RP1=0, select bank1
	movf	(_distTravelled+1)^080h,w
	bcf	status, 5	;RP0=0, select bank0
	bcf	status, 6	;RP1=0, select bank0
	clrf	(?_abs+1)
	addwf	(?_abs+1)
	bsf	status, 5	;RP0=1, select bank1
	bcf	status, 6	;RP1=0, select bank1
	movf	(_distTravelled)^080h,w
	bcf	status, 5	;RP0=0, select bank0
	bcf	status, 6	;RP1=0, select bank0
	clrf	(?_abs)
	addwf	(?_abs)

	fcall	_abs
	bcf	status, 5	;RP0=0, select bank0
	bcf	status, 6	;RP1=0, select bank0
	comf	(0+(?_abs)),w
	movwf	(??_robotMoveSpeed+0)+0
	comf	(1+(?_abs)),w
	movwf	((??_robotMoveSpeed+0)+0+1)
	incf	(??_robotMoveSpeed+0)+0,f
	skipnz
	incf	((??_robotMoveSpeed+0)+0+1),f
	movf	(robotMoveSpeed@distance+1),w
	clrf	(?_abs+1)
	addwf	(?_abs+1)
	movf	(robotMoveSpeed@distance),w
	clrf	(?_abs)
	addwf	(?_abs)

	fcall	_abs
	bcf	status, 5	;RP0=0, select bank0
	bcf	status, 6	;RP1=0, select bank0
	movf	0+(??_robotMoveSpeed+0)+0,w
	addwf	(0+(?_abs)),w
	movwf	(?___awtoft)
	movf	1+(??_robotMoveSpeed+0)+0,w
	skipnc
	incf	1+(??_robotMoveSpeed+0)+0,w
	addwf	(1+(?_abs)),w
	movwf	1+(?___awtoft)
	fcall	___awtoft
	bcf	status, 5	;RP0=0, select bank0
	bcf	status, 6	;RP1=0, select bank0
	movf	(0+(?___awtoft)),w
	movwf	(robotMoveSpeed@remaining)
	movf	(1+(?___awtoft)),w
	movwf	(robotMoveSpeed@remaining+1)
	movf	(2+(?___awtoft)),w
	movwf	(robotMoveSpeed@remaining+2)
	line	228
	
l11847:	
;robot.c: 228: if ( remaining < 100)
	movf	(robotMoveSpeed@remaining),w
	movwf	(?___ftge)
	movf	(robotMoveSpeed@remaining+1),w
	movwf	(?___ftge+1)
	movf	(robotMoveSpeed@remaining+2),w
	movwf	(?___ftge+2)
	movlw	0x0
	movwf	0+(?___ftge)+03h
	movlw	0xc8
	movwf	1+(?___ftge)+03h
	movlw	0x42
	movwf	2+(?___ftge)+03h
	fcall	___ftge
	btfsc	status,0
	goto	u5671
	goto	u5670
u5671:
	goto	l11851
u5670:
	line	230
	
l11849:	
;robot.c: 229: {
;robot.c: 230: RobotDrive(speed * (remaining/100.0), 0x7FFF);
	bcf	status, 5	;RP0=0, select bank0
	bcf	status, 6	;RP1=0, select bank0
	movf	(robotMoveSpeed@speed+1),w
	clrf	(?___awtoft+1)
	addwf	(?___awtoft+1)
	movf	(robotMoveSpeed@speed),w
	clrf	(?___awtoft)
	addwf	(?___awtoft)

	fcall	___awtoft
	bcf	status, 5	;RP0=0, select bank0
	bcf	status, 6	;RP1=0, select bank0
	movf	(0+(?___awtoft)),w
	movwf	0+(?___ftmul)+03h
	movf	(1+(?___awtoft)),w
	movwf	1+(?___ftmul)+03h
	movf	(2+(?___awtoft)),w
	movwf	2+(?___ftmul)+03h
	movf	(robotMoveSpeed@remaining),w
	movwf	0+(?___ftdiv)+03h
	movf	(robotMoveSpeed@remaining+1),w
	movwf	1+(?___ftdiv)+03h
	movf	(robotMoveSpeed@remaining+2),w
	movwf	2+(?___ftdiv)+03h
	movlw	0x0
	movwf	(?___ftdiv)
	movlw	0xc8
	movwf	(?___ftdiv+1)
	movlw	0x42
	movwf	(?___ftdiv+2)
	fcall	___ftdiv
	bcf	status, 5	;RP0=0, select bank0
	bcf	status, 6	;RP1=0, select bank0
	movf	(0+(?___ftdiv)),w
	movwf	(?___ftmul)
	movf	(1+(?___ftdiv)),w
	movwf	(?___ftmul+1)
	movf	(2+(?___ftdiv)),w
	movwf	(?___ftmul+2)
	fcall	___ftmul
	bcf	status, 5	;RP0=0, select bank0
	bcf	status, 6	;RP1=0, select bank0
	movf	(0+(?___ftmul)),w
	movwf	(?___fttol)
	movf	(1+(?___ftmul)),w
	movwf	(?___fttol+1)
	movf	(2+(?___ftmul)),w
	movwf	(?___fttol+2)
	fcall	___fttol
	bcf	status, 5	;RP0=0, select bank0
	bcf	status, 6	;RP1=0, select bank0
	movf	1+(((0+(?___fttol)))),w
	clrf	(?_RobotDrive+1)
	addwf	(?_RobotDrive+1)
	movf	0+(((0+(?___fttol)))),w
	clrf	(?_RobotDrive)
	addwf	(?_RobotDrive)

	movlw	low(07FFFh)
	movwf	0+(?_RobotDrive)+02h
	movlw	high(07FFFh)
	movwf	(0+(?_RobotDrive)+02h)+1
	fcall	_RobotDrive
	goto	l11851
	line	231
	
l6075:	
	goto	l11851
	line	232
	
l6069:	
	line	212
	
l11851:	
	bsf	status, 5	;RP0=1, select bank1
	bcf	status, 6	;RP1=0, select bank1
	movf	(_distTravelled+1)^080h,w
	bcf	status, 5	;RP0=0, select bank0
	bcf	status, 6	;RP1=0, select bank0
	clrf	(?_abs+1)
	addwf	(?_abs+1)
	bsf	status, 5	;RP0=1, select bank1
	bcf	status, 6	;RP1=0, select bank1
	movf	(_distTravelled)^080h,w
	bcf	status, 5	;RP0=0, select bank0
	bcf	status, 6	;RP1=0, select bank0
	clrf	(?_abs)
	addwf	(?_abs)

	fcall	_abs
	bcf	status, 5	;RP0=0, select bank0
	bcf	status, 6	;RP1=0, select bank0
	movf	(0+?_abs),w
	movwf	(??_robotMoveSpeed+0)+0
	movf	(1+?_abs),w
	movwf	((??_robotMoveSpeed+0)+0+1)
	movf	(robotMoveSpeed@distance+1),w
	clrf	(?_abs+1)
	addwf	(?_abs+1)
	movf	(robotMoveSpeed@distance),w
	clrf	(?_abs)
	addwf	(?_abs)

	fcall	_abs
	bcf	status, 5	;RP0=0, select bank0
	bcf	status, 6	;RP1=0, select bank0
	movf	1+(??_robotMoveSpeed+0)+0,w
	xorlw	80h
	movwf	(??_robotMoveSpeed+2)+0
	movf	(1+(?_abs)),w
	xorlw	80h
	subwf	(??_robotMoveSpeed+2)+0,w
	skipz
	goto	u5685
	movf	(0+(?_abs)),w
	subwf	0+(??_robotMoveSpeed+0)+0,w
u5685:

	skipc
	goto	u5681
	goto	u5680
u5681:
	goto	l11823
u5680:
	goto	l11853
	
l6074:	
	line	234
	
l11853:	
;robot.c: 231: }
;robot.c: 232: }
;robot.c: 234: RobotDrive(0, 0x7FFF);
	movlw	low(0)
	bcf	status, 5	;RP0=0, select bank0
	bcf	status, 6	;RP1=0, select bank0
	movwf	(?_RobotDrive)
	movlw	high(0)
	movwf	((?_RobotDrive))+1
	movlw	low(07FFFh)
	movwf	0+(?_RobotDrive)+02h
	movlw	high(07FFFh)
	movwf	(0+(?_RobotDrive)+02h)+1
	fcall	_RobotDrive
	line	236
	
l6076:	
	return
	opt stack 0
GLOBAL	__end_of_robotMoveSpeed
	__end_of_robotMoveSpeed:
;; =============== function _robotMoveSpeed ends ============

	signat	_robotMoveSpeed,8312
	global	_scan360
psect	text1123,local,class=CODE,delta=2
global __ptext1123
__ptext1123:

;; *************** function _scan360 *****************
;; Defined at:
;;		line 362 in file "E:\Aldnoah.Zero\Assignment3\Main.c"
;; Parameters:    Size  Location     Type
;;		None
;; Auto vars:     Size  Location     Type
;;  steps           2   63[BANK0 ] int 
;;  lowestSteps     2   61[BANK0 ] int 
;;  lowestVal       2   59[BANK0 ] int 
;; Return value:  Size  Location     Type
;;                  2   57[BANK0 ] int 
;; Registers used:
;;		wreg, fsr0l, fsr0h, status,2, status,0, btemp+1, pclath, cstack
;; Tracked objects:
;;		On entry : 0/0
;;		On exit  : 0/0
;;		Unchanged: 0/0
;; Data sizes:     COMMON   BANK0   BANK1   BANK3   BANK2
;;      Params:         0       2       0       0       0
;;      Locals:         0       6       0       0       0
;;      Temps:          0       0       0       0       0
;;      Totals:         0       8       0       0       0
;;Total ram usage:        8 bytes
;; Hardware stack levels used:    1
;; Hardware stack levels required when called:    7
;; This function calls:
;;		_readAvgDistance
;;		_rotate
;;		_UpdateDisplay
;; This function is called by:
;;		_main
;; This function uses a non-reentrant model
;;
psect	text1123
	file	"E:\Aldnoah.Zero\Assignment3\Main.c"
	line	362
	global	__size_of_scan360
	__size_of_scan360	equ	__end_of_scan360-_scan360
	
_scan360:	
	opt	stack 0
; Regs used in _scan360: [wreg-fsr0h+status,2+status,0+btemp+1+pclath+cstack]
	line	363
	
l11791:	
;Main.c: 363: int lowestVal = 0, lowestSteps = 0;
	bcf	status, 5	;RP0=0, select bank0
	bcf	status, 6	;RP1=0, select bank0
	clrf	(scan360@lowestVal)
	clrf	(scan360@lowestVal+1)
	clrf	(scan360@lowestSteps)
	clrf	(scan360@lowestSteps+1)
	line	365
;Main.c: 365: for (int steps = 0; steps < 200; steps+= 2)
	clrf	(scan360@steps)
	clrf	(scan360@steps+1)
	
l11793:	
	movf	(scan360@steps+1),w
	xorlw	80h
	movwf	btemp+1
	movlw	(high(0C8h))^80h
	subwf	btemp+1,w
	skipz
	goto	u5615
	movlw	low(0C8h)
	subwf	(scan360@steps),w
u5615:

	skipc
	goto	u5611
	goto	u5610
u5611:
	goto	l11797
u5610:
	goto	l11815
	
l11795:	
	goto	l11815
	line	366
	
l2293:	
	line	367
	
l11797:	
;Main.c: 366: {
;Main.c: 367: readAvgDistance();
	fcall	_readAvgDistance
	line	368
	
l11799:	
;Main.c: 368: if (adcVal > lowestVal)
	bsf	status, 5	;RP0=1, select bank1
	bcf	status, 6	;RP1=0, select bank1
	movf	(_adcVal+1)^080h,w	;volatile
	bcf	status, 5	;RP0=0, select bank0
	bcf	status, 6	;RP1=0, select bank0
	subwf	(scan360@lowestVal+1),w
	skipz
	goto	u5625
	bsf	status, 5	;RP0=1, select bank1
	bcf	status, 6	;RP1=0, select bank1
	movf	(_adcVal)^080h,w	;volatile
	bcf	status, 5	;RP0=0, select bank0
	bcf	status, 6	;RP1=0, select bank0
	subwf	(scan360@lowestVal),w
u5625:
	skipnc
	goto	u5621
	goto	u5620
u5621:
	goto	l11803
u5620:
	line	370
	
l11801:	
;Main.c: 369: {
;Main.c: 370: lowestVal = adcVal;
	bsf	status, 5	;RP0=1, select bank1
	bcf	status, 6	;RP1=0, select bank1
	movf	(_adcVal+1)^080h,w	;volatile
	bcf	status, 5	;RP0=0, select bank0
	bcf	status, 6	;RP1=0, select bank0
	clrf	(scan360@lowestVal+1)	;volatile
	addwf	(scan360@lowestVal+1)	;volatile
	bsf	status, 5	;RP0=1, select bank1
	bcf	status, 6	;RP1=0, select bank1
	movf	(_adcVal)^080h,w	;volatile
	bcf	status, 5	;RP0=0, select bank0
	bcf	status, 6	;RP1=0, select bank0
	clrf	(scan360@lowestVal)	;volatile
	addwf	(scan360@lowestVal)	;volatile

	line	371
;Main.c: 371: lowestSteps = steps;
	movf	(scan360@steps+1),w
	clrf	(scan360@lowestSteps+1)
	addwf	(scan360@lowestSteps+1)
	movf	(scan360@steps),w
	clrf	(scan360@lowestSteps)
	addwf	(scan360@lowestSteps)

	goto	l11803
	line	373
	
l2295:	
	line	374
	
l11803:	
;Main.c: 373: }
;Main.c: 374: rotate(2, 1);
	movlw	low(02h)
	movwf	(?_rotate)
	movlw	high(02h)
	movwf	((?_rotate))+1
	clrf	0+(?_rotate)+02h
	bsf	status,0
	rlf	0+(?_rotate)+02h,f
	fcall	_rotate
	line	376
	
l11805:	
;Main.c: 376: if (RTC_FLAG_250MS == 1)
	btfss	(_RTC_FLAG_250MS/8),(_RTC_FLAG_250MS)&7
	goto	u5631
	goto	u5630
u5631:
	goto	l11811
u5630:
	line	378
	
l11807:	
;Main.c: 377: {
;Main.c: 378: RTC_FLAG_250MS = 0;
	bcf	(_RTC_FLAG_250MS/8),(_RTC_FLAG_250MS)&7
	line	379
	
l11809:	
;Main.c: 379: UpdateDisplay();
	fcall	_UpdateDisplay
	goto	l11811
	line	380
	
l2296:	
	line	365
	
l11811:	
	movlw	low(02h)
	bcf	status, 5	;RP0=0, select bank0
	bcf	status, 6	;RP1=0, select bank0
	addwf	(scan360@steps),f
	skipnc
	incf	(scan360@steps+1),f
	movlw	high(02h)
	addwf	(scan360@steps+1),f
	
l11813:	
	movf	(scan360@steps+1),w
	xorlw	80h
	movwf	btemp+1
	movlw	(high(0C8h))^80h
	subwf	btemp+1,w
	skipz
	goto	u5645
	movlw	low(0C8h)
	subwf	(scan360@steps),w
u5645:

	skipc
	goto	u5641
	goto	u5640
u5641:
	goto	l11797
u5640:
	goto	l11815
	
l2294:	
	line	383
	
l11815:	
;Main.c: 380: }
;Main.c: 381: }
;Main.c: 383: return lowestSteps;
	bcf	status, 5	;RP0=0, select bank0
	bcf	status, 6	;RP1=0, select bank0
	movf	(scan360@lowestSteps+1),w
	clrf	(?_scan360+1)
	addwf	(?_scan360+1)
	movf	(scan360@lowestSteps),w
	clrf	(?_scan360)
	addwf	(?_scan360)

	goto	l2297
	
l11817:	
	line	384
	
l2297:	
	return
	opt stack 0
GLOBAL	__end_of_scan360
	__end_of_scan360:
;; =============== function _scan360 ends ============

	signat	_scan360,90
	global	_calibrateIR
psect	text1124,local,class=CODE,delta=2
global __ptext1124
__ptext1124:

;; *************** function _calibrateIR *****************
;; Defined at:
;;		line 281 in file "E:\Aldnoah.Zero\Assignment3\Main.c"
;; Parameters:    Size  Location     Type
;;		None
;; Auto vars:     Size  Location     Type
;;		None
;; Return value:  Size  Location     Type
;;		None               void
;; Registers used:
;;		wreg, fsr0l, fsr0h, status,2, status,0, btemp+1, pclath, cstack
;; Tracked objects:
;;		On entry : 0/0
;;		On exit  : 0/0
;;		Unchanged: 0/0
;; Data sizes:     COMMON   BANK0   BANK1   BANK3   BANK2
;;      Params:         0       0       0       0       0
;;      Locals:         0       0       0       0       0
;;      Temps:          0       0       0       0       0
;;      Totals:         0       0       0       0       0
;;Total ram usage:        0 bytes
;; Hardware stack levels used:    1
;; Hardware stack levels required when called:    6
;; This function calls:
;;		_rotate
;;		_UpdateDisplay
;; This function is called by:
;;		_main
;; This function uses a non-reentrant model
;;
psect	text1124
	file	"E:\Aldnoah.Zero\Assignment3\Main.c"
	line	281
	global	__size_of_calibrateIR
	__size_of_calibrateIR	equ	__end_of_calibrateIR-_calibrateIR
	
_calibrateIR:	
	opt	stack 1
; Regs used in _calibrateIR: [wreg-fsr0h+status,2+status,0+btemp+1+pclath+cstack]
	line	282
	
l11761:	
;Main.c: 282: currentMenu = 1;
	bsf	status, 5	;RP0=1, select bank1
	bcf	status, 6	;RP1=0, select bank1
	clrf	(_currentMenu)^080h	;volatile
	bsf	status,0
	rlf	(_currentMenu)^080h,f	;volatile
	line	283
	
l11763:	
;Main.c: 283: rotate(8, 0);
	movlw	low(08h)
	bcf	status, 5	;RP0=0, select bank0
	bcf	status, 6	;RP1=0, select bank0
	movwf	(?_rotate)
	movlw	high(08h)
	movwf	((?_rotate))+1
	clrf	0+(?_rotate)+02h
	fcall	_rotate
	goto	l11765
	line	284
;Main.c: 284: while (1)
	
l2263:	
	line	286
	
l11765:	
;Main.c: 285: {
;Main.c: 286: if (RTC_FLAG_250MS == 1)
	btfss	(_RTC_FLAG_250MS/8),(_RTC_FLAG_250MS)&7
	goto	u5601
	goto	u5600
u5601:
	goto	l11789
u5600:
	line	288
	
l11767:	
;Main.c: 287: {
;Main.c: 288: RTC_FLAG_250MS = 0;
	bcf	(_RTC_FLAG_250MS/8),(_RTC_FLAG_250MS)&7
	line	289
	
l11769:	
;Main.c: 289: UpdateDisplay();
	fcall	_UpdateDisplay
	goto	l11789
	line	290
	
l2264:	
	line	291
;Main.c: 290: }
;Main.c: 291: switch (buttonPressed)
	goto	l11789
	line	293
;Main.c: 292: {
;Main.c: 293: case 1:
	
l2266:	
	line	294
;Main.c: 294: buttonPressed = 0;
	clrf	(_buttonPressed)	;volatile
	line	295
;Main.c: 295: break;
	goto	l11765
	line	296
;Main.c: 296: case 2:
	
l2268:	
	line	297
;Main.c: 297: buttonPressed = 0;
	clrf	(_buttonPressed)	;volatile
	line	298
;Main.c: 298: break;
	goto	l11765
	line	299
;Main.c: 299: case 3:
	
l2269:	
	line	300
	
l11771:	
;Main.c: 300: rotate(1, 1);
	movlw	low(01h)
	bcf	status, 5	;RP0=0, select bank0
	bcf	status, 6	;RP1=0, select bank0
	movwf	(?_rotate)
	movlw	high(01h)
	movwf	((?_rotate))+1
	clrf	0+(?_rotate)+02h
	bsf	status,0
	rlf	0+(?_rotate)+02h,f
	fcall	_rotate
	line	301
	
l11773:	
;Main.c: 301: buttonPressed = 0;
	clrf	(_buttonPressed)	;volatile
	line	302
;Main.c: 302: break;
	goto	l11765
	line	303
;Main.c: 303: case 4:
	
l2270:	
	line	304
	
l11775:	
;Main.c: 304: rotate(1, 0);
	movlw	low(01h)
	bcf	status, 5	;RP0=0, select bank0
	bcf	status, 6	;RP1=0, select bank0
	movwf	(?_rotate)
	movlw	high(01h)
	movwf	((?_rotate))+1
	clrf	0+(?_rotate)+02h
	fcall	_rotate
	line	305
	
l11777:	
;Main.c: 305: buttonPressed = 0;
	clrf	(_buttonPressed)	;volatile
	line	306
;Main.c: 306: break;
	goto	l11765
	line	307
;Main.c: 307: case 5:
	
l2271:	
	line	308
	
l11779:	
;Main.c: 308: totalSteps = 0;
	bsf	status, 5	;RP0=1, select bank1
	bcf	status, 6	;RP1=0, select bank1
	clrf	(_totalSteps)^080h
	clrf	(_totalSteps+1)^080h
	line	309
	
l11781:	
;Main.c: 309: buttonPressed = 0;
	clrf	(_buttonPressed)	;volatile
	line	310
	
l11783:	
;Main.c: 310: currentMenu = 0;
	clrf	(_currentMenu)^080h	;volatile
	goto	l2272
	line	311
	
l11785:	
;Main.c: 311: return;
	goto	l2272
	line	312
;Main.c: 312: default:
	
l2273:	
	line	313
;Main.c: 313: break;
	goto	l11765
	line	314
	
l11787:	
;Main.c: 314: }
	goto	l11765
	line	291
	
l2265:	
	
l11789:	
	movf	(_buttonPressed),w	;volatile
	; Switch size 1, requested type "space"
; Number of cases is 5, Range of values is 1 to 5
; switch strategies available:
; Name         Instructions Cycles
; simple_byte           16     9 (average)
; direct_byte           26    11 (fixed)
; jumptable            263     9 (fixed)
;	Chosen strategy is simple_byte

	opt asmopt_off
	xorlw	1^0	; case 1
	skipnz
	goto	l2266
	xorlw	2^1	; case 2
	skipnz
	goto	l2268
	xorlw	3^2	; case 3
	skipnz
	goto	l11771
	xorlw	4^3	; case 4
	skipnz
	goto	l11775
	xorlw	5^4	; case 5
	skipnz
	goto	l11779
	goto	l11765
	opt asmopt_on

	line	314
	
l2267:	
	goto	l11765
	line	315
	
l2274:	
	line	284
	goto	l11765
	
l2275:	
	line	316
	
l2272:	
	return
	opt stack 0
GLOBAL	__end_of_calibrateIR
	__end_of_calibrateIR:
;; =============== function _calibrateIR ends ============

	signat	_calibrateIR,88
	global	_UpdateDisplay
psect	text1125,local,class=CODE,delta=2
global __ptext1125
__ptext1125:

;; *************** function _UpdateDisplay *****************
;; Defined at:
;;		line 236 in file "E:\Aldnoah.Zero\Assignment3\HMI.c"
;; Parameters:    Size  Location     Type
;;		None
;; Auto vars:     Size  Location     Type
;;  LCDOutput      16   41[BANK0 ] unsigned char [16]
;; Return value:  Size  Location     Type
;;		None               void
;; Registers used:
;;		wreg, fsr0l, fsr0h, status,2, status,0, btemp+1, pclath, cstack
;; Tracked objects:
;;		On entry : 0/0
;;		On exit  : 0/0
;;		Unchanged: 0/0
;; Data sizes:     COMMON   BANK0   BANK1   BANK3   BANK2
;;      Params:         0       0       0       0       0
;;      Locals:         0      16       0       0       0
;;      Temps:          0       4       0       0       0
;;      Totals:         0      20       0       0       0
;;Total ram usage:       20 bytes
;; Hardware stack levels used:    1
;; Hardware stack levels required when called:    5
;; This function calls:
;;		_lcd_write_control
;;		_sprintf
;;		_lcd_set_cursor
;;		_lcd_write_string
;;		___awmod
;; This function is called by:
;;		_main
;;		_calibrateIR
;;		_ChargeMode
;;		_scan360
;;		_robotFollow
;;		_robotMoveSpeed
;;		_robotTurnSpeed
;; This function uses a non-reentrant model
;;
psect	text1125
	file	"E:\Aldnoah.Zero\Assignment3\HMI.c"
	line	236
	global	__size_of_UpdateDisplay
	__size_of_UpdateDisplay	equ	__end_of_UpdateDisplay-_UpdateDisplay
	
_UpdateDisplay:	
	opt	stack 1
; Regs used in _UpdateDisplay: [wreg-fsr0h+status,2+status,0+btemp+1+pclath+cstack]
	line	237
	
l11717:	
;HMI.c: 237: char LCDOutput[16] = "";
	movlw	(UpdateDisplay@LCDOutput)&0ffh
	movwf	fsr0
	movlw	low(UpdateDisplay@F1249)
	bcf	status, 5	;RP0=0, select bank0
	bcf	status, 6	;RP1=0, select bank0
	movwf	(??_UpdateDisplay+0)+0
	movf	fsr0,w
	movwf	((??_UpdateDisplay+0)+0+1)
	movlw	16
	movwf	((??_UpdateDisplay+0)+0+2)
u5580:
	movf	(??_UpdateDisplay+0)+0,w
	movwf	fsr0
	bsf	status, 7	;select IRP bank3
	
	movf	indf,w
	movwf	((??_UpdateDisplay+0)+0+3)
	incf	(??_UpdateDisplay+0)+0,f
	movf	((??_UpdateDisplay+0)+0+1),w
	movwf	fsr0
	bcf	status, 7	;select IRP bank0
	
	movf	((??_UpdateDisplay+0)+0+3),w
	movwf	indf
	incf	((??_UpdateDisplay+0)+0+1),f
	decfsz	((??_UpdateDisplay+0)+0+2),f
	goto	u5580
	line	238
;HMI.c: 238: switch (currentMenu)
	goto	l11759
	line	240
;HMI.c: 239: {
;HMI.c: 240: case 0:
	
l4547:	
	line	241
	
l11719:	
;HMI.c: 241: lcd_write_control(0b00000001);
	movlw	(01h)
	fcall	_lcd_write_control
	line	242
	
l11721:	
;HMI.c: 242: sprintf(LCDOutput,"IR:%dcm D:%d",Disp1, Disp2);
	movlw	((STR_13-__stringbase))&0ffh
	bcf	status, 5	;RP0=0, select bank0
	bcf	status, 6	;RP1=0, select bank0
	movwf	(??_UpdateDisplay+0)+0
	movf	(??_UpdateDisplay+0)+0,w
	movwf	(?_sprintf)
	bsf	status, 5	;RP0=1, select bank1
	bcf	status, 6	;RP1=0, select bank1
	movf	(_Disp1+1)^080h,w
	bcf	status, 5	;RP0=0, select bank0
	bcf	status, 6	;RP1=0, select bank0
	clrf	1+(?_sprintf)+01h
	addwf	1+(?_sprintf)+01h
	bsf	status, 5	;RP0=1, select bank1
	bcf	status, 6	;RP1=0, select bank1
	movf	(_Disp1)^080h,w
	bcf	status, 5	;RP0=0, select bank0
	bcf	status, 6	;RP1=0, select bank0
	clrf	0+(?_sprintf)+01h
	addwf	0+(?_sprintf)+01h

	bsf	status, 5	;RP0=1, select bank1
	bcf	status, 6	;RP1=0, select bank1
	movf	(_Disp2+1)^080h,w
	bcf	status, 5	;RP0=0, select bank0
	bcf	status, 6	;RP1=0, select bank0
	clrf	1+(?_sprintf)+03h
	addwf	1+(?_sprintf)+03h
	bsf	status, 5	;RP0=1, select bank1
	bcf	status, 6	;RP1=0, select bank1
	movf	(_Disp2)^080h,w
	bcf	status, 5	;RP0=0, select bank0
	bcf	status, 6	;RP1=0, select bank0
	clrf	0+(?_sprintf)+03h
	addwf	0+(?_sprintf)+03h

	movlw	(UpdateDisplay@LCDOutput)&0ffh
	fcall	_sprintf
	line	243
	
l11723:	
;HMI.c: 243: lcd_set_cursor(0x00);
	movlw	(0)
	fcall	_lcd_set_cursor
	line	244
;HMI.c: 244: lcd_write_string(LCDOutput);
	movlw	(UpdateDisplay@LCDOutput&0ffh)
	bcf	status, 5	;RP0=0, select bank0
	bcf	status, 6	;RP1=0, select bank0
	movwf	(?_lcd_write_string)
	movlw	(0x0/2)
	movwf	(?_lcd_write_string+1)
	fcall	_lcd_write_string
	line	245
	
l11725:	
;HMI.c: 245: lcd_set_cursor(0x40);
	movlw	(040h)
	fcall	_lcd_set_cursor
	line	246
	
l11727:	
;HMI.c: 246: if (pos > 0)
	bsf	status, 5	;RP0=1, select bank1
	bcf	status, 6	;RP1=0, select bank1
	movf	(_pos+1)^080h,w
	xorlw	80h
	movwf	btemp+1
	movlw	(high(01h))^80h
	subwf	btemp+1,w
	skipz
	goto	u5595
	movlw	low(01h)
	subwf	(_pos)^080h,w
u5595:

	skipc
	goto	u5591
	goto	u5590
u5591:
	goto	l11731
u5590:
	line	247
	
l11729:	
;HMI.c: 247: lcd_write_string(shortMenuStrings[pos - 1]);
	bsf	status, 5	;RP0=1, select bank1
	bcf	status, 6	;RP1=0, select bank1
	movf	(_pos)^080h,w
	addlw	0FFh
	addlw	_shortMenuStrings&0ffh
	movwf	fsr0
	bcf	status, 7	;select IRP bank1
	movf	indf,w
	bcf	status, 5	;RP0=0, select bank0
	bcf	status, 6	;RP1=0, select bank0
	movwf	(?_lcd_write_string)
	movlw	80h
	movwf	(?_lcd_write_string+1)
	fcall	_lcd_write_string
	goto	l11733
	line	248
	
l4548:	
	line	249
	
l11731:	
;HMI.c: 248: else
;HMI.c: 249: lcd_write_string(shortMenuStrings[pos + 6 - 1]);
	bsf	status, 5	;RP0=1, select bank1
	bcf	status, 6	;RP1=0, select bank1
	movf	(_pos)^080h,w
	addlw	05h
	addlw	_shortMenuStrings&0ffh
	movwf	fsr0
	bcf	status, 7	;select IRP bank1
	movf	indf,w
	bcf	status, 5	;RP0=0, select bank0
	bcf	status, 6	;RP1=0, select bank0
	movwf	(?_lcd_write_string)
	movlw	80h
	movwf	(?_lcd_write_string+1)
	fcall	_lcd_write_string
	goto	l11733
	
l4549:	
	line	250
	
l11733:	
;HMI.c: 250: lcd_set_cursor(0x44);
	movlw	(044h)
	fcall	_lcd_set_cursor
	line	251
	
l11735:	
;HMI.c: 251: lcd_write_string(menuStrings[pos]);
	bsf	status, 5	;RP0=1, select bank1
	bcf	status, 6	;RP1=0, select bank1
	movf	(_pos)^080h,w
	addlw	_menuStrings&0ffh
	movwf	fsr0
	bcf	status, 7	;select IRP bank1
	movf	indf,w
	bcf	status, 5	;RP0=0, select bank0
	bcf	status, 6	;RP1=0, select bank0
	movwf	(?_lcd_write_string)
	movlw	80h
	movwf	(?_lcd_write_string+1)
	fcall	_lcd_write_string
	line	252
;HMI.c: 252: lcd_set_cursor(0x4D);
	movlw	(04Dh)
	fcall	_lcd_set_cursor
	line	253
	
l11737:	
;HMI.c: 253: lcd_write_string(shortMenuStrings[(pos + 1) % 6]);
	movlw	low(06h)
	bcf	status, 5	;RP0=0, select bank0
	bcf	status, 6	;RP1=0, select bank0
	movwf	(?___awmod)
	movlw	high(06h)
	movwf	((?___awmod))+1
	bsf	status, 5	;RP0=1, select bank1
	bcf	status, 6	;RP1=0, select bank1
	movf	(_pos)^080h,w
	addlw	low(01h)
	bcf	status, 5	;RP0=0, select bank0
	bcf	status, 6	;RP1=0, select bank0
	movwf	0+(?___awmod)+02h
	bsf	status, 5	;RP0=1, select bank1
	bcf	status, 6	;RP1=0, select bank1
	movf	(_pos+1)^080h,w
	skipnc
	addlw	1
	addlw	high(01h)
	bcf	status, 5	;RP0=0, select bank0
	bcf	status, 6	;RP1=0, select bank0
	movwf	1+0+(?___awmod)+02h
	fcall	___awmod
	bcf	status, 5	;RP0=0, select bank0
	bcf	status, 6	;RP1=0, select bank0
	movf	(0+(?___awmod)),w
	addlw	_shortMenuStrings&0ffh
	movwf	fsr0
	bcf	status, 7	;select IRP bank1
	movf	indf,w
	movwf	(?_lcd_write_string)
	movlw	80h
	movwf	(?_lcd_write_string+1)
	fcall	_lcd_write_string
	line	254
;HMI.c: 254: break;
	goto	l4554
	line	255
;HMI.c: 255: case 1:
	
l4551:	
	line	256
	
l11739:	
;HMI.c: 256: lcd_write_control(0b00000001);
	movlw	(01h)
	fcall	_lcd_write_control
	line	257
;HMI.c: 257: lcd_set_cursor(0x00);
	movlw	(0)
	fcall	_lcd_set_cursor
	line	258
	
l11741:	
;HMI.c: 258: lcd_write_string("Zero Step_Motor");
	movlw	low((STR_14-__stringbase))
	bcf	status, 5	;RP0=0, select bank0
	bcf	status, 6	;RP1=0, select bank0
	movwf	(?_lcd_write_string)
	movlw	80h
	movwf	(?_lcd_write_string+1)
	fcall	_lcd_write_string
	line	259
	
l11743:	
;HMI.c: 259: lcd_set_cursor(0x40);
	movlw	(040h)
	fcall	_lcd_set_cursor
	line	260
;HMI.c: 260: lcd_write_string("<<<");
	movlw	low((STR_15-__stringbase))
	bcf	status, 5	;RP0=0, select bank0
	bcf	status, 6	;RP1=0, select bank0
	movwf	(?_lcd_write_string)
	movlw	80h
	movwf	(?_lcd_write_string+1)
	fcall	_lcd_write_string
	line	261
	
l11745:	
;HMI.c: 261: lcd_set_cursor(0x44);
	movlw	(044h)
	fcall	_lcd_set_cursor
	line	262
	
l11747:	
;HMI.c: 262: lcd_write_string("CONFIRM");
	movlw	low((STR_16-__stringbase))
	bcf	status, 5	;RP0=0, select bank0
	bcf	status, 6	;RP1=0, select bank0
	movwf	(?_lcd_write_string)
	movlw	80h
	movwf	(?_lcd_write_string+1)
	fcall	_lcd_write_string
	line	263
;HMI.c: 263: lcd_set_cursor(0x4D);
	movlw	(04Dh)
	fcall	_lcd_set_cursor
	line	264
	
l11749:	
;HMI.c: 264: lcd_write_string(">>>");
	movlw	low((STR_17-__stringbase))
	bcf	status, 5	;RP0=0, select bank0
	bcf	status, 6	;RP1=0, select bank0
	movwf	(?_lcd_write_string)
	movlw	80h
	movwf	(?_lcd_write_string+1)
	fcall	_lcd_write_string
	line	265
;HMI.c: 265: break;
	goto	l4554
	line	266
;HMI.c: 266: case 2:
	
l4552:	
	line	267
	
l11751:	
;HMI.c: 267: lcd_write_control(0b00000001);
	movlw	(01h)
	fcall	_lcd_write_control
	line	268
;HMI.c: 268: lcd_set_cursor(0x00);
	movlw	(0)
	fcall	_lcd_set_cursor
	line	269
	
l11753:	
;HMI.c: 269: lcd_write_string(" Charging Mode ");
	movlw	low((STR_18-__stringbase))
	bcf	status, 5	;RP0=0, select bank0
	bcf	status, 6	;RP1=0, select bank0
	movwf	(?_lcd_write_string)
	movlw	80h
	movwf	(?_lcd_write_string+1)
	fcall	_lcd_write_string
	line	270
	
l11755:	
;HMI.c: 270: lcd_set_cursor(0x44);
	movlw	(044h)
	fcall	_lcd_set_cursor
	line	271
;HMI.c: 271: lcd_write_string("  EXIT  ");
	movlw	low((STR_19-__stringbase))
	bcf	status, 5	;RP0=0, select bank0
	bcf	status, 6	;RP1=0, select bank0
	movwf	(?_lcd_write_string)
	movlw	80h
	movwf	(?_lcd_write_string+1)
	fcall	_lcd_write_string
	line	272
;HMI.c: 272: break;
	goto	l4554
	line	273
;HMI.c: 273: default:
	
l4553:	
	line	274
;HMI.c: 274: break;
	goto	l4554
	line	275
	
l11757:	
;HMI.c: 275: }
	goto	l4554
	line	238
	
l4546:	
	
l11759:	
	bsf	status, 5	;RP0=1, select bank1
	bcf	status, 6	;RP1=0, select bank1
	movf	(_currentMenu)^080h,w	;volatile
	; Switch size 1, requested type "space"
; Number of cases is 3, Range of values is 0 to 2
; switch strategies available:
; Name         Instructions Cycles
; simple_byte           10     6 (average)
; direct_byte           17     8 (fixed)
; jumptable            260     6 (fixed)
; rangetable             7     6 (fixed)
; spacedrange           12     9 (fixed)
; locatedrange           3     3 (fixed)
;	Chosen strategy is simple_byte

	opt asmopt_off
	xorlw	0^0	; case 0
	skipnz
	goto	l11719
	xorlw	1^0	; case 1
	skipnz
	goto	l11739
	xorlw	2^1	; case 2
	skipnz
	goto	l11751
	goto	l4554
	opt asmopt_on

	line	275
	
l4550:	
	line	276
	
l4554:	
	return
	opt stack 0
GLOBAL	__end_of_UpdateDisplay
	__end_of_UpdateDisplay:
;; =============== function _UpdateDisplay ends ============

	signat	_UpdateDisplay,88
	global	_readAvgDistance
psect	text1126,local,class=CODE,delta=2
global __ptext1126
__ptext1126:

;; *************** function _readAvgDistance *****************
;; Defined at:
;;		line 28 in file "E:\Aldnoah.Zero\Assignment3\infrared.c"
;; Parameters:    Size  Location     Type
;;		None
;; Auto vars:     Size  Location     Type
;;  i               2   22[BANK0 ] int 
;;  tempIR          2   20[BANK0 ] unsigned int 
;;  j               2   18[BANK0 ] int 
;;  fullval         2   16[BANK0 ] unsigned int 
;; Return value:  Size  Location     Type
;;		None               void
;; Registers used:
;;		wreg, fsr0l, fsr0h, status,2, status,0, btemp+1, pclath, cstack
;; Tracked objects:
;;		On entry : 0/0
;;		On exit  : 0/0
;;		Unchanged: 0/0
;; Data sizes:     COMMON   BANK0   BANK1   BANK3   BANK2
;;      Params:         0       0       0       0       0
;;      Locals:         0       8       0       0       0
;;      Temps:          0       0       0       0       0
;;      Totals:         0       8       0       0       0
;;Total ram usage:        8 bytes
;; Hardware stack levels used:    1
;; Hardware stack levels required when called:    6
;; This function calls:
;;		_readDistance
;;		___lwdiv
;;		_ADCconvert
;; This function is called by:
;;		_main
;;		_scan360
;;		_robotFollow
;; This function uses a non-reentrant model
;;
psect	text1126
	file	"E:\Aldnoah.Zero\Assignment3\infrared.c"
	line	28
	global	__size_of_readAvgDistance
	__size_of_readAvgDistance	equ	__end_of_readAvgDistance-_readAvgDistance
	
_readAvgDistance:	
	opt	stack 0
; Regs used in _readAvgDistance: [wreg-fsr0h+status,2+status,0+btemp+1+pclath+cstack]
	line	29
	
l11699:	
;infrared.c: 29: unsigned int fullval = 0, tempIR = 0;
	bcf	status, 5	;RP0=0, select bank0
	bcf	status, 6	;RP1=0, select bank0
	clrf	(readAvgDistance@fullval)
	clrf	(readAvgDistance@fullval+1)
	clrf	(readAvgDistance@tempIR)
	clrf	(readAvgDistance@tempIR+1)
	line	30
;infrared.c: 30: int j = 0;
	clrf	(readAvgDistance@j)
	clrf	(readAvgDistance@j+1)
	line	32
;infrared.c: 32: for (int i = 0; i < 8; i++)
	clrf	(readAvgDistance@i)
	clrf	(readAvgDistance@i+1)
	
l11701:	
	movf	(readAvgDistance@i+1),w
	xorlw	80h
	movwf	btemp+1
	movlw	(high(08h))^80h
	subwf	btemp+1,w
	skipz
	goto	u5555
	movlw	low(08h)
	subwf	(readAvgDistance@i),w
u5555:

	skipc
	goto	u5551
	goto	u5550
u5551:
	goto	l11705
u5550:
	goto	l11713
	
l11703:	
	goto	l11713
	line	33
	
l3004:	
	line	34
	
l11705:	
;infrared.c: 33: {
;infrared.c: 34: tempIR = readDistance();
	fcall	_readDistance
	bcf	status, 5	;RP0=0, select bank0
	bcf	status, 6	;RP1=0, select bank0
	movf	(1+(?_readDistance)),w
	clrf	(readAvgDistance@tempIR+1)
	addwf	(readAvgDistance@tempIR+1)
	movf	(0+(?_readDistance)),w
	clrf	(readAvgDistance@tempIR)
	addwf	(readAvgDistance@tempIR)

	line	35
	
l11707:	
;infrared.c: 35: if (tempIR <= 1000)
	movlw	high(03E9h)
	subwf	(readAvgDistance@tempIR+1),w
	movlw	low(03E9h)
	skipnz
	subwf	(readAvgDistance@tempIR),w
	skipnc
	goto	u5561
	goto	u5560
u5561:
	goto	l3006
u5560:
	line	37
	
l11709:	
;infrared.c: 36: {
;infrared.c: 37: fullval += tempIR;
	movf	(readAvgDistance@tempIR),w
	addwf	(readAvgDistance@fullval),f
	skipnc
	incf	(readAvgDistance@fullval+1),f
	movf	(readAvgDistance@tempIR+1),w
	addwf	(readAvgDistance@fullval+1),f
	line	38
;infrared.c: 38: j++;
	movlw	low(01h)
	addwf	(readAvgDistance@j),f
	skipnc
	incf	(readAvgDistance@j+1),f
	movlw	high(01h)
	addwf	(readAvgDistance@j+1),f
	line	39
	
l3006:	
	line	32
	movlw	low(01h)
	addwf	(readAvgDistance@i),f
	skipnc
	incf	(readAvgDistance@i+1),f
	movlw	high(01h)
	addwf	(readAvgDistance@i+1),f
	
l11711:	
	movf	(readAvgDistance@i+1),w
	xorlw	80h
	movwf	btemp+1
	movlw	(high(08h))^80h
	subwf	btemp+1,w
	skipz
	goto	u5575
	movlw	low(08h)
	subwf	(readAvgDistance@i),w
u5575:

	skipc
	goto	u5571
	goto	u5570
u5571:
	goto	l11705
u5570:
	goto	l11713
	
l3005:	
	line	41
	
l11713:	
;infrared.c: 39: }
;infrared.c: 40: }
;infrared.c: 41: adcVal = fullval / j;
	bcf	status, 5	;RP0=0, select bank0
	bcf	status, 6	;RP1=0, select bank0
	movf	(readAvgDistance@j+1),w
	clrf	(?___lwdiv+1)
	addwf	(?___lwdiv+1)
	movf	(readAvgDistance@j),w
	clrf	(?___lwdiv)
	addwf	(?___lwdiv)

	movf	(readAvgDistance@fullval+1),w
	clrf	1+(?___lwdiv)+02h
	addwf	1+(?___lwdiv)+02h
	movf	(readAvgDistance@fullval),w
	clrf	0+(?___lwdiv)+02h
	addwf	0+(?___lwdiv)+02h

	fcall	___lwdiv
	bcf	status, 5	;RP0=0, select bank0
	bcf	status, 6	;RP1=0, select bank0
	movf	(1+(?___lwdiv)),w
	bsf	status, 5	;RP0=1, select bank1
	bcf	status, 6	;RP1=0, select bank1
	clrf	(_adcVal+1)^080h	;volatile
	addwf	(_adcVal+1)^080h	;volatile
	bcf	status, 5	;RP0=0, select bank0
	bcf	status, 6	;RP1=0, select bank0
	movf	(0+(?___lwdiv)),w
	bsf	status, 5	;RP0=1, select bank1
	bcf	status, 6	;RP1=0, select bank1
	clrf	(_adcVal)^080h	;volatile
	addwf	(_adcVal)^080h	;volatile

	line	42
;infrared.c: 42: ADCconvert();
	fcall	_ADCconvert
	line	43
	
l11715:	
;infrared.c: 43: Disp1 = adcVal;
	bsf	status, 5	;RP0=1, select bank1
	bcf	status, 6	;RP1=0, select bank1
	movf	(_adcVal+1)^080h,w	;volatile
	clrf	(_Disp1+1)^080h	;volatile
	addwf	(_Disp1+1)^080h	;volatile
	movf	(_adcVal)^080h,w	;volatile
	clrf	(_Disp1)^080h	;volatile
	addwf	(_Disp1)^080h	;volatile

	line	44
	
l3007:	
	return
	opt stack 0
GLOBAL	__end_of_readAvgDistance
	__end_of_readAvgDistance:
;; =============== function _readAvgDistance ends ============

	signat	_readAvgDistance,88
	global	_init
psect	text1127,local,class=CODE,delta=2
global __ptext1127
__ptext1127:

;; *************** function _init *****************
;; Defined at:
;;		line 139 in file "E:\Aldnoah.Zero\Assignment3\Main.c"
;; Parameters:    Size  Location     Type
;;		None
;; Auto vars:     Size  Location     Type
;;		None
;; Return value:  Size  Location     Type
;;		None               void
;; Registers used:
;;		wreg, fsr0l, fsr0h, status,2, status,0, pclath, cstack
;; Tracked objects:
;;		On entry : 0/0
;;		On exit  : 0/0
;;		Unchanged: 0/0
;; Data sizes:     COMMON   BANK0   BANK1   BANK3   BANK2
;;      Params:         0       0       0       0       0
;;      Locals:         0       0       0       0       0
;;      Temps:          0       1       0       0       0
;;      Totals:         0       1       0       0       0
;;Total ram usage:        1 bytes
;; Hardware stack levels used:    1
;; Hardware stack levels required when called:    5
;; This function calls:
;;		_ser_init
;;		_init_adc
;;		_lcd_init
;;		_robo_init
;; This function is called by:
;;		_main
;; This function uses a non-reentrant model
;;
psect	text1127
	file	"E:\Aldnoah.Zero\Assignment3\Main.c"
	line	139
	global	__size_of_init
	__size_of_init	equ	__end_of_init-_init
	
_init:	
	opt	stack 2
; Regs used in _init: [wreg-fsr0h+status,2+status,0+pclath+cstack]
	line	140
	
l11673:	
;Main.c: 140: buttonPressed = 0;
	clrf	(_buttonPressed)	;volatile
	line	142
	
l11675:	
;Main.c: 142: TRISB = 0b11111100;
	movlw	(0FCh)
	bsf	status, 5	;RP0=1, select bank1
	bcf	status, 6	;RP1=0, select bank1
	movwf	(134)^080h	;volatile
	line	143
	
l11677:	
;Main.c: 143: TRISC &= 0b10010000;
	movlw	(090h)
	bcf	status, 5	;RP0=0, select bank0
	bcf	status, 6	;RP1=0, select bank0
	movwf	(??_init+0)+0
	movf	(??_init+0)+0,w
	bsf	status, 5	;RP0=1, select bank1
	bcf	status, 6	;RP1=0, select bank1
	andwf	(135)^080h,f	;volatile
	line	146
	
l11679:	
;Main.c: 146: SSPSTAT = 0b01000000;
	movlw	(040h)
	movwf	(148)^080h	;volatile
	line	147
	
l11681:	
;Main.c: 147: SSPCON = 0b10100001;
	movlw	(0A1h)
	bcf	status, 5	;RP0=0, select bank0
	bcf	status, 6	;RP1=0, select bank0
	movwf	(20)	;volatile
	line	150
	
l11683:	
;Main.c: 150: OPTION_REG = 0b00000100;
	movlw	(04h)
	bsf	status, 5	;RP0=1, select bank1
	bcf	status, 6	;RP1=0, select bank1
	movwf	(129)^080h	;volatile
	line	153
	
l11685:	
;Main.c: 153: ser_init();
	fcall	_ser_init
	line	154
	
l11687:	
;Main.c: 154: init_adc();
	fcall	_init_adc
	line	155
	
l11689:	
;Main.c: 155: lcd_init();
	fcall	_lcd_init
	line	156
	
l11691:	
;Main.c: 156: robo_init();
	fcall	_robo_init
	line	160
	
l11693:	
;Main.c: 160: TMR0IE = 1;
	bsf	(93/8),(93)&7
	line	162
	
l11695:	
;Main.c: 162: PEIE=1;
	bsf	(94/8),(94)&7
	line	164
	
l11697:	
;Main.c: 164: (GIE = 1);
	bsf	(95/8),(95)&7
	line	165
	
l2231:	
	return
	opt stack 0
GLOBAL	__end_of_init
	__end_of_init:
;; =============== function _init ends ============

	signat	_init,88
	global	_readDistance
psect	text1128,local,class=CODE,delta=2
global __ptext1128
__ptext1128:

;; *************** function _readDistance *****************
;; Defined at:
;;		line 49 in file "E:\Aldnoah.Zero\Assignment3\infrared.c"
;; Parameters:    Size  Location     Type
;;		None
;; Auto vars:     Size  Location     Type
;;  readVal         2   12[BANK0 ] unsigned int 
;; Return value:  Size  Location     Type
;;                  2    8[BANK0 ] unsigned int 
;; Registers used:
;;		wreg, fsr0l, fsr0h, status,2, status,0, pclath, cstack
;; Tracked objects:
;;		On entry : 0/0
;;		On exit  : 0/0
;;		Unchanged: 0/0
;; Data sizes:     COMMON   BANK0   BANK1   BANK3   BANK2
;;      Params:         0       2       0       0       0
;;      Locals:         0       2       0       0       0
;;      Temps:          0       2       0       0       0
;;      Totals:         0       6       0       0       0
;;Total ram usage:        6 bytes
;; Hardware stack levels used:    1
;; Hardware stack levels required when called:    5
;; This function calls:
;;		_adc_read_channel
;; This function is called by:
;;		_readAvgDistance
;; This function uses a non-reentrant model
;;
psect	text1128
	file	"E:\Aldnoah.Zero\Assignment3\infrared.c"
	line	49
	global	__size_of_readDistance
	__size_of_readDistance	equ	__end_of_readDistance-_readDistance
	
_readDistance:	
	opt	stack 0
; Regs used in _readDistance: [wreg-fsr0h+status,2+status,0+pclath+cstack]
	line	52
	
l11667:	
;infrared.c: 50: unsigned int readVal;
;infrared.c: 52: readVal = adc_read_channel(0);
	movlw	(0)
	fcall	_adc_read_channel
	bcf	status, 5	;RP0=0, select bank0
	bcf	status, 6	;RP1=0, select bank0
	movwf	(??_readDistance+0)+0
	clrf	(??_readDistance+0)+0+1
	movf	0+(??_readDistance+0)+0,w
	movwf	(readDistance@readVal)
	movf	1+(??_readDistance+0)+0,w
	movwf	(readDistance@readVal+1)
	line	54
	
l11669:	
;infrared.c: 54: return readVal;
	movf	(readDistance@readVal+1),w
	clrf	(?_readDistance+1)
	addwf	(?_readDistance+1)
	movf	(readDistance@readVal),w
	clrf	(?_readDistance)
	addwf	(?_readDistance)

	goto	l3010
	
l11671:	
	line	55
	
l3010:	
	return
	opt stack 0
GLOBAL	__end_of_readDistance
	__end_of_readDistance:
;; =============== function _readDistance ends ============

	signat	_readDistance,90
	global	_robot_read
psect	text1129,local,class=CODE,delta=2
global __ptext1129
__ptext1129:

;; *************** function _robot_read *****************
;; Defined at:
;;		line 46 in file "E:\Aldnoah.Zero\Assignment3\robot.c"
;; Parameters:    Size  Location     Type
;;  readType        1    wreg     unsigned char 
;; Auto vars:     Size  Location     Type
;;  readType        1    4[BANK0 ] unsigned char 
;; Return value:  Size  Location     Type
;;		None               void
;; Registers used:
;;		wreg, fsr0l, fsr0h, status,2, status,0, pclath, cstack
;; Tracked objects:
;;		On entry : 0/0
;;		On exit  : 0/0
;;		Unchanged: 0/0
;; Data sizes:     COMMON   BANK0   BANK1   BANK3   BANK2
;;      Params:         0       0       0       0       0
;;      Locals:         0       1       0       0       0
;;      Temps:          0       2       0       0       0
;;      Totals:         0       3       0       0       0
;;Total ram usage:        3 bytes
;; Hardware stack levels used:    1
;; Hardware stack levels required when called:    5
;; This function calls:
;;		_ser_putch
;;		_ser_getch
;; This function is called by:
;;		_main
;;		_robotFollow
;;		_robotMoveSpeed
;;		_robotTurnSpeed
;; This function uses a non-reentrant model
;;
psect	text1129
	file	"E:\Aldnoah.Zero\Assignment3\robot.c"
	line	46
	global	__size_of_robot_read
	__size_of_robot_read	equ	__end_of_robot_read-_robot_read
	
_robot_read:	
	opt	stack 1
; Regs used in _robot_read: [wreg-fsr0h+status,2+status,0+pclath+cstack]
;robot_read@readType stored from wreg
	bcf	status, 5	;RP0=0, select bank0
	bcf	status, 6	;RP1=0, select bank0
	movwf	(robot_read@readType)
	line	47
	
l11619:	
;robot.c: 47: ser_putch(142);
	movlw	(08Eh)
	fcall	_ser_putch
	line	48
;robot.c: 48: ser_putch(7);
	movlw	(07h)
	fcall	_ser_putch
	line	49
	
l11621:	
;robot.c: 49: _delay((unsigned long)((5)*(20000000/4000.0)));
	opt asmopt_off
movlw	33
	bcf	status, 5	;RP0=0, select bank0
	bcf	status, 6	;RP1=0, select bank0
movwf	((??_robot_read+0)+0+1),f
	movlw	118
movwf	((??_robot_read+0)+0),f
u5947:
	decfsz	((??_robot_read+0)+0),f
	goto	u5947
	decfsz	((??_robot_read+0)+0+1),f
	goto	u5947
	clrwdt
opt asmopt_on

	line	50
	
l11623:	
;robot.c: 50: BumpSensors = ser_getch();
	fcall	_ser_getch
	bcf	status, 5	;RP0=0, select bank0
	bcf	status, 6	;RP1=0, select bank0
	movwf	(??_robot_read+0)+0
	movf	(??_robot_read+0)+0,w
	bsf	status, 5	;RP0=1, select bank1
	bcf	status, 6	;RP1=0, select bank1
	movwf	(_BumpSensors)^080h	;volatile
	line	51
	
l11625:	
;robot.c: 51: ser_putch(142);
	movlw	(08Eh)
	fcall	_ser_putch
	line	52
	
l11627:	
;robot.c: 52: ser_putch(13);
	movlw	(0Dh)
	fcall	_ser_putch
	line	53
;robot.c: 53: _delay((unsigned long)((5)*(20000000/4000.0)));
	opt asmopt_off
movlw	33
	bcf	status, 5	;RP0=0, select bank0
	bcf	status, 6	;RP1=0, select bank0
movwf	((??_robot_read+0)+0+1),f
	movlw	118
movwf	((??_robot_read+0)+0),f
u5957:
	decfsz	((??_robot_read+0)+0),f
	goto	u5957
	decfsz	((??_robot_read+0)+0+1),f
	goto	u5957
	clrwdt
opt asmopt_on

	line	54
	
l11629:	
;robot.c: 54: VwallSensor = ser_getch();
	fcall	_ser_getch
	bcf	status, 5	;RP0=0, select bank0
	bcf	status, 6	;RP1=0, select bank0
	movwf	(??_robot_read+0)+0
	movf	(??_robot_read+0)+0,w
	bsf	status, 5	;RP0=1, select bank1
	bcf	status, 6	;RP1=0, select bank1
	movwf	(_VwallSensor)^080h	;volatile
	line	56
	
l11631:	
;robot.c: 56: if (readType == 0)
	bcf	status, 5	;RP0=0, select bank0
	bcf	status, 6	;RP1=0, select bank0
	movf	(robot_read@readType),f
	skipz
	goto	u5521
	goto	u5520
u5521:
	goto	l11641
u5520:
	line	58
	
l11633:	
;robot.c: 57: {
;robot.c: 58: ser_putch(142);
	movlw	(08Eh)
	fcall	_ser_putch
	line	59
;robot.c: 59: ser_putch(19);
	movlw	(013h)
	fcall	_ser_putch
	line	60
	
l11635:	
;robot.c: 60: _delay((unsigned long)((5)*(20000000/4000.0)));
	opt asmopt_off
movlw	33
	bcf	status, 5	;RP0=0, select bank0
	bcf	status, 6	;RP1=0, select bank0
movwf	((??_robot_read+0)+0+1),f
	movlw	118
movwf	((??_robot_read+0)+0),f
u5967:
	decfsz	((??_robot_read+0)+0),f
	goto	u5967
	decfsz	((??_robot_read+0)+0+1),f
	goto	u5967
	clrwdt
opt asmopt_on

	line	61
	
l11637:	
;robot.c: 61: DistHighByte = ser_getch();
	fcall	_ser_getch
	bcf	status, 5	;RP0=0, select bank0
	bcf	status, 6	;RP1=0, select bank0
	movwf	(??_robot_read+0)+0
	movf	(??_robot_read+0)+0,w
	bsf	status, 5	;RP0=1, select bank1
	bcf	status, 6	;RP1=0, select bank1
	movwf	(_DistHighByte)^080h	;volatile
	line	62
	
l11639:	
;robot.c: 62: DistLowByte = ser_getch();
	fcall	_ser_getch
	bcf	status, 5	;RP0=0, select bank0
	bcf	status, 6	;RP1=0, select bank0
	movwf	(??_robot_read+0)+0
	movf	(??_robot_read+0)+0,w
	bsf	status, 5	;RP0=1, select bank1
	bcf	status, 6	;RP1=0, select bank1
	movwf	(_DistLowByte)^080h	;volatile
	line	63
;robot.c: 63: }
	goto	l6042
	line	64
	
l6037:	
	
l11641:	
;robot.c: 64: else if (readType == 1)
	bcf	status, 5	;RP0=0, select bank0
	movf	(robot_read@readType),w
	xorlw	01h
	skipz
	goto	u5531
	goto	u5530
u5531:
	goto	l11651
u5530:
	line	66
	
l11643:	
;robot.c: 65: {
;robot.c: 66: ser_putch(142);
	movlw	(08Eh)
	fcall	_ser_putch
	line	67
;robot.c: 67: ser_putch(20);
	movlw	(014h)
	fcall	_ser_putch
	line	68
	
l11645:	
;robot.c: 68: _delay((unsigned long)((5)*(20000000/4000.0)));
	opt asmopt_off
movlw	33
	bcf	status, 5	;RP0=0, select bank0
	bcf	status, 6	;RP1=0, select bank0
movwf	((??_robot_read+0)+0+1),f
	movlw	118
movwf	((??_robot_read+0)+0),f
u5977:
	decfsz	((??_robot_read+0)+0),f
	goto	u5977
	decfsz	((??_robot_read+0)+0+1),f
	goto	u5977
	clrwdt
opt asmopt_on

	line	69
	
l11647:	
;robot.c: 69: AngleHighByte = ser_getch();
	fcall	_ser_getch
	bcf	status, 5	;RP0=0, select bank0
	bcf	status, 6	;RP1=0, select bank0
	movwf	(??_robot_read+0)+0
	movf	(??_robot_read+0)+0,w
	bsf	status, 5	;RP0=1, select bank1
	bcf	status, 6	;RP1=0, select bank1
	movwf	(_AngleHighByte)^080h	;volatile
	line	70
	
l11649:	
;robot.c: 70: AngleLowByte = ser_getch();
	fcall	_ser_getch
	bcf	status, 5	;RP0=0, select bank0
	bcf	status, 6	;RP1=0, select bank0
	movwf	(??_robot_read+0)+0
	movf	(??_robot_read+0)+0,w
	bsf	status, 5	;RP0=1, select bank1
	bcf	status, 6	;RP1=0, select bank1
	movwf	(_AngleLowByte)^080h	;volatile
	line	71
;robot.c: 71: }
	goto	l6042
	line	72
	
l6039:	
	
l11651:	
;robot.c: 72: else if (readType == 2)
	bcf	status, 5	;RP0=0, select bank0
	movf	(robot_read@readType),w
	xorlw	02h
	skipz
	goto	u5541
	goto	u5540
u5541:
	goto	l6042
u5540:
	line	75
	
l11653:	
;robot.c: 73: {
;robot.c: 75: ser_putch(142);
	movlw	(08Eh)
	fcall	_ser_putch
	line	76
;robot.c: 76: ser_putch(19);
	movlw	(013h)
	fcall	_ser_putch
	line	77
	
l11655:	
;robot.c: 77: _delay((unsigned long)((5)*(20000000/4000.0)));
	opt asmopt_off
movlw	33
	bcf	status, 5	;RP0=0, select bank0
	bcf	status, 6	;RP1=0, select bank0
movwf	((??_robot_read+0)+0+1),f
	movlw	118
movwf	((??_robot_read+0)+0),f
u5987:
	decfsz	((??_robot_read+0)+0),f
	goto	u5987
	decfsz	((??_robot_read+0)+0+1),f
	goto	u5987
	clrwdt
opt asmopt_on

	line	78
	
l11657:	
;robot.c: 78: DistHighByte = ser_getch();
	fcall	_ser_getch
	bcf	status, 5	;RP0=0, select bank0
	bcf	status, 6	;RP1=0, select bank0
	movwf	(??_robot_read+0)+0
	movf	(??_robot_read+0)+0,w
	bsf	status, 5	;RP0=1, select bank1
	bcf	status, 6	;RP1=0, select bank1
	movwf	(_DistHighByte)^080h	;volatile
	line	79
	
l11659:	
;robot.c: 79: DistLowByte = ser_getch();
	fcall	_ser_getch
	bcf	status, 5	;RP0=0, select bank0
	bcf	status, 6	;RP1=0, select bank0
	movwf	(??_robot_read+0)+0
	movf	(??_robot_read+0)+0,w
	bsf	status, 5	;RP0=1, select bank1
	bcf	status, 6	;RP1=0, select bank1
	movwf	(_DistLowByte)^080h	;volatile
	line	80
	
l11661:	
;robot.c: 80: ser_putch(142);
	movlw	(08Eh)
	fcall	_ser_putch
	line	81
	
l11663:	
;robot.c: 81: ser_putch(20);
	movlw	(014h)
	fcall	_ser_putch
	line	82
	
l11665:	
;robot.c: 82: _delay((unsigned long)((5)*(20000000/4000.0)));
	opt asmopt_off
movlw	33
	bcf	status, 5	;RP0=0, select bank0
	bcf	status, 6	;RP1=0, select bank0
movwf	((??_robot_read+0)+0+1),f
	movlw	118
movwf	((??_robot_read+0)+0),f
u5997:
	decfsz	((??_robot_read+0)+0),f
	goto	u5997
	decfsz	((??_robot_read+0)+0+1),f
	goto	u5997
	clrwdt
opt asmopt_on

	line	83
;robot.c: 83: AngleHighByte = ser_getch();
	fcall	_ser_getch
	bcf	status, 5	;RP0=0, select bank0
	bcf	status, 6	;RP1=0, select bank0
	movwf	(??_robot_read+0)+0
	movf	(??_robot_read+0)+0,w
	bsf	status, 5	;RP0=1, select bank1
	bcf	status, 6	;RP1=0, select bank1
	movwf	(_AngleHighByte)^080h	;volatile
	line	84
;robot.c: 84: AngleLowByte = ser_getch();
	fcall	_ser_getch
	bcf	status, 5	;RP0=0, select bank0
	bcf	status, 6	;RP1=0, select bank0
	movwf	(??_robot_read+0)+0
	movf	(??_robot_read+0)+0,w
	bsf	status, 5	;RP0=1, select bank1
	bcf	status, 6	;RP1=0, select bank1
	movwf	(_AngleLowByte)^080h	;volatile
	goto	l6042
	line	85
	
l6041:	
	goto	l6042
	line	86
	
l6040:	
	goto	l6042
	
l6038:	
	
l6042:	
	return
	opt stack 0
GLOBAL	__end_of_robot_read
	__end_of_robot_read:
;; =============== function _robot_read ends ============

	signat	_robot_read,4216
	global	_lcd_init
psect	text1130,local,class=CODE,delta=2
global __ptext1130
__ptext1130:

;; *************** function _lcd_init *****************
;; Defined at:
;;		line 101 in file "E:\Aldnoah.Zero\Assignment3\lcd.c"
;; Parameters:    Size  Location     Type
;;		None
;; Auto vars:     Size  Location     Type
;;		None
;; Return value:  Size  Location     Type
;;		None               void
;; Registers used:
;;		wreg, status,2, status,0, pclath, cstack
;; Tracked objects:
;;		On entry : 0/0
;;		On exit  : 0/0
;;		Unchanged: 0/0
;; Data sizes:     COMMON   BANK0   BANK1   BANK3   BANK2
;;      Params:         0       0       0       0       0
;;      Locals:         0       0       0       0       0
;;      Temps:          0       0       0       0       0
;;      Totals:         0       0       0       0       0
;;Total ram usage:        0 bytes
;; Hardware stack levels used:    1
;; Hardware stack levels required when called:    4
;; This function calls:
;;		_lcd_write_control
;; This function is called by:
;;		_init
;; This function uses a non-reentrant model
;;
psect	text1130
	file	"E:\Aldnoah.Zero\Assignment3\lcd.c"
	line	101
	global	__size_of_lcd_init
	__size_of_lcd_init	equ	__end_of_lcd_init-_lcd_init
	
_lcd_init:	
	opt	stack 2
; Regs used in _lcd_init: [wreg+status,2+status,0+pclath+cstack]
	line	105
	
l11599:	
;lcd.c: 105: ADCON1 = 0b00000010;
	movlw	(02h)
	bsf	status, 5	;RP0=1, select bank1
	bcf	status, 6	;RP1=0, select bank1
	movwf	(159)^080h	;volatile
	line	108
	
l11601:	
;lcd.c: 108: PORTD = 0;
	bcf	status, 5	;RP0=0, select bank0
	bcf	status, 6	;RP1=0, select bank0
	clrf	(8)	;volatile
	line	109
	
l11603:	
;lcd.c: 109: PORTE = 0;
	clrf	(9)	;volatile
	line	111
	
l11605:	
;lcd.c: 111: TRISD = 0b00000000;
	bsf	status, 5	;RP0=1, select bank1
	bcf	status, 6	;RP1=0, select bank1
	clrf	(136)^080h	;volatile
	line	112
	
l11607:	
;lcd.c: 112: TRISE = 0b00000000;
	clrf	(137)^080h	;volatile
	line	115
	
l11609:	
;lcd.c: 115: lcd_write_control(0b00000001);
	movlw	(01h)
	fcall	_lcd_write_control
	line	116
	
l11611:	
;lcd.c: 116: lcd_write_control(0b00111000);
	movlw	(038h)
	fcall	_lcd_write_control
	line	117
	
l11613:	
;lcd.c: 117: lcd_write_control(0b00001100);
	movlw	(0Ch)
	fcall	_lcd_write_control
	line	118
	
l11615:	
;lcd.c: 118: lcd_write_control(0b00000110);
	movlw	(06h)
	fcall	_lcd_write_control
	line	119
	
l11617:	
;lcd.c: 119: lcd_write_control(0b00000010);
	movlw	(02h)
	fcall	_lcd_write_control
	line	121
	
l1429:	
	return
	opt stack 0
GLOBAL	__end_of_lcd_init
	__end_of_lcd_init:
;; =============== function _lcd_init ends ============

	signat	_lcd_init,88
	global	_lcd_write_string
psect	text1131,local,class=CODE,delta=2
global __ptext1131
__ptext1131:

;; *************** function _lcd_write_string *****************
;; Defined at:
;;		line 48 in file "E:\Aldnoah.Zero\Assignment3\lcd.c"
;; Parameters:    Size  Location     Type
;;  s               2    7[BANK0 ] PTR unsigned char 
;;		 -> STR_19(9), STR_18(16), STR_17(4), STR_16(8), 
;;		 -> STR_15(4), STR_14(16), UpdateDisplay@LCDOutput(16), STR_12(4), 
;;		 -> STR_11(4), STR_10(4), STR_9(4), STR_8(4), 
;;		 -> STR_7(4), STR_6(9), STR_5(9), STR_4(8), 
;;		 -> STR_3(9), STR_2(9), STR_1(9), 
;; Auto vars:     Size  Location     Type
;;		None
;; Return value:  Size  Location     Type
;;		None               void
;; Registers used:
;;		wreg, fsr0l, fsr0h, status,2, status,0, btemp+1, pclath, cstack
;; Tracked objects:
;;		On entry : 0/0
;;		On exit  : 0/0
;;		Unchanged: 0/0
;; Data sizes:     COMMON   BANK0   BANK1   BANK3   BANK2
;;      Params:         0       2       0       0       0
;;      Locals:         0       0       0       0       0
;;      Temps:          0       0       0       0       0
;;      Totals:         0       2       0       0       0
;;Total ram usage:        2 bytes
;; Hardware stack levels used:    1
;; Hardware stack levels required when called:    4
;; This function calls:
;;		_lcd_write_data
;; This function is called by:
;;		_UpdateDisplay
;; This function uses a non-reentrant model
;;
psect	text1131
	file	"E:\Aldnoah.Zero\Assignment3\lcd.c"
	line	48
	global	__size_of_lcd_write_string
	__size_of_lcd_write_string	equ	__end_of_lcd_write_string-_lcd_write_string
	
_lcd_write_string:	
	opt	stack 1
; Regs used in _lcd_write_string: [wreg-fsr0h+status,2+status,0+btemp+1+pclath+cstack]
	line	50
	
l11591:	
;lcd.c: 50: while(*s) lcd_write_data(*s++);
	goto	l11597
	
l1409:	
	
l11593:	
	bcf	status, 5	;RP0=0, select bank0
	bcf	status, 6	;RP1=0, select bank0
	movf	(lcd_write_string@s+1),w
	movwf	btemp+1
	movf	(lcd_write_string@s),w
	movwf	fsr0
	fcall	stringtab
	fcall	_lcd_write_data
	
l11595:	
	movlw	low(01h)
	bcf	status, 5	;RP0=0, select bank0
	bcf	status, 6	;RP1=0, select bank0
	addwf	(lcd_write_string@s),f
	skipnc
	incf	(lcd_write_string@s+1),f
	movlw	high(01h)
	addwf	(lcd_write_string@s+1),f
	goto	l11597
	
l1408:	
	
l11597:	
	bcf	status, 5	;RP0=0, select bank0
	bcf	status, 6	;RP1=0, select bank0
	movf	(lcd_write_string@s+1),w
	movwf	btemp+1
	movf	(lcd_write_string@s),w
	movwf	fsr0
	fcall	stringtab
	iorlw	0
	skipz
	goto	u5511
	goto	u5510
u5511:
	goto	l11593
u5510:
	goto	l1411
	
l1410:	
	line	51
	
l1411:	
	return
	opt stack 0
GLOBAL	__end_of_lcd_write_string
	__end_of_lcd_write_string:
;; =============== function _lcd_write_string ends ============

	signat	_lcd_write_string,4216
	global	_lcd_set_cursor
psect	text1132,local,class=CODE,delta=2
global __ptext1132
__ptext1132:

;; *************** function _lcd_set_cursor *****************
;; Defined at:
;;		line 42 in file "E:\Aldnoah.Zero\Assignment3\lcd.c"
;; Parameters:    Size  Location     Type
;;  address         1    wreg     unsigned char 
;; Auto vars:     Size  Location     Type
;;  address         1    3[BANK0 ] unsigned char 
;; Return value:  Size  Location     Type
;;		None               void
;; Registers used:
;;		wreg, status,2, status,0, pclath, cstack
;; Tracked objects:
;;		On entry : 0/0
;;		On exit  : 0/0
;;		Unchanged: 0/0
;; Data sizes:     COMMON   BANK0   BANK1   BANK3   BANK2
;;      Params:         0       0       0       0       0
;;      Locals:         0       1       0       0       0
;;      Temps:          0       0       0       0       0
;;      Totals:         0       1       0       0       0
;;Total ram usage:        1 bytes
;; Hardware stack levels used:    1
;; Hardware stack levels required when called:    4
;; This function calls:
;;		_lcd_write_control
;; This function is called by:
;;		_UpdateDisplay
;; This function uses a non-reentrant model
;;
psect	text1132
	file	"E:\Aldnoah.Zero\Assignment3\lcd.c"
	line	42
	global	__size_of_lcd_set_cursor
	__size_of_lcd_set_cursor	equ	__end_of_lcd_set_cursor-_lcd_set_cursor
	
_lcd_set_cursor:	
	opt	stack 1
; Regs used in _lcd_set_cursor: [wreg+status,2+status,0+pclath+cstack]
;lcd_set_cursor@address stored from wreg
	bcf	status, 5	;RP0=0, select bank0
	bcf	status, 6	;RP1=0, select bank0
	movwf	(lcd_set_cursor@address)
	line	43
	
l11587:	
;lcd.c: 43: address |= 0b10000000;
	bsf	(lcd_set_cursor@address)+(7/8),(7)&7
	line	44
	
l11589:	
;lcd.c: 44: lcd_write_control(address);
	movf	(lcd_set_cursor@address),w
	fcall	_lcd_write_control
	line	45
	
l1405:	
	return
	opt stack 0
GLOBAL	__end_of_lcd_set_cursor
	__end_of_lcd_set_cursor:
;; =============== function _lcd_set_cursor ends ============

	signat	_lcd_set_cursor,4216
	global	___awtoft
psect	text1133,local,class=CODE,delta=2
global __ptext1133
__ptext1133:

;; *************** function ___awtoft *****************
;; Defined at:
;;		line 33 in file "C:\Program Files\HI-TECH Software\PICC\9.83\sources\awtoft.c"
;; Parameters:    Size  Location     Type
;;  c               2   22[BANK0 ] int 
;; Auto vars:     Size  Location     Type
;;  sign            1   27[BANK0 ] unsigned char 
;; Return value:  Size  Location     Type
;;                  3   22[BANK0 ] float 
;; Registers used:
;;		wreg, status,2, status,0, pclath, cstack
;; Tracked objects:
;;		On entry : 0/0
;;		On exit  : 0/0
;;		Unchanged: 0/0
;; Data sizes:     COMMON   BANK0   BANK1   BANK3   BANK2
;;      Params:         0       3       0       0       0
;;      Locals:         0       1       0       0       0
;;      Temps:          0       2       0       0       0
;;      Totals:         0       6       0       0       0
;;Total ram usage:        6 bytes
;; Hardware stack levels used:    1
;; Hardware stack levels required when called:    4
;; This function calls:
;;		___ftpack
;; This function is called by:
;;		_main
;;		_robotFollow
;;		_robotMoveSpeed
;; This function uses a non-reentrant model
;;
psect	text1133
	file	"C:\Program Files\HI-TECH Software\PICC\9.83\sources\awtoft.c"
	line	33
	global	__size_of___awtoft
	__size_of___awtoft	equ	__end_of___awtoft-___awtoft
	
___awtoft:	
	opt	stack 3
; Regs used in ___awtoft: [wreg+status,2+status,0+pclath+cstack]
	line	36
	
l11579:	
	bcf	status, 5	;RP0=0, select bank0
	bcf	status, 6	;RP1=0, select bank0
	clrf	(___awtoft@sign)
	line	37
	btfss	(___awtoft@c+1),7
	goto	u5501
	goto	u5500
u5501:
	goto	l11583
u5500:
	line	38
	
l11581:	
	comf	(___awtoft@c),f
	comf	(___awtoft@c+1),f
	incf	(___awtoft@c),f
	skipnz
	incf	(___awtoft@c+1),f
	line	39
	clrf	(___awtoft@sign)
	bsf	status,0
	rlf	(___awtoft@sign),f
	goto	l11583
	line	40
	
l7669:	
	line	41
	
l11583:	
	movf	(___awtoft@c),w
	movwf	(?___ftpack)
	movf	(___awtoft@c+1),w
	movwf	(?___ftpack+1)
	clrf	(?___ftpack+2)
	movlw	(08Eh)
	movwf	(??___awtoft+0)+0
	movf	(??___awtoft+0)+0,w
	movwf	0+(?___ftpack)+03h
	movf	(___awtoft@sign),w
	movwf	(??___awtoft+1)+0
	movf	(??___awtoft+1)+0,w
	movwf	0+(?___ftpack)+04h
	fcall	___ftpack
	bcf	status, 5	;RP0=0, select bank0
	bcf	status, 6	;RP1=0, select bank0
	movf	(0+(?___ftpack)),w
	movwf	(?___awtoft)
	movf	(1+(?___ftpack)),w
	movwf	(?___awtoft+1)
	movf	(2+(?___ftpack)),w
	movwf	(?___awtoft+2)
	goto	l7670
	
l11585:	
	line	42
	
l7670:	
	return
	opt stack 0
GLOBAL	__end_of___awtoft
	__end_of___awtoft:
;; =============== function ___awtoft ends ============

	signat	___awtoft,4219
	global	___ftmul
psect	text1134,local,class=CODE,delta=2
global __ptext1134
__ptext1134:

;; *************** function ___ftmul *****************
;; Defined at:
;;		line 52 in file "C:\Program Files\HI-TECH Software\PICC\9.83\sources\ftmul.c"
;; Parameters:    Size  Location     Type
;;  f1              3   38[BANK0 ] float 
;;  f2              3   41[BANK0 ] float 
;; Auto vars:     Size  Location     Type
;;  f3_as_produc    3   49[BANK0 ] unsigned um
;;  sign            1   53[BANK0 ] unsigned char 
;;  cntr            1   52[BANK0 ] unsigned char 
;;  exp             1   48[BANK0 ] unsigned char 
;; Return value:  Size  Location     Type
;;                  3   38[BANK0 ] float 
;; Registers used:
;;		wreg, status,2, status,0, pclath, cstack
;; Tracked objects:
;;		On entry : 0/0
;;		On exit  : 0/0
;;		Unchanged: 0/0
;; Data sizes:     COMMON   BANK0   BANK1   BANK3   BANK2
;;      Params:         0       6       0       0       0
;;      Locals:         0       6       0       0       0
;;      Temps:          0       4       0       0       0
;;      Totals:         0      16       0       0       0
;;Total ram usage:       16 bytes
;; Hardware stack levels used:    1
;; Hardware stack levels required when called:    4
;; This function calls:
;;		___ftpack
;; This function is called by:
;;		_main
;;		_robotFollow
;;		_robotMoveSpeed
;; This function uses a non-reentrant model
;;
psect	text1134
	file	"C:\Program Files\HI-TECH Software\PICC\9.83\sources\ftmul.c"
	line	52
	global	__size_of___ftmul
	__size_of___ftmul	equ	__end_of___ftmul-___ftmul
	
___ftmul:	
	opt	stack 3
; Regs used in ___ftmul: [wreg+status,2+status,0+pclath+cstack]
	line	56
	
l11529:	
	bcf	status, 5	;RP0=0, select bank0
	bcf	status, 6	;RP1=0, select bank0
	movf	(___ftmul@f1),w
	movwf	((??___ftmul+0)+0)
	movf	(___ftmul@f1+1),w
	movwf	((??___ftmul+0)+0+1)
	movf	(___ftmul@f1+2),w
	movwf	((??___ftmul+0)+0+2)
	clrc
	rlf	(??___ftmul+0)+1,w
	rlf	(??___ftmul+0)+2,w
	movwf	(??___ftmul+3)+0
	movf	(??___ftmul+3)+0,w
	movwf	(___ftmul@exp)
	movf	((___ftmul@exp)),f
	skipz
	goto	u5361
	goto	u5360
u5361:
	goto	l11535
u5360:
	line	57
	
l11531:	
	movlw	0x0
	movwf	(?___ftmul)
	movlw	0x0
	movwf	(?___ftmul+1)
	movlw	0x0
	movwf	(?___ftmul+2)
	goto	l7632
	
l11533:	
	goto	l7632
	
l7631:	
	line	58
	
l11535:	
	movf	(___ftmul@f2),w
	movwf	((??___ftmul+0)+0)
	movf	(___ftmul@f2+1),w
	movwf	((??___ftmul+0)+0+1)
	movf	(___ftmul@f2+2),w
	movwf	((??___ftmul+0)+0+2)
	clrc
	rlf	(??___ftmul+0)+1,w
	rlf	(??___ftmul+0)+2,w
	movwf	(??___ftmul+3)+0
	movf	(??___ftmul+3)+0,w
	movwf	(___ftmul@sign)
	movf	((___ftmul@sign)),f
	skipz
	goto	u5371
	goto	u5370
u5371:
	goto	l11541
u5370:
	line	59
	
l11537:	
	movlw	0x0
	movwf	(?___ftmul)
	movlw	0x0
	movwf	(?___ftmul+1)
	movlw	0x0
	movwf	(?___ftmul+2)
	goto	l7632
	
l11539:	
	goto	l7632
	
l7633:	
	line	60
	
l11541:	
	movf	(___ftmul@sign),w
	addlw	07Bh
	movwf	(??___ftmul+0)+0
	movf	(??___ftmul+0)+0,w
	addwf	(___ftmul@exp),f
	line	61
	movf	(___ftmul@f1),w
	movwf	((??___ftmul+0)+0)
	movf	(___ftmul@f1+1),w
	movwf	((??___ftmul+0)+0+1)
	movf	(___ftmul@f1+2),w
	movwf	((??___ftmul+0)+0+2)
	movlw	010h
u5385:
	clrc
	rrf	(??___ftmul+0)+2,f
	rrf	(??___ftmul+0)+1,f
	rrf	(??___ftmul+0)+0,f
u5380:
	addlw	-1
	skipz
	goto	u5385
	movf	0+(??___ftmul+0)+0,w
	movwf	(??___ftmul+3)+0
	movf	(??___ftmul+3)+0,w
	movwf	(___ftmul@sign)
	line	62
	movf	(___ftmul@f2),w
	movwf	((??___ftmul+0)+0)
	movf	(___ftmul@f2+1),w
	movwf	((??___ftmul+0)+0+1)
	movf	(___ftmul@f2+2),w
	movwf	((??___ftmul+0)+0+2)
	movlw	010h
u5395:
	clrc
	rrf	(??___ftmul+0)+2,f
	rrf	(??___ftmul+0)+1,f
	rrf	(??___ftmul+0)+0,f
u5390:
	addlw	-1
	skipz
	goto	u5395
	movf	0+(??___ftmul+0)+0,w
	movwf	(??___ftmul+3)+0
	movf	(??___ftmul+3)+0,w
	xorwf	(___ftmul@sign),f
	line	63
	movlw	(080h)
	movwf	(??___ftmul+0)+0
	movf	(??___ftmul+0)+0,w
	andwf	(___ftmul@sign),f
	line	64
	
l11543:	
	bsf	(___ftmul@f1)+(15/8),(15)&7
	line	66
	
l11545:	
	bsf	(___ftmul@f2)+(15/8),(15)&7
	line	67
	
l11547:	
	movlw	0FFh
	andwf	(___ftmul@f2),f
	movlw	0FFh
	andwf	(___ftmul@f2+1),f
	movlw	0
	andwf	(___ftmul@f2+2),f
	line	68
	
l11549:	
	movlw	0
	movwf	(___ftmul@f3_as_product)
	movlw	0
	movwf	(___ftmul@f3_as_product+1)
	movlw	0
	movwf	(___ftmul@f3_as_product+2)
	line	69
	
l11551:	
	movlw	(07h)
	movwf	(??___ftmul+0)+0
	movf	(??___ftmul+0)+0,w
	movwf	(___ftmul@cntr)
	goto	l11553
	line	70
	
l7634:	
	line	71
	
l11553:	
	btfss	(___ftmul@f1),(0)&7
	goto	u5401
	goto	u5400
u5401:
	goto	l11557
u5400:
	line	72
	
l11555:	
	movf	(___ftmul@f2),w
	addwf	(___ftmul@f3_as_product),f
	movf	(___ftmul@f2+1),w
	clrz
	skipnc
	incf	(___ftmul@f2+1),w
	skipnz
	goto	u5411
	addwf	(___ftmul@f3_as_product+1),f
u5411:
	movf	(___ftmul@f2+2),w
	clrz
	skipnc
	incf	(___ftmul@f2+2),w
	skipnz
	goto	u5412
	addwf	(___ftmul@f3_as_product+2),f
u5412:

	goto	l11557
	
l7635:	
	line	73
	
l11557:	
	movlw	01h
u5425:
	clrc
	rrf	(___ftmul@f1+2),f
	rrf	(___ftmul@f1+1),f
	rrf	(___ftmul@f1),f
	addlw	-1
	skipz
	goto	u5425

	line	74
	
l11559:	
	movlw	01h
u5435:
	clrc
	rlf	(___ftmul@f2),f
	rlf	(___ftmul@f2+1),f
	rlf	(___ftmul@f2+2),f
	addlw	-1
	skipz
	goto	u5435
	line	75
	
l11561:	
	movlw	low(01h)
	subwf	(___ftmul@cntr),f
	btfss	status,2
	goto	u5441
	goto	u5440
u5441:
	goto	l11553
u5440:
	goto	l11563
	
l7636:	
	line	76
	
l11563:	
	movlw	(09h)
	movwf	(??___ftmul+0)+0
	movf	(??___ftmul+0)+0,w
	movwf	(___ftmul@cntr)
	goto	l11565
	line	77
	
l7637:	
	line	78
	
l11565:	
	btfss	(___ftmul@f1),(0)&7
	goto	u5451
	goto	u5450
u5451:
	goto	l11569
u5450:
	line	79
	
l11567:	
	movf	(___ftmul@f2),w
	addwf	(___ftmul@f3_as_product),f
	movf	(___ftmul@f2+1),w
	clrz
	skipnc
	incf	(___ftmul@f2+1),w
	skipnz
	goto	u5461
	addwf	(___ftmul@f3_as_product+1),f
u5461:
	movf	(___ftmul@f2+2),w
	clrz
	skipnc
	incf	(___ftmul@f2+2),w
	skipnz
	goto	u5462
	addwf	(___ftmul@f3_as_product+2),f
u5462:

	goto	l11569
	
l7638:	
	line	80
	
l11569:	
	movlw	01h
u5475:
	clrc
	rrf	(___ftmul@f1+2),f
	rrf	(___ftmul@f1+1),f
	rrf	(___ftmul@f1),f
	addlw	-1
	skipz
	goto	u5475

	line	81
	
l11571:	
	movlw	01h
u5485:
	clrc
	rrf	(___ftmul@f3_as_product+2),f
	rrf	(___ftmul@f3_as_product+1),f
	rrf	(___ftmul@f3_as_product),f
	addlw	-1
	skipz
	goto	u5485

	line	82
	
l11573:	
	movlw	low(01h)
	subwf	(___ftmul@cntr),f
	btfss	status,2
	goto	u5491
	goto	u5490
u5491:
	goto	l11565
u5490:
	goto	l11575
	
l7639:	
	line	83
	
l11575:	
	movf	(___ftmul@f3_as_product),w
	movwf	(?___ftpack)
	movf	(___ftmul@f3_as_product+1),w
	movwf	(?___ftpack+1)
	movf	(___ftmul@f3_as_product+2),w
	movwf	(?___ftpack+2)
	movf	(___ftmul@exp),w
	movwf	(??___ftmul+0)+0
	movf	(??___ftmul+0)+0,w
	movwf	0+(?___ftpack)+03h
	movf	(___ftmul@sign),w
	movwf	(??___ftmul+1)+0
	movf	(??___ftmul+1)+0,w
	movwf	0+(?___ftpack)+04h
	fcall	___ftpack
	bcf	status, 5	;RP0=0, select bank0
	bcf	status, 6	;RP1=0, select bank0
	movf	(0+(?___ftpack)),w
	movwf	(?___ftmul)
	movf	(1+(?___ftpack)),w
	movwf	(?___ftmul+1)
	movf	(2+(?___ftpack)),w
	movwf	(?___ftmul+2)
	goto	l7632
	
l11577:	
	line	84
	
l7632:	
	return
	opt stack 0
GLOBAL	__end_of___ftmul
	__end_of___ftmul:
;; =============== function ___ftmul ends ============

	signat	___ftmul,8315
	global	___ftdiv
psect	text1135,local,class=CODE,delta=2
global __ptext1135
__ptext1135:

;; *************** function ___ftdiv *****************
;; Defined at:
;;		line 50 in file "C:\Program Files\HI-TECH Software\PICC\9.83\sources\ftdiv.c"
;; Parameters:    Size  Location     Type
;;  f2              3   22[BANK0 ] float 
;;  f1              3   25[BANK0 ] float 
;; Auto vars:     Size  Location     Type
;;  f3              3   33[BANK0 ] float 
;;  sign            1   37[BANK0 ] unsigned char 
;;  exp             1   36[BANK0 ] unsigned char 
;;  cntr            1   32[BANK0 ] unsigned char 
;; Return value:  Size  Location     Type
;;                  3   22[BANK0 ] float 
;; Registers used:
;;		wreg, status,2, status,0, pclath, cstack
;; Tracked objects:
;;		On entry : 0/0
;;		On exit  : 0/0
;;		Unchanged: 0/0
;; Data sizes:     COMMON   BANK0   BANK1   BANK3   BANK2
;;      Params:         0       6       0       0       0
;;      Locals:         0       6       0       0       0
;;      Temps:          0       4       0       0       0
;;      Totals:         0      16       0       0       0
;;Total ram usage:       16 bytes
;; Hardware stack levels used:    1
;; Hardware stack levels required when called:    4
;; This function calls:
;;		___ftpack
;; This function is called by:
;;		_robotFollow
;;		_robotMoveSpeed
;; This function uses a non-reentrant model
;;
psect	text1135
	file	"C:\Program Files\HI-TECH Software\PICC\9.83\sources\ftdiv.c"
	line	50
	global	__size_of___ftdiv
	__size_of___ftdiv	equ	__end_of___ftdiv-___ftdiv
	
___ftdiv:	
	opt	stack 2
; Regs used in ___ftdiv: [wreg+status,2+status,0+pclath+cstack]
	line	55
	
l11487:	
	bcf	status, 5	;RP0=0, select bank0
	bcf	status, 6	;RP1=0, select bank0
	movf	(___ftdiv@f1),w
	movwf	((??___ftdiv+0)+0)
	movf	(___ftdiv@f1+1),w
	movwf	((??___ftdiv+0)+0+1)
	movf	(___ftdiv@f1+2),w
	movwf	((??___ftdiv+0)+0+2)
	clrc
	rlf	(??___ftdiv+0)+1,w
	rlf	(??___ftdiv+0)+2,w
	movwf	(??___ftdiv+3)+0
	movf	(??___ftdiv+3)+0,w
	movwf	(___ftdiv@exp)
	movf	((___ftdiv@exp)),f
	skipz
	goto	u5281
	goto	u5280
u5281:
	goto	l11493
u5280:
	line	56
	
l11489:	
	movlw	0x0
	movwf	(?___ftdiv)
	movlw	0x0
	movwf	(?___ftdiv+1)
	movlw	0x0
	movwf	(?___ftdiv+2)
	goto	l7622
	
l11491:	
	goto	l7622
	
l7621:	
	line	57
	
l11493:	
	movf	(___ftdiv@f2),w
	movwf	((??___ftdiv+0)+0)
	movf	(___ftdiv@f2+1),w
	movwf	((??___ftdiv+0)+0+1)
	movf	(___ftdiv@f2+2),w
	movwf	((??___ftdiv+0)+0+2)
	clrc
	rlf	(??___ftdiv+0)+1,w
	rlf	(??___ftdiv+0)+2,w
	movwf	(??___ftdiv+3)+0
	movf	(??___ftdiv+3)+0,w
	movwf	(___ftdiv@sign)
	movf	((___ftdiv@sign)),f
	skipz
	goto	u5291
	goto	u5290
u5291:
	goto	l11499
u5290:
	line	58
	
l11495:	
	movlw	0x0
	movwf	(?___ftdiv)
	movlw	0x0
	movwf	(?___ftdiv+1)
	movlw	0x0
	movwf	(?___ftdiv+2)
	goto	l7622
	
l11497:	
	goto	l7622
	
l7623:	
	line	59
	
l11499:	
	movlw	0
	movwf	(___ftdiv@f3)
	movlw	0
	movwf	(___ftdiv@f3+1)
	movlw	0
	movwf	(___ftdiv@f3+2)
	line	60
	
l11501:	
	movlw	(089h)
	addwf	(___ftdiv@sign),w
	movwf	(??___ftdiv+0)+0
	movf	0+(??___ftdiv+0)+0,w
	subwf	(___ftdiv@exp),f
	line	61
	
l11503:	
	movf	(___ftdiv@f1),w
	movwf	((??___ftdiv+0)+0)
	movf	(___ftdiv@f1+1),w
	movwf	((??___ftdiv+0)+0+1)
	movf	(___ftdiv@f1+2),w
	movwf	((??___ftdiv+0)+0+2)
	movlw	010h
u5305:
	clrc
	rrf	(??___ftdiv+0)+2,f
	rrf	(??___ftdiv+0)+1,f
	rrf	(??___ftdiv+0)+0,f
u5300:
	addlw	-1
	skipz
	goto	u5305
	movf	0+(??___ftdiv+0)+0,w
	movwf	(??___ftdiv+3)+0
	movf	(??___ftdiv+3)+0,w
	movwf	(___ftdiv@sign)
	line	62
	
l11505:	
	movf	(___ftdiv@f2),w
	movwf	((??___ftdiv+0)+0)
	movf	(___ftdiv@f2+1),w
	movwf	((??___ftdiv+0)+0+1)
	movf	(___ftdiv@f2+2),w
	movwf	((??___ftdiv+0)+0+2)
	movlw	010h
u5315:
	clrc
	rrf	(??___ftdiv+0)+2,f
	rrf	(??___ftdiv+0)+1,f
	rrf	(??___ftdiv+0)+0,f
u5310:
	addlw	-1
	skipz
	goto	u5315
	movf	0+(??___ftdiv+0)+0,w
	movwf	(??___ftdiv+3)+0
	movf	(??___ftdiv+3)+0,w
	xorwf	(___ftdiv@sign),f
	line	63
	
l11507:	
	movlw	(080h)
	movwf	(??___ftdiv+0)+0
	movf	(??___ftdiv+0)+0,w
	andwf	(___ftdiv@sign),f
	line	64
	
l11509:	
	bsf	(___ftdiv@f1)+(15/8),(15)&7
	line	65
	movlw	0FFh
	andwf	(___ftdiv@f1),f
	movlw	0FFh
	andwf	(___ftdiv@f1+1),f
	movlw	0
	andwf	(___ftdiv@f1+2),f
	line	66
	
l11511:	
	bsf	(___ftdiv@f2)+(15/8),(15)&7
	line	67
	movlw	0FFh
	andwf	(___ftdiv@f2),f
	movlw	0FFh
	andwf	(___ftdiv@f2+1),f
	movlw	0
	andwf	(___ftdiv@f2+2),f
	line	68
	movlw	(018h)
	movwf	(??___ftdiv+0)+0
	movf	(??___ftdiv+0)+0,w
	movwf	(___ftdiv@cntr)
	goto	l11513
	line	69
	
l7624:	
	line	70
	
l11513:	
	movlw	01h
u5325:
	clrc
	rlf	(___ftdiv@f3),f
	rlf	(___ftdiv@f3+1),f
	rlf	(___ftdiv@f3+2),f
	addlw	-1
	skipz
	goto	u5325
	line	71
	
l11515:	
	movf	(___ftdiv@f2+2),w
	subwf	(___ftdiv@f1+2),w
	skipz
	goto	u5335
	movf	(___ftdiv@f2+1),w
	subwf	(___ftdiv@f1+1),w
	skipz
	goto	u5335
	movf	(___ftdiv@f2),w
	subwf	(___ftdiv@f1),w
u5335:
	skipc
	goto	u5331
	goto	u5330
u5331:
	goto	l11521
u5330:
	line	72
	
l11517:	
	movf	(___ftdiv@f2),w
	subwf	(___ftdiv@f1),f
	movf	(___ftdiv@f2+1),w
	skipc
	incfsz	(___ftdiv@f2+1),w
	subwf	(___ftdiv@f1+1),f
	movf	(___ftdiv@f2+2),w
	skipc
	incf	(___ftdiv@f2+2),w
	subwf	(___ftdiv@f1+2),f
	line	73
	
l11519:	
	bsf	(___ftdiv@f3)+(0/8),(0)&7
	goto	l11521
	line	74
	
l7625:	
	line	75
	
l11521:	
	movlw	01h
u5345:
	clrc
	rlf	(___ftdiv@f1),f
	rlf	(___ftdiv@f1+1),f
	rlf	(___ftdiv@f1+2),f
	addlw	-1
	skipz
	goto	u5345
	line	76
	
l11523:	
	movlw	low(01h)
	subwf	(___ftdiv@cntr),f
	btfss	status,2
	goto	u5351
	goto	u5350
u5351:
	goto	l11513
u5350:
	goto	l11525
	
l7626:	
	line	77
	
l11525:	
	movf	(___ftdiv@f3),w
	movwf	(?___ftpack)
	movf	(___ftdiv@f3+1),w
	movwf	(?___ftpack+1)
	movf	(___ftdiv@f3+2),w
	movwf	(?___ftpack+2)
	movf	(___ftdiv@exp),w
	movwf	(??___ftdiv+0)+0
	movf	(??___ftdiv+0)+0,w
	movwf	0+(?___ftpack)+03h
	movf	(___ftdiv@sign),w
	movwf	(??___ftdiv+1)+0
	movf	(??___ftdiv+1)+0,w
	movwf	0+(?___ftpack)+04h
	fcall	___ftpack
	bcf	status, 5	;RP0=0, select bank0
	bcf	status, 6	;RP1=0, select bank0
	movf	(0+(?___ftpack)),w
	movwf	(?___ftdiv)
	movf	(1+(?___ftpack)),w
	movwf	(?___ftdiv+1)
	movf	(2+(?___ftpack)),w
	movwf	(?___ftdiv+2)
	goto	l7622
	
l11527:	
	line	78
	
l7622:	
	return
	opt stack 0
GLOBAL	__end_of___ftdiv
	__end_of___ftdiv:
;; =============== function ___ftdiv ends ============

	signat	___ftdiv,8315
	global	_abs
psect	text1136,local,class=CODE,delta=2
global __ptext1136
__ptext1136:

;; *************** function _abs *****************
;; Defined at:
;;		line 272 in file "E:\Aldnoah.Zero\Assignment3\robot.c"
;; Parameters:    Size  Location     Type
;;  v               2    6[BANK0 ] int 
;; Auto vars:     Size  Location     Type
;;		None
;; Return value:  Size  Location     Type
;;                  2    6[BANK0 ] int 
;; Registers used:
;;		wreg, status,2, status,0, btemp+1, pclath, cstack
;; Tracked objects:
;;		On entry : 0/0
;;		On exit  : 0/0
;;		Unchanged: 0/0
;; Data sizes:     COMMON   BANK0   BANK1   BANK3   BANK2
;;      Params:         0       2       0       0       0
;;      Locals:         0       0       0       0       0
;;      Temps:          0       2       0       0       0
;;      Totals:         0       4       0       0       0
;;Total ram usage:        4 bytes
;; Hardware stack levels used:    1
;; Hardware stack levels required when called:    4
;; This function calls:
;;		___wmul
;; This function is called by:
;;		_robotFollow
;;		_robotMoveSpeed
;;		_robotTurnSpeed
;; This function uses a non-reentrant model
;;
psect	text1136
	file	"E:\Aldnoah.Zero\Assignment3\robot.c"
	line	272
	global	__size_of_abs
	__size_of_abs	equ	__end_of_abs-_abs
	
_abs:	
	opt	stack 2
; Regs used in _abs: [wreg+status,2+status,0+btemp+1+pclath+cstack]
	line	273
	
l11483:	
;robot.c: 273: return (v * ((v > 0) - (v < 0)));
	movlw	0
	bcf	status, 5	;RP0=0, select bank0
	bcf	status, 6	;RP1=0, select bank0
	btfsc	(abs@v+1),7
	movlw	1
	movwf	(??_abs+0)+0
	clrf	(??_abs+0)+0+1
	comf	(??_abs+0)+0,f
	comf	(??_abs+0)+1,f
	incf	(??_abs+0)+0,f
	skipnz
	incf	(??_abs+0)+1,f
	movf	(abs@v+1),w
	xorlw	80h
	movwf	btemp+1
	movlw	(high(01h))^80h
	subwf	btemp+1,w
	skipz
	goto	u5275
	movlw	low(01h)
	subwf	(abs@v),w
u5275:

	movlw	0
	skipnc
	movlw	1
	bcf	status, 5	;RP0=0, select bank0
	bcf	status, 6	;RP1=0, select bank0
	addwf	0+(??_abs+0)+0,w
	movwf	(?___wmul)
	movf	1+(??_abs+0)+0,w
	skipnc
	incf	1+(??_abs+0)+0,w
	movwf	((?___wmul))+1
	movf	(abs@v+1),w
	clrf	1+(?___wmul)+02h
	addwf	1+(?___wmul)+02h
	movf	(abs@v),w
	clrf	0+(?___wmul)+02h
	addwf	0+(?___wmul)+02h

	fcall	___wmul
	bcf	status, 5	;RP0=0, select bank0
	bcf	status, 6	;RP1=0, select bank0
	movf	(1+(?___wmul)),w
	clrf	(?_abs+1)
	addwf	(?_abs+1)
	movf	(0+(?___wmul)),w
	clrf	(?_abs)
	addwf	(?_abs)

	goto	l6088
	
l11485:	
	line	274
	
l6088:	
	return
	opt stack 0
GLOBAL	__end_of_abs
	__end_of_abs:
;; =============== function _abs ends ============

	signat	_abs,4218
	global	_RobotDrive
psect	text1137,local,class=CODE,delta=2
global __ptext1137
__ptext1137:

;; *************** function _RobotDrive *****************
;; Defined at:
;;		line 91 in file "E:\Aldnoah.Zero\Assignment3\robot.c"
;; Parameters:    Size  Location     Type
;;  speed           2   54[BANK0 ] int 
;;  radius          2   56[BANK0 ] int 
;; Auto vars:     Size  Location     Type
;;  radiushighBy    1   62[BANK0 ] unsigned char 
;;  radiuslowByt    1   61[BANK0 ] unsigned char 
;;  speedhighByt    1   60[BANK0 ] unsigned char 
;;  speedlowByte    1   59[BANK0 ] unsigned char 
;; Return value:  Size  Location     Type
;;		None               void
;; Registers used:
;;		wreg, fsr0l, fsr0h, status,2, status,0, pclath, cstack
;; Tracked objects:
;;		On entry : 0/0
;;		On exit  : 0/0
;;		Unchanged: 0/0
;; Data sizes:     COMMON   BANK0   BANK1   BANK3   BANK2
;;      Params:         0       4       0       0       0
;;      Locals:         0       4       0       0       0
;;      Temps:          0       1       0       0       0
;;      Totals:         0       9       0       0       0
;;Total ram usage:        9 bytes
;; Hardware stack levels used:    1
;; Hardware stack levels required when called:    4
;; This function calls:
;;		_ser_putch
;; This function is called by:
;;		_robotFollow
;;		_robotMoveSpeed
;; This function uses a non-reentrant model
;;
psect	text1137
	file	"E:\Aldnoah.Zero\Assignment3\robot.c"
	line	91
	global	__size_of_RobotDrive
	__size_of_RobotDrive	equ	__end_of_RobotDrive-_RobotDrive
	
_RobotDrive:	
	opt	stack 2
; Regs used in _RobotDrive: [wreg-fsr0h+status,2+status,0+pclath+cstack]
	line	93
	
l11467:	
;robot.c: 93: unsigned char speedlowByte = (unsigned char)(speed);
	bcf	status, 5	;RP0=0, select bank0
	bcf	status, 6	;RP1=0, select bank0
	movf	(RobotDrive@speed),w
	movwf	(??_RobotDrive+0)+0
	movf	(??_RobotDrive+0)+0,w
	movwf	(RobotDrive@speedlowByte)
	line	94
	
l11469:	
;robot.c: 94: unsigned char speedhighByte = (unsigned char)(speed >> 8);
	movf	(RobotDrive@speed+1),w
	movwf	(??_RobotDrive+0)+0
	movf	(??_RobotDrive+0)+0,w
	movwf	(RobotDrive@speedhighByte)
	line	95
	
l11471:	
;robot.c: 95: unsigned char radiuslowByte = (unsigned char)(radius);
	movf	(RobotDrive@radius),w
	movwf	(??_RobotDrive+0)+0
	movf	(??_RobotDrive+0)+0,w
	movwf	(RobotDrive@radiuslowByte)
	line	96
;robot.c: 96: unsigned char radiushighByte = (unsigned char)(radius >> 8);
	movf	(RobotDrive@radius+1),w
	movwf	(??_RobotDrive+0)+0
	movf	(??_RobotDrive+0)+0,w
	movwf	(RobotDrive@radiushighByte)
	line	98
	
l11473:	
;robot.c: 98: ser_putch(137);
	movlw	(089h)
	fcall	_ser_putch
	line	100
	
l11475:	
;robot.c: 100: ser_putch(speedhighByte);
	bcf	status, 5	;RP0=0, select bank0
	bcf	status, 6	;RP1=0, select bank0
	movf	(RobotDrive@speedhighByte),w
	fcall	_ser_putch
	line	102
	
l11477:	
;robot.c: 102: ser_putch(speedlowByte);
	bcf	status, 5	;RP0=0, select bank0
	bcf	status, 6	;RP1=0, select bank0
	movf	(RobotDrive@speedlowByte),w
	fcall	_ser_putch
	line	104
	
l11479:	
;robot.c: 104: ser_putch(radiushighByte);
	bcf	status, 5	;RP0=0, select bank0
	bcf	status, 6	;RP1=0, select bank0
	movf	(RobotDrive@radiushighByte),w
	fcall	_ser_putch
	line	106
	
l11481:	
;robot.c: 106: ser_putch(radiuslowByte);
	bcf	status, 5	;RP0=0, select bank0
	bcf	status, 6	;RP1=0, select bank0
	movf	(RobotDrive@radiuslowByte),w
	fcall	_ser_putch
	line	107
	
l6045:	
	return
	opt stack 0
GLOBAL	__end_of_RobotDrive
	__end_of_RobotDrive:
;; =============== function _RobotDrive ends ============

	signat	_RobotDrive,8312
	global	_ser_getch
psect	text1138,local,class=CODE,delta=2
global __ptext1138
__ptext1138:

;; *************** function _ser_getch *****************
;; Defined at:
;;		line 55 in file "E:\Aldnoah.Zero\Assignment3\ser.c"
;; Parameters:    Size  Location     Type
;;		None
;; Auto vars:     Size  Location     Type
;;  c               1    1[BANK0 ] unsigned char 
;; Return value:  Size  Location     Type
;;                  1    wreg      unsigned char 
;; Registers used:
;;		wreg, fsr0l, fsr0h, status,2, status,0, pclath, cstack
;; Tracked objects:
;;		On entry : 0/0
;;		On exit  : 0/0
;;		Unchanged: 0/0
;; Data sizes:     COMMON   BANK0   BANK1   BANK3   BANK2
;;      Params:         0       0       0       0       0
;;      Locals:         0       1       0       0       0
;;      Temps:          0       1       0       0       0
;;      Totals:         0       2       0       0       0
;;Total ram usage:        2 bytes
;; Hardware stack levels used:    1
;; Hardware stack levels required when called:    4
;; This function calls:
;;		_ser_isrx
;; This function is called by:
;;		_robot_read
;; This function uses a non-reentrant model
;;
psect	text1138
	file	"E:\Aldnoah.Zero\Assignment3\ser.c"
	line	55
	global	__size_of_ser_getch
	__size_of_ser_getch	equ	__end_of_ser_getch-_ser_getch
	
_ser_getch:	
	opt	stack 1
; Regs used in _ser_getch: [wreg-fsr0h+status,2+status,0+pclath+cstack]
	line	58
	
l11451:	
;ser.c: 56: unsigned char c;
;ser.c: 58: while (ser_isrx()==0)
	goto	l11453
	
l6792:	
	line	59
;ser.c: 59: continue;
	goto	l11453
	
l6791:	
	line	58
	
l11453:	
	fcall	_ser_isrx
	btfss	status,0
	goto	u5261
	goto	u5260
u5261:
	goto	l11453
u5260:
	
l6793:	
	line	61
;ser.c: 61: GIE=0;
	bcf	(95/8),(95)&7
	line	62
	
l11455:	
;ser.c: 62: c=rxfifo[rxoptr];
	bsf	status, 5	;RP0=1, select bank1
	bcf	status, 6	;RP1=0, select bank1
	movf	(_rxoptr)^080h,w
	addlw	_rxfifo&0ffh
	movwf	fsr0
	bsf	status, 7	;select IRP bank3
	movf	indf,w
	bcf	status, 5	;RP0=0, select bank0
	bcf	status, 6	;RP1=0, select bank0
	movwf	(??_ser_getch+0)+0
	movf	(??_ser_getch+0)+0,w
	movwf	(ser_getch@c)
	line	63
	
l11457:	
;ser.c: 63: ++rxoptr;
	movlw	(01h)
	movwf	(??_ser_getch+0)+0
	movf	(??_ser_getch+0)+0,w
	bsf	status, 5	;RP0=1, select bank1
	bcf	status, 6	;RP1=0, select bank1
	addwf	(_rxoptr)^080h,f	;volatile
	line	64
	
l11459:	
;ser.c: 64: rxoptr &= (16-1);
	movlw	(0Fh)
	bcf	status, 5	;RP0=0, select bank0
	bcf	status, 6	;RP1=0, select bank0
	movwf	(??_ser_getch+0)+0
	movf	(??_ser_getch+0)+0,w
	bsf	status, 5	;RP0=1, select bank1
	bcf	status, 6	;RP1=0, select bank1
	andwf	(_rxoptr)^080h,f	;volatile
	line	65
	
l11461:	
;ser.c: 65: GIE=1;
	bsf	(95/8),(95)&7
	line	66
	
l11463:	
;ser.c: 66: return c;
	bcf	status, 5	;RP0=0, select bank0
	bcf	status, 6	;RP1=0, select bank0
	movf	(ser_getch@c),w
	goto	l6794
	
l11465:	
	line	67
	
l6794:	
	return
	opt stack 0
GLOBAL	__end_of_ser_getch
	__end_of_ser_getch:
;; =============== function _ser_getch ends ============

	signat	_ser_getch,89
	global	_sprintf
psect	text1139,local,class=CODE,delta=2
global __ptext1139
__ptext1139:

;; *************** function _sprintf *****************
;; Defined at:
;;		line 488 in file "C:\Program Files\HI-TECH Software\PICC\9.83\lib\doprnt.c"
;; Parameters:    Size  Location     Type
;;  sp              1    wreg     PTR unsigned char 
;;		 -> UpdateDisplay@LCDOutput(16), 
;;  f               1   20[BANK0 ] PTR const unsigned char 
;;		 -> STR_13(13), 
;; Auto vars:     Size  Location     Type
;;  sp              1   35[BANK0 ] PTR unsigned char 
;;		 -> UpdateDisplay@LCDOutput(16), 
;;  _val            4   31[BANK0 ] struct .
;;  c               1   36[BANK0 ] char 
;;  prec            1   30[BANK0 ] char 
;;  flag            1   29[BANK0 ] unsigned char 
;;  ap              1   28[BANK0 ] PTR void [1]
;;		 -> ?_sprintf(2), 
;; Return value:  Size  Location     Type
;;                  2   20[BANK0 ] int 
;; Registers used:
;;		wreg, fsr0l, fsr0h, status,2, status,0, btemp+1, pclath, cstack
;; Tracked objects:
;;		On entry : 0/0
;;		On exit  : 0/0
;;		Unchanged: 0/0
;; Data sizes:     COMMON   BANK0   BANK1   BANK3   BANK2
;;      Params:         0       5       0       0       0
;;      Locals:         0       9       0       0       0
;;      Temps:          0       3       0       0       0
;;      Totals:         0      17       0       0       0
;;Total ram usage:       17 bytes
;; Hardware stack levels used:    1
;; Hardware stack levels required when called:    4
;; This function calls:
;;		___lwdiv
;;		___lwmod
;; This function is called by:
;;		_UpdateDisplay
;; This function uses a non-reentrant model
;;
psect	text1139
	file	"C:\Program Files\HI-TECH Software\PICC\9.83\sources\doprnt.c"
	line	488
	global	__size_of_sprintf
	__size_of_sprintf	equ	__end_of_sprintf-_sprintf
	
_sprintf:	
	opt	stack 1
; Regs used in _sprintf: [wreg-fsr0h+status,2+status,0+btemp+1+pclath+cstack]
;sprintf@sp stored from wreg
	line	537
	bcf	status, 5	;RP0=0, select bank0
	bcf	status, 6	;RP1=0, select bank0
	movwf	(sprintf@sp)
	
l11393:	
	movlw	(?_sprintf+01h)&0ffh
	movwf	(??_sprintf+0)+0
	movf	(??_sprintf+0)+0,w
	movwf	(sprintf@ap)
	line	540
	goto	l11445
	
l6832:	
	line	542
	
l11395:	
	movf	(sprintf@c),w
	xorlw	025h
	skipnz
	goto	u5181
	goto	u5180
u5181:
	goto	l6833
u5180:
	line	545
	
l11397:	
	movf	(sprintf@c),w
	movwf	(??_sprintf+0)+0
	movf	(sprintf@sp),w
	movwf	fsr0
	movf	(??_sprintf+0)+0,w
	bcf	status, 7	;select IRP bank0
	movwf	indf
	
l11399:	
	movlw	(01h)
	movwf	(??_sprintf+0)+0
	movf	(??_sprintf+0)+0,w
	addwf	(sprintf@sp),f
	line	546
	goto	l11445
	line	547
	
l6833:	
	line	552
	clrf	(sprintf@flag)
	line	638
	goto	l11403
	line	640
	
l6835:	
	line	641
	goto	l11447
	line	700
	
l6837:	
	goto	l11405
	line	701
	
l6838:	
	line	702
	goto	l11405
	line	805
	
l6840:	
	line	816
	goto	l11445
	line	825
	
l11401:	
	goto	l11405
	line	638
	
l6834:	
	
l11403:	
	movlw	01h
	addwf	(sprintf@f),f
	movlw	-01h
	addwf	(sprintf@f),w
	movwf	fsr0
	fcall	stringdir
	movwf	(sprintf@c)
	; Switch size 1, requested type "space"
; Number of cases is 3, Range of values is 0 to 105
; switch strategies available:
; Name         Instructions Cycles
; simple_byte           10     6 (average)
; jumptable            260     6 (fixed)
; rangetable           110     6 (fixed)
; spacedrange          218     9 (fixed)
; locatedrange         106     3 (fixed)
;	Chosen strategy is simple_byte

	opt asmopt_off
	xorlw	0^0	; case 0
	skipnz
	goto	l11447
	xorlw	100^0	; case 100
	skipnz
	goto	l11405
	xorlw	105^100	; case 105
	skipnz
	goto	l11405
	goto	l11445
	opt asmopt_on

	line	825
	
l6839:	
	line	1254
	
l11405:	
	movf	(sprintf@ap),w
	movwf	fsr0
	bcf	status, 7	;select IRP bank0
	movf	indf,w
	movwf	(sprintf@_val)
	incf	fsr0,f
	movf	indf,w
	movwf	(sprintf@_val+1)
	
l11407:	
	movlw	(02h)
	movwf	(??_sprintf+0)+0
	movf	(??_sprintf+0)+0,w
	addwf	(sprintf@ap),f
	line	1256
	
l11409:	
	btfss	(sprintf@_val+1),7
	goto	u5191
	goto	u5190
u5191:
	goto	l11415
u5190:
	line	1257
	
l11411:	
	movlw	(03h)
	movwf	(??_sprintf+0)+0
	movf	(??_sprintf+0)+0,w
	iorwf	(sprintf@flag),f
	line	1258
	
l11413:	
	comf	(sprintf@_val),f
	comf	(sprintf@_val+1),f
	incf	(sprintf@_val),f
	skipnz
	incf	(sprintf@_val+1),f
	goto	l11415
	line	1259
	
l6841:	
	line	1300
	
l11415:	
	clrf	(sprintf@c)
	bsf	status,0
	rlf	(sprintf@c),f
	
l11417:	
	movf	(sprintf@c),w
	xorlw	05h
	skipz
	goto	u5201
	goto	u5200
u5201:
	goto	l11421
u5200:
	goto	l11429
	
l11419:	
	goto	l11429
	line	1301
	
l6842:	
	
l11421:	
	movf	(sprintf@c),w
	movwf	(??_sprintf+0)+0
	addwf	(??_sprintf+0)+0,w
	addlw	low((_dpowers-__stringbase))
	movwf	fsr0
	fcall	stringdir
	movwf	(??_sprintf+1)+0
	fcall	stringdir
	movwf	(??_sprintf+1)+0+1
	movf	1+(??_sprintf+1)+0,w
	subwf	(sprintf@_val+1),w
	skipz
	goto	u5215
	movf	0+(??_sprintf+1)+0,w
	subwf	(sprintf@_val),w
u5215:
	skipnc
	goto	u5211
	goto	u5210
u5211:
	goto	l11425
u5210:
	goto	l11429
	line	1302
	
l11423:	
	goto	l11429
	
l6844:	
	line	1300
	
l11425:	
	movlw	(01h)
	movwf	(??_sprintf+0)+0
	movf	(??_sprintf+0)+0,w
	addwf	(sprintf@c),f
	
l11427:	
	movf	(sprintf@c),w
	xorlw	05h
	skipz
	goto	u5221
	goto	u5220
u5221:
	goto	l11421
u5220:
	goto	l11429
	
l6843:	
	line	1433
	
l11429:	
	movf	(sprintf@flag),w
	andlw	03h
	btfsc	status,2
	goto	u5231
	goto	u5230
u5231:
	goto	l11435
u5230:
	line	1434
	
l11431:	
	movlw	(02Dh)
	movwf	(??_sprintf+0)+0
	movf	(sprintf@sp),w
	movwf	fsr0
	movf	(??_sprintf+0)+0,w
	bcf	status, 7	;select IRP bank0
	movwf	indf
	
l11433:	
	movlw	(01h)
	movwf	(??_sprintf+0)+0
	movf	(??_sprintf+0)+0,w
	addwf	(sprintf@sp),f
	goto	l11435
	
l6845:	
	line	1467
	
l11435:	
	movf	(sprintf@c),w
	movwf	(??_sprintf+0)+0
	movf	(??_sprintf+0)+0,w
	movwf	(sprintf@prec)
	line	1469
	goto	l11443
	
l6847:	
	line	1484
	
l11437:	
	movlw	low(0Ah)
	movwf	(?___lwmod)
	movlw	high(0Ah)
	movwf	((?___lwmod))+1
	movf	(sprintf@prec),w
	movwf	(??_sprintf+0)+0
	addwf	(??_sprintf+0)+0,w
	addlw	low((_dpowers-__stringbase))
	movwf	fsr0
	fcall	stringdir
	movwf	(?___lwdiv)
	fcall	stringdir
	movwf	(?___lwdiv+1)
	movf	(sprintf@_val+1),w
	clrf	1+(?___lwdiv)+02h
	addwf	1+(?___lwdiv)+02h
	movf	(sprintf@_val),w
	clrf	0+(?___lwdiv)+02h
	addwf	0+(?___lwdiv)+02h

	fcall	___lwdiv
	bcf	status, 5	;RP0=0, select bank0
	bcf	status, 6	;RP1=0, select bank0
	movf	(1+(?___lwdiv)),w
	clrf	1+(?___lwmod)+02h
	addwf	1+(?___lwmod)+02h
	movf	(0+(?___lwdiv)),w
	clrf	0+(?___lwmod)+02h
	addwf	0+(?___lwmod)+02h

	fcall	___lwmod
	bcf	status, 5	;RP0=0, select bank0
	bcf	status, 6	;RP1=0, select bank0
	movf	(0+(?___lwmod)),w
	addlw	030h
	movwf	(??_sprintf+1)+0
	movf	(??_sprintf+1)+0,w
	movwf	(sprintf@c)
	line	1516
	
l11439:	
	movf	(sprintf@c),w
	movwf	(??_sprintf+0)+0
	movf	(sprintf@sp),w
	movwf	fsr0
	movf	(??_sprintf+0)+0,w
	bcf	status, 7	;select IRP bank0
	movwf	indf
	
l11441:	
	movlw	(01h)
	movwf	(??_sprintf+0)+0
	movf	(??_sprintf+0)+0,w
	addwf	(sprintf@sp),f
	goto	l11443
	line	1517
	
l6846:	
	line	1469
	
l11443:	
	movlw	(-1)
	movwf	(??_sprintf+0)+0
	movf	(??_sprintf+0)+0,w
	addwf	(sprintf@prec),f
	movf	((sprintf@prec)),w
	xorlw	-1
	skipz
	goto	u5241
	goto	u5240
u5241:
	goto	l11437
u5240:
	goto	l11445
	
l6848:	
	goto	l11445
	line	1525
	
l6831:	
	line	540
	
l11445:	
	movlw	01h
	addwf	(sprintf@f),f
	movlw	-01h
	addwf	(sprintf@f),w
	movwf	fsr0
	fcall	stringdir
	movwf	(??_sprintf+0)+0
	movf	(??_sprintf+0)+0,w
	movwf	(sprintf@c)
	movf	((sprintf@c)),f
	skipz
	goto	u5251
	goto	u5250
u5251:
	goto	l11395
u5250:
	goto	l11447
	
l6849:	
	goto	l11447
	line	1527
	
l6836:	
	line	1530
	
l11447:	
	movf	(sprintf@sp),w
	movwf	fsr0
	bcf	status, 7	;select IRP bank0
	clrf	indf
	goto	l6850
	line	1532
	
l11449:	
	line	1533
;	Return value of _sprintf is never used
	
l6850:	
	return
	opt stack 0
GLOBAL	__end_of_sprintf
	__end_of_sprintf:
;; =============== function _sprintf ends ============

	signat	_sprintf,4698
	global	_ADCconvert
psect	text1140,local,class=CODE,delta=2
global __ptext1140
__ptext1140:

;; *************** function _ADCconvert *****************
;; Defined at:
;;		line 60 in file "E:\Aldnoah.Zero\Assignment3\infrared.c"
;; Parameters:    Size  Location     Type
;;		None
;; Auto vars:     Size  Location     Type
;;		None
;; Return value:  Size  Location     Type
;;		None               void
;; Registers used:
;;		wreg, status,2, status,0, pclath, cstack
;; Tracked objects:
;;		On entry : 0/0
;;		On exit  : 0/0
;;		Unchanged: 0/0
;; Data sizes:     COMMON   BANK0   BANK1   BANK3   BANK2
;;      Params:         0       0       0       0       0
;;      Locals:         0       0       0       0       0
;;      Temps:          0       2       0       0       0
;;      Totals:         0       2       0       0       0
;;Total ram usage:        2 bytes
;; Hardware stack levels used:    1
;; Hardware stack levels required when called:    4
;; This function calls:
;;		___wmul
;;		___lwdiv
;; This function is called by:
;;		_readAvgDistance
;; This function uses a non-reentrant model
;;
psect	text1140
	file	"E:\Aldnoah.Zero\Assignment3\infrared.c"
	line	60
	global	__size_of_ADCconvert
	__size_of_ADCconvert	equ	__end_of_ADCconvert-_ADCconvert
	
_ADCconvert:	
	opt	stack 1
; Regs used in _ADCconvert: [wreg+status,2+status,0+pclath+cstack]
	line	66
	
l11351:	
;infrared.c: 66: if (adcVal >= 213 && adcVal < 234)
	movlw	high(0D5h)
	bsf	status, 5	;RP0=1, select bank1
	bcf	status, 6	;RP1=0, select bank1
	subwf	(_adcVal+1)^080h,w	;volatile
	movlw	low(0D5h)
	skipnz
	subwf	(_adcVal)^080h,w	;volatile
	skipc
	goto	u5041
	goto	u5040
u5041:
	goto	l11357
u5040:
	
l11353:	
	movlw	high(0EAh)
	subwf	(_adcVal+1)^080h,w	;volatile
	movlw	low(0EAh)
	skipnz
	subwf	(_adcVal)^080h,w	;volatile
	skipnc
	goto	u5051
	goto	u5050
u5051:
	goto	l11357
u5050:
	line	68
	
l11355:	
;infrared.c: 67: {
;infrared.c: 68: IRdistance = 15 + ((20 - 15)*(234 - adcVal)) / (234 - 213);
	movlw	low(015h)
	bcf	status, 5	;RP0=0, select bank0
	bcf	status, 6	;RP1=0, select bank0
	movwf	(?___lwdiv)
	movlw	high(015h)
	movwf	((?___lwdiv))+1
	bsf	status, 5	;RP0=1, select bank1
	bcf	status, 6	;RP1=0, select bank1
	comf	(_adcVal)^080h,w	;volatile
	bcf	status, 5	;RP0=0, select bank0
	bcf	status, 6	;RP1=0, select bank0
	movwf	(??_ADCconvert+0)+0
	bsf	status, 5	;RP0=1, select bank1
	bcf	status, 6	;RP1=0, select bank1
	comf	(_adcVal+1)^080h,w	;volatile
	bcf	status, 5	;RP0=0, select bank0
	bcf	status, 6	;RP1=0, select bank0
	movwf	((??_ADCconvert+0)+0+1)
	incf	(??_ADCconvert+0)+0,f
	skipnz
	incf	((??_ADCconvert+0)+0+1),f
	movf	0+(??_ADCconvert+0)+0,w
	addlw	low(0EAh)
	movwf	(?___wmul)
	movf	1+(??_ADCconvert+0)+0,w
	skipnc
	addlw	1
	addlw	high(0EAh)
	movwf	1+(?___wmul)
	movlw	low(05h)
	movwf	0+(?___wmul)+02h
	movlw	high(05h)
	movwf	(0+(?___wmul)+02h)+1
	fcall	___wmul
	bcf	status, 5	;RP0=0, select bank0
	bcf	status, 6	;RP1=0, select bank0
	movf	(1+(?___wmul)),w
	clrf	1+(?___lwdiv)+02h
	addwf	1+(?___lwdiv)+02h
	movf	(0+(?___wmul)),w
	clrf	0+(?___lwdiv)+02h
	addwf	0+(?___lwdiv)+02h

	fcall	___lwdiv
	bcf	status, 5	;RP0=0, select bank0
	bcf	status, 6	;RP1=0, select bank0
	movf	(0+(?___lwdiv)),w
	addlw	low(0Fh)
	bsf	status, 5	;RP0=1, select bank1
	bcf	status, 6	;RP1=0, select bank1
	movwf	(_IRdistance)^080h	;volatile
	bcf	status, 5	;RP0=0, select bank0
	bcf	status, 6	;RP1=0, select bank0
	movf	(1+(?___lwdiv)),w
	skipnc
	addlw	1
	addlw	high(0Fh)
	bsf	status, 5	;RP0=1, select bank1
	bcf	status, 6	;RP1=0, select bank1
	movwf	1+(_IRdistance)^080h	;volatile
	line	69
;infrared.c: 69: }
	goto	l3026
	line	70
	
l3013:	
	
l11357:	
;infrared.c: 70: else if (adcVal >= 170 && adcVal < 213)
	movlw	high(0AAh)
	subwf	(_adcVal+1)^080h,w	;volatile
	movlw	low(0AAh)
	skipnz
	subwf	(_adcVal)^080h,w	;volatile
	skipc
	goto	u5061
	goto	u5060
u5061:
	goto	l11363
u5060:
	
l11359:	
	movlw	high(0D5h)
	subwf	(_adcVal+1)^080h,w	;volatile
	movlw	low(0D5h)
	skipnz
	subwf	(_adcVal)^080h,w	;volatile
	skipnc
	goto	u5071
	goto	u5070
u5071:
	goto	l11363
u5070:
	line	72
	
l11361:	
;infrared.c: 71: {
;infrared.c: 72: IRdistance = 20 + ((30 - 20)*(213 - adcVal)) / (213 - 170);
	movlw	low(02Bh)
	bcf	status, 5	;RP0=0, select bank0
	bcf	status, 6	;RP1=0, select bank0
	movwf	(?___lwdiv)
	movlw	high(02Bh)
	movwf	((?___lwdiv))+1
	bsf	status, 5	;RP0=1, select bank1
	bcf	status, 6	;RP1=0, select bank1
	comf	(_adcVal)^080h,w	;volatile
	bcf	status, 5	;RP0=0, select bank0
	bcf	status, 6	;RP1=0, select bank0
	movwf	(??_ADCconvert+0)+0
	bsf	status, 5	;RP0=1, select bank1
	bcf	status, 6	;RP1=0, select bank1
	comf	(_adcVal+1)^080h,w	;volatile
	bcf	status, 5	;RP0=0, select bank0
	bcf	status, 6	;RP1=0, select bank0
	movwf	((??_ADCconvert+0)+0+1)
	incf	(??_ADCconvert+0)+0,f
	skipnz
	incf	((??_ADCconvert+0)+0+1),f
	movf	0+(??_ADCconvert+0)+0,w
	addlw	low(0D5h)
	movwf	(?___wmul)
	movf	1+(??_ADCconvert+0)+0,w
	skipnc
	addlw	1
	addlw	high(0D5h)
	movwf	1+(?___wmul)
	movlw	low(0Ah)
	movwf	0+(?___wmul)+02h
	movlw	high(0Ah)
	movwf	(0+(?___wmul)+02h)+1
	fcall	___wmul
	bcf	status, 5	;RP0=0, select bank0
	bcf	status, 6	;RP1=0, select bank0
	movf	(1+(?___wmul)),w
	clrf	1+(?___lwdiv)+02h
	addwf	1+(?___lwdiv)+02h
	movf	(0+(?___wmul)),w
	clrf	0+(?___lwdiv)+02h
	addwf	0+(?___lwdiv)+02h

	fcall	___lwdiv
	bcf	status, 5	;RP0=0, select bank0
	bcf	status, 6	;RP1=0, select bank0
	movf	(0+(?___lwdiv)),w
	addlw	low(014h)
	bsf	status, 5	;RP0=1, select bank1
	bcf	status, 6	;RP1=0, select bank1
	movwf	(_IRdistance)^080h	;volatile
	bcf	status, 5	;RP0=0, select bank0
	bcf	status, 6	;RP1=0, select bank0
	movf	(1+(?___lwdiv)),w
	skipnc
	addlw	1
	addlw	high(014h)
	bsf	status, 5	;RP0=1, select bank1
	bcf	status, 6	;RP1=0, select bank1
	movwf	1+(_IRdistance)^080h	;volatile
	line	73
;infrared.c: 73: }
	goto	l3026
	line	74
	
l3015:	
	
l11363:	
;infrared.c: 74: else if (adcVal >= 128 && adcVal < 170)
	movlw	high(080h)
	subwf	(_adcVal+1)^080h,w	;volatile
	movlw	low(080h)
	skipnz
	subwf	(_adcVal)^080h,w	;volatile
	skipc
	goto	u5081
	goto	u5080
u5081:
	goto	l11369
u5080:
	
l11365:	
	movlw	high(0AAh)
	subwf	(_adcVal+1)^080h,w	;volatile
	movlw	low(0AAh)
	skipnz
	subwf	(_adcVal)^080h,w	;volatile
	skipnc
	goto	u5091
	goto	u5090
u5091:
	goto	l11369
u5090:
	line	76
	
l11367:	
;infrared.c: 75: {
;infrared.c: 76: IRdistance = 30 + ((40 - 30)*(170 - adcVal)) / (170 - 128);
	movlw	low(02Ah)
	bcf	status, 5	;RP0=0, select bank0
	bcf	status, 6	;RP1=0, select bank0
	movwf	(?___lwdiv)
	movlw	high(02Ah)
	movwf	((?___lwdiv))+1
	bsf	status, 5	;RP0=1, select bank1
	bcf	status, 6	;RP1=0, select bank1
	comf	(_adcVal)^080h,w	;volatile
	bcf	status, 5	;RP0=0, select bank0
	bcf	status, 6	;RP1=0, select bank0
	movwf	(??_ADCconvert+0)+0
	bsf	status, 5	;RP0=1, select bank1
	bcf	status, 6	;RP1=0, select bank1
	comf	(_adcVal+1)^080h,w	;volatile
	bcf	status, 5	;RP0=0, select bank0
	bcf	status, 6	;RP1=0, select bank0
	movwf	((??_ADCconvert+0)+0+1)
	incf	(??_ADCconvert+0)+0,f
	skipnz
	incf	((??_ADCconvert+0)+0+1),f
	movf	0+(??_ADCconvert+0)+0,w
	addlw	low(0AAh)
	movwf	(?___wmul)
	movf	1+(??_ADCconvert+0)+0,w
	skipnc
	addlw	1
	addlw	high(0AAh)
	movwf	1+(?___wmul)
	movlw	low(0Ah)
	movwf	0+(?___wmul)+02h
	movlw	high(0Ah)
	movwf	(0+(?___wmul)+02h)+1
	fcall	___wmul
	bcf	status, 5	;RP0=0, select bank0
	bcf	status, 6	;RP1=0, select bank0
	movf	(1+(?___wmul)),w
	clrf	1+(?___lwdiv)+02h
	addwf	1+(?___lwdiv)+02h
	movf	(0+(?___wmul)),w
	clrf	0+(?___lwdiv)+02h
	addwf	0+(?___lwdiv)+02h

	fcall	___lwdiv
	bcf	status, 5	;RP0=0, select bank0
	bcf	status, 6	;RP1=0, select bank0
	movf	(0+(?___lwdiv)),w
	addlw	low(01Eh)
	bsf	status, 5	;RP0=1, select bank1
	bcf	status, 6	;RP1=0, select bank1
	movwf	(_IRdistance)^080h	;volatile
	bcf	status, 5	;RP0=0, select bank0
	bcf	status, 6	;RP1=0, select bank0
	movf	(1+(?___lwdiv)),w
	skipnc
	addlw	1
	addlw	high(01Eh)
	bsf	status, 5	;RP0=1, select bank1
	bcf	status, 6	;RP1=0, select bank1
	movwf	1+(_IRdistance)^080h	;volatile
	line	77
;infrared.c: 77: }
	goto	l3026
	line	78
	
l3017:	
	
l11369:	
;infrared.c: 78: else if (adcVal >= 107 && adcVal < 128)
	movlw	high(06Bh)
	subwf	(_adcVal+1)^080h,w	;volatile
	movlw	low(06Bh)
	skipnz
	subwf	(_adcVal)^080h,w	;volatile
	skipc
	goto	u5101
	goto	u5100
u5101:
	goto	l11375
u5100:
	
l11371:	
	movlw	high(080h)
	subwf	(_adcVal+1)^080h,w	;volatile
	movlw	low(080h)
	skipnz
	subwf	(_adcVal)^080h,w	;volatile
	skipnc
	goto	u5111
	goto	u5110
u5111:
	goto	l11375
u5110:
	line	80
	
l11373:	
;infrared.c: 79: {
;infrared.c: 80: IRdistance = 40 + ((50 - 40)*(128 - adcVal)) / (128 - 107);
	movlw	low(015h)
	bcf	status, 5	;RP0=0, select bank0
	bcf	status, 6	;RP1=0, select bank0
	movwf	(?___lwdiv)
	movlw	high(015h)
	movwf	((?___lwdiv))+1
	bsf	status, 5	;RP0=1, select bank1
	bcf	status, 6	;RP1=0, select bank1
	comf	(_adcVal)^080h,w	;volatile
	bcf	status, 5	;RP0=0, select bank0
	bcf	status, 6	;RP1=0, select bank0
	movwf	(??_ADCconvert+0)+0
	bsf	status, 5	;RP0=1, select bank1
	bcf	status, 6	;RP1=0, select bank1
	comf	(_adcVal+1)^080h,w	;volatile
	bcf	status, 5	;RP0=0, select bank0
	bcf	status, 6	;RP1=0, select bank0
	movwf	((??_ADCconvert+0)+0+1)
	incf	(??_ADCconvert+0)+0,f
	skipnz
	incf	((??_ADCconvert+0)+0+1),f
	movf	0+(??_ADCconvert+0)+0,w
	addlw	low(080h)
	movwf	(?___wmul)
	movf	1+(??_ADCconvert+0)+0,w
	skipnc
	addlw	1
	addlw	high(080h)
	movwf	1+(?___wmul)
	movlw	low(0Ah)
	movwf	0+(?___wmul)+02h
	movlw	high(0Ah)
	movwf	(0+(?___wmul)+02h)+1
	fcall	___wmul
	bcf	status, 5	;RP0=0, select bank0
	bcf	status, 6	;RP1=0, select bank0
	movf	(1+(?___wmul)),w
	clrf	1+(?___lwdiv)+02h
	addwf	1+(?___lwdiv)+02h
	movf	(0+(?___wmul)),w
	clrf	0+(?___lwdiv)+02h
	addwf	0+(?___lwdiv)+02h

	fcall	___lwdiv
	bcf	status, 5	;RP0=0, select bank0
	bcf	status, 6	;RP1=0, select bank0
	movf	(0+(?___lwdiv)),w
	addlw	low(028h)
	bsf	status, 5	;RP0=1, select bank1
	bcf	status, 6	;RP1=0, select bank1
	movwf	(_IRdistance)^080h	;volatile
	bcf	status, 5	;RP0=0, select bank0
	bcf	status, 6	;RP1=0, select bank0
	movf	(1+(?___lwdiv)),w
	skipnc
	addlw	1
	addlw	high(028h)
	bsf	status, 5	;RP0=1, select bank1
	bcf	status, 6	;RP1=0, select bank1
	movwf	1+(_IRdistance)^080h	;volatile
	line	81
;infrared.c: 81: }
	goto	l3026
	line	82
	
l3019:	
	
l11375:	
;infrared.c: 82: else if (adcVal >= 77 && adcVal < 107)
	movlw	high(04Dh)
	subwf	(_adcVal+1)^080h,w	;volatile
	movlw	low(04Dh)
	skipnz
	subwf	(_adcVal)^080h,w	;volatile
	skipc
	goto	u5121
	goto	u5120
u5121:
	goto	l11381
u5120:
	
l11377:	
	movlw	high(06Bh)
	subwf	(_adcVal+1)^080h,w	;volatile
	movlw	low(06Bh)
	skipnz
	subwf	(_adcVal)^080h,w	;volatile
	skipnc
	goto	u5131
	goto	u5130
u5131:
	goto	l11381
u5130:
	line	84
	
l11379:	
;infrared.c: 83: {
;infrared.c: 84: IRdistance = 50 + ((60 - 50)*(107 - adcVal)) / (107 - 77);
	movlw	low(01Eh)
	bcf	status, 5	;RP0=0, select bank0
	bcf	status, 6	;RP1=0, select bank0
	movwf	(?___lwdiv)
	movlw	high(01Eh)
	movwf	((?___lwdiv))+1
	bsf	status, 5	;RP0=1, select bank1
	bcf	status, 6	;RP1=0, select bank1
	comf	(_adcVal)^080h,w	;volatile
	bcf	status, 5	;RP0=0, select bank0
	bcf	status, 6	;RP1=0, select bank0
	movwf	(??_ADCconvert+0)+0
	bsf	status, 5	;RP0=1, select bank1
	bcf	status, 6	;RP1=0, select bank1
	comf	(_adcVal+1)^080h,w	;volatile
	bcf	status, 5	;RP0=0, select bank0
	bcf	status, 6	;RP1=0, select bank0
	movwf	((??_ADCconvert+0)+0+1)
	incf	(??_ADCconvert+0)+0,f
	skipnz
	incf	((??_ADCconvert+0)+0+1),f
	movf	0+(??_ADCconvert+0)+0,w
	addlw	low(06Bh)
	movwf	(?___wmul)
	movf	1+(??_ADCconvert+0)+0,w
	skipnc
	addlw	1
	addlw	high(06Bh)
	movwf	1+(?___wmul)
	movlw	low(0Ah)
	movwf	0+(?___wmul)+02h
	movlw	high(0Ah)
	movwf	(0+(?___wmul)+02h)+1
	fcall	___wmul
	bcf	status, 5	;RP0=0, select bank0
	bcf	status, 6	;RP1=0, select bank0
	movf	(1+(?___wmul)),w
	clrf	1+(?___lwdiv)+02h
	addwf	1+(?___lwdiv)+02h
	movf	(0+(?___wmul)),w
	clrf	0+(?___lwdiv)+02h
	addwf	0+(?___lwdiv)+02h

	fcall	___lwdiv
	bcf	status, 5	;RP0=0, select bank0
	bcf	status, 6	;RP1=0, select bank0
	movf	(0+(?___lwdiv)),w
	addlw	low(032h)
	bsf	status, 5	;RP0=1, select bank1
	bcf	status, 6	;RP1=0, select bank1
	movwf	(_IRdistance)^080h	;volatile
	bcf	status, 5	;RP0=0, select bank0
	bcf	status, 6	;RP1=0, select bank0
	movf	(1+(?___lwdiv)),w
	skipnc
	addlw	1
	addlw	high(032h)
	bsf	status, 5	;RP0=1, select bank1
	bcf	status, 6	;RP1=0, select bank1
	movwf	1+(_IRdistance)^080h	;volatile
	line	85
;infrared.c: 85: }
	goto	l3026
	line	86
	
l3021:	
	
l11381:	
;infrared.c: 86: else if (adcVal >= 56 && adcVal < 77)
	movlw	high(038h)
	subwf	(_adcVal+1)^080h,w	;volatile
	movlw	low(038h)
	skipnz
	subwf	(_adcVal)^080h,w	;volatile
	skipc
	goto	u5141
	goto	u5140
u5141:
	goto	l11387
u5140:
	
l11383:	
	movlw	high(04Dh)
	subwf	(_adcVal+1)^080h,w	;volatile
	movlw	low(04Dh)
	skipnz
	subwf	(_adcVal)^080h,w	;volatile
	skipnc
	goto	u5151
	goto	u5150
u5151:
	goto	l11387
u5150:
	line	88
	
l11385:	
;infrared.c: 87: {
;infrared.c: 88: IRdistance = 60 + ((70 - 60)*(77 - adcVal)) / (77 - 56);
	movlw	low(015h)
	bcf	status, 5	;RP0=0, select bank0
	bcf	status, 6	;RP1=0, select bank0
	movwf	(?___lwdiv)
	movlw	high(015h)
	movwf	((?___lwdiv))+1
	bsf	status, 5	;RP0=1, select bank1
	bcf	status, 6	;RP1=0, select bank1
	comf	(_adcVal)^080h,w	;volatile
	bcf	status, 5	;RP0=0, select bank0
	bcf	status, 6	;RP1=0, select bank0
	movwf	(??_ADCconvert+0)+0
	bsf	status, 5	;RP0=1, select bank1
	bcf	status, 6	;RP1=0, select bank1
	comf	(_adcVal+1)^080h,w	;volatile
	bcf	status, 5	;RP0=0, select bank0
	bcf	status, 6	;RP1=0, select bank0
	movwf	((??_ADCconvert+0)+0+1)
	incf	(??_ADCconvert+0)+0,f
	skipnz
	incf	((??_ADCconvert+0)+0+1),f
	movf	0+(??_ADCconvert+0)+0,w
	addlw	low(04Dh)
	movwf	(?___wmul)
	movf	1+(??_ADCconvert+0)+0,w
	skipnc
	addlw	1
	addlw	high(04Dh)
	movwf	1+(?___wmul)
	movlw	low(0Ah)
	movwf	0+(?___wmul)+02h
	movlw	high(0Ah)
	movwf	(0+(?___wmul)+02h)+1
	fcall	___wmul
	bcf	status, 5	;RP0=0, select bank0
	bcf	status, 6	;RP1=0, select bank0
	movf	(1+(?___wmul)),w
	clrf	1+(?___lwdiv)+02h
	addwf	1+(?___lwdiv)+02h
	movf	(0+(?___wmul)),w
	clrf	0+(?___lwdiv)+02h
	addwf	0+(?___lwdiv)+02h

	fcall	___lwdiv
	bcf	status, 5	;RP0=0, select bank0
	bcf	status, 6	;RP1=0, select bank0
	movf	(0+(?___lwdiv)),w
	addlw	low(03Ch)
	bsf	status, 5	;RP0=1, select bank1
	bcf	status, 6	;RP1=0, select bank1
	movwf	(_IRdistance)^080h	;volatile
	bcf	status, 5	;RP0=0, select bank0
	bcf	status, 6	;RP1=0, select bank0
	movf	(1+(?___lwdiv)),w
	skipnc
	addlw	1
	addlw	high(03Ch)
	bsf	status, 5	;RP0=1, select bank1
	bcf	status, 6	;RP1=0, select bank1
	movwf	1+(_IRdistance)^080h	;volatile
	line	89
;infrared.c: 89: }
	goto	l3026
	line	90
	
l3023:	
	
l11387:	
;infrared.c: 90: else if (adcVal >= 43 && adcVal < 56)
	movlw	high(02Bh)
	subwf	(_adcVal+1)^080h,w	;volatile
	movlw	low(02Bh)
	skipnz
	subwf	(_adcVal)^080h,w	;volatile
	skipc
	goto	u5161
	goto	u5160
u5161:
	goto	l3026
u5160:
	
l11389:	
	movlw	high(038h)
	subwf	(_adcVal+1)^080h,w	;volatile
	movlw	low(038h)
	skipnz
	subwf	(_adcVal)^080h,w	;volatile
	skipnc
	goto	u5171
	goto	u5170
u5171:
	goto	l3026
u5170:
	line	92
	
l11391:	
;infrared.c: 91: {
;infrared.c: 92: IRdistance = 70 + ((80 - 70)*(56 - adcVal)) / (56 - 43);
	movlw	low(0Dh)
	bcf	status, 5	;RP0=0, select bank0
	bcf	status, 6	;RP1=0, select bank0
	movwf	(?___lwdiv)
	movlw	high(0Dh)
	movwf	((?___lwdiv))+1
	bsf	status, 5	;RP0=1, select bank1
	bcf	status, 6	;RP1=0, select bank1
	comf	(_adcVal)^080h,w	;volatile
	bcf	status, 5	;RP0=0, select bank0
	bcf	status, 6	;RP1=0, select bank0
	movwf	(??_ADCconvert+0)+0
	bsf	status, 5	;RP0=1, select bank1
	bcf	status, 6	;RP1=0, select bank1
	comf	(_adcVal+1)^080h,w	;volatile
	bcf	status, 5	;RP0=0, select bank0
	bcf	status, 6	;RP1=0, select bank0
	movwf	((??_ADCconvert+0)+0+1)
	incf	(??_ADCconvert+0)+0,f
	skipnz
	incf	((??_ADCconvert+0)+0+1),f
	movf	0+(??_ADCconvert+0)+0,w
	addlw	low(038h)
	movwf	(?___wmul)
	movf	1+(??_ADCconvert+0)+0,w
	skipnc
	addlw	1
	addlw	high(038h)
	movwf	1+(?___wmul)
	movlw	low(0Ah)
	movwf	0+(?___wmul)+02h
	movlw	high(0Ah)
	movwf	(0+(?___wmul)+02h)+1
	fcall	___wmul
	bcf	status, 5	;RP0=0, select bank0
	bcf	status, 6	;RP1=0, select bank0
	movf	(1+(?___wmul)),w
	clrf	1+(?___lwdiv)+02h
	addwf	1+(?___lwdiv)+02h
	movf	(0+(?___wmul)),w
	clrf	0+(?___lwdiv)+02h
	addwf	0+(?___lwdiv)+02h

	fcall	___lwdiv
	bcf	status, 5	;RP0=0, select bank0
	bcf	status, 6	;RP1=0, select bank0
	movf	(0+(?___lwdiv)),w
	addlw	low(046h)
	bsf	status, 5	;RP0=1, select bank1
	bcf	status, 6	;RP1=0, select bank1
	movwf	(_IRdistance)^080h	;volatile
	bcf	status, 5	;RP0=0, select bank0
	bcf	status, 6	;RP1=0, select bank0
	movf	(1+(?___lwdiv)),w
	skipnc
	addlw	1
	addlw	high(046h)
	bsf	status, 5	;RP0=1, select bank1
	bcf	status, 6	;RP1=0, select bank1
	movwf	1+(_IRdistance)^080h	;volatile
	goto	l3026
	line	93
	
l3025:	
	goto	l3026
	line	94
	
l3024:	
	goto	l3026
	
l3022:	
	goto	l3026
	
l3020:	
	goto	l3026
	
l3018:	
	goto	l3026
	
l3016:	
	goto	l3026
	
l3014:	
	
l3026:	
	return
	opt stack 0
GLOBAL	__end_of_ADCconvert
	__end_of_ADCconvert:
;; =============== function _ADCconvert ends ============

	signat	_ADCconvert,88
	global	_robotTurn
psect	text1141,local,class=CODE,delta=2
global __ptext1141
__ptext1141:

;; *************** function _robotTurn *****************
;; Defined at:
;;		line 112 in file "E:\Aldnoah.Zero\Assignment3\robot.c"
;; Parameters:    Size  Location     Type
;;  angle           2    2[BANK0 ] int 
;; Auto vars:     Size  Location     Type
;;		None
;; Return value:  Size  Location     Type
;;		None               void
;; Registers used:
;;		wreg, fsr0l, fsr0h, status,2, status,0, btemp+1, pclath, cstack
;; Tracked objects:
;;		On entry : 0/0
;;		On exit  : 0/0
;;		Unchanged: 0/0
;; Data sizes:     COMMON   BANK0   BANK1   BANK3   BANK2
;;      Params:         0       2       0       0       0
;;      Locals:         0       0       0       0       0
;;      Temps:          0       0       0       0       0
;;      Totals:         0       2       0       0       0
;;Total ram usage:        2 bytes
;; Hardware stack levels used:    1
;; Hardware stack levels required when called:    4
;; This function calls:
;;		_ser_putch
;; This function is called by:
;;		_main
;;		_robotTurnSpeed
;; This function uses a non-reentrant model
;;
psect	text1141
	file	"E:\Aldnoah.Zero\Assignment3\robot.c"
	line	112
	global	__size_of_robotTurn
	__size_of_robotTurn	equ	__end_of_robotTurn-_robotTurn
	
_robotTurn:	
	opt	stack 3
; Regs used in _robotTurn: [wreg-fsr0h+status,2+status,0+btemp+1+pclath+cstack]
	line	114
	
l11343:	
;robot.c: 114: if (angle > 0)
	bcf	status, 5	;RP0=0, select bank0
	bcf	status, 6	;RP1=0, select bank0
	movf	(robotTurn@angle+1),w
	xorlw	80h
	movwf	btemp+1
	movlw	(high(01h))^80h
	subwf	btemp+1,w
	skipz
	goto	u5025
	movlw	low(01h)
	subwf	(robotTurn@angle),w
u5025:

	skipc
	goto	u5021
	goto	u5020
u5021:
	goto	l6048
u5020:
	line	116
	
l11345:	
;robot.c: 115: {
;robot.c: 116: ser_putch(137);
	movlw	(089h)
	fcall	_ser_putch
	line	118
;robot.c: 118: ser_putch(0);
	movlw	(0)
	fcall	_ser_putch
	line	120
;robot.c: 120: ser_putch(50);
	movlw	(032h)
	fcall	_ser_putch
	line	122
;robot.c: 122: ser_putch(0);
	movlw	(0)
	fcall	_ser_putch
	line	124
;robot.c: 124: ser_putch(1);
	movlw	(01h)
	fcall	_ser_putch
	line	125
;robot.c: 125: }
	goto	l6052
	line	126
	
l6048:	
;robot.c: 126: else if (angle < 0)
	bcf	status, 5	;RP0=0, select bank0
	bcf	status, 6	;RP1=0, select bank0
	btfss	(robotTurn@angle+1),7
	goto	u5031
	goto	u5030
u5031:
	goto	l11349
u5030:
	line	128
	
l11347:	
;robot.c: 127: {
;robot.c: 128: ser_putch(137);
	movlw	(089h)
	fcall	_ser_putch
	line	130
;robot.c: 130: ser_putch(0);
	movlw	(0)
	fcall	_ser_putch
	line	132
;robot.c: 132: ser_putch(50);
	movlw	(032h)
	fcall	_ser_putch
	line	134
;robot.c: 134: ser_putch(255);
	movlw	(0FFh)
	fcall	_ser_putch
	line	136
;robot.c: 136: ser_putch(255);
	movlw	(0FFh)
	fcall	_ser_putch
	line	137
;robot.c: 137: }
	goto	l6052
	line	138
	
l6050:	
	line	140
	
l11349:	
;robot.c: 138: else
;robot.c: 139: {
;robot.c: 140: ser_putch(137);
	movlw	(089h)
	fcall	_ser_putch
	line	142
;robot.c: 142: ser_putch(0);
	movlw	(0)
	fcall	_ser_putch
	line	144
;robot.c: 144: ser_putch(0);
	movlw	(0)
	fcall	_ser_putch
	line	146
;robot.c: 146: ser_putch(0);
	movlw	(0)
	fcall	_ser_putch
	line	148
;robot.c: 148: ser_putch(0);
	movlw	(0)
	fcall	_ser_putch
	goto	l6052
	line	149
	
l6051:	
	goto	l6052
	
l6049:	
	line	150
	
l6052:	
	return
	opt stack 0
GLOBAL	__end_of_robotTurn
	__end_of_robotTurn:
;; =============== function _robotTurn ends ============

	signat	_robotTurn,4216
	global	_rotate
psect	text1142,local,class=CODE,delta=2
global __ptext1142
__ptext1142:

;; *************** function _rotate *****************
;; Defined at:
;;		line 66 in file "E:\Aldnoah.Zero\Assignment3\steppermotor.c"
;; Parameters:    Size  Location     Type
;;  numsteps        2    3[BANK0 ] unsigned int 
;;  direction       1    5[BANK0 ] unsigned char 
;; Auto vars:     Size  Location     Type
;;  i               2    8[BANK0 ] unsigned int 
;; Return value:  Size  Location     Type
;;		None               void
;; Registers used:
;;		wreg, status,2, status,0, pclath, cstack
;; Tracked objects:
;;		On entry : 0/0
;;		On exit  : 0/0
;;		Unchanged: 0/0
;; Data sizes:     COMMON   BANK0   BANK1   BANK3   BANK2
;;      Params:         0       3       0       0       0
;;      Locals:         0       2       0       0       0
;;      Temps:          0       2       0       0       0
;;      Totals:         0       7       0       0       0
;;Total ram usage:        7 bytes
;; Hardware stack levels used:    1
;; Hardware stack levels required when called:    4
;; This function calls:
;;		_spi_transfer
;; This function is called by:
;;		_main
;;		_calibrateIR
;;		_scan360
;; This function uses a non-reentrant model
;;
psect	text1142
	file	"E:\Aldnoah.Zero\Assignment3\steppermotor.c"
	line	66
	global	__size_of_rotate
	__size_of_rotate	equ	__end_of_rotate-_rotate
	
_rotate:	
	opt	stack 3
; Regs used in _rotate: [wreg+status,2+status,0+pclath+cstack]
	line	68
	
l11315:	
;steppermotor.c: 68: RC0 = 1; RC1 = 1;;
	bcf	status, 5	;RP0=0, select bank0
	bcf	status, 6	;RP1=0, select bank0
	bsf	(56/8),(56)&7
	bsf	(57/8),(57)&7
	line	69
	
l11317:	
;steppermotor.c: 69: if (direction == 0)
	movf	(rotate@direction),f
	skipz
	goto	u5001
	goto	u5000
u5001:
	goto	l11321
u5000:
	line	70
	
l11319:	
;steppermotor.c: 70: spi_transfer(0b00001011);
	movlw	(0Bh)
	fcall	_spi_transfer
	goto	l11323
	line	71
	
l3727:	
	line	72
	
l11321:	
;steppermotor.c: 71: else
;steppermotor.c: 72: spi_transfer(0b00001001);
	movlw	(09h)
	fcall	_spi_transfer
	goto	l11323
	
l3728:	
	line	73
	
l11323:	
;steppermotor.c: 73: RC0 = 0; RC1 = 0;;
	bcf	status, 5	;RP0=0, select bank0
	bcf	status, 6	;RP1=0, select bank0
	bcf	(56/8),(56)&7
	
l11325:	
	bcf	(57/8),(57)&7
	line	74
	
l11327:	
;steppermotor.c: 74: for (unsigned int i = 0; i < numsteps; i++)
	clrf	(rotate@i)
	clrf	(rotate@i+1)
	goto	l3729
	line	75
	
l3730:	
	line	76
;steppermotor.c: 75: {
;steppermotor.c: 76: RC2 = 1; _nop(); RC2 = 0;;
	bsf	(58/8),(58)&7
	nop
	bcf	status, 5	;RP0=0, select bank0
	bcf	status, 6	;RP1=0, select bank0
	bcf	(58/8),(58)&7
	line	77
	
l11329:	
;steppermotor.c: 77: _delay((unsigned long)((15)*(20000000/4000.0)));
	opt asmopt_off
movlw	98
movwf	((??_rotate+0)+0+1),f
	movlw	101
movwf	((??_rotate+0)+0),f
u6007:
	decfsz	((??_rotate+0)+0),f
	goto	u6007
	decfsz	((??_rotate+0)+0+1),f
	goto	u6007
	nop2
opt asmopt_on

	line	74
	movlw	low(01h)
	bcf	status, 5	;RP0=0, select bank0
	bcf	status, 6	;RP1=0, select bank0
	addwf	(rotate@i),f
	skipnc
	incf	(rotate@i+1),f
	movlw	high(01h)
	addwf	(rotate@i+1),f
	
l3729:	
	movf	(rotate@numsteps+1),w
	subwf	(rotate@i+1),w
	skipz
	goto	u5015
	movf	(rotate@numsteps),w
	subwf	(rotate@i),w
u5015:
	skipc
	goto	u5011
	goto	u5010
u5011:
	goto	l3730
u5010:
	
l3731:	
	line	79
;steppermotor.c: 78: }
;steppermotor.c: 79: RC0 = 1; RC1 = 1;;
	bsf	(56/8),(56)&7
	bsf	(57/8),(57)&7
	line	80
	
l11331:	
;steppermotor.c: 80: spi_transfer(0b00000000);
	movlw	(0)
	fcall	_spi_transfer
	line	81
	
l11333:	
;steppermotor.c: 81: RC0 = 0; RC1 = 0;;
	bcf	status, 5	;RP0=0, select bank0
	bcf	status, 6	;RP1=0, select bank0
	bcf	(56/8),(56)&7
	
l11335:	
	bcf	(57/8),(57)&7
	line	82
	
l11337:	
;steppermotor.c: 82: RC2 = 1; _nop(); RC2 = 0;;
	bsf	(58/8),(58)&7
	
l11339:	
	nop
	
l11341:	
	bcf	status, 5	;RP0=0, select bank0
	bcf	status, 6	;RP1=0, select bank0
	bcf	(58/8),(58)&7
	line	83
	
l3732:	
	return
	opt stack 0
GLOBAL	__end_of_rotate
	__end_of_rotate:
;; =============== function _rotate ends ============

	signat	_rotate,8312
	global	_robo_init
psect	text1143,local,class=CODE,delta=2
global __ptext1143
__ptext1143:

;; *************** function _robo_init *****************
;; Defined at:
;;		line 36 in file "E:\Aldnoah.Zero\Assignment3\robot.c"
;; Parameters:    Size  Location     Type
;;		None
;; Auto vars:     Size  Location     Type
;;		None
;; Return value:  Size  Location     Type
;;		None               void
;; Registers used:
;;		wreg, fsr0l, fsr0h, status,2, status,0, pclath, cstack
;; Tracked objects:
;;		On entry : 0/0
;;		On exit  : 0/0
;;		Unchanged: 0/0
;; Data sizes:     COMMON   BANK0   BANK1   BANK3   BANK2
;;      Params:         0       0       0       0       0
;;      Locals:         0       0       0       0       0
;;      Temps:          0       0       0       0       0
;;      Totals:         0       0       0       0       0
;;Total ram usage:        0 bytes
;; Hardware stack levels used:    1
;; Hardware stack levels required when called:    4
;; This function calls:
;;		_ser_putch
;; This function is called by:
;;		_init
;; This function uses a non-reentrant model
;;
psect	text1143
	file	"E:\Aldnoah.Zero\Assignment3\robot.c"
	line	36
	global	__size_of_robo_init
	__size_of_robo_init	equ	__end_of_robo_init-_robo_init
	
_robo_init:	
	opt	stack 2
; Regs used in _robo_init: [wreg-fsr0h+status,2+status,0+pclath+cstack]
	line	37
	
l11313:	
;robot.c: 37: ser_putch(128);
	movlw	(080h)
	fcall	_ser_putch
	line	38
;robot.c: 38: ser_putch(132);
	movlw	(084h)
	fcall	_ser_putch
	line	39
;robot.c: 39: ser_putch(150);
	movlw	(096h)
	fcall	_ser_putch
	line	40
;robot.c: 40: ser_putch(0);
	movlw	(0)
	fcall	_ser_putch
	line	41
	
l6034:	
	return
	opt stack 0
GLOBAL	__end_of_robo_init
	__end_of_robo_init:
;; =============== function _robo_init ends ============

	signat	_robo_init,88
	global	_lcd_write_data
psect	text1144,local,class=CODE,delta=2
global __ptext1144
__ptext1144:

;; *************** function _lcd_write_data *****************
;; Defined at:
;;		line 30 in file "E:\Aldnoah.Zero\Assignment3\lcd.c"
;; Parameters:    Size  Location     Type
;;  databyte        1    wreg     unsigned char 
;; Auto vars:     Size  Location     Type
;;  databyte        1    2[BANK0 ] unsigned char 
;; Return value:  Size  Location     Type
;;		None               void
;; Registers used:
;;		wreg
;; Tracked objects:
;;		On entry : 0/0
;;		On exit  : 0/0
;;		Unchanged: 0/0
;; Data sizes:     COMMON   BANK0   BANK1   BANK3   BANK2
;;      Params:         0       0       0       0       0
;;      Locals:         0       1       0       0       0
;;      Temps:          0       2       0       0       0
;;      Totals:         0       3       0       0       0
;;Total ram usage:        3 bytes
;; Hardware stack levels used:    1
;; Hardware stack levels required when called:    3
;; This function calls:
;;		Nothing
;; This function is called by:
;;		_lcd_write_string
;;		_lcd_write_2_digit_bcd
;;		_lcd_write_3_digit_bcd
;; This function uses a non-reentrant model
;;
psect	text1144
	file	"E:\Aldnoah.Zero\Assignment3\lcd.c"
	line	30
	global	__size_of_lcd_write_data
	__size_of_lcd_write_data	equ	__end_of_lcd_write_data-_lcd_write_data
	
_lcd_write_data:	
	opt	stack 1
; Regs used in _lcd_write_data: [wreg]
;lcd_write_data@databyte stored from wreg
	bcf	status, 5	;RP0=0, select bank0
	bcf	status, 6	;RP1=0, select bank0
	movwf	(lcd_write_data@databyte)
	line	31
	
l11305:	
;lcd.c: 31: RE2 = 0;
	bcf	(74/8),(74)&7
	line	32
;lcd.c: 32: RE1 = 0;
	bcf	(73/8),(73)&7
	line	33
;lcd.c: 33: RE0 = 1;
	bsf	(72/8),(72)&7
	line	34
	
l11307:	
;lcd.c: 34: PORTD = databyte;
	movf	(lcd_write_data@databyte),w
	movwf	(8)	;volatile
	line	35
	
l11309:	
;lcd.c: 35: RE2 = 1;
	bsf	(74/8),(74)&7
	line	36
	
l11311:	
;lcd.c: 36: RE2 = 0;
	bcf	(74/8),(74)&7
	line	37
;lcd.c: 37: _delay((unsigned long)((1)*(20000000/4000.0)));
	opt asmopt_off
movlw	7
movwf	((??_lcd_write_data+0)+0+1),f
	movlw	125
movwf	((??_lcd_write_data+0)+0),f
u6017:
	decfsz	((??_lcd_write_data+0)+0),f
	goto	u6017
	decfsz	((??_lcd_write_data+0)+0+1),f
	goto	u6017
opt asmopt_on

	line	38
	
l1402:	
	return
	opt stack 0
GLOBAL	__end_of_lcd_write_data
	__end_of_lcd_write_data:
;; =============== function _lcd_write_data ends ============

	signat	_lcd_write_data,4216
	global	_lcd_write_control
psect	text1145,local,class=CODE,delta=2
global __ptext1145
__ptext1145:

;; *************** function _lcd_write_control *****************
;; Defined at:
;;		line 18 in file "E:\Aldnoah.Zero\Assignment3\lcd.c"
;; Parameters:    Size  Location     Type
;;  databyte        1    wreg     unsigned char 
;; Auto vars:     Size  Location     Type
;;  databyte        1    2[BANK0 ] unsigned char 
;; Return value:  Size  Location     Type
;;		None               void
;; Registers used:
;;		wreg
;; Tracked objects:
;;		On entry : 0/0
;;		On exit  : 0/0
;;		Unchanged: 0/0
;; Data sizes:     COMMON   BANK0   BANK1   BANK3   BANK2
;;      Params:         0       0       0       0       0
;;      Locals:         0       1       0       0       0
;;      Temps:          0       2       0       0       0
;;      Totals:         0       3       0       0       0
;;Total ram usage:        3 bytes
;; Hardware stack levels used:    1
;; Hardware stack levels required when called:    3
;; This function calls:
;;		Nothing
;; This function is called by:
;;		_lcd_set_cursor
;;		_lcd_init
;;		_UpdateDisplay
;; This function uses a non-reentrant model
;;
psect	text1145
	file	"E:\Aldnoah.Zero\Assignment3\lcd.c"
	line	18
	global	__size_of_lcd_write_control
	__size_of_lcd_write_control	equ	__end_of_lcd_write_control-_lcd_write_control
	
_lcd_write_control:	
	opt	stack 1
; Regs used in _lcd_write_control: [wreg]
;lcd_write_control@databyte stored from wreg
	bcf	status, 5	;RP0=0, select bank0
	bcf	status, 6	;RP1=0, select bank0
	movwf	(lcd_write_control@databyte)
	line	19
	
l11297:	
;lcd.c: 19: RE2 = 0;
	bcf	(74/8),(74)&7
	line	20
;lcd.c: 20: RE1 = 0;
	bcf	(73/8),(73)&7
	line	21
;lcd.c: 21: RE0 = 0;
	bcf	(72/8),(72)&7
	line	22
	
l11299:	
;lcd.c: 22: PORTD = databyte;
	movf	(lcd_write_control@databyte),w
	movwf	(8)	;volatile
	line	23
	
l11301:	
;lcd.c: 23: RE2 = 1;
	bsf	(74/8),(74)&7
	line	24
	
l11303:	
;lcd.c: 24: RE2 = 0;
	bcf	(74/8),(74)&7
	line	25
;lcd.c: 25: _delay((unsigned long)((2)*(20000000/4000.0)));
	opt asmopt_off
movlw	13
movwf	((??_lcd_write_control+0)+0+1),f
	movlw	251
movwf	((??_lcd_write_control+0)+0),f
u6027:
	decfsz	((??_lcd_write_control+0)+0),f
	goto	u6027
	decfsz	((??_lcd_write_control+0)+0+1),f
	goto	u6027
	nop2
opt asmopt_on

	line	26
	
l1399:	
	return
	opt stack 0
GLOBAL	__end_of_lcd_write_control
	__end_of_lcd_write_control:
;; =============== function _lcd_write_control ends ============

	signat	_lcd_write_control,4216
	global	_init_adc
psect	text1146,local,class=CODE,delta=2
global __ptext1146
__ptext1146:

;; *************** function _init_adc *****************
;; Defined at:
;;		line 61 in file "E:\Aldnoah.Zero\Assignment3\adc.c"
;; Parameters:    Size  Location     Type
;;		None
;; Auto vars:     Size  Location     Type
;;		None
;; Return value:  Size  Location     Type
;;		None               void
;; Registers used:
;;		wreg, status,2
;; Tracked objects:
;;		On entry : 0/0
;;		On exit  : 0/0
;;		Unchanged: 0/0
;; Data sizes:     COMMON   BANK0   BANK1   BANK3   BANK2
;;      Params:         0       0       0       0       0
;;      Locals:         0       0       0       0       0
;;      Temps:          0       1       0       0       0
;;      Totals:         0       1       0       0       0
;;Total ram usage:        1 bytes
;; Hardware stack levels used:    1
;; Hardware stack levels required when called:    3
;; This function calls:
;;		Nothing
;; This function is called by:
;;		_init
;; This function uses a non-reentrant model
;;
psect	text1146
	file	"E:\Aldnoah.Zero\Assignment3\adc.c"
	line	61
	global	__size_of_init_adc
	__size_of_init_adc	equ	__end_of_init_adc-_init_adc
	
_init_adc:	
	opt	stack 3
; Regs used in _init_adc: [wreg+status,2]
	line	63
	
l11287:	
;adc.c: 63: PORTA = 0;
	bcf	status, 5	;RP0=0, select bank0
	bcf	status, 6	;RP1=0, select bank0
	clrf	(5)	;volatile
	line	64
	
l11289:	
;adc.c: 64: TRISA = 0b00111111;
	movlw	(03Fh)
	bsf	status, 5	;RP0=1, select bank1
	bcf	status, 6	;RP1=0, select bank1
	movwf	(133)^080h	;volatile
	line	67
	
l11291:	
;adc.c: 67: ADCON0 = 0b10100001;
	movlw	(0A1h)
	bcf	status, 5	;RP0=0, select bank0
	bcf	status, 6	;RP1=0, select bank0
	movwf	(31)	;volatile
	line	68
	
l11293:	
;adc.c: 68: ADCON1 = 0b0000010;
	movlw	(02h)
	bsf	status, 5	;RP0=1, select bank1
	bcf	status, 6	;RP1=0, select bank1
	movwf	(159)^080h	;volatile
	line	70
	
l11295:	
;adc.c: 70: _delay((unsigned long)((50)*(20000000/4000000.0)));
	opt asmopt_off
movlw	83
	bcf	status, 5	;RP0=0, select bank0
	bcf	status, 6	;RP1=0, select bank0
movwf	(??_init_adc+0)+0,f
u6037:
decfsz	(??_init_adc+0)+0,f
	goto	u6037
opt asmopt_on

	line	72
	
l700:	
	return
	opt stack 0
GLOBAL	__end_of_init_adc
	__end_of_init_adc:
;; =============== function _init_adc ends ============

	signat	_init_adc,88
	global	_adc_read_channel
psect	text1147,local,class=CODE,delta=2
global __ptext1147
__ptext1147:

;; *************** function _adc_read_channel *****************
;; Defined at:
;;		line 20 in file "E:\Aldnoah.Zero\Assignment3\adc.c"
;; Parameters:    Size  Location     Type
;;  channel         1    wreg     unsigned char 
;; Auto vars:     Size  Location     Type
;;  channel         1    7[BANK0 ] unsigned char 
;; Return value:  Size  Location     Type
;;                  1    wreg      unsigned char 
;; Registers used:
;;		wreg, fsr0l, fsr0h, status,2, status,0, pclath, cstack
;; Tracked objects:
;;		On entry : 0/0
;;		On exit  : 0/0
;;		Unchanged: 0/0
;; Data sizes:     COMMON   BANK0   BANK1   BANK3   BANK2
;;      Params:         0       0       0       0       0
;;      Locals:         0       1       0       0       0
;;      Temps:          0       1       0       0       0
;;      Totals:         0       2       0       0       0
;;Total ram usage:        2 bytes
;; Hardware stack levels used:    1
;; Hardware stack levels required when called:    4
;; This function calls:
;;		_adc_read
;; This function is called by:
;;		_readDistance
;; This function uses a non-reentrant model
;;
psect	text1147
	file	"E:\Aldnoah.Zero\Assignment3\adc.c"
	line	20
	global	__size_of_adc_read_channel
	__size_of_adc_read_channel	equ	__end_of_adc_read_channel-_adc_read_channel
	
_adc_read_channel:	
	opt	stack 0
; Regs used in _adc_read_channel: [wreg-fsr0h+status,2+status,0+pclath+cstack]
;adc_read_channel@channel stored from wreg
	bcf	status, 5	;RP0=0, select bank0
	bcf	status, 6	;RP1=0, select bank0
	movwf	(adc_read_channel@channel)
	line	21
	
l11271:	
;adc.c: 21: switch(channel)
	goto	l11279
	line	23
;adc.c: 22: {
;adc.c: 23: case 0:
	
l690:	
	line	24
;adc.c: 24: CHS0 = 0;
	bcf	(251/8),(251)&7
	line	25
;adc.c: 25: CHS1 = 0;
	bcf	(252/8),(252)&7
	line	26
;adc.c: 26: CHS2 = 0;
	bcf	(253/8),(253)&7
	line	27
;adc.c: 27: break;
	goto	l11281
	line	28
;adc.c: 28: case 1:
	
l692:	
	line	29
;adc.c: 29: CHS0 = 1;
	bsf	(251/8),(251)&7
	line	30
;adc.c: 30: CHS1 = 0;
	bcf	(252/8),(252)&7
	line	31
;adc.c: 31: CHS2 = 0;
	bcf	(253/8),(253)&7
	line	32
;adc.c: 32: break;
	goto	l11281
	line	33
;adc.c: 33: case 2:
	
l693:	
	line	34
;adc.c: 34: CHS0 = 0;
	bcf	(251/8),(251)&7
	line	35
;adc.c: 35: CHS1 = 1;
	bsf	(252/8),(252)&7
	line	36
;adc.c: 36: CHS2 = 0;
	bcf	(253/8),(253)&7
	line	37
;adc.c: 37: break;
	goto	l11281
	line	38
;adc.c: 38: case 3:
	
l694:	
	line	39
;adc.c: 39: CHS0 = 1;
	bsf	(251/8),(251)&7
	line	40
;adc.c: 40: CHS1 = 1;
	bsf	(252/8),(252)&7
	line	41
;adc.c: 41: CHS2 = 0;
	bcf	(253/8),(253)&7
	line	42
;adc.c: 42: break;
	goto	l11281
	line	43
;adc.c: 43: case 4:
	
l695:	
	line	44
;adc.c: 44: CHS0 = 0;
	bcf	(251/8),(251)&7
	line	45
;adc.c: 45: CHS1 = 0;
	bcf	(252/8),(252)&7
	line	46
;adc.c: 46: CHS2 = 1;
	bsf	(253/8),(253)&7
	line	47
;adc.c: 47: break;
	goto	l11281
	line	50
;adc.c: 50: default:
	
l696:	
	line	51
	
l11273:	
;adc.c: 51: return 0;
	movlw	(0)
	goto	l697
	
l11275:	
	goto	l697
	line	52
	
l11277:	
;adc.c: 52: }
	goto	l11281
	line	21
	
l689:	
	
l11279:	
	movf	(adc_read_channel@channel),w
	; Switch size 1, requested type "space"
; Number of cases is 5, Range of values is 0 to 4
; switch strategies available:
; Name         Instructions Cycles
; simple_byte           16     9 (average)
; direct_byte           23     8 (fixed)
; jumptable            260     6 (fixed)
; rangetable             9     6 (fixed)
; spacedrange           16     9 (fixed)
; locatedrange           5     3 (fixed)
;	Chosen strategy is simple_byte

	opt asmopt_off
	xorlw	0^0	; case 0
	skipnz
	goto	l690
	xorlw	1^0	; case 1
	skipnz
	goto	l692
	xorlw	2^1	; case 2
	skipnz
	goto	l693
	xorlw	3^2	; case 3
	skipnz
	goto	l694
	xorlw	4^3	; case 4
	skipnz
	goto	l695
	goto	l11273
	opt asmopt_on

	line	52
	
l691:	
	line	54
	
l11281:	
;adc.c: 54: _delay((unsigned long)((50)*(20000000/4000000.0)));
	opt asmopt_off
movlw	83
movwf	(??_adc_read_channel+0)+0,f
u6047:
decfsz	(??_adc_read_channel+0)+0,f
	goto	u6047
opt asmopt_on

	line	56
	
l11283:	
;adc.c: 56: return adc_read();
	fcall	_adc_read
	bcf	status, 5	;RP0=0, select bank0
	bcf	status, 6	;RP1=0, select bank0
	movf	(0+(?_adc_read)),w
	goto	l697
	
l11285:	
	line	58
	
l697:	
	return
	opt stack 0
GLOBAL	__end_of_adc_read_channel
	__end_of_adc_read_channel:
;; =============== function _adc_read_channel ends ============

	signat	_adc_read_channel,4217
	global	___awmod
psect	text1148,local,class=CODE,delta=2
global __ptext1148
__ptext1148:

;; *************** function ___awmod *****************
;; Defined at:
;;		line 5 in file "C:\Program Files\HI-TECH Software\PICC\9.83\sources\awmod.c"
;; Parameters:    Size  Location     Type
;;  divisor         2    0[BANK0 ] int 
;;  dividend        2    2[BANK0 ] int 
;; Auto vars:     Size  Location     Type
;;  sign            1    6[BANK0 ] unsigned char 
;;  counter         1    5[BANK0 ] unsigned char 
;; Return value:  Size  Location     Type
;;                  2    0[BANK0 ] int 
;; Registers used:
;;		wreg, status,2, status,0
;; Tracked objects:
;;		On entry : 0/0
;;		On exit  : 0/0
;;		Unchanged: 0/0
;; Data sizes:     COMMON   BANK0   BANK1   BANK3   BANK2
;;      Params:         0       4       0       0       0
;;      Locals:         0       2       0       0       0
;;      Temps:          0       1       0       0       0
;;      Totals:         0       7       0       0       0
;;Total ram usage:        7 bytes
;; Hardware stack levels used:    1
;; Hardware stack levels required when called:    3
;; This function calls:
;;		Nothing
;; This function is called by:
;;		_UpdateDisplay
;; This function uses a non-reentrant model
;;
psect	text1148
	file	"C:\Program Files\HI-TECH Software\PICC\9.83\sources\awmod.c"
	line	5
	global	__size_of___awmod
	__size_of___awmod	equ	__end_of___awmod-___awmod
	
___awmod:	
	opt	stack 2
; Regs used in ___awmod: [wreg+status,2+status,0]
	line	8
	
l11169:	
	bcf	status, 5	;RP0=0, select bank0
	bcf	status, 6	;RP1=0, select bank0
	clrf	(___awmod@sign)
	line	9
	btfss	(___awmod@dividend+1),7
	goto	u4791
	goto	u4790
u4791:
	goto	l11173
u4790:
	line	10
	
l11171:	
	comf	(___awmod@dividend),f
	comf	(___awmod@dividend+1),f
	incf	(___awmod@dividend),f
	skipnz
	incf	(___awmod@dividend+1),f
	line	11
	clrf	(___awmod@sign)
	bsf	status,0
	rlf	(___awmod@sign),f
	goto	l11173
	line	12
	
l7741:	
	line	13
	
l11173:	
	btfss	(___awmod@divisor+1),7
	goto	u4801
	goto	u4800
u4801:
	goto	l11177
u4800:
	line	14
	
l11175:	
	comf	(___awmod@divisor),f
	comf	(___awmod@divisor+1),f
	incf	(___awmod@divisor),f
	skipnz
	incf	(___awmod@divisor+1),f
	goto	l11177
	
l7742:	
	line	15
	
l11177:	
	movf	(___awmod@divisor+1),w
	iorwf	(___awmod@divisor),w
	skipnz
	goto	u4811
	goto	u4810
u4811:
	goto	l11195
u4810:
	line	16
	
l11179:	
	clrf	(___awmod@counter)
	bsf	status,0
	rlf	(___awmod@counter),f
	line	17
	goto	l11185
	
l7745:	
	line	18
	
l11181:	
	movlw	01h
	
u4825:
	clrc
	rlf	(___awmod@divisor),f
	rlf	(___awmod@divisor+1),f
	addlw	-1
	skipz
	goto	u4825
	line	19
	
l11183:	
	movlw	(01h)
	movwf	(??___awmod+0)+0
	movf	(??___awmod+0)+0,w
	addwf	(___awmod@counter),f
	goto	l11185
	line	20
	
l7744:	
	line	17
	
l11185:	
	btfss	(___awmod@divisor+1),(15)&7
	goto	u4831
	goto	u4830
u4831:
	goto	l11181
u4830:
	goto	l11187
	
l7746:	
	goto	l11187
	line	21
	
l7747:	
	line	22
	
l11187:	
	movf	(___awmod@divisor+1),w
	subwf	(___awmod@dividend+1),w
	skipz
	goto	u4845
	movf	(___awmod@divisor),w
	subwf	(___awmod@dividend),w
u4845:
	skipc
	goto	u4841
	goto	u4840
u4841:
	goto	l11191
u4840:
	line	23
	
l11189:	
	movf	(___awmod@divisor),w
	subwf	(___awmod@dividend),f
	movf	(___awmod@divisor+1),w
	skipc
	decf	(___awmod@dividend+1),f
	subwf	(___awmod@dividend+1),f
	goto	l11191
	
l7748:	
	line	24
	
l11191:	
	movlw	01h
	
u4855:
	clrc
	rrf	(___awmod@divisor+1),f
	rrf	(___awmod@divisor),f
	addlw	-1
	skipz
	goto	u4855
	line	25
	
l11193:	
	movlw	low(01h)
	subwf	(___awmod@counter),f
	btfss	status,2
	goto	u4861
	goto	u4860
u4861:
	goto	l11187
u4860:
	goto	l11195
	
l7749:	
	goto	l11195
	line	26
	
l7743:	
	line	27
	
l11195:	
	movf	(___awmod@sign),w
	skipz
	goto	u4870
	goto	l11199
u4870:
	line	28
	
l11197:	
	comf	(___awmod@dividend),f
	comf	(___awmod@dividend+1),f
	incf	(___awmod@dividend),f
	skipnz
	incf	(___awmod@dividend+1),f
	goto	l11199
	
l7750:	
	line	29
	
l11199:	
	movf	(___awmod@dividend+1),w
	clrf	(?___awmod+1)
	addwf	(?___awmod+1)
	movf	(___awmod@dividend),w
	clrf	(?___awmod)
	addwf	(?___awmod)

	goto	l7751
	
l11201:	
	line	30
	
l7751:	
	return
	opt stack 0
GLOBAL	__end_of___awmod
	__end_of___awmod:
;; =============== function ___awmod ends ============

	signat	___awmod,8314
	global	___ftge
psect	text1149,local,class=CODE,delta=2
global __ptext1149
__ptext1149:

;; *************** function ___ftge *****************
;; Defined at:
;;		line 5 in file "C:\Program Files\HI-TECH Software\PICC\9.83\sources\ftge.c"
;; Parameters:    Size  Location     Type
;;  ff1             3    0[BANK0 ] float 
;;  ff2             3    3[BANK0 ] float 
;; Auto vars:     Size  Location     Type
;;		None
;; Return value:  Size  Location     Type
;;		None               void
;; Registers used:
;;		wreg, status,2, status,0
;; Tracked objects:
;;		On entry : 0/0
;;		On exit  : 0/0
;;		Unchanged: 0/0
;; Data sizes:     COMMON   BANK0   BANK1   BANK3   BANK2
;;      Params:         0       6       0       0       0
;;      Locals:         0       0       0       0       0
;;      Temps:          0       6       0       0       0
;;      Totals:         0      12       0       0       0
;;Total ram usage:       12 bytes
;; Hardware stack levels used:    1
;; Hardware stack levels required when called:    3
;; This function calls:
;;		Nothing
;; This function is called by:
;;		_robotFollow
;;		_robotMoveSpeed
;; This function uses a non-reentrant model
;;
psect	text1149
	file	"C:\Program Files\HI-TECH Software\PICC\9.83\sources\ftge.c"
	line	5
	global	__size_of___ftge
	__size_of___ftge	equ	__end_of___ftge-___ftge
	
___ftge:	
	opt	stack 3
; Regs used in ___ftge: [wreg+status,2+status,0]
	line	6
	
l11149:	
	bcf	status, 5	;RP0=0, select bank0
	bcf	status, 6	;RP1=0, select bank0
	btfss	(___ftge@ff1+2),(23)&7
	goto	u4741
	goto	u4740
u4741:
	goto	l11153
u4740:
	line	7
	
l11151:	
	movlw	0
	movwf	((??___ftge+0)+0)
	movlw	0
	movwf	((??___ftge+0)+0+1)
	movlw	080h
	movwf	((??___ftge+0)+0+2)
	comf	(___ftge@ff1),w
	movwf	(??___ftge+3)+0
	comf	(___ftge@ff1+1),w
	movwf	((??___ftge+3)+0+1)
	comf	(___ftge@ff1+2),w
	movwf	((??___ftge+3)+0+2)
	incf	(??___ftge+3)+0,f
	skipnz
	incf	((??___ftge+3)+0+1),f
	skipnz
	incf	((??___ftge+3)+0+2),f
	movf	0+(??___ftge+3)+0,w
	addwf	(??___ftge+0)+0,f
	movf	1+(??___ftge+3)+0,w
	skipnc
	incfsz	1+(??___ftge+3)+0,w
	goto	u4751
	goto	u4752
u4751:
	addwf	(??___ftge+0)+1,f
	
u4752:
	movf	2+(??___ftge+3)+0,w
	skipnc
	incfsz	2+(??___ftge+3)+0,w
	goto	u4753
	goto	u4754
u4753:
	addwf	(??___ftge+0)+2,f
	
u4754:
	movf	0+(??___ftge+0)+0,w
	movwf	(___ftge@ff1)
	movf	1+(??___ftge+0)+0,w
	movwf	(___ftge@ff1+1)
	movf	2+(??___ftge+0)+0,w
	movwf	(___ftge@ff1+2)
	goto	l11153
	
l7700:	
	line	8
	
l11153:	
	btfss	(___ftge@ff2+2),(23)&7
	goto	u4761
	goto	u4760
u4761:
	goto	l11157
u4760:
	line	9
	
l11155:	
	movlw	0
	movwf	((??___ftge+0)+0)
	movlw	0
	movwf	((??___ftge+0)+0+1)
	movlw	080h
	movwf	((??___ftge+0)+0+2)
	comf	(___ftge@ff2),w
	movwf	(??___ftge+3)+0
	comf	(___ftge@ff2+1),w
	movwf	((??___ftge+3)+0+1)
	comf	(___ftge@ff2+2),w
	movwf	((??___ftge+3)+0+2)
	incf	(??___ftge+3)+0,f
	skipnz
	incf	((??___ftge+3)+0+1),f
	skipnz
	incf	((??___ftge+3)+0+2),f
	movf	0+(??___ftge+3)+0,w
	addwf	(??___ftge+0)+0,f
	movf	1+(??___ftge+3)+0,w
	skipnc
	incfsz	1+(??___ftge+3)+0,w
	goto	u4771
	goto	u4772
u4771:
	addwf	(??___ftge+0)+1,f
	
u4772:
	movf	2+(??___ftge+3)+0,w
	skipnc
	incfsz	2+(??___ftge+3)+0,w
	goto	u4773
	goto	u4774
u4773:
	addwf	(??___ftge+0)+2,f
	
u4774:
	movf	0+(??___ftge+0)+0,w
	movwf	(___ftge@ff2)
	movf	1+(??___ftge+0)+0,w
	movwf	(___ftge@ff2+1)
	movf	2+(??___ftge+0)+0,w
	movwf	(___ftge@ff2+2)
	goto	l11157
	
l7701:	
	line	10
	
l11157:	
	movlw	080h
	xorwf	(___ftge@ff1+2),f
	line	11
	
l11159:	
	movlw	080h
	xorwf	(___ftge@ff2+2),f
	line	12
	
l11161:	
	movf	(___ftge@ff2+2),w
	subwf	(___ftge@ff1+2),w
	skipz
	goto	u4785
	movf	(___ftge@ff2+1),w
	subwf	(___ftge@ff1+1),w
	skipz
	goto	u4785
	movf	(___ftge@ff2),w
	subwf	(___ftge@ff1),w
u4785:
	skipnc
	goto	u4781
	goto	u4780
u4781:
	goto	l11165
u4780:
	
l11163:	
	clrc
	
	goto	l7702
	
l10599:	
	
l11165:	
	setc
	
	goto	l7702
	
l10601:	
	goto	l7702
	
l11167:	
	line	13
	
l7702:	
	return
	opt stack 0
GLOBAL	__end_of___ftge
	__end_of___ftge:
;; =============== function ___ftge ends ============

	signat	___ftge,8312
	global	___fttol
psect	text1150,local,class=CODE,delta=2
global __ptext1150
__ptext1150:

;; *************** function ___fttol *****************
;; Defined at:
;;		line 45 in file "C:\Program Files\HI-TECH Software\PICC\9.83\sources\fttol.c"
;; Parameters:    Size  Location     Type
;;  f1              3    8[BANK0 ] float 
;; Auto vars:     Size  Location     Type
;;  lval            4   17[BANK0 ] unsigned long 
;;  exp1            1   21[BANK0 ] unsigned char 
;;  sign1           1   16[BANK0 ] unsigned char 
;; Return value:  Size  Location     Type
;;                  4    8[BANK0 ] long 
;; Registers used:
;;		wreg, status,2, status,0
;; Tracked objects:
;;		On entry : 0/0
;;		On exit  : 0/0
;;		Unchanged: 0/0
;; Data sizes:     COMMON   BANK0   BANK1   BANK3   BANK2
;;      Params:         0       4       0       0       0
;;      Locals:         0       6       0       0       0
;;      Temps:          0       4       0       0       0
;;      Totals:         0      14       0       0       0
;;Total ram usage:       14 bytes
;; Hardware stack levels used:    1
;; Hardware stack levels required when called:    3
;; This function calls:
;;		Nothing
;; This function is called by:
;;		_main
;;		_robotFollow
;;		_robotMoveSpeed
;; This function uses a non-reentrant model
;;
psect	text1150
	file	"C:\Program Files\HI-TECH Software\PICC\9.83\sources\fttol.c"
	line	45
	global	__size_of___fttol
	__size_of___fttol	equ	__end_of___fttol-___fttol
	
___fttol:	
	opt	stack 4
; Regs used in ___fttol: [wreg+status,2+status,0]
	line	49
	
l11093:	
	bcf	status, 5	;RP0=0, select bank0
	bcf	status, 6	;RP1=0, select bank0
	movf	(___fttol@f1),w
	movwf	((??___fttol+0)+0)
	movf	(___fttol@f1+1),w
	movwf	((??___fttol+0)+0+1)
	movf	(___fttol@f1+2),w
	movwf	((??___fttol+0)+0+2)
	clrc
	rlf	(??___fttol+0)+1,w
	rlf	(??___fttol+0)+2,w
	movwf	(??___fttol+3)+0
	movf	(??___fttol+3)+0,w
	movwf	(___fttol@exp1)
	movf	((___fttol@exp1)),f
	skipz
	goto	u4631
	goto	u4630
u4631:
	goto	l11099
u4630:
	line	50
	
l11095:	
	movlw	0
	movwf	(?___fttol+3)
	movlw	0
	movwf	(?___fttol+2)
	movlw	0
	movwf	(?___fttol+1)
	movlw	0
	movwf	(?___fttol)

	goto	l7643
	
l11097:	
	goto	l7643
	
l7642:	
	line	51
	
l11099:	
	movf	(___fttol@f1),w
	movwf	((??___fttol+0)+0)
	movf	(___fttol@f1+1),w
	movwf	((??___fttol+0)+0+1)
	movf	(___fttol@f1+2),w
	movwf	((??___fttol+0)+0+2)
	movlw	017h
u4645:
	clrc
	rrf	(??___fttol+0)+2,f
	rrf	(??___fttol+0)+1,f
	rrf	(??___fttol+0)+0,f
u4640:
	addlw	-1
	skipz
	goto	u4645
	movf	0+(??___fttol+0)+0,w
	movwf	(??___fttol+3)+0
	movf	(??___fttol+3)+0,w
	movwf	(___fttol@sign1)
	line	52
	
l11101:	
	bsf	(___fttol@f1)+(15/8),(15)&7
	line	53
	
l11103:	
	movlw	0FFh
	andwf	(___fttol@f1),f
	movlw	0FFh
	andwf	(___fttol@f1+1),f
	movlw	0
	andwf	(___fttol@f1+2),f
	line	54
	
l11105:	
	movf	(___fttol@f1),w
	movwf	(___fttol@lval)
	movf	(___fttol@f1+1),w
	movwf	((___fttol@lval))+1
	movf	(___fttol@f1+2),w
	movwf	((___fttol@lval))+2
	clrf	((___fttol@lval))+3
	line	55
	
l11107:	
	movlw	low(08Eh)
	subwf	(___fttol@exp1),f
	line	56
	
l11109:	
	btfss	(___fttol@exp1),7
	goto	u4651
	goto	u4650
u4651:
	goto	l11119
u4650:
	line	57
	
l11111:	
	movf	(___fttol@exp1),w
	xorlw	80h
	addlw	-((-15)^80h)
	skipnc
	goto	u4661
	goto	u4660
u4661:
	goto	l11117
u4660:
	line	58
	
l11113:	
	movlw	0
	movwf	(?___fttol+3)
	movlw	0
	movwf	(?___fttol+2)
	movlw	0
	movwf	(?___fttol+1)
	movlw	0
	movwf	(?___fttol)

	goto	l7643
	
l11115:	
	goto	l7643
	
l7645:	
	goto	l11117
	line	59
	
l7646:	
	line	60
	
l11117:	
	movlw	01h
u4675:
	clrc
	rrf	(___fttol@lval+3),f
	rrf	(___fttol@lval+2),f
	rrf	(___fttol@lval+1),f
	rrf	(___fttol@lval),f
	addlw	-1
	skipz
	goto	u4675

	line	61
	movlw	(01h)
	movwf	(??___fttol+0)+0
	movf	(??___fttol+0)+0,w
	addwf	(___fttol@exp1),f
	btfss	status,2
	goto	u4681
	goto	u4680
u4681:
	goto	l11117
u4680:
	goto	l11129
	
l7647:	
	line	62
	goto	l11129
	
l7644:	
	line	63
	
l11119:	
	movlw	(018h)
	subwf	(___fttol@exp1),w
	skipc
	goto	u4691
	goto	u4690
u4691:
	goto	l11127
u4690:
	line	64
	
l11121:	
	movlw	0
	movwf	(?___fttol+3)
	movlw	0
	movwf	(?___fttol+2)
	movlw	0
	movwf	(?___fttol+1)
	movlw	0
	movwf	(?___fttol)

	goto	l7643
	
l11123:	
	goto	l7643
	
l7649:	
	line	65
	goto	l11127
	
l7651:	
	line	66
	
l11125:	
	movlw	01h
	movwf	(??___fttol+0)+0
u4705:
	clrc
	rlf	(___fttol@lval),f
	rlf	(___fttol@lval+1),f
	rlf	(___fttol@lval+2),f
	rlf	(___fttol@lval+3),f
	decfsz	(??___fttol+0)+0
	goto	u4705
	line	67
	movlw	low(01h)
	subwf	(___fttol@exp1),f
	goto	l11127
	line	68
	
l7650:	
	line	65
	
l11127:	
	movf	(___fttol@exp1),f
	skipz
	goto	u4711
	goto	u4710
u4711:
	goto	l11125
u4710:
	goto	l11129
	
l7652:	
	goto	l11129
	line	69
	
l7648:	
	line	70
	
l11129:	
	movf	(___fttol@sign1),w
	skipz
	goto	u4720
	goto	l11133
u4720:
	line	71
	
l11131:	
	comf	(___fttol@lval),f
	comf	(___fttol@lval+1),f
	comf	(___fttol@lval+2),f
	comf	(___fttol@lval+3),f
	incf	(___fttol@lval),f
	skipnz
	incf	(___fttol@lval+1),f
	skipnz
	incf	(___fttol@lval+2),f
	skipnz
	incf	(___fttol@lval+3),f
	goto	l11133
	
l7653:	
	line	72
	
l11133:	
	movf	(___fttol@lval+3),w
	movwf	(?___fttol+3)
	movf	(___fttol@lval+2),w
	movwf	(?___fttol+2)
	movf	(___fttol@lval+1),w
	movwf	(?___fttol+1)
	movf	(___fttol@lval),w
	movwf	(?___fttol)

	goto	l7643
	
l11135:	
	line	73
	
l7643:	
	return
	opt stack 0
GLOBAL	__end_of___fttol
	__end_of___fttol:
;; =============== function ___fttol ends ============

	signat	___fttol,4220
	global	___ftpack
psect	text1151,local,class=CODE,delta=2
global __ptext1151
__ptext1151:

;; *************** function ___ftpack *****************
;; Defined at:
;;		line 63 in file "C:\Program Files\HI-TECH Software\PICC\9.83\sources\float.c"
;; Parameters:    Size  Location     Type
;;  arg             3    0[BANK0 ] unsigned um
;;  exp             1    3[BANK0 ] unsigned char 
;;  sign            1    4[BANK0 ] unsigned char 
;; Auto vars:     Size  Location     Type
;;		None
;; Return value:  Size  Location     Type
;;                  3    0[BANK0 ] float 
;; Registers used:
;;		wreg, status,2, status,0
;; Tracked objects:
;;		On entry : 0/0
;;		On exit  : 0/0
;;		Unchanged: 0/0
;; Data sizes:     COMMON   BANK0   BANK1   BANK3   BANK2
;;      Params:         0       5       0       0       0
;;      Locals:         0       0       0       0       0
;;      Temps:          0       3       0       0       0
;;      Totals:         0       8       0       0       0
;;Total ram usage:        8 bytes
;; Hardware stack levels used:    1
;; Hardware stack levels required when called:    3
;; This function calls:
;;		Nothing
;; This function is called by:
;;		___ftdiv
;;		___ftmul
;;		___awtoft
;;		___ftadd
;;		___lbtoft
;;		___abtoft
;;		___lwtoft
;;		___altoft
;;		___lltoft
;;		___attoft
;;		___lttoft
;; This function uses a non-reentrant model
;;
psect	text1151
	file	"C:\Program Files\HI-TECH Software\PICC\9.83\sources\float.c"
	line	63
	global	__size_of___ftpack
	__size_of___ftpack	equ	__end_of___ftpack-___ftpack
	
___ftpack:	
	opt	stack 3
; Regs used in ___ftpack: [wreg+status,2+status,0]
	line	64
	
l11057:	
	bcf	status, 5	;RP0=0, select bank0
	bcf	status, 6	;RP1=0, select bank0
	movf	(___ftpack@exp),w
	skipz
	goto	u4520
	goto	l11061
u4520:
	
l11059:	
	movf	(___ftpack@arg+2),w
	iorwf	(___ftpack@arg+1),w
	iorwf	(___ftpack@arg),w
	skipz
	goto	u4531
	goto	u4530
u4531:
	goto	l11067
u4530:
	goto	l11061
	
l7867:	
	line	65
	
l11061:	
	movlw	0x0
	movwf	(?___ftpack)
	movlw	0x0
	movwf	(?___ftpack+1)
	movlw	0x0
	movwf	(?___ftpack+2)
	goto	l7868
	
l11063:	
	goto	l7868
	
l7865:	
	line	66
	goto	l11067
	
l7870:	
	line	67
	
l11065:	
	movlw	(01h)
	movwf	(??___ftpack+0)+0
	movf	(??___ftpack+0)+0,w
	addwf	(___ftpack@exp),f
	line	68
	movlw	01h
u4545:
	clrc
	rrf	(___ftpack@arg+2),f
	rrf	(___ftpack@arg+1),f
	rrf	(___ftpack@arg),f
	addlw	-1
	skipz
	goto	u4545

	goto	l11067
	line	69
	
l7869:	
	line	66
	
l11067:	
	movlw	low highword(0FE0000h)
	andwf	(___ftpack@arg+2),w
	btfss	status,2
	goto	u4551
	goto	u4550
u4551:
	goto	l11065
u4550:
	goto	l7872
	
l7871:	
	line	70
	goto	l7872
	
l7873:	
	line	71
	
l11069:	
	movlw	(01h)
	movwf	(??___ftpack+0)+0
	movf	(??___ftpack+0)+0,w
	addwf	(___ftpack@exp),f
	line	72
	
l11071:	
	movlw	01h
	addwf	(___ftpack@arg),f
	movlw	0
	skipnc
movlw 1
	addwf	(___ftpack@arg+1),f
	movlw	0
	skipnc
movlw 1
	addwf	(___ftpack@arg+2),f
	line	73
	
l11073:	
	movlw	01h
u4565:
	clrc
	rrf	(___ftpack@arg+2),f
	rrf	(___ftpack@arg+1),f
	rrf	(___ftpack@arg),f
	addlw	-1
	skipz
	goto	u4565

	line	74
	
l7872:	
	line	70
	movlw	low highword(0FF0000h)
	andwf	(___ftpack@arg+2),w
	btfss	status,2
	goto	u4571
	goto	u4570
u4571:
	goto	l11069
u4570:
	goto	l11077
	
l7874:	
	line	75
	goto	l11077
	
l7876:	
	line	76
	
l11075:	
	movlw	low(01h)
	subwf	(___ftpack@exp),f
	line	77
	movlw	01h
u4585:
	clrc
	rlf	(___ftpack@arg),f
	rlf	(___ftpack@arg+1),f
	rlf	(___ftpack@arg+2),f
	addlw	-1
	skipz
	goto	u4585
	goto	l11077
	line	78
	
l7875:	
	line	75
	
l11077:	
	btfss	(___ftpack@arg+1),(15)&7
	goto	u4591
	goto	u4590
u4591:
	goto	l11075
u4590:
	
l7877:	
	line	79
	btfsc	(___ftpack@exp),(0)&7
	goto	u4601
	goto	u4600
u4601:
	goto	l7878
u4600:
	line	80
	
l11079:	
	movlw	0FFh
	andwf	(___ftpack@arg),f
	movlw	07Fh
	andwf	(___ftpack@arg+1),f
	movlw	0FFh
	andwf	(___ftpack@arg+2),f
	
l7878:	
	line	81
	clrc
	rrf	(___ftpack@exp),f

	line	82
	
l11081:	
	movf	(___ftpack@exp),w
	movwf	((??___ftpack+0)+0)
	clrf	((??___ftpack+0)+0+1)
	clrf	((??___ftpack+0)+0+2)
	movlw	010h
u4615:
	clrc
	rlf	(??___ftpack+0)+0,f
	rlf	(??___ftpack+0)+1,f
	rlf	(??___ftpack+0)+2,f
u4610:
	addlw	-1
	skipz
	goto	u4615
	movf	0+(??___ftpack+0)+0,w
	iorwf	(___ftpack@arg),f
	movf	1+(??___ftpack+0)+0,w
	iorwf	(___ftpack@arg+1),f
	movf	2+(??___ftpack+0)+0,w
	iorwf	(___ftpack@arg+2),f
	line	83
	
l11083:	
	movf	(___ftpack@sign),w
	skipz
	goto	u4620
	goto	l7879
u4620:
	line	84
	
l11085:	
	bsf	(___ftpack@arg)+(23/8),(23)&7
	
l7879:	
	line	85
	line	86
	
l7868:	
	return
	opt stack 0
GLOBAL	__end_of___ftpack
	__end_of___ftpack:
;; =============== function ___ftpack ends ============

	signat	___ftpack,12411
	global	___lwmod
psect	text1152,local,class=CODE,delta=2
global __ptext1152
__ptext1152:

;; *************** function ___lwmod *****************
;; Defined at:
;;		line 5 in file "C:\Program Files\HI-TECH Software\PICC\9.83\sources\lwmod.c"
;; Parameters:    Size  Location     Type
;;  divisor         2   14[BANK0 ] unsigned int 
;;  dividend        2   16[BANK0 ] unsigned int 
;; Auto vars:     Size  Location     Type
;;  counter         1   19[BANK0 ] unsigned char 
;; Return value:  Size  Location     Type
;;                  2   14[BANK0 ] unsigned int 
;; Registers used:
;;		wreg, status,2, status,0
;; Tracked objects:
;;		On entry : 0/0
;;		On exit  : 0/0
;;		Unchanged: 0/0
;; Data sizes:     COMMON   BANK0   BANK1   BANK3   BANK2
;;      Params:         0       4       0       0       0
;;      Locals:         0       1       0       0       0
;;      Temps:          0       1       0       0       0
;;      Totals:         0       6       0       0       0
;;Total ram usage:        6 bytes
;; Hardware stack levels used:    1
;; Hardware stack levels required when called:    3
;; This function calls:
;;		Nothing
;; This function is called by:
;;		_sprintf
;; This function uses a non-reentrant model
;;
psect	text1152
	file	"C:\Program Files\HI-TECH Software\PICC\9.83\sources\lwmod.c"
	line	5
	global	__size_of___lwmod
	__size_of___lwmod	equ	__end_of___lwmod-___lwmod
	
___lwmod:	
	opt	stack 1
; Regs used in ___lwmod: [wreg+status,2+status,0]
	line	8
	
l10965:	
	bcf	status, 5	;RP0=0, select bank0
	bcf	status, 6	;RP1=0, select bank0
	movf	(___lwmod@divisor+1),w
	iorwf	(___lwmod@divisor),w
	skipnz
	goto	u4221
	goto	u4220
u4221:
	goto	l10983
u4220:
	line	9
	
l10967:	
	clrf	(___lwmod@counter)
	bsf	status,0
	rlf	(___lwmod@counter),f
	line	10
	goto	l10973
	
l7551:	
	line	11
	
l10969:	
	movlw	01h
	
u4235:
	clrc
	rlf	(___lwmod@divisor),f
	rlf	(___lwmod@divisor+1),f
	addlw	-1
	skipz
	goto	u4235
	line	12
	
l10971:	
	movlw	(01h)
	movwf	(??___lwmod+0)+0
	movf	(??___lwmod+0)+0,w
	addwf	(___lwmod@counter),f
	goto	l10973
	line	13
	
l7550:	
	line	10
	
l10973:	
	btfss	(___lwmod@divisor+1),(15)&7
	goto	u4241
	goto	u4240
u4241:
	goto	l10969
u4240:
	goto	l10975
	
l7552:	
	goto	l10975
	line	14
	
l7553:	
	line	15
	
l10975:	
	movf	(___lwmod@divisor+1),w
	subwf	(___lwmod@dividend+1),w
	skipz
	goto	u4255
	movf	(___lwmod@divisor),w
	subwf	(___lwmod@dividend),w
u4255:
	skipc
	goto	u4251
	goto	u4250
u4251:
	goto	l10979
u4250:
	line	16
	
l10977:	
	movf	(___lwmod@divisor),w
	subwf	(___lwmod@dividend),f
	movf	(___lwmod@divisor+1),w
	skipc
	decf	(___lwmod@dividend+1),f
	subwf	(___lwmod@dividend+1),f
	goto	l10979
	
l7554:	
	line	17
	
l10979:	
	movlw	01h
	
u4265:
	clrc
	rrf	(___lwmod@divisor+1),f
	rrf	(___lwmod@divisor),f
	addlw	-1
	skipz
	goto	u4265
	line	18
	
l10981:	
	movlw	low(01h)
	subwf	(___lwmod@counter),f
	btfss	status,2
	goto	u4271
	goto	u4270
u4271:
	goto	l10975
u4270:
	goto	l10983
	
l7555:	
	goto	l10983
	line	19
	
l7549:	
	line	20
	
l10983:	
	movf	(___lwmod@dividend+1),w
	clrf	(?___lwmod+1)
	addwf	(?___lwmod+1)
	movf	(___lwmod@dividend),w
	clrf	(?___lwmod)
	addwf	(?___lwmod)

	goto	l7556
	
l10985:	
	line	21
	
l7556:	
	return
	opt stack 0
GLOBAL	__end_of___lwmod
	__end_of___lwmod:
;; =============== function ___lwmod ends ============

	signat	___lwmod,8314
	global	___lwdiv
psect	text1153,local,class=CODE,delta=2
global __ptext1153
__ptext1153:

;; *************** function ___lwdiv *****************
;; Defined at:
;;		line 5 in file "C:\Program Files\HI-TECH Software\PICC\9.83\sources\lwdiv.c"
;; Parameters:    Size  Location     Type
;;  divisor         2    6[BANK0 ] unsigned int 
;;  dividend        2    8[BANK0 ] unsigned int 
;; Auto vars:     Size  Location     Type
;;  quotient        2   11[BANK0 ] unsigned int 
;;  counter         1   13[BANK0 ] unsigned char 
;; Return value:  Size  Location     Type
;;                  2    6[BANK0 ] unsigned int 
;; Registers used:
;;		wreg, status,2, status,0
;; Tracked objects:
;;		On entry : 0/0
;;		On exit  : 0/0
;;		Unchanged: 0/0
;; Data sizes:     COMMON   BANK0   BANK1   BANK3   BANK2
;;      Params:         0       4       0       0       0
;;      Locals:         0       3       0       0       0
;;      Temps:          0       1       0       0       0
;;      Totals:         0       8       0       0       0
;;Total ram usage:        8 bytes
;; Hardware stack levels used:    1
;; Hardware stack levels required when called:    3
;; This function calls:
;;		Nothing
;; This function is called by:
;;		_readAvgDistance
;;		_ADCconvert
;;		_sprintf
;; This function uses a non-reentrant model
;;
psect	text1153
	file	"C:\Program Files\HI-TECH Software\PICC\9.83\sources\lwdiv.c"
	line	5
	global	__size_of___lwdiv
	__size_of___lwdiv	equ	__end_of___lwdiv-___lwdiv
	
___lwdiv:	
	opt	stack 1
; Regs used in ___lwdiv: [wreg+status,2+status,0]
	line	9
	
l10939:	
	bcf	status, 5	;RP0=0, select bank0
	bcf	status, 6	;RP1=0, select bank0
	clrf	(___lwdiv@quotient)
	clrf	(___lwdiv@quotient+1)
	line	10
	
l10941:	
	movf	(___lwdiv@divisor+1),w
	iorwf	(___lwdiv@divisor),w
	skipnz
	goto	u4151
	goto	u4150
u4151:
	goto	l10961
u4150:
	line	11
	
l10943:	
	clrf	(___lwdiv@counter)
	bsf	status,0
	rlf	(___lwdiv@counter),f
	line	12
	goto	l10949
	
l7541:	
	line	13
	
l10945:	
	movlw	01h
	
u4165:
	clrc
	rlf	(___lwdiv@divisor),f
	rlf	(___lwdiv@divisor+1),f
	addlw	-1
	skipz
	goto	u4165
	line	14
	
l10947:	
	movlw	(01h)
	movwf	(??___lwdiv+0)+0
	movf	(??___lwdiv+0)+0,w
	addwf	(___lwdiv@counter),f
	goto	l10949
	line	15
	
l7540:	
	line	12
	
l10949:	
	btfss	(___lwdiv@divisor+1),(15)&7
	goto	u4171
	goto	u4170
u4171:
	goto	l10945
u4170:
	goto	l10951
	
l7542:	
	goto	l10951
	line	16
	
l7543:	
	line	17
	
l10951:	
	movlw	01h
	
u4185:
	clrc
	rlf	(___lwdiv@quotient),f
	rlf	(___lwdiv@quotient+1),f
	addlw	-1
	skipz
	goto	u4185
	line	18
	movf	(___lwdiv@divisor+1),w
	subwf	(___lwdiv@dividend+1),w
	skipz
	goto	u4195
	movf	(___lwdiv@divisor),w
	subwf	(___lwdiv@dividend),w
u4195:
	skipc
	goto	u4191
	goto	u4190
u4191:
	goto	l10957
u4190:
	line	19
	
l10953:	
	movf	(___lwdiv@divisor),w
	subwf	(___lwdiv@dividend),f
	movf	(___lwdiv@divisor+1),w
	skipc
	decf	(___lwdiv@dividend+1),f
	subwf	(___lwdiv@dividend+1),f
	line	20
	
l10955:	
	bsf	(___lwdiv@quotient)+(0/8),(0)&7
	goto	l10957
	line	21
	
l7544:	
	line	22
	
l10957:	
	movlw	01h
	
u4205:
	clrc
	rrf	(___lwdiv@divisor+1),f
	rrf	(___lwdiv@divisor),f
	addlw	-1
	skipz
	goto	u4205
	line	23
	
l10959:	
	movlw	low(01h)
	subwf	(___lwdiv@counter),f
	btfss	status,2
	goto	u4211
	goto	u4210
u4211:
	goto	l10951
u4210:
	goto	l10961
	
l7545:	
	goto	l10961
	line	24
	
l7539:	
	line	25
	
l10961:	
	movf	(___lwdiv@quotient+1),w
	clrf	(?___lwdiv+1)
	addwf	(?___lwdiv+1)
	movf	(___lwdiv@quotient),w
	clrf	(?___lwdiv)
	addwf	(?___lwdiv)

	goto	l7546
	
l10963:	
	line	26
	
l7546:	
	return
	opt stack 0
GLOBAL	__end_of___lwdiv
	__end_of___lwdiv:
;; =============== function ___lwdiv ends ============

	signat	___lwdiv,8314
	global	___wmul
psect	text1154,local,class=CODE,delta=2
global __ptext1154
__ptext1154:

;; *************** function ___wmul *****************
;; Defined at:
;;		line 3 in file "C:\Program Files\HI-TECH Software\PICC\9.83\sources\wmul.c"
;; Parameters:    Size  Location     Type
;;  multiplier      2    0[BANK0 ] unsigned int 
;;  multiplicand    2    2[BANK0 ] unsigned int 
;; Auto vars:     Size  Location     Type
;;  product         2    4[BANK0 ] unsigned int 
;; Return value:  Size  Location     Type
;;                  2    0[BANK0 ] unsigned int 
;; Registers used:
;;		wreg, status,2, status,0
;; Tracked objects:
;;		On entry : 0/0
;;		On exit  : 0/0
;;		Unchanged: 0/0
;; Data sizes:     COMMON   BANK0   BANK1   BANK3   BANK2
;;      Params:         0       4       0       0       0
;;      Locals:         0       2       0       0       0
;;      Temps:          0       0       0       0       0
;;      Totals:         0       6       0       0       0
;;Total ram usage:        6 bytes
;; Hardware stack levels used:    1
;; Hardware stack levels required when called:    3
;; This function calls:
;;		Nothing
;; This function is called by:
;;		_ADCconvert
;;		_abs
;; This function uses a non-reentrant model
;;
psect	text1154
	file	"C:\Program Files\HI-TECH Software\PICC\9.83\sources\wmul.c"
	line	3
	global	__size_of___wmul
	__size_of___wmul	equ	__end_of___wmul-___wmul
	
___wmul:	
	opt	stack 2
; Regs used in ___wmul: [wreg+status,2+status,0]
	line	4
	
l10927:	
	bcf	status, 5	;RP0=0, select bank0
	bcf	status, 6	;RP1=0, select bank0
	clrf	(___wmul@product)
	clrf	(___wmul@product+1)
	goto	l10929
	line	6
	
l7533:	
	line	7
	
l10929:	
	btfss	(___wmul@multiplier),(0)&7
	goto	u4111
	goto	u4110
u4111:
	goto	l7534
u4110:
	line	8
	
l10931:	
	movf	(___wmul@multiplicand),w
	addwf	(___wmul@product),f
	skipnc
	incf	(___wmul@product+1),f
	movf	(___wmul@multiplicand+1),w
	addwf	(___wmul@product+1),f
	
l7534:	
	line	9
	movlw	01h
	
u4125:
	clrc
	rlf	(___wmul@multiplicand),f
	rlf	(___wmul@multiplicand+1),f
	addlw	-1
	skipz
	goto	u4125
	line	10
	
l10933:	
	movlw	01h
	
u4135:
	clrc
	rrf	(___wmul@multiplier+1),f
	rrf	(___wmul@multiplier),f
	addlw	-1
	skipz
	goto	u4135
	line	11
	movf	((___wmul@multiplier+1)),w
	iorwf	((___wmul@multiplier)),w
	skipz
	goto	u4141
	goto	u4140
u4141:
	goto	l10929
u4140:
	goto	l10935
	
l7535:	
	line	12
	
l10935:	
	movf	(___wmul@product+1),w
	clrf	(?___wmul+1)
	addwf	(?___wmul+1)
	movf	(___wmul@product),w
	clrf	(?___wmul)
	addwf	(?___wmul)

	goto	l7536
	
l10937:	
	line	13
	
l7536:	
	return
	opt stack 0
GLOBAL	__end_of___wmul
	__end_of___wmul:
;; =============== function ___wmul ends ============

	signat	___wmul,8314
	global	_ser_isrx
psect	text1155,local,class=CODE,delta=2
global __ptext1155
__ptext1155:

;; *************** function _ser_isrx *****************
;; Defined at:
;;		line 45 in file "E:\Aldnoah.Zero\Assignment3\ser.c"
;; Parameters:    Size  Location     Type
;;		None
;; Auto vars:     Size  Location     Type
;;		None
;; Return value:  Size  Location     Type
;;		None               void
;; Registers used:
;;		wreg, status,2, status,0
;; Tracked objects:
;;		On entry : 0/0
;;		On exit  : 0/0
;;		Unchanged: 0/0
;; Data sizes:     COMMON   BANK0   BANK1   BANK3   BANK2
;;      Params:         0       0       0       0       0
;;      Locals:         0       0       0       0       0
;;      Temps:          0       0       0       0       0
;;      Totals:         0       0       0       0       0
;;Total ram usage:        0 bytes
;; Hardware stack levels used:    1
;; Hardware stack levels required when called:    3
;; This function calls:
;;		Nothing
;; This function is called by:
;;		_ser_getch
;; This function uses a non-reentrant model
;;
psect	text1155
	file	"E:\Aldnoah.Zero\Assignment3\ser.c"
	line	45
	global	__size_of_ser_isrx
	__size_of_ser_isrx	equ	__end_of_ser_isrx-_ser_isrx
	
_ser_isrx:	
	opt	stack 1
; Regs used in _ser_isrx: [wreg+status,2+status,0]
	line	46
	
l10879:	
;ser.c: 46: if(OERR) {
	bcf	status, 5	;RP0=0, select bank0
	bcf	status, 6	;RP1=0, select bank0
	btfss	(193/8),(193)&7
	goto	u4041
	goto	u4040
u4041:
	goto	l10887
u4040:
	line	47
	
l10881:	
;ser.c: 47: CREN = 0;
	bcf	(196/8),(196)&7
	line	48
;ser.c: 48: CREN = 1;
	bsf	(196/8),(196)&7
	line	49
	
l10883:	
;ser.c: 49: return 0;
	clrc
	
	goto	l6788
	
l10885:	
	goto	l6788
	line	50
	
l6787:	
	line	51
	
l10887:	
;ser.c: 50: }
;ser.c: 51: return (rxiptr!=rxoptr);
	bsf	status, 5	;RP0=1, select bank1
	bcf	status, 6	;RP1=0, select bank1
	movf	(_rxiptr)^080h,w	;volatile
	xorwf	(_rxoptr)^080h,w	;volatile
	skipz
	goto	u4051
	goto	u4050
u4051:
	goto	l10891
u4050:
	
l10889:	
	clrc
	
	goto	l6788
	
l10609:	
	
l10891:	
	setc
	
	goto	l6788
	
l10611:	
	goto	l6788
	
l10893:	
	line	52
	
l6788:	
	return
	opt stack 0
GLOBAL	__end_of_ser_isrx
	__end_of_ser_isrx:
;; =============== function _ser_isrx ends ============

	signat	_ser_isrx,88
	global	_spi_transfer
psect	text1156,local,class=CODE,delta=2
global __ptext1156
__ptext1156:

;; *************** function _spi_transfer *****************
;; Defined at:
;;		line 50 in file "E:\Aldnoah.Zero\Assignment3\steppermotor.c"
;; Parameters:    Size  Location     Type
;;  data            1    wreg     unsigned char 
;; Auto vars:     Size  Location     Type
;;  data            1    2[BANK0 ] unsigned char 
;;  temp            1    1[BANK0 ] unsigned char 
;; Return value:  Size  Location     Type
;;                  1    wreg      unsigned char 
;; Registers used:
;;		wreg
;; Tracked objects:
;;		On entry : 0/0
;;		On exit  : 0/0
;;		Unchanged: 0/0
;; Data sizes:     COMMON   BANK0   BANK1   BANK3   BANK2
;;      Params:         0       0       0       0       0
;;      Locals:         0       2       0       0       0
;;      Temps:          0       1       0       0       0
;;      Totals:         0       3       0       0       0
;;Total ram usage:        3 bytes
;; Hardware stack levels used:    1
;; Hardware stack levels required when called:    3
;; This function calls:
;;		Nothing
;; This function is called by:
;;		_rotate
;; This function uses a non-reentrant model
;;
psect	text1156
	file	"E:\Aldnoah.Zero\Assignment3\steppermotor.c"
	line	50
	global	__size_of_spi_transfer
	__size_of_spi_transfer	equ	__end_of_spi_transfer-_spi_transfer
	
_spi_transfer:	
	opt	stack 3
; Regs used in _spi_transfer: [wreg]
;spi_transfer@data stored from wreg
	bcf	status, 5	;RP0=0, select bank0
	bcf	status, 6	;RP1=0, select bank0
	movwf	(spi_transfer@data)
	line	51
	
l10799:	
;steppermotor.c: 51: unsigned char temp = 0;
	clrf	(spi_transfer@temp)
	line	53
;steppermotor.c: 53: SSPIF = 0;
	bcf	(99/8),(99)&7
	line	54
	
l10801:	
;steppermotor.c: 54: SSPBUF = data;
	movf	(spi_transfer@data),w
	movwf	(19)	;volatile
	line	56
;steppermotor.c: 56: while (SSPIF == 0);
	goto	l3721
	
l3722:	
	
l3721:	
	btfss	(99/8),(99)&7
	goto	u3851
	goto	u3850
u3851:
	goto	l3721
u3850:
	goto	l10803
	
l3723:	
	line	57
	
l10803:	
;steppermotor.c: 57: temp = SSPBUF;
	movf	(19),w	;volatile
	movwf	(??_spi_transfer+0)+0
	movf	(??_spi_transfer+0)+0,w
	movwf	(spi_transfer@temp)
	line	58
	
l10805:	
;steppermotor.c: 58: SSPIF = 0;
	bcf	(99/8),(99)&7
	goto	l3724
	line	60
	
l10807:	
	line	61
;steppermotor.c: 60: return temp;
;	Return value of _spi_transfer is never used
	
l3724:	
	return
	opt stack 0
GLOBAL	__end_of_spi_transfer
	__end_of_spi_transfer:
;; =============== function _spi_transfer ends ============

	signat	_spi_transfer,4217
	global	_ser_putch
psect	text1157,local,class=CODE,delta=2
global __ptext1157
__ptext1157:

;; *************** function _ser_putch *****************
;; Defined at:
;;		line 70 in file "E:\Aldnoah.Zero\Assignment3\ser.c"
;; Parameters:    Size  Location     Type
;;  c               1    wreg     unsigned char 
;; Auto vars:     Size  Location     Type
;;  c               1    1[BANK0 ] unsigned char 
;; Return value:  Size  Location     Type
;;		None               void
;; Registers used:
;;		wreg, fsr0l, fsr0h, status,2, status,0
;; Tracked objects:
;;		On entry : 0/0
;;		On exit  : 0/0
;;		Unchanged: 0/0
;; Data sizes:     COMMON   BANK0   BANK1   BANK3   BANK2
;;      Params:         0       0       0       0       0
;;      Locals:         0       1       0       0       0
;;      Temps:          0       1       0       0       0
;;      Totals:         0       2       0       0       0
;;Total ram usage:        2 bytes
;; Hardware stack levels used:    1
;; Hardware stack levels required when called:    3
;; This function calls:
;;		Nothing
;; This function is called by:
;;		_ChargeMode
;;		_robo_init
;;		_robot_read
;;		_RobotDrive
;;		_robotTurn
;;		_ser_puts
;;		_ser_puts2
;;		_ser_puthex
;; This function uses a non-reentrant model
;;
psect	text1157
	file	"E:\Aldnoah.Zero\Assignment3\ser.c"
	line	70
	global	__size_of_ser_putch
	__size_of_ser_putch	equ	__end_of_ser_putch-_ser_putch
	
_ser_putch:	
	opt	stack 3
; Regs used in _ser_putch: [wreg-fsr0h+status,2+status,0]
;ser_putch@c stored from wreg
	bcf	status, 5	;RP0=0, select bank0
	bcf	status, 6	;RP1=0, select bank0
	movwf	(ser_putch@c)
	line	71
	
l10787:	
;ser.c: 71: while (((txiptr+1) & (16-1))==txoptr)
	goto	l10789
	
l6798:	
	line	72
;ser.c: 72: continue;
	goto	l10789
	
l6797:	
	line	71
	
l10789:	
	bsf	status, 5	;RP0=1, select bank1
	bcf	status, 6	;RP1=0, select bank1
	movf	(_txiptr)^080h,w	;volatile
	addlw	01h
	andlw	0Fh
	xorwf	(_txoptr)^080h,w	;volatile
	skipnz
	goto	u3841
	goto	u3840
u3841:
	goto	l10789
u3840:
	
l6799:	
	line	73
;ser.c: 73: GIE=0;
	bcf	(95/8),(95)&7
	line	74
	
l10791:	
;ser.c: 74: txfifo[txiptr] = c;
	bcf	status, 5	;RP0=0, select bank0
	bcf	status, 6	;RP1=0, select bank0
	movf	(ser_putch@c),w
	movwf	(??_ser_putch+0)+0
	bsf	status, 5	;RP0=1, select bank1
	bcf	status, 6	;RP1=0, select bank1
	movf	(_txiptr)^080h,w
	addlw	_txfifo&0ffh
	movwf	fsr0
	bcf	status, 5	;RP0=0, select bank0
	bcf	status, 6	;RP1=0, select bank0
	movf	(??_ser_putch+0)+0,w
	bsf	status, 7	;select IRP bank3
	movwf	indf
	line	75
	
l10793:	
;ser.c: 75: txiptr=(txiptr+1) & (16-1);
	bsf	status, 5	;RP0=1, select bank1
	bcf	status, 6	;RP1=0, select bank1
	movf	(_txiptr)^080h,w	;volatile
	addlw	01h
	andlw	0Fh
	bcf	status, 5	;RP0=0, select bank0
	bcf	status, 6	;RP1=0, select bank0
	movwf	(??_ser_putch+0)+0
	movf	(??_ser_putch+0)+0,w
	bsf	status, 5	;RP0=1, select bank1
	bcf	status, 6	;RP1=0, select bank1
	movwf	(_txiptr)^080h	;volatile
	line	76
	
l10795:	
;ser.c: 76: TXIE=1;
	bsf	(1124/8)^080h,(1124)&7
	line	77
	
l10797:	
;ser.c: 77: GIE=1;
	bsf	(95/8),(95)&7
	line	78
	
l6800:	
	return
	opt stack 0
GLOBAL	__end_of_ser_putch
	__end_of_ser_putch:
;; =============== function _ser_putch ends ============

	signat	_ser_putch,4216
	global	_Menu
psect	text1158,local,class=CODE,delta=2
global __ptext1158
__ptext1158:

;; *************** function _Menu *****************
;; Defined at:
;;		line 201 in file "E:\Aldnoah.Zero\Assignment3\HMI.c"
;; Parameters:    Size  Location     Type
;;  BTN_input       1    wreg     unsigned char 
;; Auto vars:     Size  Location     Type
;;  BTN_input       1    0[BANK0 ] unsigned char 
;; Return value:  Size  Location     Type
;;                  1    wreg      unsigned char 
;; Registers used:
;;		wreg, fsr0l, fsr0h, status,2, status,0
;; Tracked objects:
;;		On entry : 0/0
;;		On exit  : 0/0
;;		Unchanged: 0/0
;; Data sizes:     COMMON   BANK0   BANK1   BANK3   BANK2
;;      Params:         0       0       0       0       0
;;      Locals:         0       1       0       0       0
;;      Temps:          0       0       0       0       0
;;      Totals:         0       1       0       0       0
;;Total ram usage:        1 bytes
;; Hardware stack levels used:    1
;; Hardware stack levels required when called:    3
;; This function calls:
;;		Nothing
;; This function is called by:
;;		_main
;; This function uses a non-reentrant model
;;
psect	text1158
	file	"E:\Aldnoah.Zero\Assignment3\HMI.c"
	line	201
	global	__size_of_Menu
	__size_of_Menu	equ	__end_of_Menu-_Menu
	
_Menu:	
	opt	stack 4
; Regs used in _Menu: [wreg-fsr0h+status,2+status,0]
;Menu@BTN_input stored from wreg
	bcf	status, 5	;RP0=0, select bank0
	bcf	status, 6	;RP1=0, select bank0
	movwf	(Menu@BTN_input)
	line	202
	
l10763:	
;HMI.c: 202: switch (BTN_input)
	goto	l10781
	line	204
;HMI.c: 203: {
;HMI.c: 204: case 1:
	
l4532:	
	line	206
;HMI.c: 206: break;
	goto	l10783
	line	207
;HMI.c: 207: case 2:
	
l4534:	
	line	209
;HMI.c: 209: break;
	goto	l10783
	line	210
;HMI.c: 210: case 3:
	
l4535:	
	line	211
	
l10765:	
;HMI.c: 211: pos--;
	movlw	low(-1)
	bsf	status, 5	;RP0=1, select bank1
	bcf	status, 6	;RP1=0, select bank1
	addwf	(_pos)^080h,f
	skipnc
	incf	(_pos+1)^080h,f
	movlw	high(-1)
	addwf	(_pos+1)^080h,f
	line	212
	
l10767:	
;HMI.c: 212: if (pos < 0)
	btfss	(_pos+1)^080h,7
	goto	u3821
	goto	u3820
u3821:
	goto	l10783
u3820:
	line	213
	
l10769:	
;HMI.c: 213: pos = 6 - 1;
	movlw	low(05h)
	movwf	(_pos)^080h
	movlw	high(05h)
	movwf	((_pos)^080h)+1
	goto	l10783
	
l4536:	
	line	215
;HMI.c: 215: break;
	goto	l10783
	line	216
;HMI.c: 216: case 4:
	
l4537:	
	line	217
	
l10771:	
;HMI.c: 217: pos++;
	movlw	low(01h)
	bsf	status, 5	;RP0=1, select bank1
	bcf	status, 6	;RP1=0, select bank1
	addwf	(_pos)^080h,f
	skipnc
	incf	(_pos+1)^080h,f
	movlw	high(01h)
	addwf	(_pos+1)^080h,f
	line	218
;HMI.c: 218: if (pos == 6)
	movlw	06h
	xorwf	(_pos)^080h,w
	iorwf	(_pos+1)^080h,w
	skipz
	goto	u3831
	goto	u3830
u3831:
	goto	l10783
u3830:
	line	219
	
l10773:	
;HMI.c: 219: pos = 0;
	clrf	(_pos)^080h
	clrf	(_pos+1)^080h
	goto	l10783
	
l4538:	
	line	221
;HMI.c: 221: break;
	goto	l10783
	line	222
;HMI.c: 222: case 5:
	
l4539:	
	line	223
	
l10775:	
;HMI.c: 223: return pos;
	bsf	status, 5	;RP0=1, select bank1
	bcf	status, 6	;RP1=0, select bank1
	movf	(_pos)^080h,w
	goto	l4540
	
l10777:	
	goto	l4540
	line	226
;HMI.c: 226: default:
	
l4541:	
	line	228
;HMI.c: 228: break;
	goto	l10783
	line	229
	
l10779:	
;HMI.c: 229: }
	goto	l10783
	line	202
	
l4531:	
	
l10781:	
	bcf	status, 5	;RP0=0, select bank0
	movf	(Menu@BTN_input),w
	; Switch size 1, requested type "space"
; Number of cases is 5, Range of values is 1 to 5
; switch strategies available:
; Name         Instructions Cycles
; simple_byte           16     9 (average)
; direct_byte           26    11 (fixed)
; jumptable            263     9 (fixed)
;	Chosen strategy is simple_byte

	opt asmopt_off
	xorlw	1^0	; case 1
	skipnz
	goto	l10783
	xorlw	2^1	; case 2
	skipnz
	goto	l10783
	xorlw	3^2	; case 3
	skipnz
	goto	l10765
	xorlw	4^3	; case 4
	skipnz
	goto	l10771
	xorlw	5^4	; case 5
	skipnz
	goto	l10775
	goto	l10783
	opt asmopt_on

	line	229
	
l4533:	
	line	230
	
l10783:	
;HMI.c: 230: return 255;
	movlw	(0FFh)
	goto	l4540
	
l10785:	
	line	231
	
l4540:	
	return
	opt stack 0
GLOBAL	__end_of_Menu
	__end_of_Menu:
;; =============== function _Menu ends ============

	signat	_Menu,4217
	global	_ser_init
psect	text1159,local,class=CODE,delta=2
global __ptext1159
__ptext1159:

;; *************** function _ser_init *****************
;; Defined at:
;;		line 113 in file "E:\Aldnoah.Zero\Assignment3\ser.c"
;; Parameters:    Size  Location     Type
;;		None
;; Auto vars:     Size  Location     Type
;;		None
;; Return value:  Size  Location     Type
;;		None               void
;; Registers used:
;;		wreg, status,2, status,0
;; Tracked objects:
;;		On entry : 0/0
;;		On exit  : 0/0
;;		Unchanged: 0/0
;; Data sizes:     COMMON   BANK0   BANK1   BANK3   BANK2
;;      Params:         0       0       0       0       0
;;      Locals:         0       0       0       0       0
;;      Temps:          0       1       0       0       0
;;      Totals:         0       1       0       0       0
;;Total ram usage:        1 bytes
;; Hardware stack levels used:    1
;; Hardware stack levels required when called:    3
;; This function calls:
;;		Nothing
;; This function is called by:
;;		_init
;; This function uses a non-reentrant model
;;
psect	text1159
	file	"E:\Aldnoah.Zero\Assignment3\ser.c"
	line	113
	global	__size_of_ser_init
	__size_of_ser_init	equ	__end_of_ser_init-_ser_init
	
_ser_init:	
	opt	stack 3
; Regs used in _ser_init: [wreg+status,2+status,0]
	line	114
	
l10737:	
;ser.c: 114: TRISC |= 0b10000000;
	bsf	status, 5	;RP0=1, select bank1
	bcf	status, 6	;RP1=0, select bank1
	bsf	(135)^080h+(7/8),(7)&7	;volatile
	line	115
	
l10739:	
;ser.c: 115: TRISC &= 0b10111111;
	movlw	(0BFh)
	bcf	status, 5	;RP0=0, select bank0
	bcf	status, 6	;RP1=0, select bank0
	movwf	(??_ser_init+0)+0
	movf	(??_ser_init+0)+0,w
	bsf	status, 5	;RP0=1, select bank1
	bcf	status, 6	;RP1=0, select bank1
	andwf	(135)^080h,f	;volatile
	line	116
	
l10741:	
;ser.c: 116: BRGH=1;
	bsf	(1218/8)^080h,(1218)&7
	line	118
	
l10743:	
;ser.c: 118: SPBRG=20;
	movlw	(014h)
	movwf	(153)^080h	;volatile
	line	121
	
l10745:	
;ser.c: 121: TX9=0;
	bcf	(1222/8)^080h,(1222)&7
	line	122
	
l10747:	
;ser.c: 122: RX9=0;
	bcf	status, 5	;RP0=0, select bank0
	bcf	status, 6	;RP1=0, select bank0
	bcf	(198/8),(198)&7
	line	124
	
l10749:	
;ser.c: 124: SYNC=0;
	bsf	status, 5	;RP0=1, select bank1
	bcf	status, 6	;RP1=0, select bank1
	bcf	(1220/8)^080h,(1220)&7
	line	125
	
l10751:	
;ser.c: 125: SPEN=1;
	bcf	status, 5	;RP0=0, select bank0
	bcf	status, 6	;RP1=0, select bank0
	bsf	(199/8),(199)&7
	line	126
	
l10753:	
;ser.c: 126: CREN=1;
	bsf	(196/8),(196)&7
	line	127
	
l10755:	
;ser.c: 127: TXIE=0;
	bsf	status, 5	;RP0=1, select bank1
	bcf	status, 6	;RP1=0, select bank1
	bcf	(1124/8)^080h,(1124)&7
	line	128
	
l10757:	
;ser.c: 128: RCIE=1;
	bsf	(1125/8)^080h,(1125)&7
	line	129
	
l10759:	
;ser.c: 129: TXEN=1;
	bsf	(1221/8)^080h,(1221)&7
	line	132
	
l10761:	
;ser.c: 132: rxiptr=rxoptr=txiptr=txoptr=0;
	movlw	(0)
	movwf	(_txoptr)^080h	;volatile
	movwf	(_txiptr)^080h	;volatile
	movwf	(_rxoptr)^080h	;volatile
	bcf	status, 5	;RP0=0, select bank0
	bcf	status, 6	;RP1=0, select bank0
	movwf	(??_ser_init+0)+0
	movf	(??_ser_init+0)+0,w
	bsf	status, 5	;RP0=1, select bank1
	bcf	status, 6	;RP1=0, select bank1
	movwf	(_rxiptr)^080h	;volatile
	line	133
	
l6822:	
	return
	opt stack 0
GLOBAL	__end_of_ser_init
	__end_of_ser_init:
;; =============== function _ser_init ends ============

	signat	_ser_init,88
	global	_adc_read
psect	text1160,local,class=CODE,delta=2
global __ptext1160
__ptext1160:

;; *************** function _adc_read *****************
;; Defined at:
;;		line 76 in file "E:\Aldnoah.Zero\Assignment3\adc.c"
;; Parameters:    Size  Location     Type
;;		None
;; Auto vars:     Size  Location     Type
;;  adc_value       2    4[BANK0 ] volatile unsigned int 
;; Return value:  Size  Location     Type
;;                  2    0[BANK0 ] unsigned int 
;; Registers used:
;;		wreg, status,2, status,0
;; Tracked objects:
;;		On entry : 0/0
;;		On exit  : 0/0
;;		Unchanged: 0/0
;; Data sizes:     COMMON   BANK0   BANK1   BANK3   BANK2
;;      Params:         0       2       0       0       0
;;      Locals:         0       2       0       0       0
;;      Temps:          0       2       0       0       0
;;      Totals:         0       6       0       0       0
;;Total ram usage:        6 bytes
;; Hardware stack levels used:    1
;; Hardware stack levels required when called:    3
;; This function calls:
;;		Nothing
;; This function is called by:
;;		_adc_read_channel
;; This function uses a non-reentrant model
;;
psect	text1160
	file	"E:\Aldnoah.Zero\Assignment3\adc.c"
	line	76
	global	__size_of_adc_read
	__size_of_adc_read	equ	__end_of_adc_read-_adc_read
	
_adc_read:	
	opt	stack 0
; Regs used in _adc_read: [wreg+status,2+status,0]
	line	79
	
l10617:	
;adc.c: 77: volatile unsigned int adc_value;
;adc.c: 79: ADRESH = 0;
	bcf	status, 5	;RP0=0, select bank0
	bcf	status, 6	;RP1=0, select bank0
	clrf	(30)	;volatile
	line	81
	
l10619:	
;adc.c: 81: GO = 1;
	bsf	(250/8),(250)&7
	line	82
;adc.c: 82: while(GO) continue;
	goto	l703
	
l704:	
	
l703:	
	btfsc	(250/8),(250)&7
	goto	u3631
	goto	u3630
u3631:
	goto	l703
u3630:
	
l705:	
	line	83
# 83 "E:\Aldnoah.Zero\Assignment3\adc.c"
nop ;#
	line	84
# 84 "E:\Aldnoah.Zero\Assignment3\adc.c"
nop ;#
	line	85
# 85 "E:\Aldnoah.Zero\Assignment3\adc.c"
nop ;#
psect	text1160
	line	88
	
l10621:	
;adc.c: 88: adc_value = ADRESH;
	bcf	status, 5	;RP0=0, select bank0
	bcf	status, 6	;RP1=0, select bank0
	movf	(30),w	;volatile
	movwf	(??_adc_read+0)+0
	clrf	(??_adc_read+0)+0+1
	movf	0+(??_adc_read+0)+0,w
	movwf	(adc_read@adc_value)	;volatile
	movf	1+(??_adc_read+0)+0,w
	movwf	(adc_read@adc_value+1)	;volatile
	line	89
;adc.c: 89: adc_value <<= 1;
	movlw	01h
	
u3645:
	clrc
	rlf	(adc_read@adc_value),f	;volatile
	rlf	(adc_read@adc_value+1),f	;volatile
	addlw	-1
	skipz
	goto	u3645
	line	90
;adc.c: 90: adc_value |= (ADRESL >> 15);
	bsf	status, 5	;RP0=1, select bank1
	bcf	status, 6	;RP1=0, select bank1
	movf	(158)^080h,w	;volatile
	line	93
	
l10623:	
;adc.c: 93: return (adc_value);
	bcf	status, 5	;RP0=0, select bank0
	bcf	status, 6	;RP1=0, select bank0
	movf	(adc_read@adc_value+1),w	;volatile
	clrf	(?_adc_read+1)
	addwf	(?_adc_read+1)
	movf	(adc_read@adc_value),w	;volatile
	clrf	(?_adc_read)
	addwf	(?_adc_read)

	goto	l706
	
l10625:	
	line	94
	
l706:	
	return
	opt stack 0
GLOBAL	__end_of_adc_read
	__end_of_adc_read:
;; =============== function _adc_read ends ============

	signat	_adc_read,90
	global	_isr1
psect	text1161,local,class=CODE,delta=2
global __ptext1161
__ptext1161:

;; *************** function _isr1 *****************
;; Defined at:
;;		line 109 in file "E:\Aldnoah.Zero\Assignment3\Main.c"
;; Parameters:    Size  Location     Type
;;		None
;; Auto vars:     Size  Location     Type
;;		None
;; Return value:  Size  Location     Type
;;		None               void
;; Registers used:
;;		wreg, fsr0l, fsr0h, fsr1l, fsr1h, status,2, status,0, btemp+1, pclath, cstack
;; Tracked objects:
;;		On entry : 0/0
;;		On exit  : 0/0
;;		Unchanged: 0/0
;; Data sizes:     COMMON   BANK0   BANK1   BANK3   BANK2
;;      Params:         0       0       0       0       0
;;      Locals:         0       0       0       0       0
;;      Temps:          5       0       0       0       0
;;      Totals:         5       0       0       0       0
;;Total ram usage:        5 bytes
;; Hardware stack levels used:    1
;; Hardware stack levels required when called:    2
;; This function calls:
;;		i1___lwmod
;;		_ReadButtons
;; This function is called by:
;;		Interrupt level 1
;; This function uses a non-reentrant model
;;
psect	text1161
	file	"E:\Aldnoah.Zero\Assignment3\Main.c"
	line	109
	global	__size_of_isr1
	__size_of_isr1	equ	__end_of_isr1-_isr1
	
_isr1:	
	opt	stack 0
; Regs used in _isr1: [allreg]
psect	intentry,class=CODE,delta=2
global __pintentry
__pintentry:
global interrupt_function
interrupt_function:
	global saved_w
	saved_w	set	btemp+0
	movwf	saved_w
	swapf	status,w
	movwf	(??_isr1+1)
	movf	fsr0,w
	movwf	(??_isr1+2)
	movf	pclath,w
	movwf	(??_isr1+3)
	bcf	status, 5	;RP0=0, select bank0
	bcf	status, 6	;RP1=0, select bank0
	movf	btemp+1,w
	movwf	(??_isr1+4)
	ljmp	_isr1
psect	text1161
	line	110
	
i1l10653:	
;Main.c: 110: if(TMR0IF)
	btfss	(90/8),(90)&7
	goto	u368_21
	goto	u368_20
u368_21:
	goto	i1l10675
u368_20:
	line	112
	
i1l10655:	
;Main.c: 111: {
;Main.c: 112: TMR0IF = 0;
	bcf	(90/8),(90)&7
	line	113
	
i1l10657:	
;Main.c: 113: TMR0 = 100;
	movlw	(064h)
	movwf	(1)	;volatile
	line	115
;Main.c: 115: RTC_Counter++;
	movlw	low(01h)
	bsf	status, 5	;RP0=1, select bank1
	bcf	status, 6	;RP1=0, select bank1
	addwf	(_RTC_Counter)^080h,f	;volatile
	skipnc
	incf	(_RTC_Counter+1)^080h,f	;volatile
	movlw	high(01h)
	addwf	(_RTC_Counter+1)^080h,f	;volatile
	line	118
	
i1l10659:	
;Main.c: 118: RTC_FLAG_1MS = 1;
	bsf	(_RTC_FLAG_1MS/8),(_RTC_FLAG_1MS)&7
	line	119
	
i1l10661:	
;Main.c: 119: if(RTC_Counter % 250 == 0)
	movlw	low(0FAh)
	movwf	(?i1___lwmod)
	movlw	high(0FAh)
	movwf	((?i1___lwmod))+1
	movf	(_RTC_Counter+1)^080h,w	;volatile
	clrf	1+(?i1___lwmod)+02h
	addwf	1+(?i1___lwmod)+02h
	movf	(_RTC_Counter)^080h,w	;volatile
	clrf	0+(?i1___lwmod)+02h
	addwf	0+(?i1___lwmod)+02h

	fcall	i1___lwmod
	movf	((1+(?i1___lwmod))),w
	iorwf	((0+(?i1___lwmod))),w
	skipz
	goto	u369_21
	goto	u369_20
u369_21:
	goto	i1l10665
u369_20:
	line	121
	
i1l10663:	
;Main.c: 120: {
;Main.c: 121: RTC_FLAG_250MS = 1;
	bsf	(_RTC_FLAG_250MS/8),(_RTC_FLAG_250MS)&7
	goto	i1l10665
	line	122
	
i1l2221:	
	line	123
	
i1l10665:	
;Main.c: 122: }
;Main.c: 123: if(RTC_Counter % 500 == 0)
	movlw	low(01F4h)
	movwf	(?i1___lwmod)
	movlw	high(01F4h)
	movwf	((?i1___lwmod))+1
	bsf	status, 5	;RP0=1, select bank1
	bcf	status, 6	;RP1=0, select bank1
	movf	(_RTC_Counter+1)^080h,w	;volatile
	clrf	1+(?i1___lwmod)+02h
	addwf	1+(?i1___lwmod)+02h
	movf	(_RTC_Counter)^080h,w	;volatile
	clrf	0+(?i1___lwmod)+02h
	addwf	0+(?i1___lwmod)+02h

	fcall	i1___lwmod
	movf	((1+(?i1___lwmod))),w
	iorwf	((0+(?i1___lwmod))),w
	skipz
	goto	u370_21
	goto	u370_20
u370_21:
	goto	i1l10671
u370_20:
	line	125
	
i1l10667:	
;Main.c: 124: {
;Main.c: 125: RTC_FLAG_500MS = 1;
	bsf	(_RTC_FLAG_500MS/8),(_RTC_FLAG_500MS)&7
	line	126
	
i1l10669:	
;Main.c: 126: RB0 ^= 0x01;
	bcf	status, 5	;RP0=0, select bank0
	bcf	status, 6	;RP1=0, select bank0
	movlw	1<<((48)&7)
	xorwf	((48)/8),f
	goto	i1l10671
	line	127
	
i1l2222:	
	line	128
	
i1l10671:	
;Main.c: 127: }
;Main.c: 128: if (buttonPressed == 0)
	movf	(_buttonPressed),f
	skipz	;volatile
	goto	u371_21
	goto	u371_20
u371_21:
	goto	i1l10675
u371_20:
	line	130
	
i1l10673:	
;Main.c: 129: {
;Main.c: 130: buttonPressed = ReadButtons();
	fcall	_ReadButtons
	movwf	(??_isr1+0)+0
	movf	(??_isr1+0)+0,w
	movwf	(_buttonPressed)	;volatile
	goto	i1l10675
	line	131
	
i1l2223:	
	goto	i1l10675
	line	132
	
i1l2220:	
	line	133
	
i1l10675:	
;Main.c: 131: }
;Main.c: 132: }
;Main.c: 133: if (RCIF) { rxfifo[rxiptr]=RCREG; ser_tmp=(rxiptr+1) & (16-1); if (ser_tmp!=rxoptr) rxiptr=ser_tmp; } if (TXIF && TXIE) { TXREG = txfifo[txoptr]; ++txoptr; txoptr &= (16-1); if (txoptr==txiptr) { TXIE = 0; } };
	bcf	status, 5	;RP0=0, select bank0
	bcf	status, 6	;RP1=0, select bank0
	btfss	(101/8),(101)&7
	goto	u372_21
	goto	u372_20
u372_21:
	goto	i1l10685
u372_20:
	
i1l10677:	
	movf	(26),w	;volatile
	movwf	(??_isr1+0)+0
	bsf	status, 5	;RP0=1, select bank1
	bcf	status, 6	;RP1=0, select bank1
	movf	(_rxiptr)^080h,w
	addlw	_rxfifo&0ffh
	movwf	fsr0
	movf	(??_isr1+0)+0,w
	bsf	status, 7	;select IRP bank3
	movwf	indf
	
i1l10679:	
	movf	(_rxiptr)^080h,w	;volatile
	addlw	01h
	andlw	0Fh
	movwf	(??_isr1+0)+0
	movf	(??_isr1+0)+0,w
	movwf	(_ser_tmp)^080h
	
i1l10681:	
	movf	(_ser_tmp)^080h,w
	xorwf	(_rxoptr)^080h,w	;volatile
	skipnz
	goto	u373_21
	goto	u373_20
u373_21:
	goto	i1l10685
u373_20:
	
i1l10683:	
	movf	(_ser_tmp)^080h,w
	movwf	(??_isr1+0)+0
	movf	(??_isr1+0)+0,w
	movwf	(_rxiptr)^080h	;volatile
	goto	i1l10685
	
i1l2225:	
	goto	i1l10685
	
i1l2224:	
	
i1l10685:	
	bcf	status, 5	;RP0=0, select bank0
	btfss	(100/8),(100)&7
	goto	u374_21
	goto	u374_20
u374_21:
	goto	i1l2228
u374_20:
	
i1l10687:	
	bsf	status, 5	;RP0=1, select bank1
	bcf	status, 6	;RP1=0, select bank1
	btfss	(1124/8)^080h,(1124)&7
	goto	u375_21
	goto	u375_20
u375_21:
	goto	i1l2228
u375_20:
	
i1l10689:	
	movf	(_txoptr)^080h,w
	addlw	_txfifo&0ffh
	movwf	fsr0
	bsf	status, 7	;select IRP bank3
	movf	indf,w
	bcf	status, 5	;RP0=0, select bank0
	bcf	status, 6	;RP1=0, select bank0
	movwf	(25)	;volatile
	
i1l10691:	
	movlw	(01h)
	movwf	(??_isr1+0)+0
	movf	(??_isr1+0)+0,w
	bsf	status, 5	;RP0=1, select bank1
	bcf	status, 6	;RP1=0, select bank1
	addwf	(_txoptr)^080h,f	;volatile
	
i1l10693:	
	movlw	(0Fh)
	movwf	(??_isr1+0)+0
	movf	(??_isr1+0)+0,w
	andwf	(_txoptr)^080h,f	;volatile
	
i1l10695:	
	movf	(_txoptr)^080h,w	;volatile
	xorwf	(_txiptr)^080h,w	;volatile
	skipz
	goto	u376_21
	goto	u376_20
u376_21:
	goto	i1l2228
u376_20:
	
i1l10697:	
	bcf	(1124/8)^080h,(1124)&7
	goto	i1l2228
	
i1l2227:	
	goto	i1l2228
	
i1l2226:	
	line	134
	
i1l2228:	
	movf	(??_isr1+4),w
	bcf	status, 5	;RP0=0, select bank0
	movwf	btemp+1
	movf	(??_isr1+3),w
	movwf	pclath
	movf	(??_isr1+2),w
	movwf	fsr0
	swapf	(??_isr1+1)^0FFFFFF80h,w
	movwf	status
	swapf	saved_w,f
	swapf	saved_w,w
	retfie
	opt stack 0
GLOBAL	__end_of_isr1
	__end_of_isr1:
;; =============== function _isr1 ends ============

	signat	_isr1,88
	global	_ReadButtons
psect	text1162,local,class=CODE,delta=2
global __ptext1162
__ptext1162:

;; *************** function _ReadButtons *****************
;; Defined at:
;;		line 159 in file "E:\Aldnoah.Zero\Assignment3\HMI.c"
;; Parameters:    Size  Location     Type
;;		None
;; Auto vars:     Size  Location     Type
;;		None
;; Return value:  Size  Location     Type
;;                  1    wreg      unsigned char 
;; Registers used:
;;		wreg, status,2, status,0, pclath, cstack
;; Tracked objects:
;;		On entry : 0/0
;;		On exit  : 0/0
;;		Unchanged: 0/0
;; Data sizes:     COMMON   BANK0   BANK1   BANK3   BANK2
;;      Params:         0       0       0       0       0
;;      Locals:         0       0       0       0       0
;;      Temps:          0       0       0       0       0
;;      Totals:         0       0       0       0       0
;;Total ram usage:        0 bytes
;; Hardware stack levels used:    1
;; Hardware stack levels required when called:    1
;; This function calls:
;;		_Debounce
;; This function is called by:
;;		_isr1
;; This function uses a non-reentrant model
;;
psect	text1162
	file	"E:\Aldnoah.Zero\Assignment3\HMI.c"
	line	159
	global	__size_of_ReadButtons
	__size_of_ReadButtons	equ	__end_of_ReadButtons-_ReadButtons
	
_ReadButtons:	
	opt	stack 0
; Regs used in _ReadButtons: [wreg+status,2+status,0+pclath+cstack]
	line	161
	
i1l10699:	
;HMI.c: 161: Debounce();
	fcall	_Debounce
	line	163
	
i1l10701:	
;HMI.c: 163: if(UpPressed)
	btfss	(_UpPressed/8),(_UpPressed)&7
	goto	u377_21
	goto	u377_20
u377_21:
	goto	i1l4523
u377_20:
	line	165
	
i1l10703:	
;HMI.c: 164: {
;HMI.c: 165: UpPressed = 0;
	bcf	(_UpPressed/8),(_UpPressed)&7
	line	166
	
i1l10705:	
;HMI.c: 166: return 1;
	movlw	(01h)
	goto	i1l4524
	
i1l10707:	
	goto	i1l4524
	line	168
	
i1l4523:	
	line	170
;HMI.c: 168: }
;HMI.c: 170: if(DownPressed)
	btfss	(_DownPressed/8),(_DownPressed)&7
	goto	u378_21
	goto	u378_20
u378_21:
	goto	i1l4525
u378_20:
	line	172
	
i1l10709:	
;HMI.c: 171: {
;HMI.c: 172: DownPressed = 0;
	bcf	(_DownPressed/8),(_DownPressed)&7
	line	173
	
i1l10711:	
;HMI.c: 173: return 2;
	movlw	(02h)
	goto	i1l4524
	
i1l10713:	
	goto	i1l4524
	line	175
	
i1l4525:	
	line	176
;HMI.c: 175: }
;HMI.c: 176: if(LeftPressed)
	btfss	(_LeftPressed/8),(_LeftPressed)&7
	goto	u379_21
	goto	u379_20
u379_21:
	goto	i1l4526
u379_20:
	line	178
	
i1l10715:	
;HMI.c: 177: {
;HMI.c: 178: LeftPressed = 0;
	bcf	(_LeftPressed/8),(_LeftPressed)&7
	line	179
	
i1l10717:	
;HMI.c: 179: return 3;
	movlw	(03h)
	goto	i1l4524
	
i1l10719:	
	goto	i1l4524
	line	181
	
i1l4526:	
	line	182
;HMI.c: 181: }
;HMI.c: 182: if(RightPressed)
	btfss	(_RightPressed/8),(_RightPressed)&7
	goto	u380_21
	goto	u380_20
u380_21:
	goto	i1l4527
u380_20:
	line	184
	
i1l10721:	
;HMI.c: 183: {
;HMI.c: 184: RightPressed = 0;
	bcf	(_RightPressed/8),(_RightPressed)&7
	line	185
	
i1l10723:	
;HMI.c: 185: return 4;
	movlw	(04h)
	goto	i1l4524
	
i1l10725:	
	goto	i1l4524
	line	187
	
i1l4527:	
	line	189
;HMI.c: 187: }
;HMI.c: 189: if(CenterPressed)
	btfss	(_CenterPressed/8),(_CenterPressed)&7
	goto	u381_21
	goto	u381_20
u381_21:
	goto	i1l10733
u381_20:
	line	191
	
i1l10727:	
;HMI.c: 190: {
;HMI.c: 191: CenterPressed = 0;
	bcf	(_CenterPressed/8),(_CenterPressed)&7
	line	192
	
i1l10729:	
;HMI.c: 192: return 5;
	movlw	(05h)
	goto	i1l4524
	
i1l10731:	
	goto	i1l4524
	line	194
	
i1l4528:	
	line	195
	
i1l10733:	
;HMI.c: 194: }
;HMI.c: 195: return 0;
	movlw	(0)
	goto	i1l4524
	
i1l10735:	
	line	196
	
i1l4524:	
	return
	opt stack 0
GLOBAL	__end_of_ReadButtons
	__end_of_ReadButtons:
;; =============== function _ReadButtons ends ============

	signat	_ReadButtons,89
	global	i1___lwmod
psect	text1163,local,class=CODE,delta=2
global __ptext1163
__ptext1163:

;; *************** function i1___lwmod *****************
;; Defined at:
;;		line 5 in file "C:\Program Files\HI-TECH Software\PICC\9.83\sources\lwmod.c"
;; Parameters:    Size  Location     Type
;;  __lwmod         2    0[COMMON] unsigned int 
;;  __lwmod         2    2[COMMON] unsigned int 
;; Auto vars:     Size  Location     Type
;;  __lwmod         1    5[COMMON] unsigned char 
;; Return value:  Size  Location     Type
;;                  2    0[COMMON] unsigned int 
;; Registers used:
;;		wreg, status,2, status,0
;; Tracked objects:
;;		On entry : 0/0
;;		On exit  : 0/0
;;		Unchanged: 0/0
;; Data sizes:     COMMON   BANK0   BANK1   BANK3   BANK2
;;      Params:         4       0       0       0       0
;;      Locals:         1       0       0       0       0
;;      Temps:          1       0       0       0       0
;;      Totals:         6       0       0       0       0
;;Total ram usage:        6 bytes
;; Hardware stack levels used:    1
;; This function calls:
;;		Nothing
;; This function is called by:
;;		_isr1
;; This function uses a non-reentrant model
;;
psect	text1163
	file	"C:\Program Files\HI-TECH Software\PICC\9.83\sources\lwmod.c"
	line	5
	global	__size_ofi1___lwmod
	__size_ofi1___lwmod	equ	__end_ofi1___lwmod-i1___lwmod
	
i1___lwmod:	
	opt	stack 1
; Regs used in i1___lwmod: [wreg+status,2+status,0]
	line	8
	
i1l11249:	
	movf	(i1___lwmod@divisor+1),w
	iorwf	(i1___lwmod@divisor),w
	skipnz
	goto	u494_21
	goto	u494_20
u494_21:
	goto	i1l11267
u494_20:
	line	9
	
i1l11251:	
	clrf	(i1___lwmod@counter)
	bsf	status,0
	rlf	(i1___lwmod@counter),f
	line	10
	goto	i1l11257
	
i1l7551:	
	line	11
	
i1l11253:	
	movlw	01h
	
u495_25:
	clrc
	rlf	(i1___lwmod@divisor),f
	rlf	(i1___lwmod@divisor+1),f
	addlw	-1
	skipz
	goto	u495_25
	line	12
	
i1l11255:	
	movlw	(01h)
	movwf	(??i1___lwmod+0)+0
	movf	(??i1___lwmod+0)+0,w
	addwf	(i1___lwmod@counter),f
	goto	i1l11257
	line	13
	
i1l7550:	
	line	10
	
i1l11257:	
	btfss	(i1___lwmod@divisor+1),(15)&7
	goto	u496_21
	goto	u496_20
u496_21:
	goto	i1l11253
u496_20:
	goto	i1l11259
	
i1l7552:	
	goto	i1l11259
	line	14
	
i1l7553:	
	line	15
	
i1l11259:	
	movf	(i1___lwmod@divisor+1),w
	subwf	(i1___lwmod@dividend+1),w
	skipz
	goto	u497_25
	movf	(i1___lwmod@divisor),w
	subwf	(i1___lwmod@dividend),w
u497_25:
	skipc
	goto	u497_21
	goto	u497_20
u497_21:
	goto	i1l11263
u497_20:
	line	16
	
i1l11261:	
	movf	(i1___lwmod@divisor),w
	subwf	(i1___lwmod@dividend),f
	movf	(i1___lwmod@divisor+1),w
	skipc
	decf	(i1___lwmod@dividend+1),f
	subwf	(i1___lwmod@dividend+1),f
	goto	i1l11263
	
i1l7554:	
	line	17
	
i1l11263:	
	movlw	01h
	
u498_25:
	clrc
	rrf	(i1___lwmod@divisor+1),f
	rrf	(i1___lwmod@divisor),f
	addlw	-1
	skipz
	goto	u498_25
	line	18
	
i1l11265:	
	movlw	low(01h)
	subwf	(i1___lwmod@counter),f
	btfss	status,2
	goto	u499_21
	goto	u499_20
u499_21:
	goto	i1l11259
u499_20:
	goto	i1l11267
	
i1l7555:	
	goto	i1l11267
	line	19
	
i1l7549:	
	line	20
	
i1l11267:	
	movf	(i1___lwmod@dividend+1),w
	clrf	(?i1___lwmod+1)
	addwf	(?i1___lwmod+1)
	movf	(i1___lwmod@dividend),w
	clrf	(?i1___lwmod)
	addwf	(?i1___lwmod)

	goto	i1l7556
	
i1l11269:	
	line	21
	
i1l7556:	
	return
	opt stack 0
GLOBAL	__end_ofi1___lwmod
	__end_ofi1___lwmod:
;; =============== function i1___lwmod ends ============

	signat	i1___lwmod,90
	global	_Debounce
psect	text1164,local,class=CODE,delta=2
global __ptext1164
__ptext1164:

;; *************** function _Debounce *****************
;; Defined at:
;;		line 77 in file "E:\Aldnoah.Zero\Assignment3\HMI.c"
;; Parameters:    Size  Location     Type
;;		None
;; Auto vars:     Size  Location     Type
;;		None
;; Return value:  Size  Location     Type
;;		None               void
;; Registers used:
;;		wreg, status,2, status,0
;; Tracked objects:
;;		On entry : 0/0
;;		On exit  : 0/0
;;		Unchanged: 0/0
;; Data sizes:     COMMON   BANK0   BANK1   BANK3   BANK2
;;      Params:         0       0       0       0       0
;;      Locals:         0       0       0       0       0
;;      Temps:          1       0       0       0       0
;;      Totals:         1       0       0       0       0
;;Total ram usage:        1 bytes
;; Hardware stack levels used:    1
;; This function calls:
;;		Nothing
;; This function is called by:
;;		_ReadButtons
;; This function uses a non-reentrant model
;;
psect	text1164
	file	"E:\Aldnoah.Zero\Assignment3\HMI.c"
	line	77
	global	__size_of_Debounce
	__size_of_Debounce	equ	__end_of_Debounce-_Debounce
	
_Debounce:	
	opt	stack 0
; Regs used in _Debounce: [wreg+status,2+status,0]
	line	79
	
i1l10809:	
;HMI.c: 79: if(!RB2)
	bcf	status, 5	;RP0=0, select bank0
	bcf	status, 6	;RP1=0, select bank0
	btfsc	(50/8),(50)&7
	goto	u386_21
	goto	u386_20
u386_21:
	goto	i1l4505
u386_20:
	line	81
	
i1l10811:	
;HMI.c: 80: {
;HMI.c: 81: UpDebounceCount++;
	movlw	(01h)
	movwf	(??_Debounce+0)+0
	movf	(??_Debounce+0)+0,w
	bsf	status, 5	;RP0=1, select bank1
	bcf	status, 6	;RP1=0, select bank1
	addwf	(_UpDebounceCount)^080h,f	;volatile
	line	82
	
i1l10813:	
;HMI.c: 82: if(UpDebounceCount >= 10 & UpReleased)
	movlw	(0Ah)
	subwf	(_UpDebounceCount)^080h,w	;volatile
	skipc
	goto	u387_21
	goto	u387_20
u387_21:
	goto	i1l4507
u387_20:
	
i1l10815:	
	btfss	(_UpReleased/8),(_UpReleased)&7
	goto	u388_21
	goto	u388_20
u388_21:
	goto	i1l4507
u388_20:
	line	84
	
i1l10817:	
;HMI.c: 83: {
;HMI.c: 84: UpPressed = 1;
	bsf	(_UpPressed/8),(_UpPressed)&7
	line	85
;HMI.c: 85: UpReleased = 0;
	bcf	(_UpReleased/8),(_UpReleased)&7
	goto	i1l4507
	line	86
	
i1l4506:	
	line	87
;HMI.c: 86: }
;HMI.c: 87: }
	goto	i1l4507
	line	88
	
i1l4505:	
	line	90
;HMI.c: 88: else
;HMI.c: 89: {
;HMI.c: 90: UpDebounceCount = 0;
	bsf	status, 5	;RP0=1, select bank1
	bcf	status, 6	;RP1=0, select bank1
	clrf	(_UpDebounceCount)^080h	;volatile
	line	91
;HMI.c: 91: UpReleased = 1;
	bsf	(_UpReleased/8),(_UpReleased)&7
	line	92
	
i1l4507:	
	line	95
;HMI.c: 92: }
;HMI.c: 95: if(!RB3)
	bcf	status, 5	;RP0=0, select bank0
	bcf	status, 6	;RP1=0, select bank0
	btfsc	(51/8),(51)&7
	goto	u389_21
	goto	u389_20
u389_21:
	goto	i1l4508
u389_20:
	line	97
	
i1l10819:	
;HMI.c: 96: {
;HMI.c: 97: DownDebounceCount++;
	movlw	(01h)
	movwf	(??_Debounce+0)+0
	movf	(??_Debounce+0)+0,w
	bsf	status, 5	;RP0=1, select bank1
	bcf	status, 6	;RP1=0, select bank1
	addwf	(_DownDebounceCount)^080h,f	;volatile
	line	98
	
i1l10821:	
;HMI.c: 98: if(DownDebounceCount >= 10 & DownReleased)
	movlw	(0Ah)
	subwf	(_DownDebounceCount)^080h,w	;volatile
	skipc
	goto	u390_21
	goto	u390_20
u390_21:
	goto	i1l4510
u390_20:
	
i1l10823:	
	btfss	(_DownReleased/8),(_DownReleased)&7
	goto	u391_21
	goto	u391_20
u391_21:
	goto	i1l4510
u391_20:
	line	100
	
i1l10825:	
;HMI.c: 99: {
;HMI.c: 100: DownPressed = 1;
	bsf	(_DownPressed/8),(_DownPressed)&7
	line	101
;HMI.c: 101: DownReleased = 0;
	bcf	(_DownReleased/8),(_DownReleased)&7
	goto	i1l4510
	line	102
	
i1l4509:	
	line	103
;HMI.c: 102: }
;HMI.c: 103: }
	goto	i1l4510
	line	104
	
i1l4508:	
	line	106
;HMI.c: 104: else
;HMI.c: 105: {
;HMI.c: 106: DownDebounceCount = 0;
	bsf	status, 5	;RP0=1, select bank1
	bcf	status, 6	;RP1=0, select bank1
	clrf	(_DownDebounceCount)^080h	;volatile
	line	107
;HMI.c: 107: DownReleased = 1;
	bsf	(_DownReleased/8),(_DownReleased)&7
	line	108
	
i1l4510:	
	line	110
;HMI.c: 108: }
;HMI.c: 110: if(!RB4)
	bcf	status, 5	;RP0=0, select bank0
	bcf	status, 6	;RP1=0, select bank0
	btfsc	(52/8),(52)&7
	goto	u392_21
	goto	u392_20
u392_21:
	goto	i1l4511
u392_20:
	line	112
	
i1l10827:	
;HMI.c: 111: {
;HMI.c: 112: LeftDebounceCount++;
	movlw	(01h)
	movwf	(??_Debounce+0)+0
	movf	(??_Debounce+0)+0,w
	bsf	status, 5	;RP0=1, select bank1
	bcf	status, 6	;RP1=0, select bank1
	addwf	(_LeftDebounceCount)^080h,f	;volatile
	line	113
	
i1l10829:	
;HMI.c: 113: if(LeftDebounceCount >= 10 & LeftReleased)
	movlw	(0Ah)
	subwf	(_LeftDebounceCount)^080h,w	;volatile
	skipc
	goto	u393_21
	goto	u393_20
u393_21:
	goto	i1l4513
u393_20:
	
i1l10831:	
	btfss	(_LeftReleased/8),(_LeftReleased)&7
	goto	u394_21
	goto	u394_20
u394_21:
	goto	i1l4513
u394_20:
	line	115
	
i1l10833:	
;HMI.c: 114: {
;HMI.c: 115: LeftPressed = 1;
	bsf	(_LeftPressed/8),(_LeftPressed)&7
	line	116
;HMI.c: 116: LeftReleased = 0;
	bcf	(_LeftReleased/8),(_LeftReleased)&7
	goto	i1l4513
	line	117
	
i1l4512:	
	line	118
;HMI.c: 117: }
;HMI.c: 118: }
	goto	i1l4513
	line	119
	
i1l4511:	
	line	121
;HMI.c: 119: else
;HMI.c: 120: {
;HMI.c: 121: LeftDebounceCount = 0;
	bsf	status, 5	;RP0=1, select bank1
	bcf	status, 6	;RP1=0, select bank1
	clrf	(_LeftDebounceCount)^080h	;volatile
	line	122
;HMI.c: 122: LeftReleased = 1;
	bsf	(_LeftReleased/8),(_LeftReleased)&7
	line	123
	
i1l4513:	
	line	125
;HMI.c: 123: }
;HMI.c: 125: if(!RB5)
	bcf	status, 5	;RP0=0, select bank0
	bcf	status, 6	;RP1=0, select bank0
	btfsc	(53/8),(53)&7
	goto	u395_21
	goto	u395_20
u395_21:
	goto	i1l4514
u395_20:
	line	127
	
i1l10835:	
;HMI.c: 126: {
;HMI.c: 127: RightDebounceCount++;
	movlw	(01h)
	movwf	(??_Debounce+0)+0
	movf	(??_Debounce+0)+0,w
	bsf	status, 5	;RP0=1, select bank1
	bcf	status, 6	;RP1=0, select bank1
	addwf	(_RightDebounceCount)^080h,f	;volatile
	line	128
	
i1l10837:	
;HMI.c: 128: if(RightDebounceCount >= 10 & RightReleased)
	movlw	(0Ah)
	subwf	(_RightDebounceCount)^080h,w	;volatile
	skipc
	goto	u396_21
	goto	u396_20
u396_21:
	goto	i1l4516
u396_20:
	
i1l10839:	
	btfss	(_RightReleased/8),(_RightReleased)&7
	goto	u397_21
	goto	u397_20
u397_21:
	goto	i1l4516
u397_20:
	line	130
	
i1l10841:	
;HMI.c: 129: {
;HMI.c: 130: RightPressed = 1;
	bsf	(_RightPressed/8),(_RightPressed)&7
	line	131
;HMI.c: 131: RightReleased = 0;
	bcf	(_RightReleased/8),(_RightReleased)&7
	goto	i1l4516
	line	132
	
i1l4515:	
	line	133
;HMI.c: 132: }
;HMI.c: 133: }
	goto	i1l4516
	line	134
	
i1l4514:	
	line	136
;HMI.c: 134: else
;HMI.c: 135: {
;HMI.c: 136: RightDebounceCount = 0;
	bsf	status, 5	;RP0=1, select bank1
	bcf	status, 6	;RP1=0, select bank1
	clrf	(_RightDebounceCount)^080h	;volatile
	line	137
;HMI.c: 137: RightReleased = 1;
	bsf	(_RightReleased/8),(_RightReleased)&7
	line	138
	
i1l4516:	
	line	140
;HMI.c: 138: }
;HMI.c: 140: if(!RB6)
	bcf	status, 5	;RP0=0, select bank0
	bcf	status, 6	;RP1=0, select bank0
	btfsc	(54/8),(54)&7
	goto	u398_21
	goto	u398_20
u398_21:
	goto	i1l4517
u398_20:
	line	142
	
i1l10843:	
;HMI.c: 141: {
;HMI.c: 142: CenterDebounceCount++;
	movlw	(01h)
	movwf	(??_Debounce+0)+0
	movf	(??_Debounce+0)+0,w
	bsf	status, 5	;RP0=1, select bank1
	bcf	status, 6	;RP1=0, select bank1
	addwf	(_CenterDebounceCount)^080h,f	;volatile
	line	143
	
i1l10845:	
;HMI.c: 143: if(CenterDebounceCount >= 10 & CenterReleased)
	movlw	(0Ah)
	subwf	(_CenterDebounceCount)^080h,w	;volatile
	skipc
	goto	u399_21
	goto	u399_20
u399_21:
	goto	i1l4520
u399_20:
	
i1l10847:	
	btfss	(_CenterReleased/8),(_CenterReleased)&7
	goto	u400_21
	goto	u400_20
u400_21:
	goto	i1l4520
u400_20:
	line	145
	
i1l10849:	
;HMI.c: 144: {
;HMI.c: 145: CenterPressed = 1;
	bsf	(_CenterPressed/8),(_CenterPressed)&7
	line	146
;HMI.c: 146: CenterReleased = 0;
	bcf	(_CenterReleased/8),(_CenterReleased)&7
	goto	i1l4520
	line	147
	
i1l4518:	
	line	148
;HMI.c: 147: }
;HMI.c: 148: }
	goto	i1l4520
	line	149
	
i1l4517:	
	line	151
;HMI.c: 149: else
;HMI.c: 150: {
;HMI.c: 151: CenterDebounceCount = 0;
	bsf	status, 5	;RP0=1, select bank1
	bcf	status, 6	;RP1=0, select bank1
	clrf	(_CenterDebounceCount)^080h	;volatile
	line	152
;HMI.c: 152: CenterReleased = 1;
	bsf	(_CenterReleased/8),(_CenterReleased)&7
	goto	i1l4520
	line	153
	
i1l4519:	
	line	154
	
i1l4520:	
	return
	opt stack 0
GLOBAL	__end_of_Debounce
	__end_of_Debounce:
;; =============== function _Debounce ends ============

	signat	_Debounce,88
psect	text1165,local,class=CODE,delta=2
global __ptext1165
__ptext1165:
	global	btemp
	btemp set 07Eh

	DABS	1,126,2	;btemp
	global	wtemp0
	wtemp0 set btemp
	end
