opt subtitle "HI-TECH Software Omniscient Code Generator (Lite mode) build 10920"

opt pagewidth 120

	opt lm

	processor	16F877A
clrc	macro
	bcf	3,0
	endm
clrz	macro
	bcf	3,2
	endm
setc	macro
	bsf	3,0
	endm
setz	macro
	bsf	3,2
	endm
skipc	macro
	btfss	3,0
	endm
skipz	macro
	btfss	3,2
	endm
skipnc	macro
	btfsc	3,0
	endm
skipnz	macro
	btfsc	3,2
	endm
indf	equ	0
indf0	equ	0
pc	equ	2
pcl	equ	2
status	equ	3
fsr	equ	4
fsr0	equ	4
c	equ	1
z	equ	0
pclath	equ	10
# 52 "E:\Aldnoah.Zero\Assignment3\Main.c"
	psect config,class=CONFIG,delta=2 ;#
# 52 "E:\Aldnoah.Zero\Assignment3\Main.c"
	dw 0xFFFE & 0xFFFB & 0xFFFF & 0xFFBF & 0xFFF7 & 0xFFFF & 0xFF7F & 0xFFFF ;#
	FNCALL	_main,_init
	FNCALL	_main,_robot_read
	FNCALL	_main,_readAvgDistance
	FNCALL	_main,_UpdateDisplay
	FNCALL	_main,_Menu
	FNCALL	_main,_calibrateIR
	FNCALL	_main,_scan360
	FNCALL	_main,_rotate
	FNCALL	_main,_robotMoveSpeed
	FNCALL	_main,_robotTurnSpeed
	FNCALL	_main,___awtoft
	FNCALL	_main,___ftmul
	FNCALL	_main,___fttol
	FNCALL	_main,_robotTurn
	FNCALL	_main,_ChargeMode
	FNCALL	_ChargeMode,_ser_putch
	FNCALL	_ChargeMode,_UpdateDisplay
	FNCALL	_robotTurnSpeed,_robotTurn
	FNCALL	_robotTurnSpeed,_robot_read
	FNCALL	_robotTurnSpeed,_UpdateDisplay
	FNCALL	_robotTurnSpeed,_abs
	FNCALL	_robotMoveSpeed,_RobotDrive
	FNCALL	_robotMoveSpeed,_robot_read
	FNCALL	_robotMoveSpeed,_UpdateDisplay
	FNCALL	_robotMoveSpeed,_abs
	FNCALL	_robotMoveSpeed,___awtoft
	FNCALL	_robotMoveSpeed,___ftge
	FNCALL	_robotMoveSpeed,___ftdiv
	FNCALL	_robotMoveSpeed,___ftmul
	FNCALL	_robotMoveSpeed,___fttol
	FNCALL	_scan360,_readAvgDistance
	FNCALL	_scan360,_rotate
	FNCALL	_scan360,_UpdateDisplay
	FNCALL	_calibrateIR,_rotate
	FNCALL	_calibrateIR,_UpdateDisplay
	FNCALL	_UpdateDisplay,_lcd_write_control
	FNCALL	_UpdateDisplay,_sprintf
	FNCALL	_UpdateDisplay,_lcd_set_cursor
	FNCALL	_UpdateDisplay,_lcd_write_string
	FNCALL	_UpdateDisplay,___awmod
	FNCALL	_readAvgDistance,_readDistance
	FNCALL	_readAvgDistance,___lwdiv
	FNCALL	_readAvgDistance,_ADCconvert
	FNCALL	_init,_ser_init
	FNCALL	_init,_init_adc
	FNCALL	_init,_lcd_init
	FNCALL	_init,_robo_init
	FNCALL	_readDistance,_adc_read_channel
	FNCALL	_robot_read,_ser_putch
	FNCALL	_robot_read,_ser_getch
	FNCALL	_lcd_init,_lcd_write_control
	FNCALL	_lcd_write_string,_lcd_write_data
	FNCALL	_lcd_set_cursor,_lcd_write_control
	FNCALL	___awtoft,___ftpack
	FNCALL	___ftmul,___ftpack
	FNCALL	___ftdiv,___ftpack
	FNCALL	_abs,___wmul
	FNCALL	_RobotDrive,_ser_putch
	FNCALL	_ser_getch,_ser_isrx
	FNCALL	_sprintf,___lwdiv
	FNCALL	_sprintf,___lwmod
	FNCALL	_ADCconvert,___wmul
	FNCALL	_ADCconvert,___lwdiv
	FNCALL	_robotTurn,_ser_putch
	FNCALL	_rotate,_spi_transfer
	FNCALL	_robo_init,_ser_putch
	FNCALL	_adc_read_channel,_adc_read
	FNROOT	_main
	FNCALL	_isr1,i1___lwmod
	FNCALL	_isr1,_ReadButtons
	FNCALL	_ReadButtons,_Debounce
	FNCALL	intlevel1,_isr1
	global	intlevel1
	FNROOT	intlevel1
	global	_menuStrings
	global	_shortMenuStrings
	global	_current_step
psect	idataBANK1,class=CODE,space=0,delta=2
global __pidataBANK1
__pidataBANK1:
	file	"E:\Aldnoah.Zero\Assignment3\HMI.c"
	line	49

;initializer for _menuStrings
	retlw	(STR_1-__stringbase)&0ffh
	retlw	(STR_2-__stringbase)&0ffh
	retlw	(STR_3-__stringbase)&0ffh
	retlw	(STR_4-__stringbase)&0ffh
	retlw	(STR_5-__stringbase)&0ffh
	retlw	(STR_6-__stringbase)&0ffh
	line	50

;initializer for _shortMenuStrings
	retlw	(STR_7-__stringbase)&0ffh
	retlw	(STR_8-__stringbase)&0ffh
	retlw	(STR_9-__stringbase)&0ffh
	retlw	(STR_10-__stringbase)&0ffh
	retlw	(STR_11-__stringbase)&0ffh
	retlw	(STR_12-__stringbase)&0ffh
	file	"E:\Aldnoah.Zero\Assignment3\steppermotor.c"
	line	45

;initializer for _current_step
	retlw	03Ch
	global	_dpowers
psect	strings,class=STRING,delta=2
global __pstrings
__pstrings:
;	global	stringdir,stringtab,__stringbase
stringtab:
;	String table - string pointers are 1 byte each
	btfsc	(btemp+1),7
	ljmp	stringcode
	bcf	status,7
	btfsc	(btemp+1),0
	bsf	status,7
	movf	indf,w
	incf fsr
skipnz
incf btemp+1
	return
stringcode:stringdir:
movlw high(stringdir)
movwf pclath
movf fsr,w
incf fsr
	addwf pc
__stringbase:
	retlw	0
psect	strings
	file	"C:\Program Files\HI-TECH Software\PICC\9.83\lib\doprnt.c"
	line	350
_dpowers:
	retlw	01h
	retlw	0

	retlw	0Ah
	retlw	0

	retlw	064h
	retlw	0

	retlw	0E8h
	retlw	03h

	retlw	010h
	retlw	027h

	global	_dpowers
	global	_adcVal
	global	_rxiptr
	global	_rxoptr
	global	_txiptr
	global	_txoptr
	global	UpdateDisplay@F1242
	global	_txfifo
	global	_buttonPressed
	global	_CenterPressed
	global	_CenterReleased
	global	_DownPressed
	global	_DownReleased
	global	_LeftPressed
	global	_LeftReleased
	global	_RTC_FLAG_1MS
	global	_RTC_FLAG_250MS
	global	_RTC_FLAG_500MS
	global	_RightPressed
	global	_RightReleased
	global	_UpPressed
	global	_UpReleased
	global	_rxfifo
	global	_IRdistance
	global	_RTC_Counter
	global	_TotalDistTravelled
	global	_angleTurned
	global	_distTravelled
	global	_dist_high
	global	_dist_low
	global	_pos
	global	_total
	global	_totalSteps
	global	_AngleHighByte
	global	_AngleLowByte
	global	_BumpSensors
	global	_CenterDebounceCount
	global	_DistHighByte
	global	_DistLowByte
	global	_DownDebounceCount
	global	_LeftDebounceCount
	global	_ROBOTerror
	global	_RightDebounceCount
	global	_UpDebounceCount
	global	_VwallSensor
	global	_currentMenu
	global	_highByte
	global	_lowByte
	global	_ser_tmp
	global	_turnhighByte
	global	_turnlowByte
	global	_ADCON0
_ADCON0	set	31
	global	_ADRESH
_ADRESH	set	30
	global	_PORTA
_PORTA	set	5
	global	_PORTD
_PORTD	set	8
	global	_PORTE
_PORTE	set	9
	global	_RCREG
_RCREG	set	26
	global	_SSPBUF
_SSPBUF	set	19
	global	_SSPCON
_SSPCON	set	20
	global	_TMR0
_TMR0	set	1
	global	_TXREG
_TXREG	set	25
	global	AT25256A@CS0
AT25256A@CS0	set	56
	global	AT25256A@CS1
AT25256A@CS1	set	57
	global	_CARRY
_CARRY	set	24
	global	_CHS0
_CHS0	set	251
	global	_CHS1
_CHS1	set	252
	global	_CHS2
_CHS2	set	253
	global	_CREN
_CREN	set	196
	global	_GIE
_GIE	set	95
	global	_GO
_GO	set	250
	global	_OERR
_OERR	set	193
	global	_PEIE
_PEIE	set	94
	global	_RB0
_RB0	set	48
	global	_RB2
_RB2	set	50
	global	_RB3
_RB3	set	51
	global	_RB4
_RB4	set	52
	global	_RB5
_RB5	set	53
	global	_RB6
_RB6	set	54
	global	_RC0
_RC0	set	56
	global	_RC1
_RC1	set	57
	global	_RC2
_RC2	set	58
	global	_RCIF
_RCIF	set	101
	global	_RE0
_RE0	set	72
	global	_RE1
_RE1	set	73
	global	_RE2
_RE2	set	74
	global	_RX9
_RX9	set	198
	global	_SPEN
_SPEN	set	199
	global	_SSPIF
_SSPIF	set	99
	global	_TMR0IE
_TMR0IE	set	93
	global	_TMR0IF
_TMR0IF	set	90
	global	_TXIF
_TXIF	set	100
	global	_ADCON1
_ADCON1	set	159
	global	_ADRESL
_ADRESL	set	158
	global	_OPTION_REG
_OPTION_REG	set	129
	global	_SPBRG
_SPBRG	set	153
	global	_SSPSTAT
_SSPSTAT	set	148
	global	_TRISA
_TRISA	set	133
	global	_TRISB
_TRISB	set	134
	global	_TRISC
_TRISC	set	135
	global	_TRISD
_TRISD	set	136
	global	_TRISE
_TRISE	set	137
	global	_BRGH
_BRGH	set	1218
	global	_RCIE
_RCIE	set	1125
	global	_SYNC
_SYNC	set	1220
	global	_TX9
_TX9	set	1222
	global	_TXEN
_TXEN	set	1221
	global	_TXIE
_TXIE	set	1124
	global	_EEADR
_EEADR	set	269
	global	_EEDATA
_EEDATA	set	268
	global	_EECON1
_EECON1	set	396
	global	_EECON2
_EECON2	set	397
	global	_RD
_RD	set	3168
	global	_WR
_WR	set	3169
	global	_WREN
_WREN	set	3170
	
STR_18:	
	retlw	32	;' '
	retlw	67	;'C'
	retlw	104	;'h'
	retlw	97	;'a'
	retlw	114	;'r'
	retlw	103	;'g'
	retlw	105	;'i'
	retlw	110	;'n'
	retlw	103	;'g'
	retlw	32	;' '
	retlw	77	;'M'
	retlw	111	;'o'
	retlw	100	;'d'
	retlw	101	;'e'
	retlw	32	;' '
	retlw	0
psect	strings
	
STR_14:	
	retlw	90	;'Z'
	retlw	101	;'e'
	retlw	114	;'r'
	retlw	111	;'o'
	retlw	32	;' '
	retlw	83	;'S'
	retlw	116	;'t'
	retlw	101	;'e'
	retlw	112	;'p'
	retlw	95	;'_'
	retlw	77	;'M'
	retlw	111	;'o'
	retlw	116	;'t'
	retlw	111	;'o'
	retlw	114	;'r'
	retlw	0
psect	strings
	
STR_13:	
	retlw	73	;'I'
	retlw	82	;'R'
	retlw	58	;':'
	retlw	37	;'%'
	retlw	100	;'d'
	retlw	99	;'c'
	retlw	109	;'m'
	retlw	32	;' '
	retlw	68	;'D'
	retlw	58	;':'
	retlw	37	;'%'
	retlw	100	;'d'
	retlw	0
psect	strings
	
STR_19:	
	retlw	32	;' '
	retlw	32	;' '
	retlw	69	;'E'
	retlw	88	;'X'
	retlw	73	;'I'
	retlw	84	;'T'
	retlw	32	;' '
	retlw	32	;' '
	retlw	0
psect	strings
	
STR_6:	
	retlw	32	;' '
	retlw	67	;'C'
	retlw	104	;'h'
	retlw	97	;'a'
	retlw	114	;'r'
	retlw	103	;'g'
	retlw	101	;'e'
	retlw	32	;' '
	retlw	0
psect	strings
	
STR_2:	
	retlw	83	;'S'
	retlw	99	;'c'
	retlw	97	;'a'
	retlw	110	;'n'
	retlw	95	;'_'
	retlw	51	;'3'
	retlw	54	;'6'
	retlw	48	;'0'
	retlw	0
psect	strings
	
STR_1:	
	retlw	67	;'C'
	retlw	97	;'a'
	retlw	108	;'l'
	retlw	105	;'i'
	retlw	98	;'b'
	retlw	95	;'_'
	retlw	73	;'I'
	retlw	82	;'R'
	retlw	0
psect	strings
	
STR_5:	
	retlw	70	;'F'
	retlw	108	;'l'
	retlw	119	;'w'
	retlw	95	;'_'
	retlw	87	;'W'
	retlw	97	;'a'
	retlw	108	;'l'
	retlw	108	;'l'
	retlw	0
psect	strings
	
STR_3:	
	retlw	68	;'D'
	retlw	114	;'r'
	retlw	105	;'i'
	retlw	118	;'v'
	retlw	101	;'e'
	retlw	95	;'_'
	retlw	50	;'2'
	retlw	109	;'m'
	retlw	0
psect	strings
	
STR_4:	
	retlw	68	;'D'
	retlw	114	;'r'
	retlw	105	;'i'
	retlw	118	;'v'
	retlw	101	;'e'
	retlw	95	;'_'
	retlw	76	;'L'
	retlw	0
psect	strings
	
STR_16:	
	retlw	67	;'C'
	retlw	79	;'O'
	retlw	78	;'N'
	retlw	70	;'F'
	retlw	73	;'I'
	retlw	82	;'R'
	retlw	77	;'M'
	retlw	0
psect	strings
	
STR_9:	
	retlw	68	;'D'
	retlw	114	;'r'
	retlw	50	;'2'
	retlw	0
psect	strings
	
STR_15:	
	retlw	60	;'<'
	retlw	60	;'<'
	retlw	60	;'<'
	retlw	0
psect	strings
	
STR_17:	
	retlw	62	;'>'
	retlw	62	;'>'
	retlw	62	;'>'
	retlw	0
psect	strings
	
STR_10:	
	retlw	68	;'D'
	retlw	114	;'r'
	retlw	76	;'L'
	retlw	0
psect	strings
	
STR_12:	
	retlw	67	;'C'
	retlw	104	;'h'
	retlw	103	;'g'
	retlw	0
psect	strings
	
STR_7:	
	retlw	67	;'C'
	retlw	97	;'a'
	retlw	108	;'l'
	retlw	0
psect	strings
	
STR_8:	
	retlw	83	;'S'
	retlw	99	;'c'
	retlw	110	;'n'
	retlw	0
psect	strings
	
STR_11:	
	retlw	70	;'F'
	retlw	108	;'l'
	retlw	119	;'w'
	retlw	0
psect	strings
	file	"Assignment3_AldnoahZero.as"
	line	#
psect cinit,class=CODE,delta=2
global start_initialization
start_initialization:

psect	bitbssCOMMON,class=COMMON,bit,space=1
global __pbitbssCOMMON
__pbitbssCOMMON:
_CenterPressed:
       ds      1

_CenterReleased:
       ds      1

_DownPressed:
       ds      1

_DownReleased:
       ds      1

_LeftPressed:
       ds      1

_LeftReleased:
       ds      1

_RTC_FLAG_1MS:
       ds      1

_RTC_FLAG_250MS:
       ds      1

_RTC_FLAG_500MS:
       ds      1

_RightPressed:
       ds      1

_RightReleased:
       ds      1

_UpPressed:
       ds      1

_UpReleased:
       ds      1

psect	bssCOMMON,class=COMMON,space=1
global __pbssCOMMON
__pbssCOMMON:
_buttonPressed:
       ds      1

psect	bssBANK0,class=BANK0,space=1
global __pbssBANK0
__pbssBANK0:
_adcVal:
       ds      2

_rxiptr:
       ds      1

_rxoptr:
       ds      1

_txiptr:
       ds      1

_txoptr:
       ds      1

psect	bssBANK1,class=BANK1,space=1
global __pbssBANK1
__pbssBANK1:
_rxfifo:
       ds      16

_IRdistance:
       ds      2

_RTC_Counter:
       ds      2

_TotalDistTravelled:
       ds      2

_angleTurned:
       ds      2

_distTravelled:
       ds      2

_dist_high:
       ds      2

_dist_low:
       ds      2

_pos:
       ds      2

_total:
       ds      2

_totalSteps:
       ds      2

_AngleHighByte:
       ds      1

_AngleLowByte:
       ds      1

_BumpSensors:
       ds      1

_CenterDebounceCount:
       ds      1

_DistHighByte:
       ds      1

_DistLowByte:
       ds      1

_DownDebounceCount:
       ds      1

_LeftDebounceCount:
       ds      1

_ROBOTerror:
       ds      1

_RightDebounceCount:
       ds      1

_UpDebounceCount:
       ds      1

_VwallSensor:
       ds      1

_currentMenu:
       ds      1

_highByte:
       ds      1

_lowByte:
       ds      1

_ser_tmp:
       ds      1

_turnhighByte:
       ds      1

_turnlowByte:
       ds      1

psect	dataBANK1,class=BANK1,space=1
global __pdataBANK1
__pdataBANK1:
	file	"E:\Aldnoah.Zero\Assignment3\HMI.c"
	line	49
_menuStrings:
       ds      6

psect	dataBANK1
	file	"E:\Aldnoah.Zero\Assignment3\HMI.c"
	line	50
_shortMenuStrings:
       ds      6

psect	dataBANK1
	file	"E:\Aldnoah.Zero\Assignment3\steppermotor.c"
	line	45
_current_step:
       ds      1

psect	bssBANK3,class=BANK3,space=1
global __pbssBANK3
__pbssBANK3:
UpdateDisplay@F1242:
       ds      16

_txfifo:
       ds      16

psect clrtext,class=CODE,delta=2
global clear_ram
;	Called with FSR containing the base address, and
;	W with the last address+1
clear_ram:
	clrwdt			;clear the watchdog before getting into this loop
clrloop:
	clrf	indf		;clear RAM location pointed to by FSR
	incf	fsr,f		;increment pointer
	xorwf	fsr,w		;XOR with final address
	btfsc	status,2	;have we reached the end yet?
	retlw	0		;all done for this memory range, return
	xorwf	fsr,w		;XOR again to restore value
	goto	clrloop		;do the next byte

; Clear objects allocated to BITCOMMON
psect cinit,class=CODE,delta=2
	clrf	((__pbitbssCOMMON/8)+0)&07Fh
	clrf	((__pbitbssCOMMON/8)+1)&07Fh
; Clear objects allocated to COMMON
psect cinit,class=CODE,delta=2
	clrf	((__pbssCOMMON)+0)&07Fh
; Clear objects allocated to BANK0
psect cinit,class=CODE,delta=2
	clrf	((__pbssBANK0)+0)&07Fh
	clrf	((__pbssBANK0)+1)&07Fh
	clrf	((__pbssBANK0)+2)&07Fh
	clrf	((__pbssBANK0)+3)&07Fh
	clrf	((__pbssBANK0)+4)&07Fh
	clrf	((__pbssBANK0)+5)&07Fh
; Clear objects allocated to BANK1
psect cinit,class=CODE,delta=2
	bcf	status, 7	;select IRP bank0
	movlw	low(__pbssBANK1)
	movwf	fsr
	movlw	low((__pbssBANK1)+036h)
	fcall	clear_ram
; Clear objects allocated to BANK3
psect cinit,class=CODE,delta=2
	bsf	status, 7	;select IRP bank2
	movlw	low(__pbssBANK3)
	movwf	fsr
	movlw	low((__pbssBANK3)+020h)
	fcall	clear_ram
global btemp
psect inittext,class=CODE,delta=2
global init_fetch,btemp
;	Called with low address in FSR and high address in W
init_fetch:
	movf btemp,w
	movwf pclath
	movf btemp+1,w
	movwf pc
global init_ram
;Called with:
;	high address of idata address in btemp 
;	low address of idata address in btemp+1 
;	low address of data in FSR
;	high address + 1 of data in btemp-1
init_ram:
	fcall init_fetch
	movwf indf,f
	incf fsr,f
	movf fsr,w
	xorwf btemp-1,w
	btfsc status,2
	retlw 0
	incf btemp+1,f
	btfsc status,2
	incf btemp,f
	goto init_ram
; Initialize objects allocated to BANK1
psect cinit,class=CODE,delta=2
global init_ram, __pidataBANK1
	bcf	status, 7	;select IRP bank0
	movlw low(__pdataBANK1+13)
	movwf btemp-1,f
	movlw high(__pidataBANK1)
	movwf btemp,f
	movlw low(__pidataBANK1)
	movwf btemp+1,f
	movlw low(__pdataBANK1)
	movwf fsr,f
	fcall init_ram
psect cinit,class=CODE,delta=2
global end_of_initialization

;End of C runtime variable initialization code

end_of_initialization:
clrf status
ljmp _main	;jump to C main() function
psect	cstackBANK1,class=BANK1,space=1
global __pcstackBANK1
__pcstackBANK1:
	global	main@direction1
main@direction1:	; 2 bytes @ 0x0
	ds	2
	global	main@RT2A
main@RT2A:	; 2 bytes @ 0x2
	ds	2
	global	main@shortwall
main@shortwall:	; 2 bytes @ 0x4
	ds	2
	global	main@choice
main@choice:	; 1 bytes @ 0x6
	ds	1
	global	main@shortwall_3022
main@shortwall_3022:	; 2 bytes @ 0x7
	ds	2
	global	main@RT2P
main@RT2P:	; 2 bytes @ 0x9
	ds	2
psect	cstackCOMMON,class=COMMON,space=1
global __pcstackCOMMON
__pcstackCOMMON:
	global	?_ser_init
?_ser_init:	; 0 bytes @ 0x0
	global	?_robo_init
?_robo_init:	; 0 bytes @ 0x0
	global	?_robot_read
?_robot_read:	; 0 bytes @ 0x0
	global	?_readAvgDistance
?_readAvgDistance:	; 0 bytes @ 0x0
	global	?_UpdateDisplay
?_UpdateDisplay:	; 0 bytes @ 0x0
	global	?_calibrateIR
?_calibrateIR:	; 0 bytes @ 0x0
	global	?_ChargeMode
?_ChargeMode:	; 0 bytes @ 0x0
	global	?_ser_putch
?_ser_putch:	; 0 bytes @ 0x0
	global	?_ADCconvert
?_ADCconvert:	; 0 bytes @ 0x0
	global	?_init_adc
?_init_adc:	; 0 bytes @ 0x0
	global	?_lcd_write_control
?_lcd_write_control:	; 0 bytes @ 0x0
	global	?_lcd_write_data
?_lcd_write_data:	; 0 bytes @ 0x0
	global	?_lcd_set_cursor
?_lcd_set_cursor:	; 0 bytes @ 0x0
	global	?_lcd_init
?_lcd_init:	; 0 bytes @ 0x0
	global	?_isr1
?_isr1:	; 0 bytes @ 0x0
	global	?_init
?_init:	; 0 bytes @ 0x0
	global	?_main
?_main:	; 0 bytes @ 0x0
	global	?_Debounce
?_Debounce:	; 0 bytes @ 0x0
	global	??_Debounce
??_Debounce:	; 0 bytes @ 0x0
	global	?_ser_isrx
?_ser_isrx:	; 1 bit 
	global	?_ReadButtons
?_ReadButtons:	; 1 bytes @ 0x0
	global	?_Menu
?_Menu:	; 1 bytes @ 0x0
	global	?_ser_getch
?_ser_getch:	; 1 bytes @ 0x0
	global	?_adc_read_channel
?_adc_read_channel:	; 1 bytes @ 0x0
	global	?_spi_transfer
?_spi_transfer:	; 1 bytes @ 0x0
	global	?i1___lwmod
?i1___lwmod:	; 2 bytes @ 0x0
	global	i1___lwmod@divisor
i1___lwmod@divisor:	; 2 bytes @ 0x0
	ds	1
	global	??_ReadButtons
??_ReadButtons:	; 0 bytes @ 0x1
	ds	1
	global	i1___lwmod@dividend
i1___lwmod@dividend:	; 2 bytes @ 0x2
	ds	2
	global	??i1___lwmod
??i1___lwmod:	; 0 bytes @ 0x4
	ds	1
	global	i1___lwmod@counter
i1___lwmod@counter:	; 1 bytes @ 0x5
	ds	1
	global	??_isr1
??_isr1:	; 0 bytes @ 0x6
	ds	5
psect	cstackBANK0,class=BANK0,space=1
global __pcstackBANK0
__pcstackBANK0:
	global	??_ser_init
??_ser_init:	; 0 bytes @ 0x0
	global	??_Menu
??_Menu:	; 0 bytes @ 0x0
	global	??_ser_putch
??_ser_putch:	; 0 bytes @ 0x0
	global	??_ser_getch
??_ser_getch:	; 0 bytes @ 0x0
	global	??_init_adc
??_init_adc:	; 0 bytes @ 0x0
	global	??_lcd_write_control
??_lcd_write_control:	; 0 bytes @ 0x0
	global	??_lcd_write_data
??_lcd_write_data:	; 0 bytes @ 0x0
	global	??_spi_transfer
??_spi_transfer:	; 0 bytes @ 0x0
	global	??_ser_isrx
??_ser_isrx:	; 0 bytes @ 0x0
	global	?___ftge
?___ftge:	; 1 bit 
	global	?_adc_read
?_adc_read:	; 2 bytes @ 0x0
	global	?___wmul
?___wmul:	; 2 bytes @ 0x0
	global	?___awmod
?___awmod:	; 2 bytes @ 0x0
	global	?___ftpack
?___ftpack:	; 3 bytes @ 0x0
	global	Menu@BTN_input
Menu@BTN_input:	; 1 bytes @ 0x0
	global	___wmul@multiplier
___wmul@multiplier:	; 2 bytes @ 0x0
	global	___awmod@divisor
___awmod@divisor:	; 2 bytes @ 0x0
	global	___ftge@ff1
___ftge@ff1:	; 3 bytes @ 0x0
	global	___ftpack@arg
___ftpack@arg:	; 3 bytes @ 0x0
	ds	1
	global	spi_transfer@temp
spi_transfer@temp:	; 1 bytes @ 0x1
	global	ser_getch@c
ser_getch@c:	; 1 bytes @ 0x1
	global	ser_putch@c
ser_putch@c:	; 1 bytes @ 0x1
	ds	1
	global	??_adc_read
??_adc_read:	; 0 bytes @ 0x2
	global	??_robo_init
??_robo_init:	; 0 bytes @ 0x2
	global	??_robot_read
??_robot_read:	; 0 bytes @ 0x2
	global	?_robotTurn
?_robotTurn:	; 0 bytes @ 0x2
	global	lcd_write_control@databyte
lcd_write_control@databyte:	; 1 bytes @ 0x2
	global	lcd_write_data@databyte
lcd_write_data@databyte:	; 1 bytes @ 0x2
	global	spi_transfer@data
spi_transfer@data:	; 1 bytes @ 0x2
	global	robotTurn@angle
robotTurn@angle:	; 2 bytes @ 0x2
	global	___wmul@multiplicand
___wmul@multiplicand:	; 2 bytes @ 0x2
	global	___awmod@dividend
___awmod@dividend:	; 2 bytes @ 0x2
	ds	1
	global	?_rotate
?_rotate:	; 0 bytes @ 0x3
	global	??_lcd_set_cursor
??_lcd_set_cursor:	; 0 bytes @ 0x3
	global	??_lcd_init
??_lcd_init:	; 0 bytes @ 0x3
	global	??_init
??_init:	; 0 bytes @ 0x3
	global	lcd_set_cursor@address
lcd_set_cursor@address:	; 1 bytes @ 0x3
	global	___ftpack@exp
___ftpack@exp:	; 1 bytes @ 0x3
	global	rotate@numsteps
rotate@numsteps:	; 2 bytes @ 0x3
	global	___ftge@ff2
___ftge@ff2:	; 3 bytes @ 0x3
	ds	1
	global	??_robotTurn
??_robotTurn:	; 0 bytes @ 0x4
	global	??___wmul
??___wmul:	; 0 bytes @ 0x4
	global	??___awmod
??___awmod:	; 0 bytes @ 0x4
	global	robot_read@readType
robot_read@readType:	; 1 bytes @ 0x4
	global	___ftpack@sign
___ftpack@sign:	; 1 bytes @ 0x4
	global	adc_read@adc_value
adc_read@adc_value:	; 2 bytes @ 0x4
	global	___wmul@product
___wmul@product:	; 2 bytes @ 0x4
	ds	1
	global	??___ftpack
??___ftpack:	; 0 bytes @ 0x5
	global	rotate@direction
rotate@direction:	; 1 bytes @ 0x5
	global	___awmod@counter
___awmod@counter:	; 1 bytes @ 0x5
	ds	1
	global	??_rotate
??_rotate:	; 0 bytes @ 0x6
	global	??_adc_read_channel
??_adc_read_channel:	; 0 bytes @ 0x6
	global	??___ftge
??___ftge:	; 0 bytes @ 0x6
	global	?_abs
?_abs:	; 2 bytes @ 0x6
	global	?___lwdiv
?___lwdiv:	; 2 bytes @ 0x6
	global	___awmod@sign
___awmod@sign:	; 1 bytes @ 0x6
	global	abs@v
abs@v:	; 2 bytes @ 0x6
	global	___lwdiv@divisor
___lwdiv@divisor:	; 2 bytes @ 0x6
	ds	1
	global	?_lcd_write_string
?_lcd_write_string:	; 0 bytes @ 0x7
	global	adc_read_channel@channel
adc_read_channel@channel:	; 1 bytes @ 0x7
	global	lcd_write_string@s
lcd_write_string@s:	; 2 bytes @ 0x7
	ds	1
	global	??_abs
??_abs:	; 0 bytes @ 0x8
	global	?_readDistance
?_readDistance:	; 2 bytes @ 0x8
	global	?___fttol
?___fttol:	; 4 bytes @ 0x8
	global	rotate@i
rotate@i:	; 2 bytes @ 0x8
	global	___lwdiv@dividend
___lwdiv@dividend:	; 2 bytes @ 0x8
	global	___fttol@f1
___fttol@f1:	; 3 bytes @ 0x8
	ds	1
	global	??_lcd_write_string
??_lcd_write_string:	; 0 bytes @ 0x9
	ds	1
	global	??_readDistance
??_readDistance:	; 0 bytes @ 0xA
	global	??___lwdiv
??___lwdiv:	; 0 bytes @ 0xA
	ds	1
	global	___lwdiv@quotient
___lwdiv@quotient:	; 2 bytes @ 0xB
	ds	1
	global	??___fttol
??___fttol:	; 0 bytes @ 0xC
	global	readDistance@readVal
readDistance@readVal:	; 2 bytes @ 0xC
	ds	1
	global	___lwdiv@counter
___lwdiv@counter:	; 1 bytes @ 0xD
	ds	1
	global	??_ADCconvert
??_ADCconvert:	; 0 bytes @ 0xE
	global	?___lwmod
?___lwmod:	; 2 bytes @ 0xE
	global	___lwmod@divisor
___lwmod@divisor:	; 2 bytes @ 0xE
	ds	2
	global	??_readAvgDistance
??_readAvgDistance:	; 0 bytes @ 0x10
	global	___fttol@sign1
___fttol@sign1:	; 1 bytes @ 0x10
	global	readAvgDistance@fullval
readAvgDistance@fullval:	; 2 bytes @ 0x10
	global	___lwmod@dividend
___lwmod@dividend:	; 2 bytes @ 0x10
	ds	1
	global	___fttol@lval
___fttol@lval:	; 4 bytes @ 0x11
	ds	1
	global	??___lwmod
??___lwmod:	; 0 bytes @ 0x12
	global	readAvgDistance@j
readAvgDistance@j:	; 2 bytes @ 0x12
	ds	1
	global	___lwmod@counter
___lwmod@counter:	; 1 bytes @ 0x13
	ds	1
	global	?_sprintf
?_sprintf:	; 2 bytes @ 0x14
	global	sprintf@f
sprintf@f:	; 1 bytes @ 0x14
	global	readAvgDistance@tempIR
readAvgDistance@tempIR:	; 2 bytes @ 0x14
	ds	1
	global	___fttol@exp1
___fttol@exp1:	; 1 bytes @ 0x15
	ds	1
	global	?___ftdiv
?___ftdiv:	; 3 bytes @ 0x16
	global	?___awtoft
?___awtoft:	; 3 bytes @ 0x16
	global	readAvgDistance@i
readAvgDistance@i:	; 2 bytes @ 0x16
	global	___awtoft@c
___awtoft@c:	; 2 bytes @ 0x16
	global	___ftdiv@f2
___ftdiv@f2:	; 3 bytes @ 0x16
	ds	3
	global	??_sprintf
??_sprintf:	; 0 bytes @ 0x19
	global	??___awtoft
??___awtoft:	; 0 bytes @ 0x19
	global	___ftdiv@f1
___ftdiv@f1:	; 3 bytes @ 0x19
	ds	2
	global	___awtoft@sign
___awtoft@sign:	; 1 bytes @ 0x1B
	ds	1
	global	??___ftdiv
??___ftdiv:	; 0 bytes @ 0x1C
	global	sprintf@ap
sprintf@ap:	; 1 bytes @ 0x1C
	ds	1
	global	sprintf@flag
sprintf@flag:	; 1 bytes @ 0x1D
	ds	1
	global	sprintf@prec
sprintf@prec:	; 1 bytes @ 0x1E
	ds	1
	global	sprintf@_val
sprintf@_val:	; 4 bytes @ 0x1F
	ds	1
	global	___ftdiv@cntr
___ftdiv@cntr:	; 1 bytes @ 0x20
	ds	1
	global	___ftdiv@f3
___ftdiv@f3:	; 3 bytes @ 0x21
	ds	2
	global	sprintf@sp
sprintf@sp:	; 1 bytes @ 0x23
	ds	1
	global	sprintf@c
sprintf@c:	; 1 bytes @ 0x24
	global	___ftdiv@exp
___ftdiv@exp:	; 1 bytes @ 0x24
	ds	1
	global	??_UpdateDisplay
??_UpdateDisplay:	; 0 bytes @ 0x25
	global	___ftdiv@sign
___ftdiv@sign:	; 1 bytes @ 0x25
	ds	1
	global	?___ftmul
?___ftmul:	; 3 bytes @ 0x26
	global	___ftmul@f1
___ftmul@f1:	; 3 bytes @ 0x26
	ds	3
	global	___ftmul@f2
___ftmul@f2:	; 3 bytes @ 0x29
	global	UpdateDisplay@LCDOutput
UpdateDisplay@LCDOutput:	; 16 bytes @ 0x29
	ds	3
	global	??___ftmul
??___ftmul:	; 0 bytes @ 0x2C
	ds	4
	global	___ftmul@exp
___ftmul@exp:	; 1 bytes @ 0x30
	ds	1
	global	___ftmul@f3_as_product
___ftmul@f3_as_product:	; 3 bytes @ 0x31
	ds	3
	global	___ftmul@cntr
___ftmul@cntr:	; 1 bytes @ 0x34
	ds	1
	global	___ftmul@sign
___ftmul@sign:	; 1 bytes @ 0x35
	ds	1
	global	?_RobotDrive
?_RobotDrive:	; 0 bytes @ 0x36
	global	RobotDrive@speed
RobotDrive@speed:	; 2 bytes @ 0x36
	ds	2
	global	??_RobotDrive
??_RobotDrive:	; 0 bytes @ 0x38
	ds	1
	global	??_calibrateIR
??_calibrateIR:	; 0 bytes @ 0x39
	global	?_robotTurnSpeed
?_robotTurnSpeed:	; 0 bytes @ 0x39
	global	??_ChargeMode
??_ChargeMode:	; 0 bytes @ 0x39
	global	?_scan360
?_scan360:	; 2 bytes @ 0x39
	global	RobotDrive@speedlowByte
RobotDrive@speedlowByte:	; 1 bytes @ 0x39
	global	robotTurnSpeed@angle
robotTurnSpeed@angle:	; 2 bytes @ 0x39
	ds	1
	global	RobotDrive@speedhighByte
RobotDrive@speedhighByte:	; 1 bytes @ 0x3A
	ds	1
	global	??_scan360
??_scan360:	; 0 bytes @ 0x3B
	global	?_robotMoveSpeed
?_robotMoveSpeed:	; 0 bytes @ 0x3B
	global	scan360@lowestVal
scan360@lowestVal:	; 2 bytes @ 0x3B
	global	robotMoveSpeed@distance
robotMoveSpeed@distance:	; 2 bytes @ 0x3B
	global	robotTurnSpeed@speed
robotTurnSpeed@speed:	; 2 bytes @ 0x3B
	ds	2
	global	??_robotTurnSpeed
??_robotTurnSpeed:	; 0 bytes @ 0x3D
	global	scan360@lowestSteps
scan360@lowestSteps:	; 2 bytes @ 0x3D
	global	robotMoveSpeed@speed
robotMoveSpeed@speed:	; 2 bytes @ 0x3D
	ds	2
	global	??_robotMoveSpeed
??_robotMoveSpeed:	; 0 bytes @ 0x3F
	global	scan360@steps
scan360@steps:	; 2 bytes @ 0x3F
	ds	1
	global	robotTurnSpeed@temp1
robotTurnSpeed@temp1:	; 2 bytes @ 0x40
	ds	2
	global	robotMoveSpeed@remaining
robotMoveSpeed@remaining:	; 3 bytes @ 0x42
	ds	3
	global	robotMoveSpeed@temp1
robotMoveSpeed@temp1:	; 2 bytes @ 0x45
	ds	2
	global	??_main
??_main:	; 0 bytes @ 0x47
	ds	3
;;Data sizes: Strings 147, constant 10, data 13, bss 93, persistent 0 stack 0
;;Auto spaces:   Size  Autos    Used
;; COMMON          14     11      14
;; BANK0           80     74      80
;; BANK1           80     11      78
;; BANK3           96      0      32
;; BANK2           96      0       0

;;
;; Pointer list with targets:

;; ?i1___lwmod	unsigned int  size(1) Largest target is 0
;;
;; ?___ftpack	float  size(1) Largest target is 2
;;		 -> main@RT2P(BANK1[2]), 
;;
;; ?___ftdiv	float  size(1) Largest target is 0
;;
;; ?_abs	int  size(1) Largest target is 0
;;
;; ?___awmod	int  size(1) Largest target is 0
;;
;; ?___wmul	unsigned int  size(1) Largest target is 0
;;
;; ?_readDistance	unsigned int  size(1) Largest target is 0
;;
;; ?___lwdiv	unsigned int  size(1) Largest target is 0
;;
;; ?_scan360	int  size(1) Largest target is 0
;;
;; ?___fttol	long  size(1) Largest target is 0
;;
;; ?___ftmul	float  size(1) Largest target is 0
;;
;; ?___awtoft	float  size(1) Largest target is 0
;;
;; ?___lwmod	unsigned int  size(1) Largest target is 0
;;
;; ?_adc_read	unsigned int  size(1) Largest target is 0
;;
;; sprintf@f	PTR const unsigned char  size(1) Largest target is 13
;;		 -> STR_13(CODE[13]), 
;;
;; sprintf@sp	PTR unsigned char  size(1) Largest target is 16
;;		 -> UpdateDisplay@LCDOutput(BANK0[16]), 
;;
;; ?_sprintf	int  size(1) Largest target is 0
;;
;; sprintf@ap	PTR void [1] size(1) Largest target is 2
;;		 -> ?_sprintf(BANK0[2]), 
;;
;; S8196$_cp	PTR const unsigned char  size(1) Largest target is 0
;;
;; _val._str._cp	PTR const unsigned char  size(1) Largest target is 0
;;
;; shortMenuStrings	PTR const unsigned char [6] size(1) Largest target is 4
;;		 -> STR_12(CODE[4]), STR_11(CODE[4]), STR_10(CODE[4]), STR_9(CODE[4]), 
;;		 -> STR_8(CODE[4]), STR_7(CODE[4]), 
;;
;; menuStrings	PTR const unsigned char [6] size(1) Largest target is 9
;;		 -> STR_6(CODE[9]), STR_5(CODE[9]), STR_4(CODE[8]), STR_3(CODE[9]), 
;;		 -> STR_2(CODE[9]), STR_1(CODE[9]), 
;;
;; lcd_write_string@s	PTR unsigned char  size(2) Largest target is 16
;;		 -> STR_19(CODE[9]), STR_18(CODE[16]), STR_17(CODE[4]), STR_16(CODE[8]), 
;;		 -> STR_15(CODE[4]), STR_14(CODE[16]), UpdateDisplay@LCDOutput(BANK0[16]), STR_12(CODE[4]), 
;;		 -> STR_11(CODE[4]), STR_10(CODE[4]), STR_9(CODE[4]), STR_8(CODE[4]), 
;;		 -> STR_7(CODE[4]), STR_6(CODE[9]), STR_5(CODE[9]), STR_4(CODE[8]), 
;;		 -> STR_3(CODE[9]), STR_2(CODE[9]), STR_1(CODE[9]), 
;;


;;
;; Critical Paths under _main in COMMON
;;
;;   None.
;;
;; Critical Paths under _isr1 in COMMON
;;
;;   _isr1->i1___lwmod
;;   _ReadButtons->_Debounce
;;
;; Critical Paths under _main in BANK0
;;
;;   _main->_robotMoveSpeed
;;   _ChargeMode->_UpdateDisplay
;;   _robotTurnSpeed->_UpdateDisplay
;;   _robotMoveSpeed->_RobotDrive
;;   _scan360->_UpdateDisplay
;;   _calibrateIR->_UpdateDisplay
;;   _UpdateDisplay->_sprintf
;;   _readAvgDistance->_ADCconvert
;;   _readDistance->_adc_read_channel
;;   _robot_read->_ser_putch
;;   _robot_read->_ser_getch
;;   _lcd_init->_lcd_write_control
;;   _lcd_write_string->___awmod
;;   _lcd_set_cursor->_lcd_write_control
;;   ___awtoft->___fttol
;;   ___ftmul->___ftdiv
;;   ___ftdiv->___fttol
;;   _abs->___wmul
;;   _RobotDrive->___ftmul
;;   _sprintf->___lwmod
;;   _ADCconvert->___lwdiv
;;   _robotTurn->_ser_putch
;;   _rotate->_spi_transfer
;;   _robo_init->_ser_putch
;;   _adc_read_channel->_adc_read
;;   ___fttol->___ftpack
;;   ___lwmod->___lwdiv
;;   ___lwdiv->___wmul
;;
;; Critical Paths under _isr1 in BANK0
;;
;;   None.
;;
;; Critical Paths under _main in BANK1
;;
;;   None.
;;
;; Critical Paths under _isr1 in BANK1
;;
;;   None.
;;
;; Critical Paths under _main in BANK3
;;
;;   None.
;;
;; Critical Paths under _isr1 in BANK3
;;
;;   None.
;;
;; Critical Paths under _main in BANK2
;;
;;   None.
;;
;; Critical Paths under _isr1 in BANK2
;;
;;   None.

;;
;;Main: autosize = 0, tempsize = 3, incstack = 0, save=0
;;

;;
;;Call Graph Tables:
;;
;; ---------------------------------------------------------------------------------
;; (Depth) Function   	        Calls       Base Space   Used Autos Params    Refs
;; ---------------------------------------------------------------------------------
;; (0) _main                                                14    14      0   13956
;;                                             71 BANK0      3     3      0
;;                                              0 BANK1     11    11      0
;;                               _init
;;                         _robot_read
;;                    _readAvgDistance
;;                      _UpdateDisplay
;;                               _Menu
;;                        _calibrateIR
;;                            _scan360
;;                             _rotate
;;                     _robotMoveSpeed
;;                     _robotTurnSpeed
;;                           ___awtoft
;;                            ___ftmul
;;                            ___fttol
;;                          _robotTurn
;;                         _ChargeMode
;; ---------------------------------------------------------------------------------
;; (1) _ChargeMode                                           1     1      0    1305
;;                                             57 BANK0      1     1      0
;;                          _ser_putch
;;                      _UpdateDisplay
;; ---------------------------------------------------------------------------------
;; (1) _robotTurnSpeed                                       9     5      4    1710
;;                                             57 BANK0      9     5      4
;;                          _robotTurn
;;                         _robot_read
;;                      _UpdateDisplay
;;                                _abs
;; ---------------------------------------------------------------------------------
;; (1) _robotMoveSpeed                                      12     8      4    3578
;;                                             59 BANK0     12     8      4
;;                         _RobotDrive
;;                         _robot_read
;;                      _UpdateDisplay
;;                                _abs
;;                           ___awtoft
;;                             ___ftge
;;                            ___ftdiv
;;                            ___ftmul
;;                            ___fttol
;; ---------------------------------------------------------------------------------
;; (1) _scan360                                              8     6      2    2122
;;                                             57 BANK0      8     6      2
;;                    _readAvgDistance
;;                             _rotate
;;                      _UpdateDisplay
;; ---------------------------------------------------------------------------------
;; (1) _calibrateIR                                          0     0      0    1381
;;                             _rotate
;;                      _UpdateDisplay
;; ---------------------------------------------------------------------------------
;; (2) _UpdateDisplay                                       20    20      0    1283
;;                                             37 BANK0     20    20      0
;;                  _lcd_write_control
;;                            _sprintf
;;                     _lcd_set_cursor
;;                   _lcd_write_string
;;                            ___awmod
;; ---------------------------------------------------------------------------------
;; (2) _readAvgDistance                                      8     8      0     625
;;                                             16 BANK0      8     8      0
;;                       _readDistance
;;                            ___lwdiv
;;                         _ADCconvert
;; ---------------------------------------------------------------------------------
;; (1) _init                                                 1     1      0      44
;;                                              3 BANK0      1     1      0
;;                           _ser_init
;;                           _init_adc
;;                           _lcd_init
;;                          _robo_init
;; ---------------------------------------------------------------------------------
;; (3) _readDistance                                         6     4      2      69
;;                                              8 BANK0      6     4      2
;;                   _adc_read_channel
;; ---------------------------------------------------------------------------------
;; (2) _robot_read                                           3     3      0     111
;;                                              2 BANK0      3     3      0
;;                          _ser_putch
;;                          _ser_getch
;; ---------------------------------------------------------------------------------
;; (2) _lcd_init                                             0     0      0      22
;;                  _lcd_write_control
;; ---------------------------------------------------------------------------------
;; (3) _lcd_write_string                                     2     0      2      67
;;                                              7 BANK0      2     0      2
;;                     _lcd_write_data
;;                            ___awmod (ARG)
;; ---------------------------------------------------------------------------------
;; (3) _lcd_set_cursor                                       1     1      0      45
;;                                              3 BANK0      1     1      0
;;                  _lcd_write_control
;; ---------------------------------------------------------------------------------
;; (1) ___awtoft                                             6     3      3     300
;;                                             22 BANK0      6     3      3
;;                           ___ftpack
;;                            ___fttol (ARG)
;;                                _abs (ARG)
;; ---------------------------------------------------------------------------------
;; (1) ___ftmul                                             16    10      6     535
;;                                             38 BANK0     16    10      6
;;                           ___ftpack
;;                           ___awtoft (ARG)
;;                            ___fttol (ARG)
;;                            ___ftdiv (ARG)
;; ---------------------------------------------------------------------------------
;; (2) ___ftdiv                                             16    10      6     489
;;                                             22 BANK0     16    10      6
;;                           ___ftpack
;;                            ___fttol (ARG)
;; ---------------------------------------------------------------------------------
;; (2) _abs                                                  4     2      2     158
;;                                              6 BANK0      4     2      2
;;                             ___wmul
;; ---------------------------------------------------------------------------------
;; (2) _RobotDrive                                           5     3      2     112
;;                                             54 BANK0      5     3      2
;;                          _ser_putch
;;                            ___fttol (ARG)
;;                            ___ftmul (ARG)
;;                           ___awtoft (ARG)
;;                            ___ftdiv (ARG)
;; ---------------------------------------------------------------------------------
;; (3) _ser_getch                                            2     2      0      23
;;                                              0 BANK0      2     2      0
;;                           _ser_isrx
;; ---------------------------------------------------------------------------------
;; (3) _sprintf                                             17    12      5     798
;;                                             20 BANK0     17    12      5
;;                            ___lwdiv
;;                            ___lwmod
;; ---------------------------------------------------------------------------------
;; (3) _ADCconvert                                           2     2      0     254
;;                                             14 BANK0      2     2      0
;;                             ___wmul
;;                            ___lwdiv
;; ---------------------------------------------------------------------------------
;; (1) _robotTurn                                            2     0      2      66
;;                                              2 BANK0      2     0      2
;;                          _ser_putch
;; ---------------------------------------------------------------------------------
;; (1) _rotate                                               7     4      3      98
;;                                              3 BANK0      7     4      3
;;                       _spi_transfer
;; ---------------------------------------------------------------------------------
;; (2) _robo_init                                            0     0      0      22
;;                          _ser_putch
;; ---------------------------------------------------------------------------------
;; (4) _lcd_write_data                                       3     3      0      22
;;                                              0 BANK0      3     3      0
;; ---------------------------------------------------------------------------------
;; (4) _lcd_write_control                                    3     3      0      22
;;                                              0 BANK0      3     3      0
;; ---------------------------------------------------------------------------------
;; (2) _init_adc                                             1     1      0       0
;;                                              0 BANK0      1     1      0
;; ---------------------------------------------------------------------------------
;; (4) _adc_read_channel                                     2     2      0      46
;;                                              6 BANK0      2     2      0
;;                           _adc_read
;; ---------------------------------------------------------------------------------
;; (3) ___awmod                                              7     3      4     296
;;                                              0 BANK0      7     3      4
;; ---------------------------------------------------------------------------------
;; (2) ___ftge                                              12     6      6     136
;;                                              0 BANK0     12     6      6
;; ---------------------------------------------------------------------------------
;; (1) ___fttol                                             14    10      4     252
;;                                              8 BANK0     14    10      4
;;                           ___ftpack (ARG)
;; ---------------------------------------------------------------------------------
;; (2) ___ftpack                                             8     3      5     209
;;                                              0 BANK0      8     3      5
;; ---------------------------------------------------------------------------------
;; (4) ___lwmod                                              6     2      4     159
;;                                             14 BANK0      6     2      4
;;                            ___lwdiv (ARG)
;; ---------------------------------------------------------------------------------
;; (4) ___lwdiv                                              8     4      4     162
;;                                              6 BANK0      8     4      4
;;                             ___wmul (ARG)
;; ---------------------------------------------------------------------------------
;; (3) ___wmul                                               6     2      4      92
;;                                              0 BANK0      6     2      4
;; ---------------------------------------------------------------------------------
;; (4) _ser_isrx                                             0     0      0       0
;; ---------------------------------------------------------------------------------
;; (2) _spi_transfer                                         3     3      0      30
;;                                              0 BANK0      3     3      0
;; ---------------------------------------------------------------------------------
;; (2) _ser_putch                                            2     2      0      22
;;                                              0 BANK0      2     2      0
;; ---------------------------------------------------------------------------------
;; (1) _Menu                                                 1     1      0      22
;;                                              0 BANK0      1     1      0
;; ---------------------------------------------------------------------------------
;; (2) _ser_init                                             1     1      0       0
;;                                              0 BANK0      1     1      0
;; ---------------------------------------------------------------------------------
;; (5) _adc_read                                             6     4      2      24
;;                                              0 BANK0      6     4      2
;; ---------------------------------------------------------------------------------
;; Estimated maximum stack depth 5
;; ---------------------------------------------------------------------------------
;; (Depth) Function   	        Calls       Base Space   Used Autos Params    Refs
;; ---------------------------------------------------------------------------------
;; (6) _isr1                                                 5     5      0     521
;;                                              6 COMMON     5     5      0
;;                          i1___lwmod
;;                        _ReadButtons
;; ---------------------------------------------------------------------------------
;; (7) _ReadButtons                                          0     0      0       0
;;                           _Debounce
;; ---------------------------------------------------------------------------------
;; (7) i1___lwmod                                            6     2      4     521
;;                                              0 COMMON     6     2      4
;; ---------------------------------------------------------------------------------
;; (8) _Debounce                                             1     1      0       0
;;                                              0 COMMON     1     1      0
;; ---------------------------------------------------------------------------------
;; Estimated maximum stack depth 8
;; ---------------------------------------------------------------------------------

;; Call Graph Graphs:

;; _main (ROOT)
;;   _init
;;     _ser_init
;;     _init_adc
;;     _lcd_init
;;       _lcd_write_control
;;     _robo_init
;;       _ser_putch
;;   _robot_read
;;     _ser_putch
;;     _ser_getch
;;       _ser_isrx
;;   _readAvgDistance
;;     _readDistance
;;       _adc_read_channel
;;         _adc_read
;;     ___lwdiv
;;       ___wmul (ARG)
;;     _ADCconvert
;;       ___wmul
;;       ___lwdiv
;;         ___wmul (ARG)
;;   _UpdateDisplay
;;     _lcd_write_control
;;     _sprintf
;;       ___lwdiv
;;         ___wmul (ARG)
;;       ___lwmod
;;         ___lwdiv (ARG)
;;           ___wmul (ARG)
;;     _lcd_set_cursor
;;       _lcd_write_control
;;     _lcd_write_string
;;       _lcd_write_data
;;       ___awmod (ARG)
;;     ___awmod
;;   _Menu
;;   _calibrateIR
;;     _rotate
;;       _spi_transfer
;;     _UpdateDisplay
;;       _lcd_write_control
;;       _sprintf
;;         ___lwdiv
;;           ___wmul (ARG)
;;         ___lwmod
;;           ___lwdiv (ARG)
;;             ___wmul (ARG)
;;       _lcd_set_cursor
;;         _lcd_write_control
;;       _lcd_write_string
;;         _lcd_write_data
;;         ___awmod (ARG)
;;       ___awmod
;;   _scan360
;;     _readAvgDistance
;;       _readDistance
;;         _adc_read_channel
;;           _adc_read
;;       ___lwdiv
;;         ___wmul (ARG)
;;       _ADCconvert
;;         ___wmul
;;         ___lwdiv
;;           ___wmul (ARG)
;;     _rotate
;;       _spi_transfer
;;     _UpdateDisplay
;;       _lcd_write_control
;;       _sprintf
;;         ___lwdiv
;;           ___wmul (ARG)
;;         ___lwmod
;;           ___lwdiv (ARG)
;;             ___wmul (ARG)
;;       _lcd_set_cursor
;;         _lcd_write_control
;;       _lcd_write_string
;;         _lcd_write_data
;;         ___awmod (ARG)
;;       ___awmod
;;   _rotate
;;     _spi_transfer
;;   _robotMoveSpeed
;;     _RobotDrive
;;       _ser_putch
;;       ___fttol (ARG)
;;         ___ftpack (ARG)
;;       ___ftmul (ARG)
;;         ___ftpack
;;         ___awtoft (ARG)
;;           ___ftpack
;;           ___fttol (ARG)
;;             ___ftpack (ARG)
;;           _abs (ARG)
;;             ___wmul
;;         ___fttol (ARG)
;;           ___ftpack (ARG)
;;         ___ftdiv (ARG)
;;           ___ftpack
;;           ___fttol (ARG)
;;             ___ftpack (ARG)
;;       ___awtoft (ARG)
;;         ___ftpack
;;         ___fttol (ARG)
;;           ___ftpack (ARG)
;;         _abs (ARG)
;;           ___wmul
;;       ___ftdiv (ARG)
;;         ___ftpack
;;         ___fttol (ARG)
;;           ___ftpack (ARG)
;;     _robot_read
;;       _ser_putch
;;       _ser_getch
;;         _ser_isrx
;;     _UpdateDisplay
;;       _lcd_write_control
;;       _sprintf
;;         ___lwdiv
;;           ___wmul (ARG)
;;         ___lwmod
;;           ___lwdiv (ARG)
;;             ___wmul (ARG)
;;       _lcd_set_cursor
;;         _lcd_write_control
;;       _lcd_write_string
;;         _lcd_write_data
;;         ___awmod (ARG)
;;       ___awmod
;;     _abs
;;       ___wmul
;;     ___awtoft
;;       ___ftpack
;;       ___fttol (ARG)
;;         ___ftpack (ARG)
;;       _abs (ARG)
;;         ___wmul
;;     ___ftge
;;     ___ftdiv
;;       ___ftpack
;;       ___fttol (ARG)
;;         ___ftpack (ARG)
;;     ___ftmul
;;       ___ftpack
;;       ___awtoft (ARG)
;;         ___ftpack
;;         ___fttol (ARG)
;;           ___ftpack (ARG)
;;         _abs (ARG)
;;           ___wmul
;;       ___fttol (ARG)
;;         ___ftpack (ARG)
;;       ___ftdiv (ARG)
;;         ___ftpack
;;         ___fttol (ARG)
;;           ___ftpack (ARG)
;;     ___fttol
;;       ___ftpack (ARG)
;;   _robotTurnSpeed
;;     _robotTurn
;;       _ser_putch
;;     _robot_read
;;       _ser_putch
;;       _ser_getch
;;         _ser_isrx
;;     _UpdateDisplay
;;       _lcd_write_control
;;       _sprintf
;;         ___lwdiv
;;           ___wmul (ARG)
;;         ___lwmod
;;           ___lwdiv (ARG)
;;             ___wmul (ARG)
;;       _lcd_set_cursor
;;         _lcd_write_control
;;       _lcd_write_string
;;         _lcd_write_data
;;         ___awmod (ARG)
;;       ___awmod
;;     _abs
;;       ___wmul
;;   ___awtoft
;;     ___ftpack
;;     ___fttol (ARG)
;;       ___ftpack (ARG)
;;     _abs (ARG)
;;       ___wmul
;;   ___ftmul
;;     ___ftpack
;;     ___awtoft (ARG)
;;       ___ftpack
;;       ___fttol (ARG)
;;         ___ftpack (ARG)
;;       _abs (ARG)
;;         ___wmul
;;     ___fttol (ARG)
;;       ___ftpack (ARG)
;;     ___ftdiv (ARG)
;;       ___ftpack
;;       ___fttol (ARG)
;;         ___ftpack (ARG)
;;   ___fttol
;;     ___ftpack (ARG)
;;   _robotTurn
;;     _ser_putch
;;   _ChargeMode
;;     _ser_putch
;;     _UpdateDisplay
;;       _lcd_write_control
;;       _sprintf
;;         ___lwdiv
;;           ___wmul (ARG)
;;         ___lwmod
;;           ___lwdiv (ARG)
;;             ___wmul (ARG)
;;       _lcd_set_cursor
;;         _lcd_write_control
;;       _lcd_write_string
;;         _lcd_write_data
;;         ___awmod (ARG)
;;       ___awmod
;;
;; _isr1 (ROOT)
;;   i1___lwmod
;;   _ReadButtons
;;     _Debounce
;;

;; Address spaces:

;;Name               Size   Autos  Total    Cost      Usage
;;BANK3               60      0      20       9       33.3%
;;BITBANK3            60      0       0       8        0.0%
;;SFR3                 0      0       0       4        0.0%
;;BITSFR3              0      0       0       4        0.0%
;;BANK2               60      0       0      11        0.0%
;;BITBANK2            60      0       0      10        0.0%
;;SFR2                 0      0       0       5        0.0%
;;BITSFR2              0      0       0       5        0.0%
;;SFR1                 0      0       0       2        0.0%
;;BITSFR1              0      0       0       2        0.0%
;;BANK1               50      B      4E       7       97.5%
;;BITBANK1            50      0       0       6        0.0%
;;CODE                 0      0       0       0        0.0%
;;DATA                 0      0      D7      12        0.0%
;;ABS                  0      0      CC       3        0.0%
;;NULL                 0      0       0       0        0.0%
;;STACK                0      0       B       2        0.0%
;;BANK0               50     4A      50       5      100.0%
;;BITBANK0            50      0       0       4        0.0%
;;SFR0                 0      0       0       1        0.0%
;;BITSFR0              0      0       0       1        0.0%
;;COMMON               E      B       E       1      100.0%
;;BITCOMMON            E      0       2       0       14.3%
;;EEDATA             100      0       0       0        0.0%

	global	_main
psect	maintext,global,class=CODE,delta=2
global __pmaintext
__pmaintext:

;; *************** function _main *****************
;; Defined at:
;;		line 172 in file "E:\Aldnoah.Zero\Assignment3\Main.c"
;; Parameters:    Size  Location     Type
;;		None
;; Auto vars:     Size  Location     Type
;;  RT2P            2    9[BANK1 ] int 
;;  shortwall       2    7[BANK1 ] int 
;;  RT2A            2    2[BANK1 ] int 
;;  direction1      2    0[BANK1 ] int 
;;  shortwall       2    4[BANK1 ] int 
;;  choice          1    6[BANK1 ] unsigned char 
;; Return value:  Size  Location     Type
;;		None               void
;; Registers used:
;;		wreg, fsr0l, fsr0h, status,2, status,0, btemp+1, pclath, cstack
;; Tracked objects:
;;		On entry : 17F/0
;;		On exit  : 0/0
;;		Unchanged: 0/0
;; Data sizes:     COMMON   BANK0   BANK1   BANK3   BANK2
;;      Params:         0       0       0       0       0
;;      Locals:         0       0      11       0       0
;;      Temps:          0       3       0       0       0
;;      Totals:         0       3      11       0       0
;;Total ram usage:       14 bytes
;; Hardware stack levels required when called:    8
;; This function calls:
;;		_init
;;		_robot_read
;;		_readAvgDistance
;;		_UpdateDisplay
;;		_Menu
;;		_calibrateIR
;;		_scan360
;;		_rotate
;;		_robotMoveSpeed
;;		_robotTurnSpeed
;;		___awtoft
;;		___ftmul
;;		___fttol
;;		_robotTurn
;;		_ChargeMode
;; This function is called by:
;;		Startup code after reset
;; This function uses a non-reentrant model
;;
psect	maintext
	file	"E:\Aldnoah.Zero\Assignment3\Main.c"
	line	172
	global	__size_of_main
	__size_of_main	equ	__end_of_main-_main
	
_main:	
	opt	stack 0
; Regs used in _main: [wreg-fsr0h+status,2+status,0+btemp+1+pclath+cstack]
	line	173
	
l11681:	
;Main.c: 173: unsigned char choice = 255;
	movlw	(0FFh)
	bcf	status, 5	;RP0=0, select bank0
	bcf	status, 6	;RP1=0, select bank0
	movwf	(??_main+0)+0
	movf	(??_main+0)+0,w
	bsf	status, 5	;RP0=1, select bank1
	bcf	status, 6	;RP1=0, select bank1
	movwf	(main@choice)^080h
	line	174
	
l11683:	
;Main.c: 174: int shortwall = 0;
	clrf	(main@shortwall)^080h
	clrf	(main@shortwall+1)^080h
	line	177
	
l11685:	
;Main.c: 177: init();
	fcall	_init
	goto	l11687
	line	180
;Main.c: 180: while(1)
	
l2230:	
	line	182
	
l11687:	
;Main.c: 181: {
;Main.c: 182: if (RTC_FLAG_250MS == 1)
	btfss	(_RTC_FLAG_250MS/8),(_RTC_FLAG_250MS)&7
	goto	u5641
	goto	u5640
u5641:
	goto	l11697
u5640:
	line	184
	
l11689:	
;Main.c: 183: {
;Main.c: 184: RTC_FLAG_250MS = 0;
	bcf	(_RTC_FLAG_250MS/8),(_RTC_FLAG_250MS)&7
	line	185
	
l11691:	
;Main.c: 185: robot_read(2);
	movlw	(02h)
	fcall	_robot_read
	line	186
	
l11693:	
;Main.c: 186: readAvgDistance();
	fcall	_readAvgDistance
	line	187
	
l11695:	
;Main.c: 187: UpdateDisplay();
	fcall	_UpdateDisplay
	goto	l11697
	line	188
	
l2231:	
	line	189
	
l11697:	
;Main.c: 188: }
;Main.c: 189: if (buttonPressed)
	movf	(_buttonPressed),w	;volatile
	skipz
	goto	u5650
	goto	l11785
u5650:
	line	192
	
l11699:	
;Main.c: 191: {
;Main.c: 192: choice = Menu(buttonPressed);
	movf	(_buttonPressed),w	;volatile
	fcall	_Menu
	bcf	status, 5	;RP0=0, select bank0
	bcf	status, 6	;RP1=0, select bank0
	movwf	(??_main+0)+0
	movf	(??_main+0)+0,w
	bsf	status, 5	;RP0=1, select bank1
	bcf	status, 6	;RP1=0, select bank1
	movwf	(main@choice)^080h
	line	193
	
l11701:	
;Main.c: 193: buttonPressed = 0;
	clrf	(_buttonPressed)	;volatile
	goto	l11785
	line	194
	
l2232:	
	line	198
;Main.c: 194: }
;Main.c: 198: switch (choice)
	goto	l11785
	line	200
;Main.c: 199: {
;Main.c: 200: case 0:
	
l2234:	
	line	201
	
l11703:	
;Main.c: 201: calibrateIR();
	fcall	_calibrateIR
	line	202
;Main.c: 202: break;
	goto	l11787
	line	203
;Main.c: 203: case 1:
	
l2236:	
	line	204
	
l11705:	
;Main.c: 204: shortwall = scan360();
	fcall	_scan360
	bcf	status, 5	;RP0=0, select bank0
	bcf	status, 6	;RP1=0, select bank0
	movf	(1+(?_scan360)),w
	bsf	status, 5	;RP0=1, select bank1
	bcf	status, 6	;RP1=0, select bank1
	clrf	(main@shortwall+1)^080h
	addwf	(main@shortwall+1)^080h
	bcf	status, 5	;RP0=0, select bank0
	bcf	status, 6	;RP1=0, select bank0
	movf	(0+(?_scan360)),w
	bsf	status, 5	;RP0=1, select bank1
	bcf	status, 6	;RP1=0, select bank1
	clrf	(main@shortwall)^080h
	addwf	(main@shortwall)^080h

	line	205
	
l11707:	
;Main.c: 205: rotate((200 - shortwall), 0);
	comf	(main@shortwall)^080h,w
	bcf	status, 5	;RP0=0, select bank0
	bcf	status, 6	;RP1=0, select bank0
	movwf	(??_main+0)+0
	bsf	status, 5	;RP0=1, select bank1
	bcf	status, 6	;RP1=0, select bank1
	comf	(main@shortwall+1)^080h,w
	bcf	status, 5	;RP0=0, select bank0
	bcf	status, 6	;RP1=0, select bank0
	movwf	((??_main+0)+0+1)
	incf	(??_main+0)+0,f
	skipnz
	incf	((??_main+0)+0+1),f
	movf	0+(??_main+0)+0,w
	addlw	low(0C8h)
	movwf	(?_rotate)
	movf	1+(??_main+0)+0,w
	skipnc
	addlw	1
	addlw	high(0C8h)
	movwf	1+(?_rotate)
	clrf	0+(?_rotate)+02h
	fcall	_rotate
	line	206
;Main.c: 206: break;
	goto	l11787
	line	207
;Main.c: 207: case 2:
	
l2237:	
	line	209
	
l11709:	
;Main.c: 209: robotMoveSpeed(1000, 400);
	movlw	low(03E8h)
	bcf	status, 5	;RP0=0, select bank0
	bcf	status, 6	;RP1=0, select bank0
	movwf	(?_robotMoveSpeed)
	movlw	high(03E8h)
	movwf	((?_robotMoveSpeed))+1
	movlw	low(0190h)
	movwf	0+(?_robotMoveSpeed)+02h
	movlw	high(0190h)
	movwf	(0+(?_robotMoveSpeed)+02h)+1
	fcall	_robotMoveSpeed
	line	210
;Main.c: 210: break;
	goto	l11787
	line	211
;Main.c: 211: case 3:
	
l2238:	
	line	212
	
l11711:	
;Main.c: 212: robotTurnSpeed(90, 1);
	movlw	low(05Ah)
	bcf	status, 5	;RP0=0, select bank0
	bcf	status, 6	;RP1=0, select bank0
	movwf	(?_robotTurnSpeed)
	movlw	high(05Ah)
	movwf	((?_robotTurnSpeed))+1
	movlw	low(01h)
	movwf	0+(?_robotTurnSpeed)+02h
	movlw	high(01h)
	movwf	(0+(?_robotTurnSpeed)+02h)+1
	fcall	_robotTurnSpeed
	line	213
;Main.c: 213: break;
	goto	l11787
	line	214
;Main.c: 214: case 4:
	
l2239:	
	line	215
	
l11713:	
;Main.c: 215: TotalDistTravelled = 0;
	bsf	status, 5	;RP0=1, select bank1
	bcf	status, 6	;RP1=0, select bank1
	clrf	(_TotalDistTravelled)^080h
	clrf	(_TotalDistTravelled+1)^080h
	line	216
;Main.c: 216: while(!ROBOTerror)
	goto	l11779
	
l2241:	
	line	218
	
l11715:	
;Main.c: 217: {
;Main.c: 218: int shortwall = scan360();
	fcall	_scan360
	bcf	status, 5	;RP0=0, select bank0
	bcf	status, 6	;RP1=0, select bank0
	movf	(1+(?_scan360)),w
	bsf	status, 5	;RP0=1, select bank1
	bcf	status, 6	;RP1=0, select bank1
	clrf	(main@shortwall_3022+1)^080h
	addwf	(main@shortwall_3022+1)^080h
	bcf	status, 5	;RP0=0, select bank0
	bcf	status, 6	;RP1=0, select bank0
	movf	(0+(?_scan360)),w
	bsf	status, 5	;RP0=1, select bank1
	bcf	status, 6	;RP1=0, select bank1
	clrf	(main@shortwall_3022)^080h
	addwf	(main@shortwall_3022)^080h

	line	219
	
l11717:	
;Main.c: 219: int RT2P = 0;
	clrf	(main@RT2P)^080h
	clrf	(main@RT2P+1)^080h
	line	220
	
l11719:	
;Main.c: 220: int direction1 = 0;
	clrf	(main@direction1)^080h
	clrf	(main@direction1+1)^080h
	line	221
	
l11721:	
;Main.c: 221: if (shortwall > 200)
	movf	(main@shortwall_3022+1)^080h,w
	xorlw	80h
	movwf	btemp+1
	movlw	(high(0C9h))^80h
	subwf	btemp+1,w
	skipz
	goto	u5665
	movlw	low(0C9h)
	subwf	(main@shortwall_3022)^080h,w
u5665:

	skipc
	goto	u5661
	goto	u5660
u5661:
	goto	l11725
u5660:
	line	222
	
l11723:	
;Main.c: 222: RT2P = shortwall + 100;
	bsf	status, 5	;RP0=1, select bank1
	bcf	status, 6	;RP1=0, select bank1
	movf	(main@shortwall_3022)^080h,w
	addlw	low(064h)
	movwf	(main@RT2P)^080h
	movf	(main@shortwall_3022+1)^080h,w
	skipnc
	addlw	1
	addlw	high(064h)
	movwf	1+(main@RT2P)^080h
	goto	l11725
	
l2242:	
	line	223
	
l11725:	
;Main.c: 223: if (shortwall < 200)
	bsf	status, 5	;RP0=1, select bank1
	bcf	status, 6	;RP1=0, select bank1
	movf	(main@shortwall_3022+1)^080h,w
	xorlw	80h
	movwf	btemp+1
	movlw	(high(0C8h))^80h
	subwf	btemp+1,w
	skipz
	goto	u5675
	movlw	low(0C8h)
	subwf	(main@shortwall_3022)^080h,w
u5675:

	skipnc
	goto	u5671
	goto	u5670
u5671:
	goto	l11729
u5670:
	line	224
	
l11727:	
;Main.c: 224: RT2P = shortwall - 100;
	bsf	status, 5	;RP0=1, select bank1
	bcf	status, 6	;RP1=0, select bank1
	movf	(main@shortwall_3022)^080h,w
	addlw	low(-100)
	movwf	(main@RT2P)^080h
	movf	(main@shortwall_3022+1)^080h,w
	skipnc
	addlw	1
	addlw	high(-100)
	movwf	1+(main@RT2P)^080h
	goto	l11729
	
l2243:	
	line	226
	
l11729:	
;Main.c: 226: if (RT2P >= 400 && RT2P < 500 )
	bsf	status, 5	;RP0=1, select bank1
	bcf	status, 6	;RP1=0, select bank1
	movf	(main@RT2P+1)^080h,w
	xorlw	80h
	movwf	btemp+1
	movlw	(high(0190h))^80h
	subwf	btemp+1,w
	skipz
	goto	u5685
	movlw	low(0190h)
	subwf	(main@RT2P)^080h,w
u5685:

	skipc
	goto	u5681
	goto	u5680
u5681:
	goto	l11737
u5680:
	
l11731:	
	bsf	status, 5	;RP0=1, select bank1
	bcf	status, 6	;RP1=0, select bank1
	movf	(main@RT2P+1)^080h,w
	xorlw	80h
	movwf	btemp+1
	movlw	(high(01F4h))^80h
	subwf	btemp+1,w
	skipz
	goto	u5695
	movlw	low(01F4h)
	subwf	(main@RT2P)^080h,w
u5695:

	skipnc
	goto	u5691
	goto	u5690
u5691:
	goto	l11737
u5690:
	line	228
	
l11733:	
;Main.c: 227: {
;Main.c: 228: RT2P = RT2P - 400;
	bsf	status, 5	;RP0=1, select bank1
	bcf	status, 6	;RP1=0, select bank1
	movf	(main@RT2P)^080h,w
	addlw	low(-400)
	movwf	(main@RT2P)^080h
	movf	(main@RT2P+1)^080h,w
	skipnc
	addlw	1
	addlw	high(-400)
	movwf	1+(main@RT2P)^080h
	line	229
	
l11735:	
;Main.c: 229: direction1 = 1;
	movlw	low(01h)
	movwf	(main@direction1)^080h
	movlw	high(01h)
	movwf	((main@direction1)^080h)+1
	goto	l11737
	line	230
	
l2244:	
	line	231
	
l11737:	
;Main.c: 230: }
;Main.c: 231: if (RT2P >= 200 && RT2P < 400)
	bsf	status, 5	;RP0=1, select bank1
	bcf	status, 6	;RP1=0, select bank1
	movf	(main@RT2P+1)^080h,w
	xorlw	80h
	movwf	btemp+1
	movlw	(high(0C8h))^80h
	subwf	btemp+1,w
	skipz
	goto	u5705
	movlw	low(0C8h)
	subwf	(main@RT2P)^080h,w
u5705:

	skipc
	goto	u5701
	goto	u5700
u5701:
	goto	l11747
u5700:
	
l11739:	
	bsf	status, 5	;RP0=1, select bank1
	bcf	status, 6	;RP1=0, select bank1
	movf	(main@RT2P+1)^080h,w
	xorlw	80h
	movwf	btemp+1
	movlw	(high(0190h))^80h
	subwf	btemp+1,w
	skipz
	goto	u5715
	movlw	low(0190h)
	subwf	(main@RT2P)^080h,w
u5715:

	skipnc
	goto	u5711
	goto	u5710
u5711:
	goto	l11747
u5710:
	line	233
	
l11741:	
;Main.c: 232: {
;Main.c: 233: RT2P = 400 - RT2P;
	bsf	status, 5	;RP0=1, select bank1
	bcf	status, 6	;RP1=0, select bank1
	comf	(main@RT2P)^080h,w
	bcf	status, 5	;RP0=0, select bank0
	bcf	status, 6	;RP1=0, select bank0
	movwf	(??_main+0)+0
	bsf	status, 5	;RP0=1, select bank1
	bcf	status, 6	;RP1=0, select bank1
	comf	(main@RT2P+1)^080h,w
	bcf	status, 5	;RP0=0, select bank0
	bcf	status, 6	;RP1=0, select bank0
	movwf	((??_main+0)+0+1)
	incf	(??_main+0)+0,f
	skipnz
	incf	((??_main+0)+0+1),f
	movf	0+(??_main+0)+0,w
	addlw	low(0190h)
	bsf	status, 5	;RP0=1, select bank1
	bcf	status, 6	;RP1=0, select bank1
	movwf	(main@RT2P)^080h
	bcf	status, 5	;RP0=0, select bank0
	bcf	status, 6	;RP1=0, select bank0
	movf	1+(??_main+0)+0,w
	skipnc
	addlw	1
	addlw	high(0190h)
	bsf	status, 5	;RP0=1, select bank1
	bcf	status, 6	;RP1=0, select bank1
	movwf	1+(main@RT2P)^080h
	line	234
	
l11743:	
;Main.c: 234: RT2P = RT2P * -1;
	comf	(main@RT2P)^080h,f
	comf	(main@RT2P+1)^080h,f
	incf	(main@RT2P)^080h,f
	skipnz
	incf	(main@RT2P+1)^080h,f
	line	235
	
l11745:	
;Main.c: 235: direction1 = 0;
	clrf	(main@direction1)^080h
	clrf	(main@direction1+1)^080h
	goto	l11747
	line	236
	
l2245:	
	line	237
	
l11747:	
;Main.c: 236: }
;Main.c: 237: if (RT2P < 200 && RT2P >= 0)
	bsf	status, 5	;RP0=1, select bank1
	bcf	status, 6	;RP1=0, select bank1
	movf	(main@RT2P+1)^080h,w
	xorlw	80h
	movwf	btemp+1
	movlw	(high(0C8h))^80h
	subwf	btemp+1,w
	skipz
	goto	u5725
	movlw	low(0C8h)
	subwf	(main@RT2P)^080h,w
u5725:

	skipnc
	goto	u5721
	goto	u5720
u5721:
	goto	l11753
u5720:
	
l11749:	
	bsf	status, 5	;RP0=1, select bank1
	bcf	status, 6	;RP1=0, select bank1
	btfsc	(main@RT2P+1)^080h,7
	goto	u5731
	goto	u5730
u5731:
	goto	l11753
u5730:
	line	239
	
l11751:	
;Main.c: 238: {
;Main.c: 239: direction1 = 1;
	movlw	low(01h)
	movwf	(main@direction1)^080h
	movlw	high(01h)
	movwf	((main@direction1)^080h)+1
	goto	l11753
	line	240
	
l2246:	
	line	241
	
l11753:	
;Main.c: 240: }
;Main.c: 241: if (RT2P < 0 && RT2P >= -200)
	bsf	status, 5	;RP0=1, select bank1
	bcf	status, 6	;RP1=0, select bank1
	btfss	(main@RT2P+1)^080h,7
	goto	u5741
	goto	u5740
u5741:
	goto	l11759
u5740:
	
l11755:	
	movf	(main@RT2P+1)^080h,w
	xorlw	80h
	movwf	btemp+1
	movlw	(high(-200))^80h
	subwf	btemp+1,w
	skipz
	goto	u5755
	movlw	low(-200)
	subwf	(main@RT2P)^080h,w
u5755:

	skipc
	goto	u5751
	goto	u5750
u5751:
	goto	l11759
u5750:
	line	243
	
l11757:	
;Main.c: 242: {
;Main.c: 243: direction1 = 0;
	bsf	status, 5	;RP0=1, select bank1
	bcf	status, 6	;RP1=0, select bank1
	clrf	(main@direction1)^080h
	clrf	(main@direction1+1)^080h
	goto	l11759
	line	244
	
l2247:	
	line	245
	
l11759:	
;Main.c: 244: }
;Main.c: 245: if(RT2P < -200 || RT2P >500)
	bsf	status, 5	;RP0=1, select bank1
	bcf	status, 6	;RP1=0, select bank1
	movf	(main@RT2P+1)^080h,w
	xorlw	80h
	movwf	btemp+1
	movlw	(high(-200))^80h
	subwf	btemp+1,w
	skipz
	goto	u5765
	movlw	low(-200)
	subwf	(main@RT2P)^080h,w
u5765:

	skipc
	goto	u5761
	goto	u5760
u5761:
	goto	l11787
u5760:
	
l11761:	
	bsf	status, 5	;RP0=1, select bank1
	bcf	status, 6	;RP1=0, select bank1
	movf	(main@RT2P+1)^080h,w
	xorlw	80h
	movwf	btemp+1
	movlw	(high(01F5h))^80h
	subwf	btemp+1,w
	skipz
	goto	u5775
	movlw	low(01F5h)
	subwf	(main@RT2P)^080h,w
u5775:

	skipc
	goto	u5771
	goto	u5770
u5771:
	goto	l11763
u5770:
	goto	l11787
	
l2250:	
	line	247
;Main.c: 246: {
;Main.c: 247: break;
	goto	l11787
	line	248
	
l2248:	
	line	250
	
l11763:	
;Main.c: 248: }
;Main.c: 250: rotate((400 - shortwall ), 0);
	bsf	status, 5	;RP0=1, select bank1
	bcf	status, 6	;RP1=0, select bank1
	comf	(main@shortwall_3022)^080h,w
	bcf	status, 5	;RP0=0, select bank0
	bcf	status, 6	;RP1=0, select bank0
	movwf	(??_main+0)+0
	bsf	status, 5	;RP0=1, select bank1
	bcf	status, 6	;RP1=0, select bank1
	comf	(main@shortwall_3022+1)^080h,w
	bcf	status, 5	;RP0=0, select bank0
	bcf	status, 6	;RP1=0, select bank0
	movwf	((??_main+0)+0+1)
	incf	(??_main+0)+0,f
	skipnz
	incf	((??_main+0)+0+1),f
	movf	0+(??_main+0)+0,w
	addlw	low(0190h)
	movwf	(?_rotate)
	movf	1+(??_main+0)+0,w
	skipnc
	addlw	1
	addlw	high(0190h)
	movwf	1+(?_rotate)
	clrf	0+(?_rotate)+02h
	fcall	_rotate
	line	251
	
l11765:	
;Main.c: 251: _delay((unsigned long)((100)*(20000000/4000.0)));
	opt asmopt_off
movlw  3
	bcf	status, 5	;RP0=0, select bank0
	bcf	status, 6	;RP1=0, select bank0
movwf	((??_main+0)+0+2),f
movlw	138
movwf	((??_main+0)+0+1),f
	movlw	86
movwf	((??_main+0)+0),f
u5797:
	decfsz	((??_main+0)+0),f
	goto	u5797
	decfsz	((??_main+0)+0+1),f
	goto	u5797
	decfsz	((??_main+0)+0+2),f
	goto	u5797
	nop2
opt asmopt_on

	line	254
	
l11767:	
;Main.c: 254: int RT2A= RT2P * (36.0/40.0);
	bsf	status, 5	;RP0=1, select bank1
	bcf	status, 6	;RP1=0, select bank1
	movf	(main@RT2P+1)^080h,w
	bcf	status, 5	;RP0=0, select bank0
	bcf	status, 6	;RP1=0, select bank0
	clrf	(?___awtoft+1)
	addwf	(?___awtoft+1)
	bsf	status, 5	;RP0=1, select bank1
	bcf	status, 6	;RP1=0, select bank1
	movf	(main@RT2P)^080h,w
	bcf	status, 5	;RP0=0, select bank0
	bcf	status, 6	;RP1=0, select bank0
	clrf	(?___awtoft)
	addwf	(?___awtoft)

	fcall	___awtoft
	bcf	status, 5	;RP0=0, select bank0
	bcf	status, 6	;RP1=0, select bank0
	movf	(0+(?___awtoft)),w
	movwf	0+(?___ftmul)+03h
	movf	(1+(?___awtoft)),w
	movwf	1+(?___ftmul)+03h
	movf	(2+(?___awtoft)),w
	movwf	2+(?___ftmul)+03h
	movlw	0x66
	movwf	(?___ftmul)
	movlw	0x66
	movwf	(?___ftmul+1)
	movlw	0x3f
	movwf	(?___ftmul+2)
	fcall	___ftmul
	bcf	status, 5	;RP0=0, select bank0
	bcf	status, 6	;RP1=0, select bank0
	movf	(0+(?___ftmul)),w
	movwf	(?___fttol)
	movf	(1+(?___ftmul)),w
	movwf	(?___fttol+1)
	movf	(2+(?___ftmul)),w
	movwf	(?___fttol+2)
	fcall	___fttol
	bcf	status, 5	;RP0=0, select bank0
	bcf	status, 6	;RP1=0, select bank0
	movf	1+(((0+(?___fttol)))),w
	bsf	status, 5	;RP0=1, select bank1
	bcf	status, 6	;RP1=0, select bank1
	clrf	(main@RT2A+1)^080h
	addwf	(main@RT2A+1)^080h
	bcf	status, 5	;RP0=0, select bank0
	bcf	status, 6	;RP1=0, select bank0
	movf	0+(((0+(?___fttol)))),w
	bsf	status, 5	;RP0=1, select bank1
	bcf	status, 6	;RP1=0, select bank1
	clrf	(main@RT2A)^080h
	addwf	(main@RT2A)^080h

	line	255
	
l11769:	
;Main.c: 255: robotTurn(RT2A);
	movf	(main@RT2A+1)^080h,w
	bcf	status, 5	;RP0=0, select bank0
	bcf	status, 6	;RP1=0, select bank0
	clrf	(?_robotTurn+1)
	addwf	(?_robotTurn+1)
	bsf	status, 5	;RP0=1, select bank1
	bcf	status, 6	;RP1=0, select bank1
	movf	(main@RT2A)^080h,w
	bcf	status, 5	;RP0=0, select bank0
	bcf	status, 6	;RP1=0, select bank0
	clrf	(?_robotTurn)
	addwf	(?_robotTurn)

	fcall	_robotTurn
	line	256
	
l11771:	
;Main.c: 256: _delay((unsigned long)((100)*(20000000/4000.0)));
	opt asmopt_off
movlw  3
	bcf	status, 5	;RP0=0, select bank0
	bcf	status, 6	;RP1=0, select bank0
movwf	((??_main+0)+0+2),f
movlw	138
movwf	((??_main+0)+0+1),f
	movlw	86
movwf	((??_main+0)+0),f
u5807:
	decfsz	((??_main+0)+0),f
	goto	u5807
	decfsz	((??_main+0)+0+1),f
	goto	u5807
	decfsz	((??_main+0)+0+2),f
	goto	u5807
	nop2
opt asmopt_on

	line	257
	
l11773:	
;Main.c: 257: rotate(shortwall,0);
	bsf	status, 5	;RP0=1, select bank1
	bcf	status, 6	;RP1=0, select bank1
	movf	(main@shortwall_3022+1)^080h,w
	bcf	status, 5	;RP0=0, select bank0
	bcf	status, 6	;RP1=0, select bank0
	clrf	(?_rotate+1)
	addwf	(?_rotate+1)
	bsf	status, 5	;RP0=1, select bank1
	bcf	status, 6	;RP1=0, select bank1
	movf	(main@shortwall_3022)^080h,w
	bcf	status, 5	;RP0=0, select bank0
	bcf	status, 6	;RP1=0, select bank0
	clrf	(?_rotate)
	addwf	(?_rotate)

	clrf	0+(?_rotate)+02h
	fcall	_rotate
	line	258
	
l11775:	
;Main.c: 258: _delay((unsigned long)((100)*(20000000/4000.0)));
	opt asmopt_off
movlw  3
	bcf	status, 5	;RP0=0, select bank0
	bcf	status, 6	;RP1=0, select bank0
movwf	((??_main+0)+0+2),f
movlw	138
movwf	((??_main+0)+0+1),f
	movlw	86
movwf	((??_main+0)+0),f
u5817:
	decfsz	((??_main+0)+0),f
	goto	u5817
	decfsz	((??_main+0)+0+1),f
	goto	u5817
	decfsz	((??_main+0)+0+2),f
	goto	u5817
	nop2
opt asmopt_on

	line	259
	
l11777:	
;Main.c: 259: robotMoveSpeed(500, 200);
	movlw	low(01F4h)
	bcf	status, 5	;RP0=0, select bank0
	bcf	status, 6	;RP1=0, select bank0
	movwf	(?_robotMoveSpeed)
	movlw	high(01F4h)
	movwf	((?_robotMoveSpeed))+1
	movlw	low(0C8h)
	movwf	0+(?_robotMoveSpeed)+02h
	movlw	high(0C8h)
	movwf	(0+(?_robotMoveSpeed)+02h)+1
	fcall	_robotMoveSpeed
	goto	l11779
	line	260
	
l2240:	
	line	216
	
l11779:	
	bsf	status, 5	;RP0=1, select bank1
	bcf	status, 6	;RP1=0, select bank1
	movf	(_ROBOTerror)^080h,w
	skipz
	goto	u5780
	goto	l11715
u5780:
	goto	l11787
	
l2251:	
	line	262
;Main.c: 260: }
;Main.c: 262: break;
	goto	l11787
	line	264
;Main.c: 264: case 5:
	
l2252:	
	line	265
	
l11781:	
;Main.c: 265: ChargeMode();
	fcall	_ChargeMode
	line	266
;Main.c: 266: break;
	goto	l11787
	line	267
;Main.c: 267: default:
	
l2253:	
	line	269
;Main.c: 269: break;
	goto	l11787
	line	270
	
l11783:	
;Main.c: 270: }
	goto	l11787
	line	198
	
l2233:	
	
l11785:	
	bsf	status, 5	;RP0=1, select bank1
	bcf	status, 6	;RP1=0, select bank1
	movf	(main@choice)^080h,w
	; Switch size 1, requested type "space"
; Number of cases is 6, Range of values is 0 to 5
; switch strategies available:
; Name         Instructions Cycles
; simple_byte           19    10 (average)
; direct_byte           26     8 (fixed)
; jumptable            260     6 (fixed)
; rangetable            10     6 (fixed)
; spacedrange           18     9 (fixed)
; locatedrange           6     3 (fixed)
;	Chosen strategy is simple_byte

	opt asmopt_off
	xorlw	0^0	; case 0
	skipnz
	goto	l11703
	xorlw	1^0	; case 1
	skipnz
	goto	l11705
	xorlw	2^1	; case 2
	skipnz
	goto	l11709
	xorlw	3^2	; case 3
	skipnz
	goto	l11711
	xorlw	4^3	; case 4
	skipnz
	goto	l11713
	xorlw	5^4	; case 5
	skipnz
	goto	l11781
	goto	l11787
	opt asmopt_on

	line	270
	
l2235:	
	line	271
	
l11787:	
;Main.c: 271: choice = 255;
	movlw	(0FFh)
	bcf	status, 5	;RP0=0, select bank0
	bcf	status, 6	;RP1=0, select bank0
	movwf	(??_main+0)+0
	movf	(??_main+0)+0,w
	bsf	status, 5	;RP0=1, select bank1
	bcf	status, 6	;RP1=0, select bank1
	movwf	(main@choice)^080h
	goto	l11687
	line	272
	
l2254:	
	line	180
	goto	l11687
	
l2255:	
	line	273
	
l2256:	
	global	start
	ljmp	start
	opt stack 0
GLOBAL	__end_of_main
	__end_of_main:
;; =============== function _main ends ============

	signat	_main,88
	global	_ChargeMode
psect	text1117,local,class=CODE,delta=2
global __ptext1117
__ptext1117:

;; *************** function _ChargeMode *****************
;; Defined at:
;;		line 319 in file "E:\Aldnoah.Zero\Assignment3\Main.c"
;; Parameters:    Size  Location     Type
;;		None
;; Auto vars:     Size  Location     Type
;;		None
;; Return value:  Size  Location     Type
;;		None               void
;; Registers used:
;;		wreg, fsr0l, fsr0h, status,2, status,0, btemp+1, pclath, cstack
;; Tracked objects:
;;		On entry : 0/0
;;		On exit  : 0/0
;;		Unchanged: 0/0
;; Data sizes:     COMMON   BANK0   BANK1   BANK3   BANK2
;;      Params:         0       0       0       0       0
;;      Locals:         0       0       0       0       0
;;      Temps:          0       1       0       0       0
;;      Totals:         0       1       0       0       0
;;Total ram usage:        1 bytes
;; Hardware stack levels used:    1
;; Hardware stack levels required when called:    6
;; This function calls:
;;		_ser_putch
;;		_UpdateDisplay
;; This function is called by:
;;		_main
;; This function uses a non-reentrant model
;;
psect	text1117
	file	"E:\Aldnoah.Zero\Assignment3\Main.c"
	line	319
	global	__size_of_ChargeMode
	__size_of_ChargeMode	equ	__end_of_ChargeMode-_ChargeMode
	
_ChargeMode:	
	opt	stack 1
; Regs used in _ChargeMode: [wreg-fsr0h+status,2+status,0+btemp+1+pclath+cstack]
	line	321
	
l11659:	
;Main.c: 321: currentMenu = 2;
	movlw	(02h)
	bcf	status, 5	;RP0=0, select bank0
	bcf	status, 6	;RP1=0, select bank0
	movwf	(??_ChargeMode+0)+0
	movf	(??_ChargeMode+0)+0,w
	bsf	status, 5	;RP0=1, select bank1
	bcf	status, 6	;RP1=0, select bank1
	movwf	(_currentMenu)^080h	;volatile
	line	322
	
l11661:	
;Main.c: 322: ser_putch(128);
	movlw	(080h)
	fcall	_ser_putch
	goto	l11663
	line	324
;Main.c: 324: while (1)
	
l2274:	
	line	326
	
l11663:	
;Main.c: 325: {
;Main.c: 326: if (RTC_FLAG_250MS == 1)
	btfss	(_RTC_FLAG_250MS/8),(_RTC_FLAG_250MS)&7
	goto	u5631
	goto	u5630
u5631:
	goto	l11679
u5630:
	line	328
	
l11665:	
;Main.c: 327: {
;Main.c: 328: RTC_FLAG_250MS = 0;
	bcf	(_RTC_FLAG_250MS/8),(_RTC_FLAG_250MS)&7
	line	329
	
l11667:	
;Main.c: 329: UpdateDisplay();
	fcall	_UpdateDisplay
	goto	l11679
	line	330
	
l2275:	
	line	331
;Main.c: 330: }
;Main.c: 331: switch (buttonPressed)
	goto	l11679
	line	333
;Main.c: 332: {
;Main.c: 333: case 1:
	
l2277:	
	line	334
;Main.c: 334: buttonPressed = 0;
	clrf	(_buttonPressed)	;volatile
	line	335
;Main.c: 335: break;
	goto	l11663
	line	336
;Main.c: 336: case 2:
	
l2279:	
	line	337
;Main.c: 337: buttonPressed = 0;
	clrf	(_buttonPressed)	;volatile
	line	338
;Main.c: 338: break;
	goto	l11663
	line	339
;Main.c: 339: case 3:
	
l2280:	
	line	340
;Main.c: 340: buttonPressed = 0;
	clrf	(_buttonPressed)	;volatile
	line	341
;Main.c: 341: break;
	goto	l11663
	line	342
;Main.c: 342: case 4:
	
l2281:	
	line	343
;Main.c: 343: buttonPressed = 0;
	clrf	(_buttonPressed)	;volatile
	line	344
;Main.c: 344: break;
	goto	l11663
	line	345
;Main.c: 345: case 5:
	
l2282:	
	line	346
	
l11669:	
;Main.c: 346: ser_putch(132);
	movlw	(084h)
	fcall	_ser_putch
	line	347
	
l11671:	
;Main.c: 347: buttonPressed = 0;
	clrf	(_buttonPressed)	;volatile
	line	348
	
l11673:	
;Main.c: 348: currentMenu = 0;
	bsf	status, 5	;RP0=1, select bank1
	bcf	status, 6	;RP1=0, select bank1
	clrf	(_currentMenu)^080h	;volatile
	goto	l2283
	line	349
	
l11675:	
;Main.c: 349: return;
	goto	l2283
	line	350
;Main.c: 350: default:
	
l2284:	
	line	351
;Main.c: 351: buttonPressed = 0;
	clrf	(_buttonPressed)	;volatile
	line	352
;Main.c: 352: break;
	goto	l11663
	line	353
	
l11677:	
;Main.c: 353: }
	goto	l11663
	line	331
	
l2276:	
	
l11679:	
	movf	(_buttonPressed),w	;volatile
	; Switch size 1, requested type "space"
; Number of cases is 5, Range of values is 1 to 5
; switch strategies available:
; Name         Instructions Cycles
; simple_byte           16     9 (average)
; direct_byte           26    11 (fixed)
; jumptable            263     9 (fixed)
;	Chosen strategy is simple_byte

	opt asmopt_off
	xorlw	1^0	; case 1
	skipnz
	goto	l2277
	xorlw	2^1	; case 2
	skipnz
	goto	l2279
	xorlw	3^2	; case 3
	skipnz
	goto	l2280
	xorlw	4^3	; case 4
	skipnz
	goto	l2281
	xorlw	5^4	; case 5
	skipnz
	goto	l11669
	goto	l2284
	opt asmopt_on

	line	353
	
l2278:	
	goto	l11663
	line	354
	
l2285:	
	line	324
	goto	l11663
	
l2286:	
	line	355
	
l2283:	
	return
	opt stack 0
GLOBAL	__end_of_ChargeMode
	__end_of_ChargeMode:
;; =============== function _ChargeMode ends ============

	signat	_ChargeMode,88
	global	_robotTurnSpeed
psect	text1118,local,class=CODE,delta=2
global __ptext1118
__ptext1118:

;; *************** function _robotTurnSpeed *****************
;; Defined at:
;;		line 183 in file "E:\Aldnoah.Zero\Assignment3\robot.c"
;; Parameters:    Size  Location     Type
;;  angle           2   57[BANK0 ] int 
;;  speed           2   59[BANK0 ] int 
;; Auto vars:     Size  Location     Type
;;  temp1           2   64[BANK0 ] int 
;; Return value:  Size  Location     Type
;;		None               void
;; Registers used:
;;		wreg, fsr0l, fsr0h, status,2, status,0, btemp+1, pclath, cstack
;; Tracked objects:
;;		On entry : 0/0
;;		On exit  : 0/0
;;		Unchanged: 0/0
;; Data sizes:     COMMON   BANK0   BANK1   BANK3   BANK2
;;      Params:         0       4       0       0       0
;;      Locals:         0       2       0       0       0
;;      Temps:          0       3       0       0       0
;;      Totals:         0       9       0       0       0
;;Total ram usage:        9 bytes
;; Hardware stack levels used:    1
;; Hardware stack levels required when called:    6
;; This function calls:
;;		_robotTurn
;;		_robot_read
;;		_UpdateDisplay
;;		_abs
;; This function is called by:
;;		_main
;; This function uses a non-reentrant model
;;
psect	text1118
	file	"E:\Aldnoah.Zero\Assignment3\robot.c"
	line	183
	global	__size_of_robotTurnSpeed
	__size_of_robotTurnSpeed	equ	__end_of_robotTurnSpeed-_robotTurnSpeed
	
_robotTurnSpeed:	
	opt	stack 1
; Regs used in _robotTurnSpeed: [wreg-fsr0h+status,2+status,0+btemp+1+pclath+cstack]
	line	184
	
l11633:	
;robot.c: 184: angleTurned = 0;
	bsf	status, 5	;RP0=1, select bank1
	bcf	status, 6	;RP1=0, select bank1
	clrf	(_angleTurned)^080h
	clrf	(_angleTurned+1)^080h
	line	185
;robot.c: 185: int temp1 = 0;
	bcf	status, 5	;RP0=0, select bank0
	bcf	status, 6	;RP1=0, select bank0
	clrf	(robotTurnSpeed@temp1)
	clrf	(robotTurnSpeed@temp1+1)
	line	187
	
l11635:	
;robot.c: 187: robotTurn(angle);
	movf	(robotTurnSpeed@angle+1),w
	clrf	(?_robotTurn+1)
	addwf	(?_robotTurn+1)
	movf	(robotTurnSpeed@angle),w
	clrf	(?_robotTurn)
	addwf	(?_robotTurn)

	fcall	_robotTurn
	line	190
;robot.c: 190: while (abs(angleTurned) < abs(angle))
	goto	l11655
	
l6042:	
	line	192
	
l11637:	
;robot.c: 191: {
;robot.c: 192: robot_read(1);
	movlw	(01h)
	fcall	_robot_read
	line	193
	
l11639:	
;robot.c: 193: if (BumpSensors || VwallSensor)
	bsf	status, 5	;RP0=1, select bank1
	bcf	status, 6	;RP1=0, select bank1
	movf	(_BumpSensors)^080h,f
	skipz	;volatile
	goto	u5601
	goto	u5600
u5601:
	goto	l11643
u5600:
	
l11641:	
	movf	(_VwallSensor)^080h,w	;volatile
	skipz
	goto	u5610
	goto	l11645
u5610:
	goto	l11643
	
l6045:	
	line	195
	
l11643:	
;robot.c: 194: {
;robot.c: 195: ROBOTerror = 1;
	clrf	(_ROBOTerror)^080h
	bsf	status,0
	rlf	(_ROBOTerror)^080h,f
	line	196
;robot.c: 196: break;
	goto	l11657
	line	197
	
l6043:	
	line	198
	
l11645:	
;robot.c: 197: }
;robot.c: 198: temp1 = AngleHighByte;
	movf	(_AngleHighByte)^080h,w	;volatile
	bcf	status, 5	;RP0=0, select bank0
	bcf	status, 6	;RP1=0, select bank0
	movwf	(??_robotTurnSpeed+0)+0
	clrf	(??_robotTurnSpeed+0)+0+1
	movf	0+(??_robotTurnSpeed+0)+0,w
	movwf	(robotTurnSpeed@temp1)
	movf	1+(??_robotTurnSpeed+0)+0,w
	movwf	(robotTurnSpeed@temp1+1)
	line	199
	
l11647:	
;robot.c: 199: temp1 = temp1 << 8;
	movf	(robotTurnSpeed@temp1+1),w
	movwf	(??_robotTurnSpeed+0)+0+1
	movf	(robotTurnSpeed@temp1),w
	movwf	(??_robotTurnSpeed+0)+0
	movf	(??_robotTurnSpeed+0)+0,w
	movwf	(??_robotTurnSpeed+0)+1
	clrf	(??_robotTurnSpeed+0)+0
	movf	0+(??_robotTurnSpeed+0)+0,w
	movwf	(robotTurnSpeed@temp1)
	movf	1+(??_robotTurnSpeed+0)+0,w
	movwf	(robotTurnSpeed@temp1+1)
	line	200
	
l11649:	
;robot.c: 200: temp1 += AngleLowByte;
	bsf	status, 5	;RP0=1, select bank1
	bcf	status, 6	;RP1=0, select bank1
	movf	(_AngleLowByte)^080h,w	;volatile
	bcf	status, 5	;RP0=0, select bank0
	bcf	status, 6	;RP1=0, select bank0
	movwf	(??_robotTurnSpeed+0)+0
	clrf	(??_robotTurnSpeed+0)+0+1
	movf	0+(??_robotTurnSpeed+0)+0,w
	addwf	(robotTurnSpeed@temp1),f
	skipnc
	incf	(robotTurnSpeed@temp1+1),f
	movf	1+(??_robotTurnSpeed+0)+0,w
	addwf	(robotTurnSpeed@temp1+1),f
	line	201
	
l11651:	
;robot.c: 201: angleTurned += temp1;
	movf	(robotTurnSpeed@temp1),w
	bsf	status, 5	;RP0=1, select bank1
	bcf	status, 6	;RP1=0, select bank1
	addwf	(_angleTurned)^080h,f
	skipnc
	incf	(_angleTurned+1)^080h,f
	bcf	status, 5	;RP0=0, select bank0
	bcf	status, 6	;RP1=0, select bank0
	movf	(robotTurnSpeed@temp1+1),w
	bsf	status, 5	;RP0=1, select bank1
	bcf	status, 6	;RP1=0, select bank1
	addwf	(_angleTurned+1)^080h,f
	line	202
	
l11653:	
;robot.c: 202: UpdateDisplay();
	fcall	_UpdateDisplay
	goto	l11655
	line	203
	
l6041:	
	line	190
	
l11655:	
	bsf	status, 5	;RP0=1, select bank1
	bcf	status, 6	;RP1=0, select bank1
	movf	(_angleTurned+1)^080h,w
	bcf	status, 5	;RP0=0, select bank0
	bcf	status, 6	;RP1=0, select bank0
	clrf	(?_abs+1)
	addwf	(?_abs+1)
	bsf	status, 5	;RP0=1, select bank1
	bcf	status, 6	;RP1=0, select bank1
	movf	(_angleTurned)^080h,w
	bcf	status, 5	;RP0=0, select bank0
	bcf	status, 6	;RP1=0, select bank0
	clrf	(?_abs)
	addwf	(?_abs)

	fcall	_abs
	bcf	status, 5	;RP0=0, select bank0
	bcf	status, 6	;RP1=0, select bank0
	movf	(0+?_abs),w
	movwf	(??_robotTurnSpeed+0)+0
	movf	(1+?_abs),w
	movwf	((??_robotTurnSpeed+0)+0+1)
	movf	(robotTurnSpeed@angle+1),w
	clrf	(?_abs+1)
	addwf	(?_abs+1)
	movf	(robotTurnSpeed@angle),w
	clrf	(?_abs)
	addwf	(?_abs)

	fcall	_abs
	bcf	status, 5	;RP0=0, select bank0
	bcf	status, 6	;RP1=0, select bank0
	movf	1+(??_robotTurnSpeed+0)+0,w
	xorlw	80h
	movwf	(??_robotTurnSpeed+2)+0
	movf	(1+(?_abs)),w
	xorlw	80h
	subwf	(??_robotTurnSpeed+2)+0,w
	skipz
	goto	u5625
	movf	(0+(?_abs)),w
	subwf	0+(??_robotTurnSpeed+0)+0,w
u5625:

	skipc
	goto	u5621
	goto	u5620
u5621:
	goto	l11637
u5620:
	goto	l11657
	
l6046:	
	line	205
	
l11657:	
;robot.c: 203: }
;robot.c: 205: robotTurn(0);
	movlw	low(0)
	bcf	status, 5	;RP0=0, select bank0
	bcf	status, 6	;RP1=0, select bank0
	movwf	(?_robotTurn)
	movlw	high(0)
	movwf	((?_robotTurn))+1
	fcall	_robotTurn
	line	206
	
l6047:	
	return
	opt stack 0
GLOBAL	__end_of_robotTurnSpeed
	__end_of_robotTurnSpeed:
;; =============== function _robotTurnSpeed ends ============

	signat	_robotTurnSpeed,8312
	global	_robotMoveSpeed
psect	text1119,local,class=CODE,delta=2
global __ptext1119
__ptext1119:

;; *************** function _robotMoveSpeed *****************
;; Defined at:
;;		line 147 in file "E:\Aldnoah.Zero\Assignment3\robot.c"
;; Parameters:    Size  Location     Type
;;  distance        2   59[BANK0 ] int 
;;  speed           2   61[BANK0 ] int 
;; Auto vars:     Size  Location     Type
;;  remaining       3   66[BANK0 ] float 
;;  temp1           2   69[BANK0 ] int 
;; Return value:  Size  Location     Type
;;		None               void
;; Registers used:
;;		wreg, fsr0l, fsr0h, status,2, status,0, btemp+1, pclath, cstack
;; Tracked objects:
;;		On entry : 0/0
;;		On exit  : 0/0
;;		Unchanged: 0/0
;; Data sizes:     COMMON   BANK0   BANK1   BANK3   BANK2
;;      Params:         0       4       0       0       0
;;      Locals:         0       5       0       0       0
;;      Temps:          0       3       0       0       0
;;      Totals:         0      12       0       0       0
;;Total ram usage:       12 bytes
;; Hardware stack levels used:    1
;; Hardware stack levels required when called:    6
;; This function calls:
;;		_RobotDrive
;;		_robot_read
;;		_UpdateDisplay
;;		_abs
;;		___awtoft
;;		___ftge
;;		___ftdiv
;;		___ftmul
;;		___fttol
;; This function is called by:
;;		_main
;; This function uses a non-reentrant model
;;
psect	text1119
	file	"E:\Aldnoah.Zero\Assignment3\robot.c"
	line	147
	global	__size_of_robotMoveSpeed
	__size_of_robotMoveSpeed	equ	__end_of_robotMoveSpeed-_robotMoveSpeed
	
_robotMoveSpeed:	
	opt	stack 1
; Regs used in _robotMoveSpeed: [wreg-fsr0h+status,2+status,0+btemp+1+pclath+cstack]
	line	148
	
l11599:	
;robot.c: 148: distTravelled = 0;
	bsf	status, 5	;RP0=1, select bank1
	bcf	status, 6	;RP1=0, select bank1
	clrf	(_distTravelled)^080h
	clrf	(_distTravelled+1)^080h
	line	150
	
l11601:	
;robot.c: 149: int temp1;
;robot.c: 150: RobotDrive(speed);
	bcf	status, 5	;RP0=0, select bank0
	bcf	status, 6	;RP1=0, select bank0
	movf	(robotMoveSpeed@speed+1),w
	clrf	(?_RobotDrive+1)
	addwf	(?_RobotDrive+1)
	movf	(robotMoveSpeed@speed),w
	clrf	(?_RobotDrive)
	addwf	(?_RobotDrive)

	fcall	_RobotDrive
	line	153
;robot.c: 153: while (abs(distTravelled) < abs(distance))
	goto	l11629
	
l6032:	
	line	155
	
l11603:	
;robot.c: 154: {
;robot.c: 155: robot_read(0);
	movlw	(0)
	fcall	_robot_read
	line	156
	
l11605:	
;robot.c: 156: if (BumpSensors || VwallSensor)
	bsf	status, 5	;RP0=1, select bank1
	bcf	status, 6	;RP1=0, select bank1
	movf	(_BumpSensors)^080h,f
	skipz	;volatile
	goto	u5561
	goto	u5560
u5561:
	goto	l11609
u5560:
	
l11607:	
	movf	(_VwallSensor)^080h,w	;volatile
	skipz
	goto	u5570
	goto	l11611
u5570:
	goto	l11609
	
l6035:	
	line	158
	
l11609:	
;robot.c: 157: {
;robot.c: 158: ROBOTerror = 1;
	clrf	(_ROBOTerror)^080h
	bsf	status,0
	rlf	(_ROBOTerror)^080h,f
	line	159
;robot.c: 159: break;
	goto	l11631
	line	160
	
l6033:	
	line	161
	
l11611:	
;robot.c: 160: }
;robot.c: 161: temp1 = DistHighByte;
	movf	(_DistHighByte)^080h,w	;volatile
	bcf	status, 5	;RP0=0, select bank0
	bcf	status, 6	;RP1=0, select bank0
	movwf	(??_robotMoveSpeed+0)+0
	clrf	(??_robotMoveSpeed+0)+0+1
	movf	0+(??_robotMoveSpeed+0)+0,w
	movwf	(robotMoveSpeed@temp1)
	movf	1+(??_robotMoveSpeed+0)+0,w
	movwf	(robotMoveSpeed@temp1+1)
	line	162
	
l11613:	
;robot.c: 162: temp1 = temp1 << 8;
	movf	(robotMoveSpeed@temp1+1),w
	movwf	(??_robotMoveSpeed+0)+0+1
	movf	(robotMoveSpeed@temp1),w
	movwf	(??_robotMoveSpeed+0)+0
	movf	(??_robotMoveSpeed+0)+0,w
	movwf	(??_robotMoveSpeed+0)+1
	clrf	(??_robotMoveSpeed+0)+0
	movf	0+(??_robotMoveSpeed+0)+0,w
	movwf	(robotMoveSpeed@temp1)
	movf	1+(??_robotMoveSpeed+0)+0,w
	movwf	(robotMoveSpeed@temp1+1)
	line	163
	
l11615:	
;robot.c: 163: temp1 += DistLowByte;
	bsf	status, 5	;RP0=1, select bank1
	bcf	status, 6	;RP1=0, select bank1
	movf	(_DistLowByte)^080h,w	;volatile
	bcf	status, 5	;RP0=0, select bank0
	bcf	status, 6	;RP1=0, select bank0
	movwf	(??_robotMoveSpeed+0)+0
	clrf	(??_robotMoveSpeed+0)+0+1
	movf	0+(??_robotMoveSpeed+0)+0,w
	addwf	(robotMoveSpeed@temp1),f
	skipnc
	incf	(robotMoveSpeed@temp1+1),f
	movf	1+(??_robotMoveSpeed+0)+0,w
	addwf	(robotMoveSpeed@temp1+1),f
	line	164
	
l11617:	
;robot.c: 164: distTravelled += temp1;
	movf	(robotMoveSpeed@temp1),w
	bsf	status, 5	;RP0=1, select bank1
	bcf	status, 6	;RP1=0, select bank1
	addwf	(_distTravelled)^080h,f
	skipnc
	incf	(_distTravelled+1)^080h,f
	bcf	status, 5	;RP0=0, select bank0
	bcf	status, 6	;RP1=0, select bank0
	movf	(robotMoveSpeed@temp1+1),w
	bsf	status, 5	;RP0=1, select bank1
	bcf	status, 6	;RP1=0, select bank1
	addwf	(_distTravelled+1)^080h,f
	line	165
	
l11619:	
;robot.c: 165: TotalDistTravelled += temp1;
	bcf	status, 5	;RP0=0, select bank0
	bcf	status, 6	;RP1=0, select bank0
	movf	(robotMoveSpeed@temp1),w
	bsf	status, 5	;RP0=1, select bank1
	bcf	status, 6	;RP1=0, select bank1
	addwf	(_TotalDistTravelled)^080h,f
	skipnc
	incf	(_TotalDistTravelled+1)^080h,f
	bcf	status, 5	;RP0=0, select bank0
	bcf	status, 6	;RP1=0, select bank0
	movf	(robotMoveSpeed@temp1+1),w
	bsf	status, 5	;RP0=1, select bank1
	bcf	status, 6	;RP1=0, select bank1
	addwf	(_TotalDistTravelled+1)^080h,f
	line	166
	
l11621:	
;robot.c: 166: UpdateDisplay();
	fcall	_UpdateDisplay
	line	167
	
l11623:	
;robot.c: 167: float remaining = abs(distance) - abs(distTravelled) ;
	bsf	status, 5	;RP0=1, select bank1
	bcf	status, 6	;RP1=0, select bank1
	movf	(_distTravelled+1)^080h,w
	bcf	status, 5	;RP0=0, select bank0
	bcf	status, 6	;RP1=0, select bank0
	clrf	(?_abs+1)
	addwf	(?_abs+1)
	bsf	status, 5	;RP0=1, select bank1
	bcf	status, 6	;RP1=0, select bank1
	movf	(_distTravelled)^080h,w
	bcf	status, 5	;RP0=0, select bank0
	bcf	status, 6	;RP1=0, select bank0
	clrf	(?_abs)
	addwf	(?_abs)

	fcall	_abs
	bcf	status, 5	;RP0=0, select bank0
	bcf	status, 6	;RP1=0, select bank0
	comf	(0+(?_abs)),w
	movwf	(??_robotMoveSpeed+0)+0
	comf	(1+(?_abs)),w
	movwf	((??_robotMoveSpeed+0)+0+1)
	incf	(??_robotMoveSpeed+0)+0,f
	skipnz
	incf	((??_robotMoveSpeed+0)+0+1),f
	movf	(robotMoveSpeed@distance+1),w
	clrf	(?_abs+1)
	addwf	(?_abs+1)
	movf	(robotMoveSpeed@distance),w
	clrf	(?_abs)
	addwf	(?_abs)

	fcall	_abs
	bcf	status, 5	;RP0=0, select bank0
	bcf	status, 6	;RP1=0, select bank0
	movf	0+(??_robotMoveSpeed+0)+0,w
	addwf	(0+(?_abs)),w
	movwf	(?___awtoft)
	movf	1+(??_robotMoveSpeed+0)+0,w
	skipnc
	incf	1+(??_robotMoveSpeed+0)+0,w
	addwf	(1+(?_abs)),w
	movwf	1+(?___awtoft)
	fcall	___awtoft
	bcf	status, 5	;RP0=0, select bank0
	bcf	status, 6	;RP1=0, select bank0
	movf	(0+(?___awtoft)),w
	movwf	(robotMoveSpeed@remaining)
	movf	(1+(?___awtoft)),w
	movwf	(robotMoveSpeed@remaining+1)
	movf	(2+(?___awtoft)),w
	movwf	(robotMoveSpeed@remaining+2)
	line	168
	
l11625:	
;robot.c: 168: if ( remaining < 100)
	movf	(robotMoveSpeed@remaining),w
	movwf	(?___ftge)
	movf	(robotMoveSpeed@remaining+1),w
	movwf	(?___ftge+1)
	movf	(robotMoveSpeed@remaining+2),w
	movwf	(?___ftge+2)
	movlw	0x0
	movwf	0+(?___ftge)+03h
	movlw	0xc8
	movwf	1+(?___ftge)+03h
	movlw	0x42
	movwf	2+(?___ftge)+03h
	fcall	___ftge
	btfsc	status,0
	goto	u5581
	goto	u5580
u5581:
	goto	l11629
u5580:
	line	170
	
l11627:	
;robot.c: 169: {
;robot.c: 170: RobotDrive(speed * (remaining/100.0));
	bcf	status, 5	;RP0=0, select bank0
	bcf	status, 6	;RP1=0, select bank0
	movf	(robotMoveSpeed@speed+1),w
	clrf	(?___awtoft+1)
	addwf	(?___awtoft+1)
	movf	(robotMoveSpeed@speed),w
	clrf	(?___awtoft)
	addwf	(?___awtoft)

	fcall	___awtoft
	bcf	status, 5	;RP0=0, select bank0
	bcf	status, 6	;RP1=0, select bank0
	movf	(0+(?___awtoft)),w
	movwf	0+(?___ftmul)+03h
	movf	(1+(?___awtoft)),w
	movwf	1+(?___ftmul)+03h
	movf	(2+(?___awtoft)),w
	movwf	2+(?___ftmul)+03h
	movf	(robotMoveSpeed@remaining),w
	movwf	0+(?___ftdiv)+03h
	movf	(robotMoveSpeed@remaining+1),w
	movwf	1+(?___ftdiv)+03h
	movf	(robotMoveSpeed@remaining+2),w
	movwf	2+(?___ftdiv)+03h
	movlw	0x0
	movwf	(?___ftdiv)
	movlw	0xc8
	movwf	(?___ftdiv+1)
	movlw	0x42
	movwf	(?___ftdiv+2)
	fcall	___ftdiv
	bcf	status, 5	;RP0=0, select bank0
	bcf	status, 6	;RP1=0, select bank0
	movf	(0+(?___ftdiv)),w
	movwf	(?___ftmul)
	movf	(1+(?___ftdiv)),w
	movwf	(?___ftmul+1)
	movf	(2+(?___ftdiv)),w
	movwf	(?___ftmul+2)
	fcall	___ftmul
	bcf	status, 5	;RP0=0, select bank0
	bcf	status, 6	;RP1=0, select bank0
	movf	(0+(?___ftmul)),w
	movwf	(?___fttol)
	movf	(1+(?___ftmul)),w
	movwf	(?___fttol+1)
	movf	(2+(?___ftmul)),w
	movwf	(?___fttol+2)
	fcall	___fttol
	bcf	status, 5	;RP0=0, select bank0
	bcf	status, 6	;RP1=0, select bank0
	movf	1+(((0+(?___fttol)))),w
	clrf	(?_RobotDrive+1)
	addwf	(?_RobotDrive+1)
	movf	0+(((0+(?___fttol)))),w
	clrf	(?_RobotDrive)
	addwf	(?_RobotDrive)

	fcall	_RobotDrive
	goto	l11629
	line	171
	
l6037:	
	goto	l11629
	line	172
	
l6031:	
	line	153
	
l11629:	
	bsf	status, 5	;RP0=1, select bank1
	bcf	status, 6	;RP1=0, select bank1
	movf	(_distTravelled+1)^080h,w
	bcf	status, 5	;RP0=0, select bank0
	bcf	status, 6	;RP1=0, select bank0
	clrf	(?_abs+1)
	addwf	(?_abs+1)
	bsf	status, 5	;RP0=1, select bank1
	bcf	status, 6	;RP1=0, select bank1
	movf	(_distTravelled)^080h,w
	bcf	status, 5	;RP0=0, select bank0
	bcf	status, 6	;RP1=0, select bank0
	clrf	(?_abs)
	addwf	(?_abs)

	fcall	_abs
	bcf	status, 5	;RP0=0, select bank0
	bcf	status, 6	;RP1=0, select bank0
	movf	(0+?_abs),w
	movwf	(??_robotMoveSpeed+0)+0
	movf	(1+?_abs),w
	movwf	((??_robotMoveSpeed+0)+0+1)
	movf	(robotMoveSpeed@distance+1),w
	clrf	(?_abs+1)
	addwf	(?_abs+1)
	movf	(robotMoveSpeed@distance),w
	clrf	(?_abs)
	addwf	(?_abs)

	fcall	_abs
	bcf	status, 5	;RP0=0, select bank0
	bcf	status, 6	;RP1=0, select bank0
	movf	1+(??_robotMoveSpeed+0)+0,w
	xorlw	80h
	movwf	(??_robotMoveSpeed+2)+0
	movf	(1+(?_abs)),w
	xorlw	80h
	subwf	(??_robotMoveSpeed+2)+0,w
	skipz
	goto	u5595
	movf	(0+(?_abs)),w
	subwf	0+(??_robotMoveSpeed+0)+0,w
u5595:

	skipc
	goto	u5591
	goto	u5590
u5591:
	goto	l11603
u5590:
	goto	l11631
	
l6036:	
	line	174
	
l11631:	
;robot.c: 171: }
;robot.c: 172: }
;robot.c: 174: RobotDrive(0);
	movlw	low(0)
	bcf	status, 5	;RP0=0, select bank0
	bcf	status, 6	;RP1=0, select bank0
	movwf	(?_RobotDrive)
	movlw	high(0)
	movwf	((?_RobotDrive))+1
	fcall	_RobotDrive
	line	176
	
l6038:	
	return
	opt stack 0
GLOBAL	__end_of_robotMoveSpeed
	__end_of_robotMoveSpeed:
;; =============== function _robotMoveSpeed ends ============

	signat	_robotMoveSpeed,8312
	global	_scan360
psect	text1120,local,class=CODE,delta=2
global __ptext1120
__ptext1120:

;; *************** function _scan360 *****************
;; Defined at:
;;		line 360 in file "E:\Aldnoah.Zero\Assignment3\Main.c"
;; Parameters:    Size  Location     Type
;;		None
;; Auto vars:     Size  Location     Type
;;  steps           2   63[BANK0 ] int 
;;  lowestSteps     2   61[BANK0 ] int 
;;  lowestVal       2   59[BANK0 ] int 
;; Return value:  Size  Location     Type
;;                  2   57[BANK0 ] int 
;; Registers used:
;;		wreg, fsr0l, fsr0h, status,2, status,0, btemp+1, pclath, cstack
;; Tracked objects:
;;		On entry : 0/0
;;		On exit  : 0/0
;;		Unchanged: 0/0
;; Data sizes:     COMMON   BANK0   BANK1   BANK3   BANK2
;;      Params:         0       2       0       0       0
;;      Locals:         0       6       0       0       0
;;      Temps:          0       0       0       0       0
;;      Totals:         0       8       0       0       0
;;Total ram usage:        8 bytes
;; Hardware stack levels used:    1
;; Hardware stack levels required when called:    7
;; This function calls:
;;		_readAvgDistance
;;		_rotate
;;		_UpdateDisplay
;; This function is called by:
;;		_main
;; This function uses a non-reentrant model
;;
psect	text1120
	file	"E:\Aldnoah.Zero\Assignment3\Main.c"
	line	360
	global	__size_of_scan360
	__size_of_scan360	equ	__end_of_scan360-_scan360
	
_scan360:	
	opt	stack 0
; Regs used in _scan360: [wreg-fsr0h+status,2+status,0+btemp+1+pclath+cstack]
	line	361
	
l11571:	
;Main.c: 361: int lowestVal = 0, lowestSteps = 0;
	bcf	status, 5	;RP0=0, select bank0
	bcf	status, 6	;RP1=0, select bank0
	clrf	(scan360@lowestVal)
	clrf	(scan360@lowestVal+1)
	clrf	(scan360@lowestSteps)
	clrf	(scan360@lowestSteps+1)
	line	363
;Main.c: 363: for (int steps = 0; steps < 200; steps+= 2)
	clrf	(scan360@steps)
	clrf	(scan360@steps+1)
	
l11573:	
	movf	(scan360@steps+1),w
	xorlw	80h
	movwf	btemp+1
	movlw	(high(0C8h))^80h
	subwf	btemp+1,w
	skipz
	goto	u5525
	movlw	low(0C8h)
	subwf	(scan360@steps),w
u5525:

	skipc
	goto	u5521
	goto	u5520
u5521:
	goto	l11577
u5520:
	goto	l11595
	
l11575:	
	goto	l11595
	line	364
	
l2289:	
	line	365
	
l11577:	
;Main.c: 364: {
;Main.c: 365: readAvgDistance();
	fcall	_readAvgDistance
	line	366
	
l11579:	
;Main.c: 366: if (adcVal > lowestVal)
	bcf	status, 5	;RP0=0, select bank0
	bcf	status, 6	;RP1=0, select bank0
	movf	(_adcVal+1),w	;volatile
	subwf	(scan360@lowestVal+1),w
	skipz
	goto	u5535
	movf	(_adcVal),w	;volatile
	subwf	(scan360@lowestVal),w
u5535:
	skipnc
	goto	u5531
	goto	u5530
u5531:
	goto	l11583
u5530:
	line	368
	
l11581:	
;Main.c: 367: {
;Main.c: 368: lowestVal = adcVal;
	movf	(_adcVal+1),w	;volatile
	clrf	(scan360@lowestVal+1)	;volatile
	addwf	(scan360@lowestVal+1)	;volatile
	movf	(_adcVal),w	;volatile
	clrf	(scan360@lowestVal)	;volatile
	addwf	(scan360@lowestVal)	;volatile

	line	369
;Main.c: 369: lowestSteps = steps;
	movf	(scan360@steps+1),w
	clrf	(scan360@lowestSteps+1)
	addwf	(scan360@lowestSteps+1)
	movf	(scan360@steps),w
	clrf	(scan360@lowestSteps)
	addwf	(scan360@lowestSteps)

	goto	l11583
	line	371
	
l2291:	
	line	372
	
l11583:	
;Main.c: 371: }
;Main.c: 372: rotate(2, 1);
	movlw	low(02h)
	movwf	(?_rotate)
	movlw	high(02h)
	movwf	((?_rotate))+1
	clrf	0+(?_rotate)+02h
	bsf	status,0
	rlf	0+(?_rotate)+02h,f
	fcall	_rotate
	line	374
	
l11585:	
;Main.c: 374: if (RTC_FLAG_250MS == 1)
	btfss	(_RTC_FLAG_250MS/8),(_RTC_FLAG_250MS)&7
	goto	u5541
	goto	u5540
u5541:
	goto	l11591
u5540:
	line	376
	
l11587:	
;Main.c: 375: {
;Main.c: 376: RTC_FLAG_250MS = 0;
	bcf	(_RTC_FLAG_250MS/8),(_RTC_FLAG_250MS)&7
	line	377
	
l11589:	
;Main.c: 377: UpdateDisplay();
	fcall	_UpdateDisplay
	goto	l11591
	line	378
	
l2292:	
	line	363
	
l11591:	
	movlw	low(02h)
	bcf	status, 5	;RP0=0, select bank0
	bcf	status, 6	;RP1=0, select bank0
	addwf	(scan360@steps),f
	skipnc
	incf	(scan360@steps+1),f
	movlw	high(02h)
	addwf	(scan360@steps+1),f
	
l11593:	
	movf	(scan360@steps+1),w
	xorlw	80h
	movwf	btemp+1
	movlw	(high(0C8h))^80h
	subwf	btemp+1,w
	skipz
	goto	u5555
	movlw	low(0C8h)
	subwf	(scan360@steps),w
u5555:

	skipc
	goto	u5551
	goto	u5550
u5551:
	goto	l11577
u5550:
	goto	l11595
	
l2290:	
	line	381
	
l11595:	
;Main.c: 378: }
;Main.c: 379: }
;Main.c: 381: return lowestSteps;
	bcf	status, 5	;RP0=0, select bank0
	bcf	status, 6	;RP1=0, select bank0
	movf	(scan360@lowestSteps+1),w
	clrf	(?_scan360+1)
	addwf	(?_scan360+1)
	movf	(scan360@lowestSteps),w
	clrf	(?_scan360)
	addwf	(?_scan360)

	goto	l2293
	
l11597:	
	line	382
	
l2293:	
	return
	opt stack 0
GLOBAL	__end_of_scan360
	__end_of_scan360:
;; =============== function _scan360 ends ============

	signat	_scan360,90
	global	_calibrateIR
psect	text1121,local,class=CODE,delta=2
global __ptext1121
__ptext1121:

;; *************** function _calibrateIR *****************
;; Defined at:
;;		line 279 in file "E:\Aldnoah.Zero\Assignment3\Main.c"
;; Parameters:    Size  Location     Type
;;		None
;; Auto vars:     Size  Location     Type
;;		None
;; Return value:  Size  Location     Type
;;		None               void
;; Registers used:
;;		wreg, fsr0l, fsr0h, status,2, status,0, btemp+1, pclath, cstack
;; Tracked objects:
;;		On entry : 0/0
;;		On exit  : 0/0
;;		Unchanged: 0/0
;; Data sizes:     COMMON   BANK0   BANK1   BANK3   BANK2
;;      Params:         0       0       0       0       0
;;      Locals:         0       0       0       0       0
;;      Temps:          0       0       0       0       0
;;      Totals:         0       0       0       0       0
;;Total ram usage:        0 bytes
;; Hardware stack levels used:    1
;; Hardware stack levels required when called:    6
;; This function calls:
;;		_rotate
;;		_UpdateDisplay
;; This function is called by:
;;		_main
;; This function uses a non-reentrant model
;;
psect	text1121
	file	"E:\Aldnoah.Zero\Assignment3\Main.c"
	line	279
	global	__size_of_calibrateIR
	__size_of_calibrateIR	equ	__end_of_calibrateIR-_calibrateIR
	
_calibrateIR:	
	opt	stack 1
; Regs used in _calibrateIR: [wreg-fsr0h+status,2+status,0+btemp+1+pclath+cstack]
	line	280
	
l11541:	
;Main.c: 280: currentMenu = 1;
	bsf	status, 5	;RP0=1, select bank1
	bcf	status, 6	;RP1=0, select bank1
	clrf	(_currentMenu)^080h	;volatile
	bsf	status,0
	rlf	(_currentMenu)^080h,f	;volatile
	line	281
	
l11543:	
;Main.c: 281: rotate(8, 0);
	movlw	low(08h)
	bcf	status, 5	;RP0=0, select bank0
	bcf	status, 6	;RP1=0, select bank0
	movwf	(?_rotate)
	movlw	high(08h)
	movwf	((?_rotate))+1
	clrf	0+(?_rotate)+02h
	fcall	_rotate
	goto	l11545
	line	282
;Main.c: 282: while (1)
	
l2259:	
	line	284
	
l11545:	
;Main.c: 283: {
;Main.c: 284: if (RTC_FLAG_250MS == 1)
	btfss	(_RTC_FLAG_250MS/8),(_RTC_FLAG_250MS)&7
	goto	u5511
	goto	u5510
u5511:
	goto	l11569
u5510:
	line	286
	
l11547:	
;Main.c: 285: {
;Main.c: 286: RTC_FLAG_250MS = 0;
	bcf	(_RTC_FLAG_250MS/8),(_RTC_FLAG_250MS)&7
	line	287
	
l11549:	
;Main.c: 287: UpdateDisplay();
	fcall	_UpdateDisplay
	goto	l11569
	line	288
	
l2260:	
	line	289
;Main.c: 288: }
;Main.c: 289: switch (buttonPressed)
	goto	l11569
	line	291
;Main.c: 290: {
;Main.c: 291: case 1:
	
l2262:	
	line	292
;Main.c: 292: buttonPressed = 0;
	clrf	(_buttonPressed)	;volatile
	line	293
;Main.c: 293: break;
	goto	l11545
	line	294
;Main.c: 294: case 2:
	
l2264:	
	line	295
;Main.c: 295: buttonPressed = 0;
	clrf	(_buttonPressed)	;volatile
	line	296
;Main.c: 296: break;
	goto	l11545
	line	297
;Main.c: 297: case 3:
	
l2265:	
	line	298
	
l11551:	
;Main.c: 298: rotate(1, 1);
	movlw	low(01h)
	bcf	status, 5	;RP0=0, select bank0
	bcf	status, 6	;RP1=0, select bank0
	movwf	(?_rotate)
	movlw	high(01h)
	movwf	((?_rotate))+1
	clrf	0+(?_rotate)+02h
	bsf	status,0
	rlf	0+(?_rotate)+02h,f
	fcall	_rotate
	line	299
	
l11553:	
;Main.c: 299: buttonPressed = 0;
	clrf	(_buttonPressed)	;volatile
	line	300
;Main.c: 300: break;
	goto	l11545
	line	301
;Main.c: 301: case 4:
	
l2266:	
	line	302
	
l11555:	
;Main.c: 302: rotate(1, 0);
	movlw	low(01h)
	bcf	status, 5	;RP0=0, select bank0
	bcf	status, 6	;RP1=0, select bank0
	movwf	(?_rotate)
	movlw	high(01h)
	movwf	((?_rotate))+1
	clrf	0+(?_rotate)+02h
	fcall	_rotate
	line	303
	
l11557:	
;Main.c: 303: buttonPressed = 0;
	clrf	(_buttonPressed)	;volatile
	line	304
;Main.c: 304: break;
	goto	l11545
	line	305
;Main.c: 305: case 5:
	
l2267:	
	line	306
	
l11559:	
;Main.c: 306: totalSteps = 0;
	bsf	status, 5	;RP0=1, select bank1
	bcf	status, 6	;RP1=0, select bank1
	clrf	(_totalSteps)^080h
	clrf	(_totalSteps+1)^080h
	line	307
	
l11561:	
;Main.c: 307: buttonPressed = 0;
	clrf	(_buttonPressed)	;volatile
	line	308
	
l11563:	
;Main.c: 308: currentMenu = 0;
	clrf	(_currentMenu)^080h	;volatile
	goto	l2268
	line	309
	
l11565:	
;Main.c: 309: return;
	goto	l2268
	line	310
;Main.c: 310: default:
	
l2269:	
	line	311
;Main.c: 311: break;
	goto	l11545
	line	312
	
l11567:	
;Main.c: 312: }
	goto	l11545
	line	289
	
l2261:	
	
l11569:	
	movf	(_buttonPressed),w	;volatile
	; Switch size 1, requested type "space"
; Number of cases is 5, Range of values is 1 to 5
; switch strategies available:
; Name         Instructions Cycles
; simple_byte           16     9 (average)
; direct_byte           26    11 (fixed)
; jumptable            263     9 (fixed)
;	Chosen strategy is simple_byte

	opt asmopt_off
	xorlw	1^0	; case 1
	skipnz
	goto	l2262
	xorlw	2^1	; case 2
	skipnz
	goto	l2264
	xorlw	3^2	; case 3
	skipnz
	goto	l11551
	xorlw	4^3	; case 4
	skipnz
	goto	l11555
	xorlw	5^4	; case 5
	skipnz
	goto	l11559
	goto	l11545
	opt asmopt_on

	line	312
	
l2263:	
	goto	l11545
	line	313
	
l2270:	
	line	282
	goto	l11545
	
l2271:	
	line	314
	
l2268:	
	return
	opt stack 0
GLOBAL	__end_of_calibrateIR
	__end_of_calibrateIR:
;; =============== function _calibrateIR ends ============

	signat	_calibrateIR,88
	global	_UpdateDisplay
psect	text1122,local,class=CODE,delta=2
global __ptext1122
__ptext1122:

;; *************** function _UpdateDisplay *****************
;; Defined at:
;;		line 236 in file "E:\Aldnoah.Zero\Assignment3\HMI.c"
;; Parameters:    Size  Location     Type
;;		None
;; Auto vars:     Size  Location     Type
;;  LCDOutput      16   41[BANK0 ] unsigned char [16]
;; Return value:  Size  Location     Type
;;		None               void
;; Registers used:
;;		wreg, fsr0l, fsr0h, status,2, status,0, btemp+1, pclath, cstack
;; Tracked objects:
;;		On entry : 0/0
;;		On exit  : 0/0
;;		Unchanged: 0/0
;; Data sizes:     COMMON   BANK0   BANK1   BANK3   BANK2
;;      Params:         0       0       0       0       0
;;      Locals:         0      16       0       0       0
;;      Temps:          0       4       0       0       0
;;      Totals:         0      20       0       0       0
;;Total ram usage:       20 bytes
;; Hardware stack levels used:    1
;; Hardware stack levels required when called:    5
;; This function calls:
;;		_lcd_write_control
;;		_sprintf
;;		_lcd_set_cursor
;;		_lcd_write_string
;;		___awmod
;; This function is called by:
;;		_main
;;		_calibrateIR
;;		_ChargeMode
;;		_scan360
;;		_robotMoveSpeed
;;		_robotTurnSpeed
;; This function uses a non-reentrant model
;;
psect	text1122
	file	"E:\Aldnoah.Zero\Assignment3\HMI.c"
	line	236
	global	__size_of_UpdateDisplay
	__size_of_UpdateDisplay	equ	__end_of_UpdateDisplay-_UpdateDisplay
	
_UpdateDisplay:	
	opt	stack 1
; Regs used in _UpdateDisplay: [wreg-fsr0h+status,2+status,0+btemp+1+pclath+cstack]
	line	237
	
l11497:	
;HMI.c: 237: char LCDOutput[16] = "";
	movlw	(UpdateDisplay@LCDOutput)&0ffh
	movwf	fsr0
	movlw	low(UpdateDisplay@F1242)
	bcf	status, 5	;RP0=0, select bank0
	bcf	status, 6	;RP1=0, select bank0
	movwf	(??_UpdateDisplay+0)+0
	movf	fsr0,w
	movwf	((??_UpdateDisplay+0)+0+1)
	movlw	16
	movwf	((??_UpdateDisplay+0)+0+2)
u5490:
	movf	(??_UpdateDisplay+0)+0,w
	movwf	fsr0
	bsf	status, 7	;select IRP bank3
	
	movf	indf,w
	movwf	((??_UpdateDisplay+0)+0+3)
	incf	(??_UpdateDisplay+0)+0,f
	movf	((??_UpdateDisplay+0)+0+1),w
	movwf	fsr0
	bcf	status, 7	;select IRP bank0
	
	movf	((??_UpdateDisplay+0)+0+3),w
	movwf	indf
	incf	((??_UpdateDisplay+0)+0+1),f
	decfsz	((??_UpdateDisplay+0)+0+2),f
	goto	u5490
	line	238
;HMI.c: 238: switch (currentMenu)
	goto	l11539
	line	240
;HMI.c: 239: {
;HMI.c: 240: case 0:
	
l4533:	
	line	241
	
l11499:	
;HMI.c: 241: lcd_write_control(0b00000001);
	movlw	(01h)
	fcall	_lcd_write_control
	line	242
	
l11501:	
;HMI.c: 242: sprintf(LCDOutput,"IR:%dcm D:%d",IRdistance, angleTurned);
	movlw	((STR_13-__stringbase))&0ffh
	bcf	status, 5	;RP0=0, select bank0
	bcf	status, 6	;RP1=0, select bank0
	movwf	(??_UpdateDisplay+0)+0
	movf	(??_UpdateDisplay+0)+0,w
	movwf	(?_sprintf)
	bsf	status, 5	;RP0=1, select bank1
	bcf	status, 6	;RP1=0, select bank1
	movf	(_IRdistance+1)^080h,w	;volatile
	bcf	status, 5	;RP0=0, select bank0
	bcf	status, 6	;RP1=0, select bank0
	clrf	1+(?_sprintf)+01h
	addwf	1+(?_sprintf)+01h
	bsf	status, 5	;RP0=1, select bank1
	bcf	status, 6	;RP1=0, select bank1
	movf	(_IRdistance)^080h,w	;volatile
	bcf	status, 5	;RP0=0, select bank0
	bcf	status, 6	;RP1=0, select bank0
	clrf	0+(?_sprintf)+01h
	addwf	0+(?_sprintf)+01h

	bsf	status, 5	;RP0=1, select bank1
	bcf	status, 6	;RP1=0, select bank1
	movf	(_angleTurned+1)^080h,w
	bcf	status, 5	;RP0=0, select bank0
	bcf	status, 6	;RP1=0, select bank0
	clrf	1+(?_sprintf)+03h
	addwf	1+(?_sprintf)+03h
	bsf	status, 5	;RP0=1, select bank1
	bcf	status, 6	;RP1=0, select bank1
	movf	(_angleTurned)^080h,w
	bcf	status, 5	;RP0=0, select bank0
	bcf	status, 6	;RP1=0, select bank0
	clrf	0+(?_sprintf)+03h
	addwf	0+(?_sprintf)+03h

	movlw	(UpdateDisplay@LCDOutput)&0ffh
	fcall	_sprintf
	line	243
	
l11503:	
;HMI.c: 243: lcd_set_cursor(0x00);
	movlw	(0)
	fcall	_lcd_set_cursor
	line	244
;HMI.c: 244: lcd_write_string(LCDOutput);
	movlw	(UpdateDisplay@LCDOutput&0ffh)
	bcf	status, 5	;RP0=0, select bank0
	bcf	status, 6	;RP1=0, select bank0
	movwf	(?_lcd_write_string)
	movlw	(0x0/2)
	movwf	(?_lcd_write_string+1)
	fcall	_lcd_write_string
	line	245
	
l11505:	
;HMI.c: 245: lcd_set_cursor(0x40);
	movlw	(040h)
	fcall	_lcd_set_cursor
	line	246
	
l11507:	
;HMI.c: 246: if (pos > 0)
	bsf	status, 5	;RP0=1, select bank1
	bcf	status, 6	;RP1=0, select bank1
	movf	(_pos+1)^080h,w
	xorlw	80h
	movwf	btemp+1
	movlw	(high(01h))^80h
	subwf	btemp+1,w
	skipz
	goto	u5505
	movlw	low(01h)
	subwf	(_pos)^080h,w
u5505:

	skipc
	goto	u5501
	goto	u5500
u5501:
	goto	l11511
u5500:
	line	247
	
l11509:	
;HMI.c: 247: lcd_write_string(shortMenuStrings[pos - 1]);
	bsf	status, 5	;RP0=1, select bank1
	bcf	status, 6	;RP1=0, select bank1
	movf	(_pos)^080h,w
	addlw	0FFh
	addlw	_shortMenuStrings&0ffh
	movwf	fsr0
	bcf	status, 7	;select IRP bank1
	movf	indf,w
	bcf	status, 5	;RP0=0, select bank0
	bcf	status, 6	;RP1=0, select bank0
	movwf	(?_lcd_write_string)
	movlw	80h
	movwf	(?_lcd_write_string+1)
	fcall	_lcd_write_string
	goto	l11513
	line	248
	
l4534:	
	line	249
	
l11511:	
;HMI.c: 248: else
;HMI.c: 249: lcd_write_string(shortMenuStrings[pos + 6 - 1]);
	bsf	status, 5	;RP0=1, select bank1
	bcf	status, 6	;RP1=0, select bank1
	movf	(_pos)^080h,w
	addlw	05h
	addlw	_shortMenuStrings&0ffh
	movwf	fsr0
	bcf	status, 7	;select IRP bank1
	movf	indf,w
	bcf	status, 5	;RP0=0, select bank0
	bcf	status, 6	;RP1=0, select bank0
	movwf	(?_lcd_write_string)
	movlw	80h
	movwf	(?_lcd_write_string+1)
	fcall	_lcd_write_string
	goto	l11513
	
l4535:	
	line	250
	
l11513:	
;HMI.c: 250: lcd_set_cursor(0x44);
	movlw	(044h)
	fcall	_lcd_set_cursor
	line	251
	
l11515:	
;HMI.c: 251: lcd_write_string(menuStrings[pos]);
	bsf	status, 5	;RP0=1, select bank1
	bcf	status, 6	;RP1=0, select bank1
	movf	(_pos)^080h,w
	addlw	_menuStrings&0ffh
	movwf	fsr0
	bcf	status, 7	;select IRP bank1
	movf	indf,w
	bcf	status, 5	;RP0=0, select bank0
	bcf	status, 6	;RP1=0, select bank0
	movwf	(?_lcd_write_string)
	movlw	80h
	movwf	(?_lcd_write_string+1)
	fcall	_lcd_write_string
	line	252
;HMI.c: 252: lcd_set_cursor(0x4D);
	movlw	(04Dh)
	fcall	_lcd_set_cursor
	line	253
	
l11517:	
;HMI.c: 253: lcd_write_string(shortMenuStrings[(pos + 1) % 6]);
	movlw	low(06h)
	bcf	status, 5	;RP0=0, select bank0
	bcf	status, 6	;RP1=0, select bank0
	movwf	(?___awmod)
	movlw	high(06h)
	movwf	((?___awmod))+1
	bsf	status, 5	;RP0=1, select bank1
	bcf	status, 6	;RP1=0, select bank1
	movf	(_pos)^080h,w
	addlw	low(01h)
	bcf	status, 5	;RP0=0, select bank0
	bcf	status, 6	;RP1=0, select bank0
	movwf	0+(?___awmod)+02h
	bsf	status, 5	;RP0=1, select bank1
	bcf	status, 6	;RP1=0, select bank1
	movf	(_pos+1)^080h,w
	skipnc
	addlw	1
	addlw	high(01h)
	bcf	status, 5	;RP0=0, select bank0
	bcf	status, 6	;RP1=0, select bank0
	movwf	1+0+(?___awmod)+02h
	fcall	___awmod
	bcf	status, 5	;RP0=0, select bank0
	bcf	status, 6	;RP1=0, select bank0
	movf	(0+(?___awmod)),w
	addlw	_shortMenuStrings&0ffh
	movwf	fsr0
	bcf	status, 7	;select IRP bank1
	movf	indf,w
	movwf	(?_lcd_write_string)
	movlw	80h
	movwf	(?_lcd_write_string+1)
	fcall	_lcd_write_string
	line	254
;HMI.c: 254: break;
	goto	l4540
	line	255
;HMI.c: 255: case 1:
	
l4537:	
	line	256
	
l11519:	
;HMI.c: 256: lcd_write_control(0b00000001);
	movlw	(01h)
	fcall	_lcd_write_control
	line	257
;HMI.c: 257: lcd_set_cursor(0x00);
	movlw	(0)
	fcall	_lcd_set_cursor
	line	258
	
l11521:	
;HMI.c: 258: lcd_write_string("Zero Step_Motor");
	movlw	low((STR_14-__stringbase))
	bcf	status, 5	;RP0=0, select bank0
	bcf	status, 6	;RP1=0, select bank0
	movwf	(?_lcd_write_string)
	movlw	80h
	movwf	(?_lcd_write_string+1)
	fcall	_lcd_write_string
	line	259
	
l11523:	
;HMI.c: 259: lcd_set_cursor(0x40);
	movlw	(040h)
	fcall	_lcd_set_cursor
	line	260
;HMI.c: 260: lcd_write_string("<<<");
	movlw	low((STR_15-__stringbase))
	bcf	status, 5	;RP0=0, select bank0
	bcf	status, 6	;RP1=0, select bank0
	movwf	(?_lcd_write_string)
	movlw	80h
	movwf	(?_lcd_write_string+1)
	fcall	_lcd_write_string
	line	261
	
l11525:	
;HMI.c: 261: lcd_set_cursor(0x44);
	movlw	(044h)
	fcall	_lcd_set_cursor
	line	262
	
l11527:	
;HMI.c: 262: lcd_write_string("CONFIRM");
	movlw	low((STR_16-__stringbase))
	bcf	status, 5	;RP0=0, select bank0
	bcf	status, 6	;RP1=0, select bank0
	movwf	(?_lcd_write_string)
	movlw	80h
	movwf	(?_lcd_write_string+1)
	fcall	_lcd_write_string
	line	263
;HMI.c: 263: lcd_set_cursor(0x4D);
	movlw	(04Dh)
	fcall	_lcd_set_cursor
	line	264
	
l11529:	
;HMI.c: 264: lcd_write_string(">>>");
	movlw	low((STR_17-__stringbase))
	bcf	status, 5	;RP0=0, select bank0
	bcf	status, 6	;RP1=0, select bank0
	movwf	(?_lcd_write_string)
	movlw	80h
	movwf	(?_lcd_write_string+1)
	fcall	_lcd_write_string
	line	265
;HMI.c: 265: break;
	goto	l4540
	line	266
;HMI.c: 266: case 2:
	
l4538:	
	line	267
	
l11531:	
;HMI.c: 267: lcd_write_control(0b00000001);
	movlw	(01h)
	fcall	_lcd_write_control
	line	268
;HMI.c: 268: lcd_set_cursor(0x00);
	movlw	(0)
	fcall	_lcd_set_cursor
	line	269
	
l11533:	
;HMI.c: 269: lcd_write_string(" Charging Mode ");
	movlw	low((STR_18-__stringbase))
	bcf	status, 5	;RP0=0, select bank0
	bcf	status, 6	;RP1=0, select bank0
	movwf	(?_lcd_write_string)
	movlw	80h
	movwf	(?_lcd_write_string+1)
	fcall	_lcd_write_string
	line	270
	
l11535:	
;HMI.c: 270: lcd_set_cursor(0x44);
	movlw	(044h)
	fcall	_lcd_set_cursor
	line	271
;HMI.c: 271: lcd_write_string("  EXIT  ");
	movlw	low((STR_19-__stringbase))
	bcf	status, 5	;RP0=0, select bank0
	bcf	status, 6	;RP1=0, select bank0
	movwf	(?_lcd_write_string)
	movlw	80h
	movwf	(?_lcd_write_string+1)
	fcall	_lcd_write_string
	line	272
;HMI.c: 272: break;
	goto	l4540
	line	273
;HMI.c: 273: default:
	
l4539:	
	line	274
;HMI.c: 274: break;
	goto	l4540
	line	275
	
l11537:	
;HMI.c: 275: }
	goto	l4540
	line	238
	
l4532:	
	
l11539:	
	bsf	status, 5	;RP0=1, select bank1
	bcf	status, 6	;RP1=0, select bank1
	movf	(_currentMenu)^080h,w	;volatile
	; Switch size 1, requested type "space"
; Number of cases is 3, Range of values is 0 to 2
; switch strategies available:
; Name         Instructions Cycles
; simple_byte           10     6 (average)
; direct_byte           17     8 (fixed)
; jumptable            260     6 (fixed)
; rangetable             7     6 (fixed)
; spacedrange           12     9 (fixed)
; locatedrange           3     3 (fixed)
;	Chosen strategy is simple_byte

	opt asmopt_off
	xorlw	0^0	; case 0
	skipnz
	goto	l11499
	xorlw	1^0	; case 1
	skipnz
	goto	l11519
	xorlw	2^1	; case 2
	skipnz
	goto	l11531
	goto	l4540
	opt asmopt_on

	line	275
	
l4536:	
	line	276
	
l4540:	
	return
	opt stack 0
GLOBAL	__end_of_UpdateDisplay
	__end_of_UpdateDisplay:
;; =============== function _UpdateDisplay ends ============

	signat	_UpdateDisplay,88
	global	_readAvgDistance
psect	text1123,local,class=CODE,delta=2
global __ptext1123
__ptext1123:

;; *************** function _readAvgDistance *****************
;; Defined at:
;;		line 27 in file "E:\Aldnoah.Zero\Assignment3\infrared.c"
;; Parameters:    Size  Location     Type
;;		None
;; Auto vars:     Size  Location     Type
;;  i               2   22[BANK0 ] int 
;;  tempIR          2   20[BANK0 ] unsigned int 
;;  j               2   18[BANK0 ] int 
;;  fullval         2   16[BANK0 ] unsigned int 
;; Return value:  Size  Location     Type
;;		None               void
;; Registers used:
;;		wreg, fsr0l, fsr0h, status,2, status,0, btemp+1, pclath, cstack
;; Tracked objects:
;;		On entry : 0/0
;;		On exit  : 0/0
;;		Unchanged: 0/0
;; Data sizes:     COMMON   BANK0   BANK1   BANK3   BANK2
;;      Params:         0       0       0       0       0
;;      Locals:         0       8       0       0       0
;;      Temps:          0       0       0       0       0
;;      Totals:         0       8       0       0       0
;;Total ram usage:        8 bytes
;; Hardware stack levels used:    1
;; Hardware stack levels required when called:    6
;; This function calls:
;;		_readDistance
;;		___lwdiv
;;		_ADCconvert
;; This function is called by:
;;		_main
;;		_scan360
;; This function uses a non-reentrant model
;;
psect	text1123
	file	"E:\Aldnoah.Zero\Assignment3\infrared.c"
	line	27
	global	__size_of_readAvgDistance
	__size_of_readAvgDistance	equ	__end_of_readAvgDistance-_readAvgDistance
	
_readAvgDistance:	
	opt	stack 0
; Regs used in _readAvgDistance: [wreg-fsr0h+status,2+status,0+btemp+1+pclath+cstack]
	line	28
	
l11481:	
;infrared.c: 28: unsigned int fullval = 0, tempIR = 0;
	bcf	status, 5	;RP0=0, select bank0
	bcf	status, 6	;RP1=0, select bank0
	clrf	(readAvgDistance@fullval)
	clrf	(readAvgDistance@fullval+1)
	clrf	(readAvgDistance@tempIR)
	clrf	(readAvgDistance@tempIR+1)
	line	29
;infrared.c: 29: int j = 0;
	clrf	(readAvgDistance@j)
	clrf	(readAvgDistance@j+1)
	line	31
;infrared.c: 31: for (int i = 0; i < 8; i++)
	clrf	(readAvgDistance@i)
	clrf	(readAvgDistance@i+1)
	
l11483:	
	movf	(readAvgDistance@i+1),w
	xorlw	80h
	movwf	btemp+1
	movlw	(high(08h))^80h
	subwf	btemp+1,w
	skipz
	goto	u5465
	movlw	low(08h)
	subwf	(readAvgDistance@i),w
u5465:

	skipc
	goto	u5461
	goto	u5460
u5461:
	goto	l11487
u5460:
	goto	l11495
	
l11485:	
	goto	l11495
	line	32
	
l2994:	
	line	33
	
l11487:	
;infrared.c: 32: {
;infrared.c: 33: tempIR = readDistance();
	fcall	_readDistance
	bcf	status, 5	;RP0=0, select bank0
	bcf	status, 6	;RP1=0, select bank0
	movf	(1+(?_readDistance)),w
	clrf	(readAvgDistance@tempIR+1)
	addwf	(readAvgDistance@tempIR+1)
	movf	(0+(?_readDistance)),w
	clrf	(readAvgDistance@tempIR)
	addwf	(readAvgDistance@tempIR)

	line	34
	
l11489:	
;infrared.c: 34: if (tempIR <= 1000)
	movlw	high(03E9h)
	subwf	(readAvgDistance@tempIR+1),w
	movlw	low(03E9h)
	skipnz
	subwf	(readAvgDistance@tempIR),w
	skipnc
	goto	u5471
	goto	u5470
u5471:
	goto	l2996
u5470:
	line	36
	
l11491:	
;infrared.c: 35: {
;infrared.c: 36: fullval += tempIR;
	movf	(readAvgDistance@tempIR),w
	addwf	(readAvgDistance@fullval),f
	skipnc
	incf	(readAvgDistance@fullval+1),f
	movf	(readAvgDistance@tempIR+1),w
	addwf	(readAvgDistance@fullval+1),f
	line	37
;infrared.c: 37: j++;
	movlw	low(01h)
	addwf	(readAvgDistance@j),f
	skipnc
	incf	(readAvgDistance@j+1),f
	movlw	high(01h)
	addwf	(readAvgDistance@j+1),f
	line	38
	
l2996:	
	line	31
	movlw	low(01h)
	addwf	(readAvgDistance@i),f
	skipnc
	incf	(readAvgDistance@i+1),f
	movlw	high(01h)
	addwf	(readAvgDistance@i+1),f
	
l11493:	
	movf	(readAvgDistance@i+1),w
	xorlw	80h
	movwf	btemp+1
	movlw	(high(08h))^80h
	subwf	btemp+1,w
	skipz
	goto	u5485
	movlw	low(08h)
	subwf	(readAvgDistance@i),w
u5485:

	skipc
	goto	u5481
	goto	u5480
u5481:
	goto	l11487
u5480:
	goto	l11495
	
l2995:	
	line	40
	
l11495:	
;infrared.c: 38: }
;infrared.c: 39: }
;infrared.c: 40: adcVal = fullval / j;
	bcf	status, 5	;RP0=0, select bank0
	bcf	status, 6	;RP1=0, select bank0
	movf	(readAvgDistance@j+1),w
	clrf	(?___lwdiv+1)
	addwf	(?___lwdiv+1)
	movf	(readAvgDistance@j),w
	clrf	(?___lwdiv)
	addwf	(?___lwdiv)

	movf	(readAvgDistance@fullval+1),w
	clrf	1+(?___lwdiv)+02h
	addwf	1+(?___lwdiv)+02h
	movf	(readAvgDistance@fullval),w
	clrf	0+(?___lwdiv)+02h
	addwf	0+(?___lwdiv)+02h

	fcall	___lwdiv
	bcf	status, 5	;RP0=0, select bank0
	bcf	status, 6	;RP1=0, select bank0
	movf	(1+(?___lwdiv)),w
	clrf	(_adcVal+1)	;volatile
	addwf	(_adcVal+1)	;volatile
	movf	(0+(?___lwdiv)),w
	clrf	(_adcVal)	;volatile
	addwf	(_adcVal)	;volatile

	line	41
;infrared.c: 41: ADCconvert();
	fcall	_ADCconvert
	line	42
	
l2997:	
	return
	opt stack 0
GLOBAL	__end_of_readAvgDistance
	__end_of_readAvgDistance:
;; =============== function _readAvgDistance ends ============

	signat	_readAvgDistance,88
	global	_init
psect	text1124,local,class=CODE,delta=2
global __ptext1124
__ptext1124:

;; *************** function _init *****************
;; Defined at:
;;		line 139 in file "E:\Aldnoah.Zero\Assignment3\Main.c"
;; Parameters:    Size  Location     Type
;;		None
;; Auto vars:     Size  Location     Type
;;		None
;; Return value:  Size  Location     Type
;;		None               void
;; Registers used:
;;		wreg, fsr0l, fsr0h, status,2, status,0, pclath, cstack
;; Tracked objects:
;;		On entry : 0/0
;;		On exit  : 0/0
;;		Unchanged: 0/0
;; Data sizes:     COMMON   BANK0   BANK1   BANK3   BANK2
;;      Params:         0       0       0       0       0
;;      Locals:         0       0       0       0       0
;;      Temps:          0       1       0       0       0
;;      Totals:         0       1       0       0       0
;;Total ram usage:        1 bytes
;; Hardware stack levels used:    1
;; Hardware stack levels required when called:    5
;; This function calls:
;;		_ser_init
;;		_init_adc
;;		_lcd_init
;;		_robo_init
;; This function is called by:
;;		_main
;; This function uses a non-reentrant model
;;
psect	text1124
	file	"E:\Aldnoah.Zero\Assignment3\Main.c"
	line	139
	global	__size_of_init
	__size_of_init	equ	__end_of_init-_init
	
_init:	
	opt	stack 2
; Regs used in _init: [wreg-fsr0h+status,2+status,0+pclath+cstack]
	line	140
	
l11455:	
;Main.c: 140: buttonPressed = 0;
	clrf	(_buttonPressed)	;volatile
	line	142
	
l11457:	
;Main.c: 142: TRISB = 0b11111100;
	movlw	(0FCh)
	bsf	status, 5	;RP0=1, select bank1
	bcf	status, 6	;RP1=0, select bank1
	movwf	(134)^080h	;volatile
	line	143
	
l11459:	
;Main.c: 143: TRISC &= 0b10010000;
	movlw	(090h)
	bcf	status, 5	;RP0=0, select bank0
	bcf	status, 6	;RP1=0, select bank0
	movwf	(??_init+0)+0
	movf	(??_init+0)+0,w
	bsf	status, 5	;RP0=1, select bank1
	bcf	status, 6	;RP1=0, select bank1
	andwf	(135)^080h,f	;volatile
	line	146
	
l11461:	
;Main.c: 146: SSPSTAT = 0b01000000;
	movlw	(040h)
	movwf	(148)^080h	;volatile
	line	147
	
l11463:	
;Main.c: 147: SSPCON = 0b10100001;
	movlw	(0A1h)
	bcf	status, 5	;RP0=0, select bank0
	bcf	status, 6	;RP1=0, select bank0
	movwf	(20)	;volatile
	line	150
	
l11465:	
;Main.c: 150: OPTION_REG = 0b00000100;
	movlw	(04h)
	bsf	status, 5	;RP0=1, select bank1
	bcf	status, 6	;RP1=0, select bank1
	movwf	(129)^080h	;volatile
	line	153
	
l11467:	
;Main.c: 153: ser_init();
	fcall	_ser_init
	line	154
	
l11469:	
;Main.c: 154: init_adc();
	fcall	_init_adc
	line	155
	
l11471:	
;Main.c: 155: lcd_init();
	fcall	_lcd_init
	line	156
	
l11473:	
;Main.c: 156: robo_init();
	fcall	_robo_init
	line	160
	
l11475:	
;Main.c: 160: TMR0IE = 1;
	bsf	(93/8),(93)&7
	line	162
	
l11477:	
;Main.c: 162: PEIE=1;
	bsf	(94/8),(94)&7
	line	164
	
l11479:	
;Main.c: 164: (GIE = 1);
	bsf	(95/8),(95)&7
	line	165
	
l2227:	
	return
	opt stack 0
GLOBAL	__end_of_init
	__end_of_init:
;; =============== function _init ends ============

	signat	_init,88
	global	_readDistance
psect	text1125,local,class=CODE,delta=2
global __ptext1125
__ptext1125:

;; *************** function _readDistance *****************
;; Defined at:
;;		line 47 in file "E:\Aldnoah.Zero\Assignment3\infrared.c"
;; Parameters:    Size  Location     Type
;;		None
;; Auto vars:     Size  Location     Type
;;  readVal         2   12[BANK0 ] unsigned int 
;; Return value:  Size  Location     Type
;;                  2    8[BANK0 ] unsigned int 
;; Registers used:
;;		wreg, fsr0l, fsr0h, status,2, status,0, pclath, cstack
;; Tracked objects:
;;		On entry : 0/0
;;		On exit  : 0/0
;;		Unchanged: 0/0
;; Data sizes:     COMMON   BANK0   BANK1   BANK3   BANK2
;;      Params:         0       2       0       0       0
;;      Locals:         0       2       0       0       0
;;      Temps:          0       2       0       0       0
;;      Totals:         0       6       0       0       0
;;Total ram usage:        6 bytes
;; Hardware stack levels used:    1
;; Hardware stack levels required when called:    5
;; This function calls:
;;		_adc_read_channel
;; This function is called by:
;;		_readAvgDistance
;; This function uses a non-reentrant model
;;
psect	text1125
	file	"E:\Aldnoah.Zero\Assignment3\infrared.c"
	line	47
	global	__size_of_readDistance
	__size_of_readDistance	equ	__end_of_readDistance-_readDistance
	
_readDistance:	
	opt	stack 0
; Regs used in _readDistance: [wreg-fsr0h+status,2+status,0+pclath+cstack]
	line	50
	
l11449:	
;infrared.c: 48: unsigned int readVal;
;infrared.c: 50: readVal = adc_read_channel(0);
	movlw	(0)
	fcall	_adc_read_channel
	bcf	status, 5	;RP0=0, select bank0
	bcf	status, 6	;RP1=0, select bank0
	movwf	(??_readDistance+0)+0
	clrf	(??_readDistance+0)+0+1
	movf	0+(??_readDistance+0)+0,w
	movwf	(readDistance@readVal)
	movf	1+(??_readDistance+0)+0,w
	movwf	(readDistance@readVal+1)
	line	52
	
l11451:	
;infrared.c: 52: return readVal;
	movf	(readDistance@readVal+1),w
	clrf	(?_readDistance+1)
	addwf	(?_readDistance+1)
	movf	(readDistance@readVal),w
	clrf	(?_readDistance)
	addwf	(?_readDistance)

	goto	l3000
	
l11453:	
	line	53
	
l3000:	
	return
	opt stack 0
GLOBAL	__end_of_readDistance
	__end_of_readDistance:
;; =============== function _readDistance ends ============

	signat	_readDistance,90
	global	_robot_read
psect	text1126,local,class=CODE,delta=2
global __ptext1126
__ptext1126:

;; *************** function _robot_read *****************
;; Defined at:
;;		line 41 in file "E:\Aldnoah.Zero\Assignment3\robot.c"
;; Parameters:    Size  Location     Type
;;  readType        1    wreg     unsigned char 
;; Auto vars:     Size  Location     Type
;;  readType        1    4[BANK0 ] unsigned char 
;; Return value:  Size  Location     Type
;;		None               void
;; Registers used:
;;		wreg, fsr0l, fsr0h, status,2, status,0, pclath, cstack
;; Tracked objects:
;;		On entry : 0/0
;;		On exit  : 0/0
;;		Unchanged: 0/0
;; Data sizes:     COMMON   BANK0   BANK1   BANK3   BANK2
;;      Params:         0       0       0       0       0
;;      Locals:         0       1       0       0       0
;;      Temps:          0       2       0       0       0
;;      Totals:         0       3       0       0       0
;;Total ram usage:        3 bytes
;; Hardware stack levels used:    1
;; Hardware stack levels required when called:    5
;; This function calls:
;;		_ser_putch
;;		_ser_getch
;; This function is called by:
;;		_main
;;		_robotMoveSpeed
;;		_robotTurnSpeed
;; This function uses a non-reentrant model
;;
psect	text1126
	file	"E:\Aldnoah.Zero\Assignment3\robot.c"
	line	41
	global	__size_of_robot_read
	__size_of_robot_read	equ	__end_of_robot_read-_robot_read
	
_robot_read:	
	opt	stack 1
; Regs used in _robot_read: [wreg-fsr0h+status,2+status,0+pclath+cstack]
;robot_read@readType stored from wreg
	bcf	status, 5	;RP0=0, select bank0
	bcf	status, 6	;RP1=0, select bank0
	movwf	(robot_read@readType)
	line	42
	
l11401:	
;robot.c: 42: ser_putch(142);
	movlw	(08Eh)
	fcall	_ser_putch
	line	43
;robot.c: 43: ser_putch(7);
	movlw	(07h)
	fcall	_ser_putch
	line	44
	
l11403:	
;robot.c: 44: _delay((unsigned long)((5)*(20000000/4000.0)));
	opt asmopt_off
movlw	33
	bcf	status, 5	;RP0=0, select bank0
	bcf	status, 6	;RP1=0, select bank0
movwf	((??_robot_read+0)+0+1),f
	movlw	118
movwf	((??_robot_read+0)+0),f
u5827:
	decfsz	((??_robot_read+0)+0),f
	goto	u5827
	decfsz	((??_robot_read+0)+0+1),f
	goto	u5827
	clrwdt
opt asmopt_on

	line	45
	
l11405:	
;robot.c: 45: BumpSensors = ser_getch();
	fcall	_ser_getch
	bcf	status, 5	;RP0=0, select bank0
	bcf	status, 6	;RP1=0, select bank0
	movwf	(??_robot_read+0)+0
	movf	(??_robot_read+0)+0,w
	bsf	status, 5	;RP0=1, select bank1
	bcf	status, 6	;RP1=0, select bank1
	movwf	(_BumpSensors)^080h	;volatile
	line	46
	
l11407:	
;robot.c: 46: ser_putch(142);
	movlw	(08Eh)
	fcall	_ser_putch
	line	47
	
l11409:	
;robot.c: 47: ser_putch(13);
	movlw	(0Dh)
	fcall	_ser_putch
	line	48
;robot.c: 48: _delay((unsigned long)((5)*(20000000/4000.0)));
	opt asmopt_off
movlw	33
	bcf	status, 5	;RP0=0, select bank0
	bcf	status, 6	;RP1=0, select bank0
movwf	((??_robot_read+0)+0+1),f
	movlw	118
movwf	((??_robot_read+0)+0),f
u5837:
	decfsz	((??_robot_read+0)+0),f
	goto	u5837
	decfsz	((??_robot_read+0)+0+1),f
	goto	u5837
	clrwdt
opt asmopt_on

	line	49
	
l11411:	
;robot.c: 49: VwallSensor = ser_getch();
	fcall	_ser_getch
	bcf	status, 5	;RP0=0, select bank0
	bcf	status, 6	;RP1=0, select bank0
	movwf	(??_robot_read+0)+0
	movf	(??_robot_read+0)+0,w
	bsf	status, 5	;RP0=1, select bank1
	bcf	status, 6	;RP1=0, select bank1
	movwf	(_VwallSensor)^080h	;volatile
	line	51
	
l11413:	
;robot.c: 51: if (readType == 0)
	bcf	status, 5	;RP0=0, select bank0
	bcf	status, 6	;RP1=0, select bank0
	movf	(robot_read@readType),f
	skipz
	goto	u5431
	goto	u5430
u5431:
	goto	l11423
u5430:
	line	53
	
l11415:	
;robot.c: 52: {
;robot.c: 53: ser_putch(142);
	movlw	(08Eh)
	fcall	_ser_putch
	line	54
;robot.c: 54: ser_putch(19);
	movlw	(013h)
	fcall	_ser_putch
	line	55
	
l11417:	
;robot.c: 55: _delay((unsigned long)((5)*(20000000/4000.0)));
	opt asmopt_off
movlw	33
	bcf	status, 5	;RP0=0, select bank0
	bcf	status, 6	;RP1=0, select bank0
movwf	((??_robot_read+0)+0+1),f
	movlw	118
movwf	((??_robot_read+0)+0),f
u5847:
	decfsz	((??_robot_read+0)+0),f
	goto	u5847
	decfsz	((??_robot_read+0)+0+1),f
	goto	u5847
	clrwdt
opt asmopt_on

	line	56
	
l11419:	
;robot.c: 56: DistHighByte = ser_getch();
	fcall	_ser_getch
	bcf	status, 5	;RP0=0, select bank0
	bcf	status, 6	;RP1=0, select bank0
	movwf	(??_robot_read+0)+0
	movf	(??_robot_read+0)+0,w
	bsf	status, 5	;RP0=1, select bank1
	bcf	status, 6	;RP1=0, select bank1
	movwf	(_DistHighByte)^080h	;volatile
	line	57
	
l11421:	
;robot.c: 57: DistLowByte = ser_getch();
	fcall	_ser_getch
	bcf	status, 5	;RP0=0, select bank0
	bcf	status, 6	;RP1=0, select bank0
	movwf	(??_robot_read+0)+0
	movf	(??_robot_read+0)+0,w
	bsf	status, 5	;RP0=1, select bank1
	bcf	status, 6	;RP1=0, select bank1
	movwf	(_DistLowByte)^080h	;volatile
	line	58
;robot.c: 58: }
	goto	l6018
	line	59
	
l6013:	
	
l11423:	
;robot.c: 59: else if (readType == 1)
	bcf	status, 5	;RP0=0, select bank0
	movf	(robot_read@readType),w
	xorlw	01h
	skipz
	goto	u5441
	goto	u5440
u5441:
	goto	l11433
u5440:
	line	61
	
l11425:	
;robot.c: 60: {
;robot.c: 61: ser_putch(142);
	movlw	(08Eh)
	fcall	_ser_putch
	line	62
;robot.c: 62: ser_putch(20);
	movlw	(014h)
	fcall	_ser_putch
	line	63
	
l11427:	
;robot.c: 63: _delay((unsigned long)((5)*(20000000/4000.0)));
	opt asmopt_off
movlw	33
	bcf	status, 5	;RP0=0, select bank0
	bcf	status, 6	;RP1=0, select bank0
movwf	((??_robot_read+0)+0+1),f
	movlw	118
movwf	((??_robot_read+0)+0),f
u5857:
	decfsz	((??_robot_read+0)+0),f
	goto	u5857
	decfsz	((??_robot_read+0)+0+1),f
	goto	u5857
	clrwdt
opt asmopt_on

	line	64
	
l11429:	
;robot.c: 64: AngleHighByte = ser_getch();
	fcall	_ser_getch
	bcf	status, 5	;RP0=0, select bank0
	bcf	status, 6	;RP1=0, select bank0
	movwf	(??_robot_read+0)+0
	movf	(??_robot_read+0)+0,w
	bsf	status, 5	;RP0=1, select bank1
	bcf	status, 6	;RP1=0, select bank1
	movwf	(_AngleHighByte)^080h	;volatile
	line	65
	
l11431:	
;robot.c: 65: AngleLowByte = ser_getch();
	fcall	_ser_getch
	bcf	status, 5	;RP0=0, select bank0
	bcf	status, 6	;RP1=0, select bank0
	movwf	(??_robot_read+0)+0
	movf	(??_robot_read+0)+0,w
	bsf	status, 5	;RP0=1, select bank1
	bcf	status, 6	;RP1=0, select bank1
	movwf	(_AngleLowByte)^080h	;volatile
	line	66
;robot.c: 66: }
	goto	l6018
	line	67
	
l6015:	
	
l11433:	
;robot.c: 67: else if (readType == 2)
	bcf	status, 5	;RP0=0, select bank0
	movf	(robot_read@readType),w
	xorlw	02h
	skipz
	goto	u5451
	goto	u5450
u5451:
	goto	l6018
u5450:
	line	70
	
l11435:	
;robot.c: 68: {
;robot.c: 70: ser_putch(142);
	movlw	(08Eh)
	fcall	_ser_putch
	line	71
;robot.c: 71: ser_putch(19);
	movlw	(013h)
	fcall	_ser_putch
	line	72
	
l11437:	
;robot.c: 72: _delay((unsigned long)((5)*(20000000/4000.0)));
	opt asmopt_off
movlw	33
	bcf	status, 5	;RP0=0, select bank0
	bcf	status, 6	;RP1=0, select bank0
movwf	((??_robot_read+0)+0+1),f
	movlw	118
movwf	((??_robot_read+0)+0),f
u5867:
	decfsz	((??_robot_read+0)+0),f
	goto	u5867
	decfsz	((??_robot_read+0)+0+1),f
	goto	u5867
	clrwdt
opt asmopt_on

	line	73
	
l11439:	
;robot.c: 73: DistHighByte = ser_getch();
	fcall	_ser_getch
	bcf	status, 5	;RP0=0, select bank0
	bcf	status, 6	;RP1=0, select bank0
	movwf	(??_robot_read+0)+0
	movf	(??_robot_read+0)+0,w
	bsf	status, 5	;RP0=1, select bank1
	bcf	status, 6	;RP1=0, select bank1
	movwf	(_DistHighByte)^080h	;volatile
	line	74
	
l11441:	
;robot.c: 74: DistLowByte = ser_getch();
	fcall	_ser_getch
	bcf	status, 5	;RP0=0, select bank0
	bcf	status, 6	;RP1=0, select bank0
	movwf	(??_robot_read+0)+0
	movf	(??_robot_read+0)+0,w
	bsf	status, 5	;RP0=1, select bank1
	bcf	status, 6	;RP1=0, select bank1
	movwf	(_DistLowByte)^080h	;volatile
	line	75
	
l11443:	
;robot.c: 75: ser_putch(142);
	movlw	(08Eh)
	fcall	_ser_putch
	line	76
	
l11445:	
;robot.c: 76: ser_putch(20);
	movlw	(014h)
	fcall	_ser_putch
	line	77
	
l11447:	
;robot.c: 77: _delay((unsigned long)((5)*(20000000/4000.0)));
	opt asmopt_off
movlw	33
	bcf	status, 5	;RP0=0, select bank0
	bcf	status, 6	;RP1=0, select bank0
movwf	((??_robot_read+0)+0+1),f
	movlw	118
movwf	((??_robot_read+0)+0),f
u5877:
	decfsz	((??_robot_read+0)+0),f
	goto	u5877
	decfsz	((??_robot_read+0)+0+1),f
	goto	u5877
	clrwdt
opt asmopt_on

	line	78
;robot.c: 78: AngleHighByte = ser_getch();
	fcall	_ser_getch
	bcf	status, 5	;RP0=0, select bank0
	bcf	status, 6	;RP1=0, select bank0
	movwf	(??_robot_read+0)+0
	movf	(??_robot_read+0)+0,w
	bsf	status, 5	;RP0=1, select bank1
	bcf	status, 6	;RP1=0, select bank1
	movwf	(_AngleHighByte)^080h	;volatile
	line	79
;robot.c: 79: AngleLowByte = ser_getch();
	fcall	_ser_getch
	bcf	status, 5	;RP0=0, select bank0
	bcf	status, 6	;RP1=0, select bank0
	movwf	(??_robot_read+0)+0
	movf	(??_robot_read+0)+0,w
	bsf	status, 5	;RP0=1, select bank1
	bcf	status, 6	;RP1=0, select bank1
	movwf	(_AngleLowByte)^080h	;volatile
	goto	l6018
	line	80
	
l6017:	
	goto	l6018
	line	81
	
l6016:	
	goto	l6018
	
l6014:	
	
l6018:	
	return
	opt stack 0
GLOBAL	__end_of_robot_read
	__end_of_robot_read:
;; =============== function _robot_read ends ============

	signat	_robot_read,4216
	global	_lcd_init
psect	text1127,local,class=CODE,delta=2
global __ptext1127
__ptext1127:

;; *************** function _lcd_init *****************
;; Defined at:
;;		line 101 in file "E:\Aldnoah.Zero\Assignment3\lcd.c"
;; Parameters:    Size  Location     Type
;;		None
;; Auto vars:     Size  Location     Type
;;		None
;; Return value:  Size  Location     Type
;;		None               void
;; Registers used:
;;		wreg, status,2, status,0, pclath, cstack
;; Tracked objects:
;;		On entry : 0/0
;;		On exit  : 0/0
;;		Unchanged: 0/0
;; Data sizes:     COMMON   BANK0   BANK1   BANK3   BANK2
;;      Params:         0       0       0       0       0
;;      Locals:         0       0       0       0       0
;;      Temps:          0       0       0       0       0
;;      Totals:         0       0       0       0       0
;;Total ram usage:        0 bytes
;; Hardware stack levels used:    1
;; Hardware stack levels required when called:    4
;; This function calls:
;;		_lcd_write_control
;; This function is called by:
;;		_init
;; This function uses a non-reentrant model
;;
psect	text1127
	file	"E:\Aldnoah.Zero\Assignment3\lcd.c"
	line	101
	global	__size_of_lcd_init
	__size_of_lcd_init	equ	__end_of_lcd_init-_lcd_init
	
_lcd_init:	
	opt	stack 2
; Regs used in _lcd_init: [wreg+status,2+status,0+pclath+cstack]
	line	105
	
l11381:	
;lcd.c: 105: ADCON1 = 0b00000010;
	movlw	(02h)
	bsf	status, 5	;RP0=1, select bank1
	bcf	status, 6	;RP1=0, select bank1
	movwf	(159)^080h	;volatile
	line	108
	
l11383:	
;lcd.c: 108: PORTD = 0;
	bcf	status, 5	;RP0=0, select bank0
	bcf	status, 6	;RP1=0, select bank0
	clrf	(8)	;volatile
	line	109
	
l11385:	
;lcd.c: 109: PORTE = 0;
	clrf	(9)	;volatile
	line	111
	
l11387:	
;lcd.c: 111: TRISD = 0b00000000;
	bsf	status, 5	;RP0=1, select bank1
	bcf	status, 6	;RP1=0, select bank1
	clrf	(136)^080h	;volatile
	line	112
	
l11389:	
;lcd.c: 112: TRISE = 0b00000000;
	clrf	(137)^080h	;volatile
	line	115
	
l11391:	
;lcd.c: 115: lcd_write_control(0b00000001);
	movlw	(01h)
	fcall	_lcd_write_control
	line	116
	
l11393:	
;lcd.c: 116: lcd_write_control(0b00111000);
	movlw	(038h)
	fcall	_lcd_write_control
	line	117
	
l11395:	
;lcd.c: 117: lcd_write_control(0b00001100);
	movlw	(0Ch)
	fcall	_lcd_write_control
	line	118
	
l11397:	
;lcd.c: 118: lcd_write_control(0b00000110);
	movlw	(06h)
	fcall	_lcd_write_control
	line	119
	
l11399:	
;lcd.c: 119: lcd_write_control(0b00000010);
	movlw	(02h)
	fcall	_lcd_write_control
	line	121
	
l1429:	
	return
	opt stack 0
GLOBAL	__end_of_lcd_init
	__end_of_lcd_init:
;; =============== function _lcd_init ends ============

	signat	_lcd_init,88
	global	_lcd_write_string
psect	text1128,local,class=CODE,delta=2
global __ptext1128
__ptext1128:

;; *************** function _lcd_write_string *****************
;; Defined at:
;;		line 48 in file "E:\Aldnoah.Zero\Assignment3\lcd.c"
;; Parameters:    Size  Location     Type
;;  s               2    7[BANK0 ] PTR unsigned char 
;;		 -> STR_19(9), STR_18(16), STR_17(4), STR_16(8), 
;;		 -> STR_15(4), STR_14(16), UpdateDisplay@LCDOutput(16), STR_12(4), 
;;		 -> STR_11(4), STR_10(4), STR_9(4), STR_8(4), 
;;		 -> STR_7(4), STR_6(9), STR_5(9), STR_4(8), 
;;		 -> STR_3(9), STR_2(9), STR_1(9), 
;; Auto vars:     Size  Location     Type
;;		None
;; Return value:  Size  Location     Type
;;		None               void
;; Registers used:
;;		wreg, fsr0l, fsr0h, status,2, status,0, btemp+1, pclath, cstack
;; Tracked objects:
;;		On entry : 0/0
;;		On exit  : 0/0
;;		Unchanged: 0/0
;; Data sizes:     COMMON   BANK0   BANK1   BANK3   BANK2
;;      Params:         0       2       0       0       0
;;      Locals:         0       0       0       0       0
;;      Temps:          0       0       0       0       0
;;      Totals:         0       2       0       0       0
;;Total ram usage:        2 bytes
;; Hardware stack levels used:    1
;; Hardware stack levels required when called:    4
;; This function calls:
;;		_lcd_write_data
;; This function is called by:
;;		_UpdateDisplay
;; This function uses a non-reentrant model
;;
psect	text1128
	file	"E:\Aldnoah.Zero\Assignment3\lcd.c"
	line	48
	global	__size_of_lcd_write_string
	__size_of_lcd_write_string	equ	__end_of_lcd_write_string-_lcd_write_string
	
_lcd_write_string:	
	opt	stack 1
; Regs used in _lcd_write_string: [wreg-fsr0h+status,2+status,0+btemp+1+pclath+cstack]
	line	50
	
l11373:	
;lcd.c: 50: while(*s) lcd_write_data(*s++);
	goto	l11379
	
l1409:	
	
l11375:	
	bcf	status, 5	;RP0=0, select bank0
	bcf	status, 6	;RP1=0, select bank0
	movf	(lcd_write_string@s+1),w
	movwf	btemp+1
	movf	(lcd_write_string@s),w
	movwf	fsr0
	fcall	stringtab
	fcall	_lcd_write_data
	
l11377:	
	movlw	low(01h)
	bcf	status, 5	;RP0=0, select bank0
	bcf	status, 6	;RP1=0, select bank0
	addwf	(lcd_write_string@s),f
	skipnc
	incf	(lcd_write_string@s+1),f
	movlw	high(01h)
	addwf	(lcd_write_string@s+1),f
	goto	l11379
	
l1408:	
	
l11379:	
	bcf	status, 5	;RP0=0, select bank0
	bcf	status, 6	;RP1=0, select bank0
	movf	(lcd_write_string@s+1),w
	movwf	btemp+1
	movf	(lcd_write_string@s),w
	movwf	fsr0
	fcall	stringtab
	iorlw	0
	skipz
	goto	u5421
	goto	u5420
u5421:
	goto	l11375
u5420:
	goto	l1411
	
l1410:	
	line	51
	
l1411:	
	return
	opt stack 0
GLOBAL	__end_of_lcd_write_string
	__end_of_lcd_write_string:
;; =============== function _lcd_write_string ends ============

	signat	_lcd_write_string,4216
	global	_lcd_set_cursor
psect	text1129,local,class=CODE,delta=2
global __ptext1129
__ptext1129:

;; *************** function _lcd_set_cursor *****************
;; Defined at:
;;		line 42 in file "E:\Aldnoah.Zero\Assignment3\lcd.c"
;; Parameters:    Size  Location     Type
;;  address         1    wreg     unsigned char 
;; Auto vars:     Size  Location     Type
;;  address         1    3[BANK0 ] unsigned char 
;; Return value:  Size  Location     Type
;;		None               void
;; Registers used:
;;		wreg, status,2, status,0, pclath, cstack
;; Tracked objects:
;;		On entry : 0/0
;;		On exit  : 0/0
;;		Unchanged: 0/0
;; Data sizes:     COMMON   BANK0   BANK1   BANK3   BANK2
;;      Params:         0       0       0       0       0
;;      Locals:         0       1       0       0       0
;;      Temps:          0       0       0       0       0
;;      Totals:         0       1       0       0       0
;;Total ram usage:        1 bytes
;; Hardware stack levels used:    1
;; Hardware stack levels required when called:    4
;; This function calls:
;;		_lcd_write_control
;; This function is called by:
;;		_UpdateDisplay
;; This function uses a non-reentrant model
;;
psect	text1129
	file	"E:\Aldnoah.Zero\Assignment3\lcd.c"
	line	42
	global	__size_of_lcd_set_cursor
	__size_of_lcd_set_cursor	equ	__end_of_lcd_set_cursor-_lcd_set_cursor
	
_lcd_set_cursor:	
	opt	stack 1
; Regs used in _lcd_set_cursor: [wreg+status,2+status,0+pclath+cstack]
;lcd_set_cursor@address stored from wreg
	bcf	status, 5	;RP0=0, select bank0
	bcf	status, 6	;RP1=0, select bank0
	movwf	(lcd_set_cursor@address)
	line	43
	
l11369:	
;lcd.c: 43: address |= 0b10000000;
	bsf	(lcd_set_cursor@address)+(7/8),(7)&7
	line	44
	
l11371:	
;lcd.c: 44: lcd_write_control(address);
	movf	(lcd_set_cursor@address),w
	fcall	_lcd_write_control
	line	45
	
l1405:	
	return
	opt stack 0
GLOBAL	__end_of_lcd_set_cursor
	__end_of_lcd_set_cursor:
;; =============== function _lcd_set_cursor ends ============

	signat	_lcd_set_cursor,4216
	global	___awtoft
psect	text1130,local,class=CODE,delta=2
global __ptext1130
__ptext1130:

;; *************** function ___awtoft *****************
;; Defined at:
;;		line 33 in file "C:\Program Files\HI-TECH Software\PICC\9.83\sources\awtoft.c"
;; Parameters:    Size  Location     Type
;;  c               2   22[BANK0 ] int 
;; Auto vars:     Size  Location     Type
;;  sign            1   27[BANK0 ] unsigned char 
;; Return value:  Size  Location     Type
;;                  3   22[BANK0 ] float 
;; Registers used:
;;		wreg, status,2, status,0, pclath, cstack
;; Tracked objects:
;;		On entry : 0/0
;;		On exit  : 0/0
;;		Unchanged: 0/0
;; Data sizes:     COMMON   BANK0   BANK1   BANK3   BANK2
;;      Params:         0       3       0       0       0
;;      Locals:         0       1       0       0       0
;;      Temps:          0       2       0       0       0
;;      Totals:         0       6       0       0       0
;;Total ram usage:        6 bytes
;; Hardware stack levels used:    1
;; Hardware stack levels required when called:    4
;; This function calls:
;;		___ftpack
;; This function is called by:
;;		_main
;;		_robotMoveSpeed
;; This function uses a non-reentrant model
;;
psect	text1130
	file	"C:\Program Files\HI-TECH Software\PICC\9.83\sources\awtoft.c"
	line	33
	global	__size_of___awtoft
	__size_of___awtoft	equ	__end_of___awtoft-___awtoft
	
___awtoft:	
	opt	stack 3
; Regs used in ___awtoft: [wreg+status,2+status,0+pclath+cstack]
	line	36
	
l11361:	
	bcf	status, 5	;RP0=0, select bank0
	bcf	status, 6	;RP1=0, select bank0
	clrf	(___awtoft@sign)
	line	37
	btfss	(___awtoft@c+1),7
	goto	u5411
	goto	u5410
u5411:
	goto	l11365
u5410:
	line	38
	
l11363:	
	comf	(___awtoft@c),f
	comf	(___awtoft@c+1),f
	incf	(___awtoft@c),f
	skipnz
	incf	(___awtoft@c+1),f
	line	39
	clrf	(___awtoft@sign)
	bsf	status,0
	rlf	(___awtoft@sign),f
	goto	l11365
	line	40
	
l7631:	
	line	41
	
l11365:	
	movf	(___awtoft@c),w
	movwf	(?___ftpack)
	movf	(___awtoft@c+1),w
	movwf	(?___ftpack+1)
	clrf	(?___ftpack+2)
	movlw	(08Eh)
	movwf	(??___awtoft+0)+0
	movf	(??___awtoft+0)+0,w
	movwf	0+(?___ftpack)+03h
	movf	(___awtoft@sign),w
	movwf	(??___awtoft+1)+0
	movf	(??___awtoft+1)+0,w
	movwf	0+(?___ftpack)+04h
	fcall	___ftpack
	bcf	status, 5	;RP0=0, select bank0
	bcf	status, 6	;RP1=0, select bank0
	movf	(0+(?___ftpack)),w
	movwf	(?___awtoft)
	movf	(1+(?___ftpack)),w
	movwf	(?___awtoft+1)
	movf	(2+(?___ftpack)),w
	movwf	(?___awtoft+2)
	goto	l7632
	
l11367:	
	line	42
	
l7632:	
	return
	opt stack 0
GLOBAL	__end_of___awtoft
	__end_of___awtoft:
;; =============== function ___awtoft ends ============

	signat	___awtoft,4219
	global	___ftmul
psect	text1131,local,class=CODE,delta=2
global __ptext1131
__ptext1131:

;; *************** function ___ftmul *****************
;; Defined at:
;;		line 52 in file "C:\Program Files\HI-TECH Software\PICC\9.83\sources\ftmul.c"
;; Parameters:    Size  Location     Type
;;  f1              3   38[BANK0 ] float 
;;  f2              3   41[BANK0 ] float 
;; Auto vars:     Size  Location     Type
;;  f3_as_produc    3   49[BANK0 ] unsigned um
;;  sign            1   53[BANK0 ] unsigned char 
;;  cntr            1   52[BANK0 ] unsigned char 
;;  exp             1   48[BANK0 ] unsigned char 
;; Return value:  Size  Location     Type
;;                  3   38[BANK0 ] float 
;; Registers used:
;;		wreg, status,2, status,0, pclath, cstack
;; Tracked objects:
;;		On entry : 0/0
;;		On exit  : 0/0
;;		Unchanged: 0/0
;; Data sizes:     COMMON   BANK0   BANK1   BANK3   BANK2
;;      Params:         0       6       0       0       0
;;      Locals:         0       6       0       0       0
;;      Temps:          0       4       0       0       0
;;      Totals:         0      16       0       0       0
;;Total ram usage:       16 bytes
;; Hardware stack levels used:    1
;; Hardware stack levels required when called:    4
;; This function calls:
;;		___ftpack
;; This function is called by:
;;		_main
;;		_robotMoveSpeed
;; This function uses a non-reentrant model
;;
psect	text1131
	file	"C:\Program Files\HI-TECH Software\PICC\9.83\sources\ftmul.c"
	line	52
	global	__size_of___ftmul
	__size_of___ftmul	equ	__end_of___ftmul-___ftmul
	
___ftmul:	
	opt	stack 3
; Regs used in ___ftmul: [wreg+status,2+status,0+pclath+cstack]
	line	56
	
l11311:	
	bcf	status, 5	;RP0=0, select bank0
	bcf	status, 6	;RP1=0, select bank0
	movf	(___ftmul@f1),w
	movwf	((??___ftmul+0)+0)
	movf	(___ftmul@f1+1),w
	movwf	((??___ftmul+0)+0+1)
	movf	(___ftmul@f1+2),w
	movwf	((??___ftmul+0)+0+2)
	clrc
	rlf	(??___ftmul+0)+1,w
	rlf	(??___ftmul+0)+2,w
	movwf	(??___ftmul+3)+0
	movf	(??___ftmul+3)+0,w
	movwf	(___ftmul@exp)
	movf	((___ftmul@exp)),f
	skipz
	goto	u5271
	goto	u5270
u5271:
	goto	l11317
u5270:
	line	57
	
l11313:	
	movlw	0x0
	movwf	(?___ftmul)
	movlw	0x0
	movwf	(?___ftmul+1)
	movlw	0x0
	movwf	(?___ftmul+2)
	goto	l7594
	
l11315:	
	goto	l7594
	
l7593:	
	line	58
	
l11317:	
	movf	(___ftmul@f2),w
	movwf	((??___ftmul+0)+0)
	movf	(___ftmul@f2+1),w
	movwf	((??___ftmul+0)+0+1)
	movf	(___ftmul@f2+2),w
	movwf	((??___ftmul+0)+0+2)
	clrc
	rlf	(??___ftmul+0)+1,w
	rlf	(??___ftmul+0)+2,w
	movwf	(??___ftmul+3)+0
	movf	(??___ftmul+3)+0,w
	movwf	(___ftmul@sign)
	movf	((___ftmul@sign)),f
	skipz
	goto	u5281
	goto	u5280
u5281:
	goto	l11323
u5280:
	line	59
	
l11319:	
	movlw	0x0
	movwf	(?___ftmul)
	movlw	0x0
	movwf	(?___ftmul+1)
	movlw	0x0
	movwf	(?___ftmul+2)
	goto	l7594
	
l11321:	
	goto	l7594
	
l7595:	
	line	60
	
l11323:	
	movf	(___ftmul@sign),w
	addlw	07Bh
	movwf	(??___ftmul+0)+0
	movf	(??___ftmul+0)+0,w
	addwf	(___ftmul@exp),f
	line	61
	movf	(___ftmul@f1),w
	movwf	((??___ftmul+0)+0)
	movf	(___ftmul@f1+1),w
	movwf	((??___ftmul+0)+0+1)
	movf	(___ftmul@f1+2),w
	movwf	((??___ftmul+0)+0+2)
	movlw	010h
u5295:
	clrc
	rrf	(??___ftmul+0)+2,f
	rrf	(??___ftmul+0)+1,f
	rrf	(??___ftmul+0)+0,f
u5290:
	addlw	-1
	skipz
	goto	u5295
	movf	0+(??___ftmul+0)+0,w
	movwf	(??___ftmul+3)+0
	movf	(??___ftmul+3)+0,w
	movwf	(___ftmul@sign)
	line	62
	movf	(___ftmul@f2),w
	movwf	((??___ftmul+0)+0)
	movf	(___ftmul@f2+1),w
	movwf	((??___ftmul+0)+0+1)
	movf	(___ftmul@f2+2),w
	movwf	((??___ftmul+0)+0+2)
	movlw	010h
u5305:
	clrc
	rrf	(??___ftmul+0)+2,f
	rrf	(??___ftmul+0)+1,f
	rrf	(??___ftmul+0)+0,f
u5300:
	addlw	-1
	skipz
	goto	u5305
	movf	0+(??___ftmul+0)+0,w
	movwf	(??___ftmul+3)+0
	movf	(??___ftmul+3)+0,w
	xorwf	(___ftmul@sign),f
	line	63
	movlw	(080h)
	movwf	(??___ftmul+0)+0
	movf	(??___ftmul+0)+0,w
	andwf	(___ftmul@sign),f
	line	64
	
l11325:	
	bsf	(___ftmul@f1)+(15/8),(15)&7
	line	66
	
l11327:	
	bsf	(___ftmul@f2)+(15/8),(15)&7
	line	67
	
l11329:	
	movlw	0FFh
	andwf	(___ftmul@f2),f
	movlw	0FFh
	andwf	(___ftmul@f2+1),f
	movlw	0
	andwf	(___ftmul@f2+2),f
	line	68
	
l11331:	
	movlw	0
	movwf	(___ftmul@f3_as_product)
	movlw	0
	movwf	(___ftmul@f3_as_product+1)
	movlw	0
	movwf	(___ftmul@f3_as_product+2)
	line	69
	
l11333:	
	movlw	(07h)
	movwf	(??___ftmul+0)+0
	movf	(??___ftmul+0)+0,w
	movwf	(___ftmul@cntr)
	goto	l11335
	line	70
	
l7596:	
	line	71
	
l11335:	
	btfss	(___ftmul@f1),(0)&7
	goto	u5311
	goto	u5310
u5311:
	goto	l11339
u5310:
	line	72
	
l11337:	
	movf	(___ftmul@f2),w
	addwf	(___ftmul@f3_as_product),f
	movf	(___ftmul@f2+1),w
	clrz
	skipnc
	incf	(___ftmul@f2+1),w
	skipnz
	goto	u5321
	addwf	(___ftmul@f3_as_product+1),f
u5321:
	movf	(___ftmul@f2+2),w
	clrz
	skipnc
	incf	(___ftmul@f2+2),w
	skipnz
	goto	u5322
	addwf	(___ftmul@f3_as_product+2),f
u5322:

	goto	l11339
	
l7597:	
	line	73
	
l11339:	
	movlw	01h
u5335:
	clrc
	rrf	(___ftmul@f1+2),f
	rrf	(___ftmul@f1+1),f
	rrf	(___ftmul@f1),f
	addlw	-1
	skipz
	goto	u5335

	line	74
	
l11341:	
	movlw	01h
u5345:
	clrc
	rlf	(___ftmul@f2),f
	rlf	(___ftmul@f2+1),f
	rlf	(___ftmul@f2+2),f
	addlw	-1
	skipz
	goto	u5345
	line	75
	
l11343:	
	movlw	low(01h)
	subwf	(___ftmul@cntr),f
	btfss	status,2
	goto	u5351
	goto	u5350
u5351:
	goto	l11335
u5350:
	goto	l11345
	
l7598:	
	line	76
	
l11345:	
	movlw	(09h)
	movwf	(??___ftmul+0)+0
	movf	(??___ftmul+0)+0,w
	movwf	(___ftmul@cntr)
	goto	l11347
	line	77
	
l7599:	
	line	78
	
l11347:	
	btfss	(___ftmul@f1),(0)&7
	goto	u5361
	goto	u5360
u5361:
	goto	l11351
u5360:
	line	79
	
l11349:	
	movf	(___ftmul@f2),w
	addwf	(___ftmul@f3_as_product),f
	movf	(___ftmul@f2+1),w
	clrz
	skipnc
	incf	(___ftmul@f2+1),w
	skipnz
	goto	u5371
	addwf	(___ftmul@f3_as_product+1),f
u5371:
	movf	(___ftmul@f2+2),w
	clrz
	skipnc
	incf	(___ftmul@f2+2),w
	skipnz
	goto	u5372
	addwf	(___ftmul@f3_as_product+2),f
u5372:

	goto	l11351
	
l7600:	
	line	80
	
l11351:	
	movlw	01h
u5385:
	clrc
	rrf	(___ftmul@f1+2),f
	rrf	(___ftmul@f1+1),f
	rrf	(___ftmul@f1),f
	addlw	-1
	skipz
	goto	u5385

	line	81
	
l11353:	
	movlw	01h
u5395:
	clrc
	rrf	(___ftmul@f3_as_product+2),f
	rrf	(___ftmul@f3_as_product+1),f
	rrf	(___ftmul@f3_as_product),f
	addlw	-1
	skipz
	goto	u5395

	line	82
	
l11355:	
	movlw	low(01h)
	subwf	(___ftmul@cntr),f
	btfss	status,2
	goto	u5401
	goto	u5400
u5401:
	goto	l11347
u5400:
	goto	l11357
	
l7601:	
	line	83
	
l11357:	
	movf	(___ftmul@f3_as_product),w
	movwf	(?___ftpack)
	movf	(___ftmul@f3_as_product+1),w
	movwf	(?___ftpack+1)
	movf	(___ftmul@f3_as_product+2),w
	movwf	(?___ftpack+2)
	movf	(___ftmul@exp),w
	movwf	(??___ftmul+0)+0
	movf	(??___ftmul+0)+0,w
	movwf	0+(?___ftpack)+03h
	movf	(___ftmul@sign),w
	movwf	(??___ftmul+1)+0
	movf	(??___ftmul+1)+0,w
	movwf	0+(?___ftpack)+04h
	fcall	___ftpack
	bcf	status, 5	;RP0=0, select bank0
	bcf	status, 6	;RP1=0, select bank0
	movf	(0+(?___ftpack)),w
	movwf	(?___ftmul)
	movf	(1+(?___ftpack)),w
	movwf	(?___ftmul+1)
	movf	(2+(?___ftpack)),w
	movwf	(?___ftmul+2)
	goto	l7594
	
l11359:	
	line	84
	
l7594:	
	return
	opt stack 0
GLOBAL	__end_of___ftmul
	__end_of___ftmul:
;; =============== function ___ftmul ends ============

	signat	___ftmul,8315
	global	___ftdiv
psect	text1132,local,class=CODE,delta=2
global __ptext1132
__ptext1132:

;; *************** function ___ftdiv *****************
;; Defined at:
;;		line 50 in file "C:\Program Files\HI-TECH Software\PICC\9.83\sources\ftdiv.c"
;; Parameters:    Size  Location     Type
;;  f2              3   22[BANK0 ] float 
;;  f1              3   25[BANK0 ] float 
;; Auto vars:     Size  Location     Type
;;  f3              3   33[BANK0 ] float 
;;  sign            1   37[BANK0 ] unsigned char 
;;  exp             1   36[BANK0 ] unsigned char 
;;  cntr            1   32[BANK0 ] unsigned char 
;; Return value:  Size  Location     Type
;;                  3   22[BANK0 ] float 
;; Registers used:
;;		wreg, status,2, status,0, pclath, cstack
;; Tracked objects:
;;		On entry : 0/0
;;		On exit  : 0/0
;;		Unchanged: 0/0
;; Data sizes:     COMMON   BANK0   BANK1   BANK3   BANK2
;;      Params:         0       6       0       0       0
;;      Locals:         0       6       0       0       0
;;      Temps:          0       4       0       0       0
;;      Totals:         0      16       0       0       0
;;Total ram usage:       16 bytes
;; Hardware stack levels used:    1
;; Hardware stack levels required when called:    4
;; This function calls:
;;		___ftpack
;; This function is called by:
;;		_robotMoveSpeed
;; This function uses a non-reentrant model
;;
psect	text1132
	file	"C:\Program Files\HI-TECH Software\PICC\9.83\sources\ftdiv.c"
	line	50
	global	__size_of___ftdiv
	__size_of___ftdiv	equ	__end_of___ftdiv-___ftdiv
	
___ftdiv:	
	opt	stack 2
; Regs used in ___ftdiv: [wreg+status,2+status,0+pclath+cstack]
	line	55
	
l11269:	
	bcf	status, 5	;RP0=0, select bank0
	bcf	status, 6	;RP1=0, select bank0
	movf	(___ftdiv@f1),w
	movwf	((??___ftdiv+0)+0)
	movf	(___ftdiv@f1+1),w
	movwf	((??___ftdiv+0)+0+1)
	movf	(___ftdiv@f1+2),w
	movwf	((??___ftdiv+0)+0+2)
	clrc
	rlf	(??___ftdiv+0)+1,w
	rlf	(??___ftdiv+0)+2,w
	movwf	(??___ftdiv+3)+0
	movf	(??___ftdiv+3)+0,w
	movwf	(___ftdiv@exp)
	movf	((___ftdiv@exp)),f
	skipz
	goto	u5191
	goto	u5190
u5191:
	goto	l11275
u5190:
	line	56
	
l11271:	
	movlw	0x0
	movwf	(?___ftdiv)
	movlw	0x0
	movwf	(?___ftdiv+1)
	movlw	0x0
	movwf	(?___ftdiv+2)
	goto	l7584
	
l11273:	
	goto	l7584
	
l7583:	
	line	57
	
l11275:	
	movf	(___ftdiv@f2),w
	movwf	((??___ftdiv+0)+0)
	movf	(___ftdiv@f2+1),w
	movwf	((??___ftdiv+0)+0+1)
	movf	(___ftdiv@f2+2),w
	movwf	((??___ftdiv+0)+0+2)
	clrc
	rlf	(??___ftdiv+0)+1,w
	rlf	(??___ftdiv+0)+2,w
	movwf	(??___ftdiv+3)+0
	movf	(??___ftdiv+3)+0,w
	movwf	(___ftdiv@sign)
	movf	((___ftdiv@sign)),f
	skipz
	goto	u5201
	goto	u5200
u5201:
	goto	l11281
u5200:
	line	58
	
l11277:	
	movlw	0x0
	movwf	(?___ftdiv)
	movlw	0x0
	movwf	(?___ftdiv+1)
	movlw	0x0
	movwf	(?___ftdiv+2)
	goto	l7584
	
l11279:	
	goto	l7584
	
l7585:	
	line	59
	
l11281:	
	movlw	0
	movwf	(___ftdiv@f3)
	movlw	0
	movwf	(___ftdiv@f3+1)
	movlw	0
	movwf	(___ftdiv@f3+2)
	line	60
	
l11283:	
	movlw	(089h)
	addwf	(___ftdiv@sign),w
	movwf	(??___ftdiv+0)+0
	movf	0+(??___ftdiv+0)+0,w
	subwf	(___ftdiv@exp),f
	line	61
	
l11285:	
	movf	(___ftdiv@f1),w
	movwf	((??___ftdiv+0)+0)
	movf	(___ftdiv@f1+1),w
	movwf	((??___ftdiv+0)+0+1)
	movf	(___ftdiv@f1+2),w
	movwf	((??___ftdiv+0)+0+2)
	movlw	010h
u5215:
	clrc
	rrf	(??___ftdiv+0)+2,f
	rrf	(??___ftdiv+0)+1,f
	rrf	(??___ftdiv+0)+0,f
u5210:
	addlw	-1
	skipz
	goto	u5215
	movf	0+(??___ftdiv+0)+0,w
	movwf	(??___ftdiv+3)+0
	movf	(??___ftdiv+3)+0,w
	movwf	(___ftdiv@sign)
	line	62
	
l11287:	
	movf	(___ftdiv@f2),w
	movwf	((??___ftdiv+0)+0)
	movf	(___ftdiv@f2+1),w
	movwf	((??___ftdiv+0)+0+1)
	movf	(___ftdiv@f2+2),w
	movwf	((??___ftdiv+0)+0+2)
	movlw	010h
u5225:
	clrc
	rrf	(??___ftdiv+0)+2,f
	rrf	(??___ftdiv+0)+1,f
	rrf	(??___ftdiv+0)+0,f
u5220:
	addlw	-1
	skipz
	goto	u5225
	movf	0+(??___ftdiv+0)+0,w
	movwf	(??___ftdiv+3)+0
	movf	(??___ftdiv+3)+0,w
	xorwf	(___ftdiv@sign),f
	line	63
	
l11289:	
	movlw	(080h)
	movwf	(??___ftdiv+0)+0
	movf	(??___ftdiv+0)+0,w
	andwf	(___ftdiv@sign),f
	line	64
	
l11291:	
	bsf	(___ftdiv@f1)+(15/8),(15)&7
	line	65
	movlw	0FFh
	andwf	(___ftdiv@f1),f
	movlw	0FFh
	andwf	(___ftdiv@f1+1),f
	movlw	0
	andwf	(___ftdiv@f1+2),f
	line	66
	
l11293:	
	bsf	(___ftdiv@f2)+(15/8),(15)&7
	line	67
	movlw	0FFh
	andwf	(___ftdiv@f2),f
	movlw	0FFh
	andwf	(___ftdiv@f2+1),f
	movlw	0
	andwf	(___ftdiv@f2+2),f
	line	68
	movlw	(018h)
	movwf	(??___ftdiv+0)+0
	movf	(??___ftdiv+0)+0,w
	movwf	(___ftdiv@cntr)
	goto	l11295
	line	69
	
l7586:	
	line	70
	
l11295:	
	movlw	01h
u5235:
	clrc
	rlf	(___ftdiv@f3),f
	rlf	(___ftdiv@f3+1),f
	rlf	(___ftdiv@f3+2),f
	addlw	-1
	skipz
	goto	u5235
	line	71
	
l11297:	
	movf	(___ftdiv@f2+2),w
	subwf	(___ftdiv@f1+2),w
	skipz
	goto	u5245
	movf	(___ftdiv@f2+1),w
	subwf	(___ftdiv@f1+1),w
	skipz
	goto	u5245
	movf	(___ftdiv@f2),w
	subwf	(___ftdiv@f1),w
u5245:
	skipc
	goto	u5241
	goto	u5240
u5241:
	goto	l11303
u5240:
	line	72
	
l11299:	
	movf	(___ftdiv@f2),w
	subwf	(___ftdiv@f1),f
	movf	(___ftdiv@f2+1),w
	skipc
	incfsz	(___ftdiv@f2+1),w
	subwf	(___ftdiv@f1+1),f
	movf	(___ftdiv@f2+2),w
	skipc
	incf	(___ftdiv@f2+2),w
	subwf	(___ftdiv@f1+2),f
	line	73
	
l11301:	
	bsf	(___ftdiv@f3)+(0/8),(0)&7
	goto	l11303
	line	74
	
l7587:	
	line	75
	
l11303:	
	movlw	01h
u5255:
	clrc
	rlf	(___ftdiv@f1),f
	rlf	(___ftdiv@f1+1),f
	rlf	(___ftdiv@f1+2),f
	addlw	-1
	skipz
	goto	u5255
	line	76
	
l11305:	
	movlw	low(01h)
	subwf	(___ftdiv@cntr),f
	btfss	status,2
	goto	u5261
	goto	u5260
u5261:
	goto	l11295
u5260:
	goto	l11307
	
l7588:	
	line	77
	
l11307:	
	movf	(___ftdiv@f3),w
	movwf	(?___ftpack)
	movf	(___ftdiv@f3+1),w
	movwf	(?___ftpack+1)
	movf	(___ftdiv@f3+2),w
	movwf	(?___ftpack+2)
	movf	(___ftdiv@exp),w
	movwf	(??___ftdiv+0)+0
	movf	(??___ftdiv+0)+0,w
	movwf	0+(?___ftpack)+03h
	movf	(___ftdiv@sign),w
	movwf	(??___ftdiv+1)+0
	movf	(??___ftdiv+1)+0,w
	movwf	0+(?___ftpack)+04h
	fcall	___ftpack
	bcf	status, 5	;RP0=0, select bank0
	bcf	status, 6	;RP1=0, select bank0
	movf	(0+(?___ftpack)),w
	movwf	(?___ftdiv)
	movf	(1+(?___ftpack)),w
	movwf	(?___ftdiv+1)
	movf	(2+(?___ftpack)),w
	movwf	(?___ftdiv+2)
	goto	l7584
	
l11309:	
	line	78
	
l7584:	
	return
	opt stack 0
GLOBAL	__end_of___ftdiv
	__end_of___ftdiv:
;; =============== function ___ftdiv ends ============

	signat	___ftdiv,8315
	global	_abs
psect	text1133,local,class=CODE,delta=2
global __ptext1133
__ptext1133:

;; *************** function _abs *****************
;; Defined at:
;;		line 211 in file "E:\Aldnoah.Zero\Assignment3\robot.c"
;; Parameters:    Size  Location     Type
;;  v               2    6[BANK0 ] int 
;; Auto vars:     Size  Location     Type
;;		None
;; Return value:  Size  Location     Type
;;                  2    6[BANK0 ] int 
;; Registers used:
;;		wreg, status,2, status,0, btemp+1, pclath, cstack
;; Tracked objects:
;;		On entry : 0/0
;;		On exit  : 0/0
;;		Unchanged: 0/0
;; Data sizes:     COMMON   BANK0   BANK1   BANK3   BANK2
;;      Params:         0       2       0       0       0
;;      Locals:         0       0       0       0       0
;;      Temps:          0       2       0       0       0
;;      Totals:         0       4       0       0       0
;;Total ram usage:        4 bytes
;; Hardware stack levels used:    1
;; Hardware stack levels required when called:    4
;; This function calls:
;;		___wmul
;; This function is called by:
;;		_robotMoveSpeed
;;		_robotTurnSpeed
;; This function uses a non-reentrant model
;;
psect	text1133
	file	"E:\Aldnoah.Zero\Assignment3\robot.c"
	line	211
	global	__size_of_abs
	__size_of_abs	equ	__end_of_abs-_abs
	
_abs:	
	opt	stack 2
; Regs used in _abs: [wreg+status,2+status,0+btemp+1+pclath+cstack]
	line	212
	
l11265:	
;robot.c: 212: return (v * ((v > 0) - (v < 0)));
	movlw	0
	bcf	status, 5	;RP0=0, select bank0
	bcf	status, 6	;RP1=0, select bank0
	btfsc	(abs@v+1),7
	movlw	1
	movwf	(??_abs+0)+0
	clrf	(??_abs+0)+0+1
	comf	(??_abs+0)+0,f
	comf	(??_abs+0)+1,f
	incf	(??_abs+0)+0,f
	skipnz
	incf	(??_abs+0)+1,f
	movf	(abs@v+1),w
	xorlw	80h
	movwf	btemp+1
	movlw	(high(01h))^80h
	subwf	btemp+1,w
	skipz
	goto	u5185
	movlw	low(01h)
	subwf	(abs@v),w
u5185:

	movlw	0
	skipnc
	movlw	1
	bcf	status, 5	;RP0=0, select bank0
	bcf	status, 6	;RP1=0, select bank0
	addwf	0+(??_abs+0)+0,w
	movwf	(?___wmul)
	movf	1+(??_abs+0)+0,w
	skipnc
	incf	1+(??_abs+0)+0,w
	movwf	((?___wmul))+1
	movf	(abs@v+1),w
	clrf	1+(?___wmul)+02h
	addwf	1+(?___wmul)+02h
	movf	(abs@v),w
	clrf	0+(?___wmul)+02h
	addwf	0+(?___wmul)+02h

	fcall	___wmul
	bcf	status, 5	;RP0=0, select bank0
	bcf	status, 6	;RP1=0, select bank0
	movf	(1+(?___wmul)),w
	clrf	(?_abs+1)
	addwf	(?_abs+1)
	movf	(0+(?___wmul)),w
	clrf	(?_abs)
	addwf	(?_abs)

	goto	l6050
	
l11267:	
	line	213
	
l6050:	
	return
	opt stack 0
GLOBAL	__end_of_abs
	__end_of_abs:
;; =============== function _abs ends ============

	signat	_abs,4218
	global	_RobotDrive
psect	text1134,local,class=CODE,delta=2
global __ptext1134
__ptext1134:

;; *************** function _RobotDrive *****************
;; Defined at:
;;		line 86 in file "E:\Aldnoah.Zero\Assignment3\robot.c"
;; Parameters:    Size  Location     Type
;;  speed           2   54[BANK0 ] int 
;; Auto vars:     Size  Location     Type
;;  speedhighByt    1   58[BANK0 ] unsigned char 
;;  speedlowByte    1   57[BANK0 ] unsigned char 
;; Return value:  Size  Location     Type
;;		None               void
;; Registers used:
;;		wreg, fsr0l, fsr0h, status,2, status,0, pclath, cstack
;; Tracked objects:
;;		On entry : 0/0
;;		On exit  : 0/0
;;		Unchanged: 0/0
;; Data sizes:     COMMON   BANK0   BANK1   BANK3   BANK2
;;      Params:         0       2       0       0       0
;;      Locals:         0       2       0       0       0
;;      Temps:          0       1       0       0       0
;;      Totals:         0       5       0       0       0
;;Total ram usage:        5 bytes
;; Hardware stack levels used:    1
;; Hardware stack levels required when called:    4
;; This function calls:
;;		_ser_putch
;; This function is called by:
;;		_robotMoveSpeed
;; This function uses a non-reentrant model
;;
psect	text1134
	file	"E:\Aldnoah.Zero\Assignment3\robot.c"
	line	86
	global	__size_of_RobotDrive
	__size_of_RobotDrive	equ	__end_of_RobotDrive-_RobotDrive
	
_RobotDrive:	
	opt	stack 2
; Regs used in _RobotDrive: [wreg-fsr0h+status,2+status,0+pclath+cstack]
	line	88
	
l11251:	
;robot.c: 88: unsigned char speedlowByte = (unsigned char)(speed);
	bcf	status, 5	;RP0=0, select bank0
	bcf	status, 6	;RP1=0, select bank0
	movf	(RobotDrive@speed),w
	movwf	(??_RobotDrive+0)+0
	movf	(??_RobotDrive+0)+0,w
	movwf	(RobotDrive@speedlowByte)
	line	89
	
l11253:	
;robot.c: 89: unsigned char speedhighByte = (unsigned char)(speed >> 8);
	movf	(RobotDrive@speed+1),w
	movwf	(??_RobotDrive+0)+0
	movf	(??_RobotDrive+0)+0,w
	movwf	(RobotDrive@speedhighByte)
	line	91
	
l11255:	
;robot.c: 91: ser_putch(137);
	movlw	(089h)
	fcall	_ser_putch
	line	93
	
l11257:	
;robot.c: 93: ser_putch(speedhighByte);
	bcf	status, 5	;RP0=0, select bank0
	bcf	status, 6	;RP1=0, select bank0
	movf	(RobotDrive@speedhighByte),w
	fcall	_ser_putch
	line	95
	
l11259:	
;robot.c: 95: ser_putch(speedlowByte);
	bcf	status, 5	;RP0=0, select bank0
	bcf	status, 6	;RP1=0, select bank0
	movf	(RobotDrive@speedlowByte),w
	fcall	_ser_putch
	line	97
	
l11261:	
;robot.c: 97: ser_putch(128);
	movlw	(080h)
	fcall	_ser_putch
	line	99
	
l11263:	
;robot.c: 99: ser_putch(0);
	movlw	(0)
	fcall	_ser_putch
	line	100
	
l6021:	
	return
	opt stack 0
GLOBAL	__end_of_RobotDrive
	__end_of_RobotDrive:
;; =============== function _RobotDrive ends ============

	signat	_RobotDrive,4216
	global	_ser_getch
psect	text1135,local,class=CODE,delta=2
global __ptext1135
__ptext1135:

;; *************** function _ser_getch *****************
;; Defined at:
;;		line 55 in file "E:\Aldnoah.Zero\Assignment3\ser.c"
;; Parameters:    Size  Location     Type
;;		None
;; Auto vars:     Size  Location     Type
;;  c               1    1[BANK0 ] unsigned char 
;; Return value:  Size  Location     Type
;;                  1    wreg      unsigned char 
;; Registers used:
;;		wreg, fsr0l, fsr0h, status,2, status,0, pclath, cstack
;; Tracked objects:
;;		On entry : 0/0
;;		On exit  : 0/0
;;		Unchanged: 0/0
;; Data sizes:     COMMON   BANK0   BANK1   BANK3   BANK2
;;      Params:         0       0       0       0       0
;;      Locals:         0       1       0       0       0
;;      Temps:          0       1       0       0       0
;;      Totals:         0       2       0       0       0
;;Total ram usage:        2 bytes
;; Hardware stack levels used:    1
;; Hardware stack levels required when called:    4
;; This function calls:
;;		_ser_isrx
;; This function is called by:
;;		_robot_read
;; This function uses a non-reentrant model
;;
psect	text1135
	file	"E:\Aldnoah.Zero\Assignment3\ser.c"
	line	55
	global	__size_of_ser_getch
	__size_of_ser_getch	equ	__end_of_ser_getch-_ser_getch
	
_ser_getch:	
	opt	stack 1
; Regs used in _ser_getch: [wreg-fsr0h+status,2+status,0+pclath+cstack]
	line	58
	
l11235:	
;ser.c: 56: unsigned char c;
;ser.c: 58: while (ser_isrx()==0)
	goto	l11237
	
l6754:	
	line	59
;ser.c: 59: continue;
	goto	l11237
	
l6753:	
	line	58
	
l11237:	
	fcall	_ser_isrx
	btfss	status,0
	goto	u5171
	goto	u5170
u5171:
	goto	l11237
u5170:
	
l6755:	
	line	61
;ser.c: 61: GIE=0;
	bcf	(95/8),(95)&7
	line	62
	
l11239:	
;ser.c: 62: c=rxfifo[rxoptr];
	bcf	status, 5	;RP0=0, select bank0
	bcf	status, 6	;RP1=0, select bank0
	movf	(_rxoptr),w
	addlw	_rxfifo&0ffh
	movwf	fsr0
	bcf	status, 7	;select IRP bank1
	movf	indf,w
	movwf	(??_ser_getch+0)+0
	movf	(??_ser_getch+0)+0,w
	movwf	(ser_getch@c)
	line	63
	
l11241:	
;ser.c: 63: ++rxoptr;
	movlw	(01h)
	movwf	(??_ser_getch+0)+0
	movf	(??_ser_getch+0)+0,w
	addwf	(_rxoptr),f	;volatile
	line	64
	
l11243:	
;ser.c: 64: rxoptr &= (16-1);
	movlw	(0Fh)
	movwf	(??_ser_getch+0)+0
	movf	(??_ser_getch+0)+0,w
	andwf	(_rxoptr),f	;volatile
	line	65
	
l11245:	
;ser.c: 65: GIE=1;
	bsf	(95/8),(95)&7
	line	66
	
l11247:	
;ser.c: 66: return c;
	movf	(ser_getch@c),w
	goto	l6756
	
l11249:	
	line	67
	
l6756:	
	return
	opt stack 0
GLOBAL	__end_of_ser_getch
	__end_of_ser_getch:
;; =============== function _ser_getch ends ============

	signat	_ser_getch,89
	global	_sprintf
psect	text1136,local,class=CODE,delta=2
global __ptext1136
__ptext1136:

;; *************** function _sprintf *****************
;; Defined at:
;;		line 488 in file "C:\Program Files\HI-TECH Software\PICC\9.83\lib\doprnt.c"
;; Parameters:    Size  Location     Type
;;  sp              1    wreg     PTR unsigned char 
;;		 -> UpdateDisplay@LCDOutput(16), 
;;  f               1   20[BANK0 ] PTR const unsigned char 
;;		 -> STR_13(13), 
;; Auto vars:     Size  Location     Type
;;  sp              1   35[BANK0 ] PTR unsigned char 
;;		 -> UpdateDisplay@LCDOutput(16), 
;;  _val            4   31[BANK0 ] struct .
;;  c               1   36[BANK0 ] char 
;;  prec            1   30[BANK0 ] char 
;;  flag            1   29[BANK0 ] unsigned char 
;;  ap              1   28[BANK0 ] PTR void [1]
;;		 -> ?_sprintf(2), 
;; Return value:  Size  Location     Type
;;                  2   20[BANK0 ] int 
;; Registers used:
;;		wreg, fsr0l, fsr0h, status,2, status,0, btemp+1, pclath, cstack
;; Tracked objects:
;;		On entry : 0/0
;;		On exit  : 0/0
;;		Unchanged: 0/0
;; Data sizes:     COMMON   BANK0   BANK1   BANK3   BANK2
;;      Params:         0       5       0       0       0
;;      Locals:         0       9       0       0       0
;;      Temps:          0       3       0       0       0
;;      Totals:         0      17       0       0       0
;;Total ram usage:       17 bytes
;; Hardware stack levels used:    1
;; Hardware stack levels required when called:    4
;; This function calls:
;;		___lwdiv
;;		___lwmod
;; This function is called by:
;;		_UpdateDisplay
;; This function uses a non-reentrant model
;;
psect	text1136
	file	"C:\Program Files\HI-TECH Software\PICC\9.83\sources\doprnt.c"
	line	488
	global	__size_of_sprintf
	__size_of_sprintf	equ	__end_of_sprintf-_sprintf
	
_sprintf:	
	opt	stack 1
; Regs used in _sprintf: [wreg-fsr0h+status,2+status,0+btemp+1+pclath+cstack]
;sprintf@sp stored from wreg
	line	537
	bcf	status, 5	;RP0=0, select bank0
	bcf	status, 6	;RP1=0, select bank0
	movwf	(sprintf@sp)
	
l11177:	
	movlw	(?_sprintf+01h)&0ffh
	movwf	(??_sprintf+0)+0
	movf	(??_sprintf+0)+0,w
	movwf	(sprintf@ap)
	line	540
	goto	l11229
	
l6794:	
	line	542
	
l11179:	
	movf	(sprintf@c),w
	xorlw	025h
	skipnz
	goto	u5091
	goto	u5090
u5091:
	goto	l6795
u5090:
	line	545
	
l11181:	
	movf	(sprintf@c),w
	movwf	(??_sprintf+0)+0
	movf	(sprintf@sp),w
	movwf	fsr0
	movf	(??_sprintf+0)+0,w
	bcf	status, 7	;select IRP bank0
	movwf	indf
	
l11183:	
	movlw	(01h)
	movwf	(??_sprintf+0)+0
	movf	(??_sprintf+0)+0,w
	addwf	(sprintf@sp),f
	line	546
	goto	l11229
	line	547
	
l6795:	
	line	552
	clrf	(sprintf@flag)
	line	638
	goto	l11187
	line	640
	
l6797:	
	line	641
	goto	l11231
	line	700
	
l6799:	
	goto	l11189
	line	701
	
l6800:	
	line	702
	goto	l11189
	line	805
	
l6802:	
	line	816
	goto	l11229
	line	825
	
l11185:	
	goto	l11189
	line	638
	
l6796:	
	
l11187:	
	movlw	01h
	addwf	(sprintf@f),f
	movlw	-01h
	addwf	(sprintf@f),w
	movwf	fsr0
	fcall	stringdir
	movwf	(sprintf@c)
	; Switch size 1, requested type "space"
; Number of cases is 3, Range of values is 0 to 105
; switch strategies available:
; Name         Instructions Cycles
; simple_byte           10     6 (average)
; jumptable            260     6 (fixed)
; rangetable           110     6 (fixed)
; spacedrange          218     9 (fixed)
; locatedrange         106     3 (fixed)
;	Chosen strategy is simple_byte

	opt asmopt_off
	xorlw	0^0	; case 0
	skipnz
	goto	l11231
	xorlw	100^0	; case 100
	skipnz
	goto	l11189
	xorlw	105^100	; case 105
	skipnz
	goto	l11189
	goto	l11229
	opt asmopt_on

	line	825
	
l6801:	
	line	1254
	
l11189:	
	movf	(sprintf@ap),w
	movwf	fsr0
	bcf	status, 7	;select IRP bank0
	movf	indf,w
	movwf	(sprintf@_val)
	incf	fsr0,f
	movf	indf,w
	movwf	(sprintf@_val+1)
	
l11191:	
	movlw	(02h)
	movwf	(??_sprintf+0)+0
	movf	(??_sprintf+0)+0,w
	addwf	(sprintf@ap),f
	line	1256
	
l11193:	
	btfss	(sprintf@_val+1),7
	goto	u5101
	goto	u5100
u5101:
	goto	l11199
u5100:
	line	1257
	
l11195:	
	movlw	(03h)
	movwf	(??_sprintf+0)+0
	movf	(??_sprintf+0)+0,w
	iorwf	(sprintf@flag),f
	line	1258
	
l11197:	
	comf	(sprintf@_val),f
	comf	(sprintf@_val+1),f
	incf	(sprintf@_val),f
	skipnz
	incf	(sprintf@_val+1),f
	goto	l11199
	line	1259
	
l6803:	
	line	1300
	
l11199:	
	clrf	(sprintf@c)
	bsf	status,0
	rlf	(sprintf@c),f
	
l11201:	
	movf	(sprintf@c),w
	xorlw	05h
	skipz
	goto	u5111
	goto	u5110
u5111:
	goto	l11205
u5110:
	goto	l11213
	
l11203:	
	goto	l11213
	line	1301
	
l6804:	
	
l11205:	
	movf	(sprintf@c),w
	movwf	(??_sprintf+0)+0
	addwf	(??_sprintf+0)+0,w
	addlw	low((_dpowers-__stringbase))
	movwf	fsr0
	fcall	stringdir
	movwf	(??_sprintf+1)+0
	fcall	stringdir
	movwf	(??_sprintf+1)+0+1
	movf	1+(??_sprintf+1)+0,w
	subwf	(sprintf@_val+1),w
	skipz
	goto	u5125
	movf	0+(??_sprintf+1)+0,w
	subwf	(sprintf@_val),w
u5125:
	skipnc
	goto	u5121
	goto	u5120
u5121:
	goto	l11209
u5120:
	goto	l11213
	line	1302
	
l11207:	
	goto	l11213
	
l6806:	
	line	1300
	
l11209:	
	movlw	(01h)
	movwf	(??_sprintf+0)+0
	movf	(??_sprintf+0)+0,w
	addwf	(sprintf@c),f
	
l11211:	
	movf	(sprintf@c),w
	xorlw	05h
	skipz
	goto	u5131
	goto	u5130
u5131:
	goto	l11205
u5130:
	goto	l11213
	
l6805:	
	line	1433
	
l11213:	
	movf	(sprintf@flag),w
	andlw	03h
	btfsc	status,2
	goto	u5141
	goto	u5140
u5141:
	goto	l11219
u5140:
	line	1434
	
l11215:	
	movlw	(02Dh)
	movwf	(??_sprintf+0)+0
	movf	(sprintf@sp),w
	movwf	fsr0
	movf	(??_sprintf+0)+0,w
	bcf	status, 7	;select IRP bank0
	movwf	indf
	
l11217:	
	movlw	(01h)
	movwf	(??_sprintf+0)+0
	movf	(??_sprintf+0)+0,w
	addwf	(sprintf@sp),f
	goto	l11219
	
l6807:	
	line	1467
	
l11219:	
	movf	(sprintf@c),w
	movwf	(??_sprintf+0)+0
	movf	(??_sprintf+0)+0,w
	movwf	(sprintf@prec)
	line	1469
	goto	l11227
	
l6809:	
	line	1484
	
l11221:	
	movlw	low(0Ah)
	movwf	(?___lwmod)
	movlw	high(0Ah)
	movwf	((?___lwmod))+1
	movf	(sprintf@prec),w
	movwf	(??_sprintf+0)+0
	addwf	(??_sprintf+0)+0,w
	addlw	low((_dpowers-__stringbase))
	movwf	fsr0
	fcall	stringdir
	movwf	(?___lwdiv)
	fcall	stringdir
	movwf	(?___lwdiv+1)
	movf	(sprintf@_val+1),w
	clrf	1+(?___lwdiv)+02h
	addwf	1+(?___lwdiv)+02h
	movf	(sprintf@_val),w
	clrf	0+(?___lwdiv)+02h
	addwf	0+(?___lwdiv)+02h

	fcall	___lwdiv
	bcf	status, 5	;RP0=0, select bank0
	bcf	status, 6	;RP1=0, select bank0
	movf	(1+(?___lwdiv)),w
	clrf	1+(?___lwmod)+02h
	addwf	1+(?___lwmod)+02h
	movf	(0+(?___lwdiv)),w
	clrf	0+(?___lwmod)+02h
	addwf	0+(?___lwmod)+02h

	fcall	___lwmod
	bcf	status, 5	;RP0=0, select bank0
	bcf	status, 6	;RP1=0, select bank0
	movf	(0+(?___lwmod)),w
	addlw	030h
	movwf	(??_sprintf+1)+0
	movf	(??_sprintf+1)+0,w
	movwf	(sprintf@c)
	line	1516
	
l11223:	
	movf	(sprintf@c),w
	movwf	(??_sprintf+0)+0
	movf	(sprintf@sp),w
	movwf	fsr0
	movf	(??_sprintf+0)+0,w
	bcf	status, 7	;select IRP bank0
	movwf	indf
	
l11225:	
	movlw	(01h)
	movwf	(??_sprintf+0)+0
	movf	(??_sprintf+0)+0,w
	addwf	(sprintf@sp),f
	goto	l11227
	line	1517
	
l6808:	
	line	1469
	
l11227:	
	movlw	(-1)
	movwf	(??_sprintf+0)+0
	movf	(??_sprintf+0)+0,w
	addwf	(sprintf@prec),f
	movf	((sprintf@prec)),w
	xorlw	-1
	skipz
	goto	u5151
	goto	u5150
u5151:
	goto	l11221
u5150:
	goto	l11229
	
l6810:	
	goto	l11229
	line	1525
	
l6793:	
	line	540
	
l11229:	
	movlw	01h
	addwf	(sprintf@f),f
	movlw	-01h
	addwf	(sprintf@f),w
	movwf	fsr0
	fcall	stringdir
	movwf	(??_sprintf+0)+0
	movf	(??_sprintf+0)+0,w
	movwf	(sprintf@c)
	movf	((sprintf@c)),f
	skipz
	goto	u5161
	goto	u5160
u5161:
	goto	l11179
u5160:
	goto	l11231
	
l6811:	
	goto	l11231
	line	1527
	
l6798:	
	line	1530
	
l11231:	
	movf	(sprintf@sp),w
	movwf	fsr0
	bcf	status, 7	;select IRP bank0
	clrf	indf
	goto	l6812
	line	1532
	
l11233:	
	line	1533
;	Return value of _sprintf is never used
	
l6812:	
	return
	opt stack 0
GLOBAL	__end_of_sprintf
	__end_of_sprintf:
;; =============== function _sprintf ends ============

	signat	_sprintf,4698
	global	_ADCconvert
psect	text1137,local,class=CODE,delta=2
global __ptext1137
__ptext1137:

;; *************** function _ADCconvert *****************
;; Defined at:
;;		line 58 in file "E:\Aldnoah.Zero\Assignment3\infrared.c"
;; Parameters:    Size  Location     Type
;;		None
;; Auto vars:     Size  Location     Type
;;		None
;; Return value:  Size  Location     Type
;;		None               void
;; Registers used:
;;		wreg, status,2, status,0, pclath, cstack
;; Tracked objects:
;;		On entry : 0/0
;;		On exit  : 0/0
;;		Unchanged: 0/0
;; Data sizes:     COMMON   BANK0   BANK1   BANK3   BANK2
;;      Params:         0       0       0       0       0
;;      Locals:         0       0       0       0       0
;;      Temps:          0       2       0       0       0
;;      Totals:         0       2       0       0       0
;;Total ram usage:        2 bytes
;; Hardware stack levels used:    1
;; Hardware stack levels required when called:    4
;; This function calls:
;;		___wmul
;;		___lwdiv
;; This function is called by:
;;		_readAvgDistance
;; This function uses a non-reentrant model
;;
psect	text1137
	file	"E:\Aldnoah.Zero\Assignment3\infrared.c"
	line	58
	global	__size_of_ADCconvert
	__size_of_ADCconvert	equ	__end_of_ADCconvert-_ADCconvert
	
_ADCconvert:	
	opt	stack 1
; Regs used in _ADCconvert: [wreg+status,2+status,0+pclath+cstack]
	line	64
	
l11135:	
;infrared.c: 64: if (adcVal >= 213 && adcVal < 234)
	movlw	high(0D5h)
	bcf	status, 5	;RP0=0, select bank0
	bcf	status, 6	;RP1=0, select bank0
	subwf	(_adcVal+1),w	;volatile
	movlw	low(0D5h)
	skipnz
	subwf	(_adcVal),w	;volatile
	skipc
	goto	u4951
	goto	u4950
u4951:
	goto	l11141
u4950:
	
l11137:	
	movlw	high(0EAh)
	subwf	(_adcVal+1),w	;volatile
	movlw	low(0EAh)
	skipnz
	subwf	(_adcVal),w	;volatile
	skipnc
	goto	u4961
	goto	u4960
u4961:
	goto	l11141
u4960:
	line	66
	
l11139:	
;infrared.c: 65: {
;infrared.c: 66: IRdistance = 15 + ((20 - 15)*(234 - adcVal)) / (234 - 213);
	movlw	low(015h)
	movwf	(?___lwdiv)
	movlw	high(015h)
	movwf	((?___lwdiv))+1
	comf	(_adcVal),w	;volatile
	movwf	(??_ADCconvert+0)+0
	comf	(_adcVal+1),w	;volatile
	movwf	((??_ADCconvert+0)+0+1)
	incf	(??_ADCconvert+0)+0,f
	skipnz
	incf	((??_ADCconvert+0)+0+1),f
	movf	0+(??_ADCconvert+0)+0,w
	addlw	low(0EAh)
	movwf	(?___wmul)
	movf	1+(??_ADCconvert+0)+0,w
	skipnc
	addlw	1
	addlw	high(0EAh)
	movwf	1+(?___wmul)
	movlw	low(05h)
	movwf	0+(?___wmul)+02h
	movlw	high(05h)
	movwf	(0+(?___wmul)+02h)+1
	fcall	___wmul
	bcf	status, 5	;RP0=0, select bank0
	bcf	status, 6	;RP1=0, select bank0
	movf	(1+(?___wmul)),w
	clrf	1+(?___lwdiv)+02h
	addwf	1+(?___lwdiv)+02h
	movf	(0+(?___wmul)),w
	clrf	0+(?___lwdiv)+02h
	addwf	0+(?___lwdiv)+02h

	fcall	___lwdiv
	bcf	status, 5	;RP0=0, select bank0
	bcf	status, 6	;RP1=0, select bank0
	movf	(0+(?___lwdiv)),w
	addlw	low(0Fh)
	bsf	status, 5	;RP0=1, select bank1
	bcf	status, 6	;RP1=0, select bank1
	movwf	(_IRdistance)^080h	;volatile
	bcf	status, 5	;RP0=0, select bank0
	bcf	status, 6	;RP1=0, select bank0
	movf	(1+(?___lwdiv)),w
	skipnc
	addlw	1
	addlw	high(0Fh)
	bsf	status, 5	;RP0=1, select bank1
	bcf	status, 6	;RP1=0, select bank1
	movwf	1+(_IRdistance)^080h	;volatile
	line	67
;infrared.c: 67: }
	goto	l3016
	line	68
	
l3003:	
	
l11141:	
;infrared.c: 68: else if (adcVal >= 170 && adcVal < 213)
	movlw	high(0AAh)
	bcf	status, 5	;RP0=0, select bank0
	subwf	(_adcVal+1),w	;volatile
	movlw	low(0AAh)
	skipnz
	subwf	(_adcVal),w	;volatile
	skipc
	goto	u4971
	goto	u4970
u4971:
	goto	l11147
u4970:
	
l11143:	
	movlw	high(0D5h)
	subwf	(_adcVal+1),w	;volatile
	movlw	low(0D5h)
	skipnz
	subwf	(_adcVal),w	;volatile
	skipnc
	goto	u4981
	goto	u4980
u4981:
	goto	l11147
u4980:
	line	70
	
l11145:	
;infrared.c: 69: {
;infrared.c: 70: IRdistance = 20 + ((30 - 20)*(213 - adcVal)) / (213 - 170);
	movlw	low(02Bh)
	movwf	(?___lwdiv)
	movlw	high(02Bh)
	movwf	((?___lwdiv))+1
	comf	(_adcVal),w	;volatile
	movwf	(??_ADCconvert+0)+0
	comf	(_adcVal+1),w	;volatile
	movwf	((??_ADCconvert+0)+0+1)
	incf	(??_ADCconvert+0)+0,f
	skipnz
	incf	((??_ADCconvert+0)+0+1),f
	movf	0+(??_ADCconvert+0)+0,w
	addlw	low(0D5h)
	movwf	(?___wmul)
	movf	1+(??_ADCconvert+0)+0,w
	skipnc
	addlw	1
	addlw	high(0D5h)
	movwf	1+(?___wmul)
	movlw	low(0Ah)
	movwf	0+(?___wmul)+02h
	movlw	high(0Ah)
	movwf	(0+(?___wmul)+02h)+1
	fcall	___wmul
	bcf	status, 5	;RP0=0, select bank0
	bcf	status, 6	;RP1=0, select bank0
	movf	(1+(?___wmul)),w
	clrf	1+(?___lwdiv)+02h
	addwf	1+(?___lwdiv)+02h
	movf	(0+(?___wmul)),w
	clrf	0+(?___lwdiv)+02h
	addwf	0+(?___lwdiv)+02h

	fcall	___lwdiv
	bcf	status, 5	;RP0=0, select bank0
	bcf	status, 6	;RP1=0, select bank0
	movf	(0+(?___lwdiv)),w
	addlw	low(014h)
	bsf	status, 5	;RP0=1, select bank1
	bcf	status, 6	;RP1=0, select bank1
	movwf	(_IRdistance)^080h	;volatile
	bcf	status, 5	;RP0=0, select bank0
	bcf	status, 6	;RP1=0, select bank0
	movf	(1+(?___lwdiv)),w
	skipnc
	addlw	1
	addlw	high(014h)
	bsf	status, 5	;RP0=1, select bank1
	bcf	status, 6	;RP1=0, select bank1
	movwf	1+(_IRdistance)^080h	;volatile
	line	71
;infrared.c: 71: }
	goto	l3016
	line	72
	
l3005:	
	
l11147:	
;infrared.c: 72: else if (adcVal >= 128 && adcVal < 170)
	movlw	high(080h)
	bcf	status, 5	;RP0=0, select bank0
	subwf	(_adcVal+1),w	;volatile
	movlw	low(080h)
	skipnz
	subwf	(_adcVal),w	;volatile
	skipc
	goto	u4991
	goto	u4990
u4991:
	goto	l11153
u4990:
	
l11149:	
	movlw	high(0AAh)
	subwf	(_adcVal+1),w	;volatile
	movlw	low(0AAh)
	skipnz
	subwf	(_adcVal),w	;volatile
	skipnc
	goto	u5001
	goto	u5000
u5001:
	goto	l11153
u5000:
	line	74
	
l11151:	
;infrared.c: 73: {
;infrared.c: 74: IRdistance = 30 + ((40 - 30)*(170 - adcVal)) / (170 - 128);
	movlw	low(02Ah)
	movwf	(?___lwdiv)
	movlw	high(02Ah)
	movwf	((?___lwdiv))+1
	comf	(_adcVal),w	;volatile
	movwf	(??_ADCconvert+0)+0
	comf	(_adcVal+1),w	;volatile
	movwf	((??_ADCconvert+0)+0+1)
	incf	(??_ADCconvert+0)+0,f
	skipnz
	incf	((??_ADCconvert+0)+0+1),f
	movf	0+(??_ADCconvert+0)+0,w
	addlw	low(0AAh)
	movwf	(?___wmul)
	movf	1+(??_ADCconvert+0)+0,w
	skipnc
	addlw	1
	addlw	high(0AAh)
	movwf	1+(?___wmul)
	movlw	low(0Ah)
	movwf	0+(?___wmul)+02h
	movlw	high(0Ah)
	movwf	(0+(?___wmul)+02h)+1
	fcall	___wmul
	bcf	status, 5	;RP0=0, select bank0
	bcf	status, 6	;RP1=0, select bank0
	movf	(1+(?___wmul)),w
	clrf	1+(?___lwdiv)+02h
	addwf	1+(?___lwdiv)+02h
	movf	(0+(?___wmul)),w
	clrf	0+(?___lwdiv)+02h
	addwf	0+(?___lwdiv)+02h

	fcall	___lwdiv
	bcf	status, 5	;RP0=0, select bank0
	bcf	status, 6	;RP1=0, select bank0
	movf	(0+(?___lwdiv)),w
	addlw	low(01Eh)
	bsf	status, 5	;RP0=1, select bank1
	bcf	status, 6	;RP1=0, select bank1
	movwf	(_IRdistance)^080h	;volatile
	bcf	status, 5	;RP0=0, select bank0
	bcf	status, 6	;RP1=0, select bank0
	movf	(1+(?___lwdiv)),w
	skipnc
	addlw	1
	addlw	high(01Eh)
	bsf	status, 5	;RP0=1, select bank1
	bcf	status, 6	;RP1=0, select bank1
	movwf	1+(_IRdistance)^080h	;volatile
	line	75
;infrared.c: 75: }
	goto	l3016
	line	76
	
l3007:	
	
l11153:	
;infrared.c: 76: else if (adcVal >= 107 && adcVal < 128)
	movlw	high(06Bh)
	bcf	status, 5	;RP0=0, select bank0
	subwf	(_adcVal+1),w	;volatile
	movlw	low(06Bh)
	skipnz
	subwf	(_adcVal),w	;volatile
	skipc
	goto	u5011
	goto	u5010
u5011:
	goto	l11159
u5010:
	
l11155:	
	movlw	high(080h)
	subwf	(_adcVal+1),w	;volatile
	movlw	low(080h)
	skipnz
	subwf	(_adcVal),w	;volatile
	skipnc
	goto	u5021
	goto	u5020
u5021:
	goto	l11159
u5020:
	line	78
	
l11157:	
;infrared.c: 77: {
;infrared.c: 78: IRdistance = 40 + ((50 - 40)*(128 - adcVal)) / (128 - 107);
	movlw	low(015h)
	movwf	(?___lwdiv)
	movlw	high(015h)
	movwf	((?___lwdiv))+1
	comf	(_adcVal),w	;volatile
	movwf	(??_ADCconvert+0)+0
	comf	(_adcVal+1),w	;volatile
	movwf	((??_ADCconvert+0)+0+1)
	incf	(??_ADCconvert+0)+0,f
	skipnz
	incf	((??_ADCconvert+0)+0+1),f
	movf	0+(??_ADCconvert+0)+0,w
	addlw	low(080h)
	movwf	(?___wmul)
	movf	1+(??_ADCconvert+0)+0,w
	skipnc
	addlw	1
	addlw	high(080h)
	movwf	1+(?___wmul)
	movlw	low(0Ah)
	movwf	0+(?___wmul)+02h
	movlw	high(0Ah)
	movwf	(0+(?___wmul)+02h)+1
	fcall	___wmul
	bcf	status, 5	;RP0=0, select bank0
	bcf	status, 6	;RP1=0, select bank0
	movf	(1+(?___wmul)),w
	clrf	1+(?___lwdiv)+02h
	addwf	1+(?___lwdiv)+02h
	movf	(0+(?___wmul)),w
	clrf	0+(?___lwdiv)+02h
	addwf	0+(?___lwdiv)+02h

	fcall	___lwdiv
	bcf	status, 5	;RP0=0, select bank0
	bcf	status, 6	;RP1=0, select bank0
	movf	(0+(?___lwdiv)),w
	addlw	low(028h)
	bsf	status, 5	;RP0=1, select bank1
	bcf	status, 6	;RP1=0, select bank1
	movwf	(_IRdistance)^080h	;volatile
	bcf	status, 5	;RP0=0, select bank0
	bcf	status, 6	;RP1=0, select bank0
	movf	(1+(?___lwdiv)),w
	skipnc
	addlw	1
	addlw	high(028h)
	bsf	status, 5	;RP0=1, select bank1
	bcf	status, 6	;RP1=0, select bank1
	movwf	1+(_IRdistance)^080h	;volatile
	line	79
;infrared.c: 79: }
	goto	l3016
	line	80
	
l3009:	
	
l11159:	
;infrared.c: 80: else if (adcVal >= 77 && adcVal < 107)
	movlw	high(04Dh)
	bcf	status, 5	;RP0=0, select bank0
	subwf	(_adcVal+1),w	;volatile
	movlw	low(04Dh)
	skipnz
	subwf	(_adcVal),w	;volatile
	skipc
	goto	u5031
	goto	u5030
u5031:
	goto	l11165
u5030:
	
l11161:	
	movlw	high(06Bh)
	subwf	(_adcVal+1),w	;volatile
	movlw	low(06Bh)
	skipnz
	subwf	(_adcVal),w	;volatile
	skipnc
	goto	u5041
	goto	u5040
u5041:
	goto	l11165
u5040:
	line	82
	
l11163:	
;infrared.c: 81: {
;infrared.c: 82: IRdistance = 50 + ((60 - 50)*(107 - adcVal)) / (107 - 77);
	movlw	low(01Eh)
	movwf	(?___lwdiv)
	movlw	high(01Eh)
	movwf	((?___lwdiv))+1
	comf	(_adcVal),w	;volatile
	movwf	(??_ADCconvert+0)+0
	comf	(_adcVal+1),w	;volatile
	movwf	((??_ADCconvert+0)+0+1)
	incf	(??_ADCconvert+0)+0,f
	skipnz
	incf	((??_ADCconvert+0)+0+1),f
	movf	0+(??_ADCconvert+0)+0,w
	addlw	low(06Bh)
	movwf	(?___wmul)
	movf	1+(??_ADCconvert+0)+0,w
	skipnc
	addlw	1
	addlw	high(06Bh)
	movwf	1+(?___wmul)
	movlw	low(0Ah)
	movwf	0+(?___wmul)+02h
	movlw	high(0Ah)
	movwf	(0+(?___wmul)+02h)+1
	fcall	___wmul
	bcf	status, 5	;RP0=0, select bank0
	bcf	status, 6	;RP1=0, select bank0
	movf	(1+(?___wmul)),w
	clrf	1+(?___lwdiv)+02h
	addwf	1+(?___lwdiv)+02h
	movf	(0+(?___wmul)),w
	clrf	0+(?___lwdiv)+02h
	addwf	0+(?___lwdiv)+02h

	fcall	___lwdiv
	bcf	status, 5	;RP0=0, select bank0
	bcf	status, 6	;RP1=0, select bank0
	movf	(0+(?___lwdiv)),w
	addlw	low(032h)
	bsf	status, 5	;RP0=1, select bank1
	bcf	status, 6	;RP1=0, select bank1
	movwf	(_IRdistance)^080h	;volatile
	bcf	status, 5	;RP0=0, select bank0
	bcf	status, 6	;RP1=0, select bank0
	movf	(1+(?___lwdiv)),w
	skipnc
	addlw	1
	addlw	high(032h)
	bsf	status, 5	;RP0=1, select bank1
	bcf	status, 6	;RP1=0, select bank1
	movwf	1+(_IRdistance)^080h	;volatile
	line	83
;infrared.c: 83: }
	goto	l3016
	line	84
	
l3011:	
	
l11165:	
;infrared.c: 84: else if (adcVal >= 56 && adcVal < 77)
	movlw	high(038h)
	bcf	status, 5	;RP0=0, select bank0
	subwf	(_adcVal+1),w	;volatile
	movlw	low(038h)
	skipnz
	subwf	(_adcVal),w	;volatile
	skipc
	goto	u5051
	goto	u5050
u5051:
	goto	l11171
u5050:
	
l11167:	
	movlw	high(04Dh)
	subwf	(_adcVal+1),w	;volatile
	movlw	low(04Dh)
	skipnz
	subwf	(_adcVal),w	;volatile
	skipnc
	goto	u5061
	goto	u5060
u5061:
	goto	l11171
u5060:
	line	86
	
l11169:	
;infrared.c: 85: {
;infrared.c: 86: IRdistance = 60 + ((70 - 60)*(77 - adcVal)) / (77 - 56);
	movlw	low(015h)
	movwf	(?___lwdiv)
	movlw	high(015h)
	movwf	((?___lwdiv))+1
	comf	(_adcVal),w	;volatile
	movwf	(??_ADCconvert+0)+0
	comf	(_adcVal+1),w	;volatile
	movwf	((??_ADCconvert+0)+0+1)
	incf	(??_ADCconvert+0)+0,f
	skipnz
	incf	((??_ADCconvert+0)+0+1),f
	movf	0+(??_ADCconvert+0)+0,w
	addlw	low(04Dh)
	movwf	(?___wmul)
	movf	1+(??_ADCconvert+0)+0,w
	skipnc
	addlw	1
	addlw	high(04Dh)
	movwf	1+(?___wmul)
	movlw	low(0Ah)
	movwf	0+(?___wmul)+02h
	movlw	high(0Ah)
	movwf	(0+(?___wmul)+02h)+1
	fcall	___wmul
	bcf	status, 5	;RP0=0, select bank0
	bcf	status, 6	;RP1=0, select bank0
	movf	(1+(?___wmul)),w
	clrf	1+(?___lwdiv)+02h
	addwf	1+(?___lwdiv)+02h
	movf	(0+(?___wmul)),w
	clrf	0+(?___lwdiv)+02h
	addwf	0+(?___lwdiv)+02h

	fcall	___lwdiv
	bcf	status, 5	;RP0=0, select bank0
	bcf	status, 6	;RP1=0, select bank0
	movf	(0+(?___lwdiv)),w
	addlw	low(03Ch)
	bsf	status, 5	;RP0=1, select bank1
	bcf	status, 6	;RP1=0, select bank1
	movwf	(_IRdistance)^080h	;volatile
	bcf	status, 5	;RP0=0, select bank0
	bcf	status, 6	;RP1=0, select bank0
	movf	(1+(?___lwdiv)),w
	skipnc
	addlw	1
	addlw	high(03Ch)
	bsf	status, 5	;RP0=1, select bank1
	bcf	status, 6	;RP1=0, select bank1
	movwf	1+(_IRdistance)^080h	;volatile
	line	87
;infrared.c: 87: }
	goto	l3016
	line	88
	
l3013:	
	
l11171:	
;infrared.c: 88: else if (adcVal >= 43 && adcVal < 56)
	movlw	high(02Bh)
	bcf	status, 5	;RP0=0, select bank0
	subwf	(_adcVal+1),w	;volatile
	movlw	low(02Bh)
	skipnz
	subwf	(_adcVal),w	;volatile
	skipc
	goto	u5071
	goto	u5070
u5071:
	goto	l3016
u5070:
	
l11173:	
	movlw	high(038h)
	subwf	(_adcVal+1),w	;volatile
	movlw	low(038h)
	skipnz
	subwf	(_adcVal),w	;volatile
	skipnc
	goto	u5081
	goto	u5080
u5081:
	goto	l3016
u5080:
	line	90
	
l11175:	
;infrared.c: 89: {
;infrared.c: 90: IRdistance = 70 + ((80 - 70)*(56 - adcVal)) / (56 - 43);
	movlw	low(0Dh)
	movwf	(?___lwdiv)
	movlw	high(0Dh)
	movwf	((?___lwdiv))+1
	comf	(_adcVal),w	;volatile
	movwf	(??_ADCconvert+0)+0
	comf	(_adcVal+1),w	;volatile
	movwf	((??_ADCconvert+0)+0+1)
	incf	(??_ADCconvert+0)+0,f
	skipnz
	incf	((??_ADCconvert+0)+0+1),f
	movf	0+(??_ADCconvert+0)+0,w
	addlw	low(038h)
	movwf	(?___wmul)
	movf	1+(??_ADCconvert+0)+0,w
	skipnc
	addlw	1
	addlw	high(038h)
	movwf	1+(?___wmul)
	movlw	low(0Ah)
	movwf	0+(?___wmul)+02h
	movlw	high(0Ah)
	movwf	(0+(?___wmul)+02h)+1
	fcall	___wmul
	bcf	status, 5	;RP0=0, select bank0
	bcf	status, 6	;RP1=0, select bank0
	movf	(1+(?___wmul)),w
	clrf	1+(?___lwdiv)+02h
	addwf	1+(?___lwdiv)+02h
	movf	(0+(?___wmul)),w
	clrf	0+(?___lwdiv)+02h
	addwf	0+(?___lwdiv)+02h

	fcall	___lwdiv
	bcf	status, 5	;RP0=0, select bank0
	bcf	status, 6	;RP1=0, select bank0
	movf	(0+(?___lwdiv)),w
	addlw	low(046h)
	bsf	status, 5	;RP0=1, select bank1
	bcf	status, 6	;RP1=0, select bank1
	movwf	(_IRdistance)^080h	;volatile
	bcf	status, 5	;RP0=0, select bank0
	bcf	status, 6	;RP1=0, select bank0
	movf	(1+(?___lwdiv)),w
	skipnc
	addlw	1
	addlw	high(046h)
	bsf	status, 5	;RP0=1, select bank1
	bcf	status, 6	;RP1=0, select bank1
	movwf	1+(_IRdistance)^080h	;volatile
	goto	l3016
	line	91
	
l3015:	
	goto	l3016
	line	92
	
l3014:	
	goto	l3016
	
l3012:	
	goto	l3016
	
l3010:	
	goto	l3016
	
l3008:	
	goto	l3016
	
l3006:	
	goto	l3016
	
l3004:	
	
l3016:	
	return
	opt stack 0
GLOBAL	__end_of_ADCconvert
	__end_of_ADCconvert:
;; =============== function _ADCconvert ends ============

	signat	_ADCconvert,88
	global	_robotTurn
psect	text1138,local,class=CODE,delta=2
global __ptext1138
__ptext1138:

;; *************** function _robotTurn *****************
;; Defined at:
;;		line 104 in file "E:\Aldnoah.Zero\Assignment3\robot.c"
;; Parameters:    Size  Location     Type
;;  angle           2    2[BANK0 ] int 
;; Auto vars:     Size  Location     Type
;;		None
;; Return value:  Size  Location     Type
;;		None               void
;; Registers used:
;;		wreg, fsr0l, fsr0h, status,2, status,0, btemp+1, pclath, cstack
;; Tracked objects:
;;		On entry : 0/0
;;		On exit  : 0/0
;;		Unchanged: 0/0
;; Data sizes:     COMMON   BANK0   BANK1   BANK3   BANK2
;;      Params:         0       2       0       0       0
;;      Locals:         0       0       0       0       0
;;      Temps:          0       0       0       0       0
;;      Totals:         0       2       0       0       0
;;Total ram usage:        2 bytes
;; Hardware stack levels used:    1
;; Hardware stack levels required when called:    4
;; This function calls:
;;		_ser_putch
;; This function is called by:
;;		_main
;;		_robotTurnSpeed
;; This function uses a non-reentrant model
;;
psect	text1138
	file	"E:\Aldnoah.Zero\Assignment3\robot.c"
	line	104
	global	__size_of_robotTurn
	__size_of_robotTurn	equ	__end_of_robotTurn-_robotTurn
	
_robotTurn:	
	opt	stack 3
; Regs used in _robotTurn: [wreg-fsr0h+status,2+status,0+btemp+1+pclath+cstack]
	line	106
	
l11127:	
;robot.c: 106: if (angle > 0)
	bcf	status, 5	;RP0=0, select bank0
	bcf	status, 6	;RP1=0, select bank0
	movf	(robotTurn@angle+1),w
	xorlw	80h
	movwf	btemp+1
	movlw	(high(01h))^80h
	subwf	btemp+1,w
	skipz
	goto	u4935
	movlw	low(01h)
	subwf	(robotTurn@angle),w
u4935:

	skipc
	goto	u4931
	goto	u4930
u4931:
	goto	l6024
u4930:
	line	108
	
l11129:	
;robot.c: 107: {
;robot.c: 108: ser_putch(137);
	movlw	(089h)
	fcall	_ser_putch
	line	110
;robot.c: 110: ser_putch(0);
	movlw	(0)
	fcall	_ser_putch
	line	112
;robot.c: 112: ser_putch(50);
	movlw	(032h)
	fcall	_ser_putch
	line	114
;robot.c: 114: ser_putch(0);
	movlw	(0)
	fcall	_ser_putch
	line	116
;robot.c: 116: ser_putch(1);
	movlw	(01h)
	fcall	_ser_putch
	line	117
;robot.c: 117: }
	goto	l6028
	line	118
	
l6024:	
;robot.c: 118: else if (angle < 0)
	bcf	status, 5	;RP0=0, select bank0
	bcf	status, 6	;RP1=0, select bank0
	btfss	(robotTurn@angle+1),7
	goto	u4941
	goto	u4940
u4941:
	goto	l11133
u4940:
	line	120
	
l11131:	
;robot.c: 119: {
;robot.c: 120: ser_putch(137);
	movlw	(089h)
	fcall	_ser_putch
	line	122
;robot.c: 122: ser_putch(0);
	movlw	(0)
	fcall	_ser_putch
	line	124
;robot.c: 124: ser_putch(50);
	movlw	(032h)
	fcall	_ser_putch
	line	126
;robot.c: 126: ser_putch(255);
	movlw	(0FFh)
	fcall	_ser_putch
	line	128
;robot.c: 128: ser_putch(255);
	movlw	(0FFh)
	fcall	_ser_putch
	line	129
;robot.c: 129: }
	goto	l6028
	line	130
	
l6026:	
	line	132
	
l11133:	
;robot.c: 130: else
;robot.c: 131: {
;robot.c: 132: ser_putch(137);
	movlw	(089h)
	fcall	_ser_putch
	line	134
;robot.c: 134: ser_putch(0);
	movlw	(0)
	fcall	_ser_putch
	line	136
;robot.c: 136: ser_putch(0);
	movlw	(0)
	fcall	_ser_putch
	line	138
;robot.c: 138: ser_putch(0);
	movlw	(0)
	fcall	_ser_putch
	line	140
;robot.c: 140: ser_putch(0);
	movlw	(0)
	fcall	_ser_putch
	goto	l6028
	line	141
	
l6027:	
	goto	l6028
	
l6025:	
	line	142
	
l6028:	
	return
	opt stack 0
GLOBAL	__end_of_robotTurn
	__end_of_robotTurn:
;; =============== function _robotTurn ends ============

	signat	_robotTurn,4216
	global	_rotate
psect	text1139,local,class=CODE,delta=2
global __ptext1139
__ptext1139:

;; *************** function _rotate *****************
;; Defined at:
;;		line 66 in file "E:\Aldnoah.Zero\Assignment3\steppermotor.c"
;; Parameters:    Size  Location     Type
;;  numsteps        2    3[BANK0 ] unsigned int 
;;  direction       1    5[BANK0 ] unsigned char 
;; Auto vars:     Size  Location     Type
;;  i               2    8[BANK0 ] unsigned int 
;; Return value:  Size  Location     Type
;;		None               void
;; Registers used:
;;		wreg, status,2, status,0, pclath, cstack
;; Tracked objects:
;;		On entry : 0/0
;;		On exit  : 0/0
;;		Unchanged: 0/0
;; Data sizes:     COMMON   BANK0   BANK1   BANK3   BANK2
;;      Params:         0       3       0       0       0
;;      Locals:         0       2       0       0       0
;;      Temps:          0       2       0       0       0
;;      Totals:         0       7       0       0       0
;;Total ram usage:        7 bytes
;; Hardware stack levels used:    1
;; Hardware stack levels required when called:    4
;; This function calls:
;;		_spi_transfer
;; This function is called by:
;;		_main
;;		_calibrateIR
;;		_scan360
;; This function uses a non-reentrant model
;;
psect	text1139
	file	"E:\Aldnoah.Zero\Assignment3\steppermotor.c"
	line	66
	global	__size_of_rotate
	__size_of_rotate	equ	__end_of_rotate-_rotate
	
_rotate:	
	opt	stack 3
; Regs used in _rotate: [wreg+status,2+status,0+pclath+cstack]
	line	68
	
l11099:	
;steppermotor.c: 68: RC0 = 1; RC1 = 1;;
	bcf	status, 5	;RP0=0, select bank0
	bcf	status, 6	;RP1=0, select bank0
	bsf	(56/8),(56)&7
	bsf	(57/8),(57)&7
	line	69
	
l11101:	
;steppermotor.c: 69: if (direction == 0)
	movf	(rotate@direction),f
	skipz
	goto	u4911
	goto	u4910
u4911:
	goto	l11105
u4910:
	line	70
	
l11103:	
;steppermotor.c: 70: spi_transfer(0b00001011);
	movlw	(0Bh)
	fcall	_spi_transfer
	goto	l11107
	line	71
	
l3717:	
	line	72
	
l11105:	
;steppermotor.c: 71: else
;steppermotor.c: 72: spi_transfer(0b00001001);
	movlw	(09h)
	fcall	_spi_transfer
	goto	l11107
	
l3718:	
	line	73
	
l11107:	
;steppermotor.c: 73: RC0 = 0; RC1 = 0;;
	bcf	status, 5	;RP0=0, select bank0
	bcf	status, 6	;RP1=0, select bank0
	bcf	(56/8),(56)&7
	
l11109:	
	bcf	(57/8),(57)&7
	line	74
	
l11111:	
;steppermotor.c: 74: for (unsigned int i = 0; i < numsteps; i++)
	clrf	(rotate@i)
	clrf	(rotate@i+1)
	goto	l3719
	line	75
	
l3720:	
	line	76
;steppermotor.c: 75: {
;steppermotor.c: 76: RC2 = 1; _nop(); RC2 = 0;;
	bsf	(58/8),(58)&7
	nop
	bcf	status, 5	;RP0=0, select bank0
	bcf	status, 6	;RP1=0, select bank0
	bcf	(58/8),(58)&7
	line	77
	
l11113:	
;steppermotor.c: 77: _delay((unsigned long)((15)*(20000000/4000.0)));
	opt asmopt_off
movlw	98
movwf	((??_rotate+0)+0+1),f
	movlw	101
movwf	((??_rotate+0)+0),f
u5887:
	decfsz	((??_rotate+0)+0),f
	goto	u5887
	decfsz	((??_rotate+0)+0+1),f
	goto	u5887
	nop2
opt asmopt_on

	line	74
	movlw	low(01h)
	bcf	status, 5	;RP0=0, select bank0
	bcf	status, 6	;RP1=0, select bank0
	addwf	(rotate@i),f
	skipnc
	incf	(rotate@i+1),f
	movlw	high(01h)
	addwf	(rotate@i+1),f
	
l3719:	
	movf	(rotate@numsteps+1),w
	subwf	(rotate@i+1),w
	skipz
	goto	u4925
	movf	(rotate@numsteps),w
	subwf	(rotate@i),w
u4925:
	skipc
	goto	u4921
	goto	u4920
u4921:
	goto	l3720
u4920:
	
l3721:	
	line	79
;steppermotor.c: 78: }
;steppermotor.c: 79: RC0 = 1; RC1 = 1;;
	bsf	(56/8),(56)&7
	bsf	(57/8),(57)&7
	line	80
	
l11115:	
;steppermotor.c: 80: spi_transfer(0b00000000);
	movlw	(0)
	fcall	_spi_transfer
	line	81
	
l11117:	
;steppermotor.c: 81: RC0 = 0; RC1 = 0;;
	bcf	status, 5	;RP0=0, select bank0
	bcf	status, 6	;RP1=0, select bank0
	bcf	(56/8),(56)&7
	
l11119:	
	bcf	(57/8),(57)&7
	line	82
	
l11121:	
;steppermotor.c: 82: RC2 = 1; _nop(); RC2 = 0;;
	bsf	(58/8),(58)&7
	
l11123:	
	nop
	
l11125:	
	bcf	status, 5	;RP0=0, select bank0
	bcf	status, 6	;RP1=0, select bank0
	bcf	(58/8),(58)&7
	line	83
	
l3722:	
	return
	opt stack 0
GLOBAL	__end_of_rotate
	__end_of_rotate:
;; =============== function _rotate ends ============

	signat	_rotate,8312
	global	_robo_init
psect	text1140,local,class=CODE,delta=2
global __ptext1140
__ptext1140:

;; *************** function _robo_init *****************
;; Defined at:
;;		line 31 in file "E:\Aldnoah.Zero\Assignment3\robot.c"
;; Parameters:    Size  Location     Type
;;		None
;; Auto vars:     Size  Location     Type
;;		None
;; Return value:  Size  Location     Type
;;		None               void
;; Registers used:
;;		wreg, fsr0l, fsr0h, status,2, status,0, pclath, cstack
;; Tracked objects:
;;		On entry : 0/0
;;		On exit  : 0/0
;;		Unchanged: 0/0
;; Data sizes:     COMMON   BANK0   BANK1   BANK3   BANK2
;;      Params:         0       0       0       0       0
;;      Locals:         0       0       0       0       0
;;      Temps:          0       0       0       0       0
;;      Totals:         0       0       0       0       0
;;Total ram usage:        0 bytes
;; Hardware stack levels used:    1
;; Hardware stack levels required when called:    4
;; This function calls:
;;		_ser_putch
;; This function is called by:
;;		_init
;; This function uses a non-reentrant model
;;
psect	text1140
	file	"E:\Aldnoah.Zero\Assignment3\robot.c"
	line	31
	global	__size_of_robo_init
	__size_of_robo_init	equ	__end_of_robo_init-_robo_init
	
_robo_init:	
	opt	stack 2
; Regs used in _robo_init: [wreg-fsr0h+status,2+status,0+pclath+cstack]
	line	32
	
l11097:	
;robot.c: 32: ser_putch(128);
	movlw	(080h)
	fcall	_ser_putch
	line	33
;robot.c: 33: ser_putch(132);
	movlw	(084h)
	fcall	_ser_putch
	line	34
;robot.c: 34: ser_putch(150);
	movlw	(096h)
	fcall	_ser_putch
	line	35
;robot.c: 35: ser_putch(0);
	movlw	(0)
	fcall	_ser_putch
	line	36
	
l6010:	
	return
	opt stack 0
GLOBAL	__end_of_robo_init
	__end_of_robo_init:
;; =============== function _robo_init ends ============

	signat	_robo_init,88
	global	_lcd_write_data
psect	text1141,local,class=CODE,delta=2
global __ptext1141
__ptext1141:

;; *************** function _lcd_write_data *****************
;; Defined at:
;;		line 30 in file "E:\Aldnoah.Zero\Assignment3\lcd.c"
;; Parameters:    Size  Location     Type
;;  databyte        1    wreg     unsigned char 
;; Auto vars:     Size  Location     Type
;;  databyte        1    2[BANK0 ] unsigned char 
;; Return value:  Size  Location     Type
;;		None               void
;; Registers used:
;;		wreg
;; Tracked objects:
;;		On entry : 0/0
;;		On exit  : 0/0
;;		Unchanged: 0/0
;; Data sizes:     COMMON   BANK0   BANK1   BANK3   BANK2
;;      Params:         0       0       0       0       0
;;      Locals:         0       1       0       0       0
;;      Temps:          0       2       0       0       0
;;      Totals:         0       3       0       0       0
;;Total ram usage:        3 bytes
;; Hardware stack levels used:    1
;; Hardware stack levels required when called:    3
;; This function calls:
;;		Nothing
;; This function is called by:
;;		_lcd_write_string
;;		_lcd_write_2_digit_bcd
;;		_lcd_write_3_digit_bcd
;; This function uses a non-reentrant model
;;
psect	text1141
	file	"E:\Aldnoah.Zero\Assignment3\lcd.c"
	line	30
	global	__size_of_lcd_write_data
	__size_of_lcd_write_data	equ	__end_of_lcd_write_data-_lcd_write_data
	
_lcd_write_data:	
	opt	stack 1
; Regs used in _lcd_write_data: [wreg]
;lcd_write_data@databyte stored from wreg
	bcf	status, 5	;RP0=0, select bank0
	bcf	status, 6	;RP1=0, select bank0
	movwf	(lcd_write_data@databyte)
	line	31
	
l11089:	
;lcd.c: 31: RE2 = 0;
	bcf	(74/8),(74)&7
	line	32
;lcd.c: 32: RE1 = 0;
	bcf	(73/8),(73)&7
	line	33
;lcd.c: 33: RE0 = 1;
	bsf	(72/8),(72)&7
	line	34
	
l11091:	
;lcd.c: 34: PORTD = databyte;
	movf	(lcd_write_data@databyte),w
	movwf	(8)	;volatile
	line	35
	
l11093:	
;lcd.c: 35: RE2 = 1;
	bsf	(74/8),(74)&7
	line	36
	
l11095:	
;lcd.c: 36: RE2 = 0;
	bcf	(74/8),(74)&7
	line	37
;lcd.c: 37: _delay((unsigned long)((1)*(20000000/4000.0)));
	opt asmopt_off
movlw	7
movwf	((??_lcd_write_data+0)+0+1),f
	movlw	125
movwf	((??_lcd_write_data+0)+0),f
u5897:
	decfsz	((??_lcd_write_data+0)+0),f
	goto	u5897
	decfsz	((??_lcd_write_data+0)+0+1),f
	goto	u5897
opt asmopt_on

	line	38
	
l1402:	
	return
	opt stack 0
GLOBAL	__end_of_lcd_write_data
	__end_of_lcd_write_data:
;; =============== function _lcd_write_data ends ============

	signat	_lcd_write_data,4216
	global	_lcd_write_control
psect	text1142,local,class=CODE,delta=2
global __ptext1142
__ptext1142:

;; *************** function _lcd_write_control *****************
;; Defined at:
;;		line 18 in file "E:\Aldnoah.Zero\Assignment3\lcd.c"
;; Parameters:    Size  Location     Type
;;  databyte        1    wreg     unsigned char 
;; Auto vars:     Size  Location     Type
;;  databyte        1    2[BANK0 ] unsigned char 
;; Return value:  Size  Location     Type
;;		None               void
;; Registers used:
;;		wreg
;; Tracked objects:
;;		On entry : 0/0
;;		On exit  : 0/0
;;		Unchanged: 0/0
;; Data sizes:     COMMON   BANK0   BANK1   BANK3   BANK2
;;      Params:         0       0       0       0       0
;;      Locals:         0       1       0       0       0
;;      Temps:          0       2       0       0       0
;;      Totals:         0       3       0       0       0
;;Total ram usage:        3 bytes
;; Hardware stack levels used:    1
;; Hardware stack levels required when called:    3
;; This function calls:
;;		Nothing
;; This function is called by:
;;		_lcd_set_cursor
;;		_lcd_init
;;		_UpdateDisplay
;; This function uses a non-reentrant model
;;
psect	text1142
	file	"E:\Aldnoah.Zero\Assignment3\lcd.c"
	line	18
	global	__size_of_lcd_write_control
	__size_of_lcd_write_control	equ	__end_of_lcd_write_control-_lcd_write_control
	
_lcd_write_control:	
	opt	stack 1
; Regs used in _lcd_write_control: [wreg]
;lcd_write_control@databyte stored from wreg
	bcf	status, 5	;RP0=0, select bank0
	bcf	status, 6	;RP1=0, select bank0
	movwf	(lcd_write_control@databyte)
	line	19
	
l11081:	
;lcd.c: 19: RE2 = 0;
	bcf	(74/8),(74)&7
	line	20
;lcd.c: 20: RE1 = 0;
	bcf	(73/8),(73)&7
	line	21
;lcd.c: 21: RE0 = 0;
	bcf	(72/8),(72)&7
	line	22
	
l11083:	
;lcd.c: 22: PORTD = databyte;
	movf	(lcd_write_control@databyte),w
	movwf	(8)	;volatile
	line	23
	
l11085:	
;lcd.c: 23: RE2 = 1;
	bsf	(74/8),(74)&7
	line	24
	
l11087:	
;lcd.c: 24: RE2 = 0;
	bcf	(74/8),(74)&7
	line	25
;lcd.c: 25: _delay((unsigned long)((2)*(20000000/4000.0)));
	opt asmopt_off
movlw	13
movwf	((??_lcd_write_control+0)+0+1),f
	movlw	251
movwf	((??_lcd_write_control+0)+0),f
u5907:
	decfsz	((??_lcd_write_control+0)+0),f
	goto	u5907
	decfsz	((??_lcd_write_control+0)+0+1),f
	goto	u5907
	nop2
opt asmopt_on

	line	26
	
l1399:	
	return
	opt stack 0
GLOBAL	__end_of_lcd_write_control
	__end_of_lcd_write_control:
;; =============== function _lcd_write_control ends ============

	signat	_lcd_write_control,4216
	global	_init_adc
psect	text1143,local,class=CODE,delta=2
global __ptext1143
__ptext1143:

;; *************** function _init_adc *****************
;; Defined at:
;;		line 61 in file "E:\Aldnoah.Zero\Assignment3\adc.c"
;; Parameters:    Size  Location     Type
;;		None
;; Auto vars:     Size  Location     Type
;;		None
;; Return value:  Size  Location     Type
;;		None               void
;; Registers used:
;;		wreg, status,2
;; Tracked objects:
;;		On entry : 0/0
;;		On exit  : 0/0
;;		Unchanged: 0/0
;; Data sizes:     COMMON   BANK0   BANK1   BANK3   BANK2
;;      Params:         0       0       0       0       0
;;      Locals:         0       0       0       0       0
;;      Temps:          0       1       0       0       0
;;      Totals:         0       1       0       0       0
;;Total ram usage:        1 bytes
;; Hardware stack levels used:    1
;; Hardware stack levels required when called:    3
;; This function calls:
;;		Nothing
;; This function is called by:
;;		_init
;; This function uses a non-reentrant model
;;
psect	text1143
	file	"E:\Aldnoah.Zero\Assignment3\adc.c"
	line	61
	global	__size_of_init_adc
	__size_of_init_adc	equ	__end_of_init_adc-_init_adc
	
_init_adc:	
	opt	stack 3
; Regs used in _init_adc: [wreg+status,2]
	line	63
	
l11071:	
;adc.c: 63: PORTA = 0;
	bcf	status, 5	;RP0=0, select bank0
	bcf	status, 6	;RP1=0, select bank0
	clrf	(5)	;volatile
	line	64
	
l11073:	
;adc.c: 64: TRISA = 0b00111111;
	movlw	(03Fh)
	bsf	status, 5	;RP0=1, select bank1
	bcf	status, 6	;RP1=0, select bank1
	movwf	(133)^080h	;volatile
	line	67
	
l11075:	
;adc.c: 67: ADCON0 = 0b10100001;
	movlw	(0A1h)
	bcf	status, 5	;RP0=0, select bank0
	bcf	status, 6	;RP1=0, select bank0
	movwf	(31)	;volatile
	line	68
	
l11077:	
;adc.c: 68: ADCON1 = 0b0000010;
	movlw	(02h)
	bsf	status, 5	;RP0=1, select bank1
	bcf	status, 6	;RP1=0, select bank1
	movwf	(159)^080h	;volatile
	line	70
	
l11079:	
;adc.c: 70: _delay((unsigned long)((50)*(20000000/4000000.0)));
	opt asmopt_off
movlw	83
	bcf	status, 5	;RP0=0, select bank0
	bcf	status, 6	;RP1=0, select bank0
movwf	(??_init_adc+0)+0,f
u5917:
decfsz	(??_init_adc+0)+0,f
	goto	u5917
opt asmopt_on

	line	72
	
l700:	
	return
	opt stack 0
GLOBAL	__end_of_init_adc
	__end_of_init_adc:
;; =============== function _init_adc ends ============

	signat	_init_adc,88
	global	_adc_read_channel
psect	text1144,local,class=CODE,delta=2
global __ptext1144
__ptext1144:

;; *************** function _adc_read_channel *****************
;; Defined at:
;;		line 20 in file "E:\Aldnoah.Zero\Assignment3\adc.c"
;; Parameters:    Size  Location     Type
;;  channel         1    wreg     unsigned char 
;; Auto vars:     Size  Location     Type
;;  channel         1    7[BANK0 ] unsigned char 
;; Return value:  Size  Location     Type
;;                  1    wreg      unsigned char 
;; Registers used:
;;		wreg, fsr0l, fsr0h, status,2, status,0, pclath, cstack
;; Tracked objects:
;;		On entry : 0/0
;;		On exit  : 0/0
;;		Unchanged: 0/0
;; Data sizes:     COMMON   BANK0   BANK1   BANK3   BANK2
;;      Params:         0       0       0       0       0
;;      Locals:         0       1       0       0       0
;;      Temps:          0       1       0       0       0
;;      Totals:         0       2       0       0       0
;;Total ram usage:        2 bytes
;; Hardware stack levels used:    1
;; Hardware stack levels required when called:    4
;; This function calls:
;;		_adc_read
;; This function is called by:
;;		_readDistance
;; This function uses a non-reentrant model
;;
psect	text1144
	file	"E:\Aldnoah.Zero\Assignment3\adc.c"
	line	20
	global	__size_of_adc_read_channel
	__size_of_adc_read_channel	equ	__end_of_adc_read_channel-_adc_read_channel
	
_adc_read_channel:	
	opt	stack 0
; Regs used in _adc_read_channel: [wreg-fsr0h+status,2+status,0+pclath+cstack]
;adc_read_channel@channel stored from wreg
	bcf	status, 5	;RP0=0, select bank0
	bcf	status, 6	;RP1=0, select bank0
	movwf	(adc_read_channel@channel)
	line	21
	
l11055:	
;adc.c: 21: switch(channel)
	goto	l11063
	line	23
;adc.c: 22: {
;adc.c: 23: case 0:
	
l690:	
	line	24
;adc.c: 24: CHS0 = 0;
	bcf	(251/8),(251)&7
	line	25
;adc.c: 25: CHS1 = 0;
	bcf	(252/8),(252)&7
	line	26
;adc.c: 26: CHS2 = 0;
	bcf	(253/8),(253)&7
	line	27
;adc.c: 27: break;
	goto	l11065
	line	28
;adc.c: 28: case 1:
	
l692:	
	line	29
;adc.c: 29: CHS0 = 1;
	bsf	(251/8),(251)&7
	line	30
;adc.c: 30: CHS1 = 0;
	bcf	(252/8),(252)&7
	line	31
;adc.c: 31: CHS2 = 0;
	bcf	(253/8),(253)&7
	line	32
;adc.c: 32: break;
	goto	l11065
	line	33
;adc.c: 33: case 2:
	
l693:	
	line	34
;adc.c: 34: CHS0 = 0;
	bcf	(251/8),(251)&7
	line	35
;adc.c: 35: CHS1 = 1;
	bsf	(252/8),(252)&7
	line	36
;adc.c: 36: CHS2 = 0;
	bcf	(253/8),(253)&7
	line	37
;adc.c: 37: break;
	goto	l11065
	line	38
;adc.c: 38: case 3:
	
l694:	
	line	39
;adc.c: 39: CHS0 = 1;
	bsf	(251/8),(251)&7
	line	40
;adc.c: 40: CHS1 = 1;
	bsf	(252/8),(252)&7
	line	41
;adc.c: 41: CHS2 = 0;
	bcf	(253/8),(253)&7
	line	42
;adc.c: 42: break;
	goto	l11065
	line	43
;adc.c: 43: case 4:
	
l695:	
	line	44
;adc.c: 44: CHS0 = 0;
	bcf	(251/8),(251)&7
	line	45
;adc.c: 45: CHS1 = 0;
	bcf	(252/8),(252)&7
	line	46
;adc.c: 46: CHS2 = 1;
	bsf	(253/8),(253)&7
	line	47
;adc.c: 47: break;
	goto	l11065
	line	50
;adc.c: 50: default:
	
l696:	
	line	51
	
l11057:	
;adc.c: 51: return 0;
	movlw	(0)
	goto	l697
	
l11059:	
	goto	l697
	line	52
	
l11061:	
;adc.c: 52: }
	goto	l11065
	line	21
	
l689:	
	
l11063:	
	movf	(adc_read_channel@channel),w
	; Switch size 1, requested type "space"
; Number of cases is 5, Range of values is 0 to 4
; switch strategies available:
; Name         Instructions Cycles
; simple_byte           16     9 (average)
; direct_byte           23     8 (fixed)
; jumptable            260     6 (fixed)
; rangetable             9     6 (fixed)
; spacedrange           16     9 (fixed)
; locatedrange           5     3 (fixed)
;	Chosen strategy is simple_byte

	opt asmopt_off
	xorlw	0^0	; case 0
	skipnz
	goto	l690
	xorlw	1^0	; case 1
	skipnz
	goto	l692
	xorlw	2^1	; case 2
	skipnz
	goto	l693
	xorlw	3^2	; case 3
	skipnz
	goto	l694
	xorlw	4^3	; case 4
	skipnz
	goto	l695
	goto	l11057
	opt asmopt_on

	line	52
	
l691:	
	line	54
	
l11065:	
;adc.c: 54: _delay((unsigned long)((50)*(20000000/4000000.0)));
	opt asmopt_off
movlw	83
movwf	(??_adc_read_channel+0)+0,f
u5927:
decfsz	(??_adc_read_channel+0)+0,f
	goto	u5927
opt asmopt_on

	line	56
	
l11067:	
;adc.c: 56: return adc_read();
	fcall	_adc_read
	bcf	status, 5	;RP0=0, select bank0
	bcf	status, 6	;RP1=0, select bank0
	movf	(0+(?_adc_read)),w
	goto	l697
	
l11069:	
	line	58
	
l697:	
	return
	opt stack 0
GLOBAL	__end_of_adc_read_channel
	__end_of_adc_read_channel:
;; =============== function _adc_read_channel ends ============

	signat	_adc_read_channel,4217
	global	___awmod
psect	text1145,local,class=CODE,delta=2
global __ptext1145
__ptext1145:

;; *************** function ___awmod *****************
;; Defined at:
;;		line 5 in file "C:\Program Files\HI-TECH Software\PICC\9.83\sources\awmod.c"
;; Parameters:    Size  Location     Type
;;  divisor         2    0[BANK0 ] int 
;;  dividend        2    2[BANK0 ] int 
;; Auto vars:     Size  Location     Type
;;  sign            1    6[BANK0 ] unsigned char 
;;  counter         1    5[BANK0 ] unsigned char 
;; Return value:  Size  Location     Type
;;                  2    0[BANK0 ] int 
;; Registers used:
;;		wreg, status,2, status,0
;; Tracked objects:
;;		On entry : 0/0
;;		On exit  : 0/0
;;		Unchanged: 0/0
;; Data sizes:     COMMON   BANK0   BANK1   BANK3   BANK2
;;      Params:         0       4       0       0       0
;;      Locals:         0       2       0       0       0
;;      Temps:          0       1       0       0       0
;;      Totals:         0       7       0       0       0
;;Total ram usage:        7 bytes
;; Hardware stack levels used:    1
;; Hardware stack levels required when called:    3
;; This function calls:
;;		Nothing
;; This function is called by:
;;		_UpdateDisplay
;; This function uses a non-reentrant model
;;
psect	text1145
	file	"C:\Program Files\HI-TECH Software\PICC\9.83\sources\awmod.c"
	line	5
	global	__size_of___awmod
	__size_of___awmod	equ	__end_of___awmod-___awmod
	
___awmod:	
	opt	stack 2
; Regs used in ___awmod: [wreg+status,2+status,0]
	line	8
	
l10953:	
	bcf	status, 5	;RP0=0, select bank0
	bcf	status, 6	;RP1=0, select bank0
	clrf	(___awmod@sign)
	line	9
	btfss	(___awmod@dividend+1),7
	goto	u4701
	goto	u4700
u4701:
	goto	l10957
u4700:
	line	10
	
l10955:	
	comf	(___awmod@dividend),f
	comf	(___awmod@dividend+1),f
	incf	(___awmod@dividend),f
	skipnz
	incf	(___awmod@dividend+1),f
	line	11
	clrf	(___awmod@sign)
	bsf	status,0
	rlf	(___awmod@sign),f
	goto	l10957
	line	12
	
l7703:	
	line	13
	
l10957:	
	btfss	(___awmod@divisor+1),7
	goto	u4711
	goto	u4710
u4711:
	goto	l10961
u4710:
	line	14
	
l10959:	
	comf	(___awmod@divisor),f
	comf	(___awmod@divisor+1),f
	incf	(___awmod@divisor),f
	skipnz
	incf	(___awmod@divisor+1),f
	goto	l10961
	
l7704:	
	line	15
	
l10961:	
	movf	(___awmod@divisor+1),w
	iorwf	(___awmod@divisor),w
	skipnz
	goto	u4721
	goto	u4720
u4721:
	goto	l10979
u4720:
	line	16
	
l10963:	
	clrf	(___awmod@counter)
	bsf	status,0
	rlf	(___awmod@counter),f
	line	17
	goto	l10969
	
l7707:	
	line	18
	
l10965:	
	movlw	01h
	
u4735:
	clrc
	rlf	(___awmod@divisor),f
	rlf	(___awmod@divisor+1),f
	addlw	-1
	skipz
	goto	u4735
	line	19
	
l10967:	
	movlw	(01h)
	movwf	(??___awmod+0)+0
	movf	(??___awmod+0)+0,w
	addwf	(___awmod@counter),f
	goto	l10969
	line	20
	
l7706:	
	line	17
	
l10969:	
	btfss	(___awmod@divisor+1),(15)&7
	goto	u4741
	goto	u4740
u4741:
	goto	l10965
u4740:
	goto	l10971
	
l7708:	
	goto	l10971
	line	21
	
l7709:	
	line	22
	
l10971:	
	movf	(___awmod@divisor+1),w
	subwf	(___awmod@dividend+1),w
	skipz
	goto	u4755
	movf	(___awmod@divisor),w
	subwf	(___awmod@dividend),w
u4755:
	skipc
	goto	u4751
	goto	u4750
u4751:
	goto	l10975
u4750:
	line	23
	
l10973:	
	movf	(___awmod@divisor),w
	subwf	(___awmod@dividend),f
	movf	(___awmod@divisor+1),w
	skipc
	decf	(___awmod@dividend+1),f
	subwf	(___awmod@dividend+1),f
	goto	l10975
	
l7710:	
	line	24
	
l10975:	
	movlw	01h
	
u4765:
	clrc
	rrf	(___awmod@divisor+1),f
	rrf	(___awmod@divisor),f
	addlw	-1
	skipz
	goto	u4765
	line	25
	
l10977:	
	movlw	low(01h)
	subwf	(___awmod@counter),f
	btfss	status,2
	goto	u4771
	goto	u4770
u4771:
	goto	l10971
u4770:
	goto	l10979
	
l7711:	
	goto	l10979
	line	26
	
l7705:	
	line	27
	
l10979:	
	movf	(___awmod@sign),w
	skipz
	goto	u4780
	goto	l10983
u4780:
	line	28
	
l10981:	
	comf	(___awmod@dividend),f
	comf	(___awmod@dividend+1),f
	incf	(___awmod@dividend),f
	skipnz
	incf	(___awmod@dividend+1),f
	goto	l10983
	
l7712:	
	line	29
	
l10983:	
	movf	(___awmod@dividend+1),w
	clrf	(?___awmod+1)
	addwf	(?___awmod+1)
	movf	(___awmod@dividend),w
	clrf	(?___awmod)
	addwf	(?___awmod)

	goto	l7713
	
l10985:	
	line	30
	
l7713:	
	return
	opt stack 0
GLOBAL	__end_of___awmod
	__end_of___awmod:
;; =============== function ___awmod ends ============

	signat	___awmod,8314
	global	___ftge
psect	text1146,local,class=CODE,delta=2
global __ptext1146
__ptext1146:

;; *************** function ___ftge *****************
;; Defined at:
;;		line 5 in file "C:\Program Files\HI-TECH Software\PICC\9.83\sources\ftge.c"
;; Parameters:    Size  Location     Type
;;  ff1             3    0[BANK0 ] float 
;;  ff2             3    3[BANK0 ] float 
;; Auto vars:     Size  Location     Type
;;		None
;; Return value:  Size  Location     Type
;;		None               void
;; Registers used:
;;		wreg, status,2, status,0
;; Tracked objects:
;;		On entry : 0/0
;;		On exit  : 0/0
;;		Unchanged: 0/0
;; Data sizes:     COMMON   BANK0   BANK1   BANK3   BANK2
;;      Params:         0       6       0       0       0
;;      Locals:         0       0       0       0       0
;;      Temps:          0       6       0       0       0
;;      Totals:         0      12       0       0       0
;;Total ram usage:       12 bytes
;; Hardware stack levels used:    1
;; Hardware stack levels required when called:    3
;; This function calls:
;;		Nothing
;; This function is called by:
;;		_robotMoveSpeed
;; This function uses a non-reentrant model
;;
psect	text1146
	file	"C:\Program Files\HI-TECH Software\PICC\9.83\sources\ftge.c"
	line	5
	global	__size_of___ftge
	__size_of___ftge	equ	__end_of___ftge-___ftge
	
___ftge:	
	opt	stack 3
; Regs used in ___ftge: [wreg+status,2+status,0]
	line	6
	
l10933:	
	bcf	status, 5	;RP0=0, select bank0
	bcf	status, 6	;RP1=0, select bank0
	btfss	(___ftge@ff1+2),(23)&7
	goto	u4651
	goto	u4650
u4651:
	goto	l10937
u4650:
	line	7
	
l10935:	
	movlw	0
	movwf	((??___ftge+0)+0)
	movlw	0
	movwf	((??___ftge+0)+0+1)
	movlw	080h
	movwf	((??___ftge+0)+0+2)
	comf	(___ftge@ff1),w
	movwf	(??___ftge+3)+0
	comf	(___ftge@ff1+1),w
	movwf	((??___ftge+3)+0+1)
	comf	(___ftge@ff1+2),w
	movwf	((??___ftge+3)+0+2)
	incf	(??___ftge+3)+0,f
	skipnz
	incf	((??___ftge+3)+0+1),f
	skipnz
	incf	((??___ftge+3)+0+2),f
	movf	0+(??___ftge+3)+0,w
	addwf	(??___ftge+0)+0,f
	movf	1+(??___ftge+3)+0,w
	skipnc
	incfsz	1+(??___ftge+3)+0,w
	goto	u4661
	goto	u4662
u4661:
	addwf	(??___ftge+0)+1,f
	
u4662:
	movf	2+(??___ftge+3)+0,w
	skipnc
	incfsz	2+(??___ftge+3)+0,w
	goto	u4663
	goto	u4664
u4663:
	addwf	(??___ftge+0)+2,f
	
u4664:
	movf	0+(??___ftge+0)+0,w
	movwf	(___ftge@ff1)
	movf	1+(??___ftge+0)+0,w
	movwf	(___ftge@ff1+1)
	movf	2+(??___ftge+0)+0,w
	movwf	(___ftge@ff1+2)
	goto	l10937
	
l7662:	
	line	8
	
l10937:	
	btfss	(___ftge@ff2+2),(23)&7
	goto	u4671
	goto	u4670
u4671:
	goto	l10941
u4670:
	line	9
	
l10939:	
	movlw	0
	movwf	((??___ftge+0)+0)
	movlw	0
	movwf	((??___ftge+0)+0+1)
	movlw	080h
	movwf	((??___ftge+0)+0+2)
	comf	(___ftge@ff2),w
	movwf	(??___ftge+3)+0
	comf	(___ftge@ff2+1),w
	movwf	((??___ftge+3)+0+1)
	comf	(___ftge@ff2+2),w
	movwf	((??___ftge+3)+0+2)
	incf	(??___ftge+3)+0,f
	skipnz
	incf	((??___ftge+3)+0+1),f
	skipnz
	incf	((??___ftge+3)+0+2),f
	movf	0+(??___ftge+3)+0,w
	addwf	(??___ftge+0)+0,f
	movf	1+(??___ftge+3)+0,w
	skipnc
	incfsz	1+(??___ftge+3)+0,w
	goto	u4681
	goto	u4682
u4681:
	addwf	(??___ftge+0)+1,f
	
u4682:
	movf	2+(??___ftge+3)+0,w
	skipnc
	incfsz	2+(??___ftge+3)+0,w
	goto	u4683
	goto	u4684
u4683:
	addwf	(??___ftge+0)+2,f
	
u4684:
	movf	0+(??___ftge+0)+0,w
	movwf	(___ftge@ff2)
	movf	1+(??___ftge+0)+0,w
	movwf	(___ftge@ff2+1)
	movf	2+(??___ftge+0)+0,w
	movwf	(___ftge@ff2+2)
	goto	l10941
	
l7663:	
	line	10
	
l10941:	
	movlw	080h
	xorwf	(___ftge@ff1+2),f
	line	11
	
l10943:	
	movlw	080h
	xorwf	(___ftge@ff2+2),f
	line	12
	
l10945:	
	movf	(___ftge@ff2+2),w
	subwf	(___ftge@ff1+2),w
	skipz
	goto	u4695
	movf	(___ftge@ff2+1),w
	subwf	(___ftge@ff1+1),w
	skipz
	goto	u4695
	movf	(___ftge@ff2),w
	subwf	(___ftge@ff1),w
u4695:
	skipnc
	goto	u4691
	goto	u4690
u4691:
	goto	l10949
u4690:
	
l10947:	
	clrc
	
	goto	l7664
	
l10411:	
	
l10949:	
	setc
	
	goto	l7664
	
l10413:	
	goto	l7664
	
l10951:	
	line	13
	
l7664:	
	return
	opt stack 0
GLOBAL	__end_of___ftge
	__end_of___ftge:
;; =============== function ___ftge ends ============

	signat	___ftge,8312
	global	___fttol
psect	text1147,local,class=CODE,delta=2
global __ptext1147
__ptext1147:

;; *************** function ___fttol *****************
;; Defined at:
;;		line 45 in file "C:\Program Files\HI-TECH Software\PICC\9.83\sources\fttol.c"
;; Parameters:    Size  Location     Type
;;  f1              3    8[BANK0 ] float 
;; Auto vars:     Size  Location     Type
;;  lval            4   17[BANK0 ] unsigned long 
;;  exp1            1   21[BANK0 ] unsigned char 
;;  sign1           1   16[BANK0 ] unsigned char 
;; Return value:  Size  Location     Type
;;                  4    8[BANK0 ] long 
;; Registers used:
;;		wreg, status,2, status,0
;; Tracked objects:
;;		On entry : 0/0
;;		On exit  : 0/0
;;		Unchanged: 0/0
;; Data sizes:     COMMON   BANK0   BANK1   BANK3   BANK2
;;      Params:         0       4       0       0       0
;;      Locals:         0       6       0       0       0
;;      Temps:          0       4       0       0       0
;;      Totals:         0      14       0       0       0
;;Total ram usage:       14 bytes
;; Hardware stack levels used:    1
;; Hardware stack levels required when called:    3
;; This function calls:
;;		Nothing
;; This function is called by:
;;		_main
;;		_robotMoveSpeed
;; This function uses a non-reentrant model
;;
psect	text1147
	file	"C:\Program Files\HI-TECH Software\PICC\9.83\sources\fttol.c"
	line	45
	global	__size_of___fttol
	__size_of___fttol	equ	__end_of___fttol-___fttol
	
___fttol:	
	opt	stack 4
; Regs used in ___fttol: [wreg+status,2+status,0]
	line	49
	
l10877:	
	bcf	status, 5	;RP0=0, select bank0
	bcf	status, 6	;RP1=0, select bank0
	movf	(___fttol@f1),w
	movwf	((??___fttol+0)+0)
	movf	(___fttol@f1+1),w
	movwf	((??___fttol+0)+0+1)
	movf	(___fttol@f1+2),w
	movwf	((??___fttol+0)+0+2)
	clrc
	rlf	(??___fttol+0)+1,w
	rlf	(??___fttol+0)+2,w
	movwf	(??___fttol+3)+0
	movf	(??___fttol+3)+0,w
	movwf	(___fttol@exp1)
	movf	((___fttol@exp1)),f
	skipz
	goto	u4541
	goto	u4540
u4541:
	goto	l10883
u4540:
	line	50
	
l10879:	
	movlw	0
	movwf	(?___fttol+3)
	movlw	0
	movwf	(?___fttol+2)
	movlw	0
	movwf	(?___fttol+1)
	movlw	0
	movwf	(?___fttol)

	goto	l7605
	
l10881:	
	goto	l7605
	
l7604:	
	line	51
	
l10883:	
	movf	(___fttol@f1),w
	movwf	((??___fttol+0)+0)
	movf	(___fttol@f1+1),w
	movwf	((??___fttol+0)+0+1)
	movf	(___fttol@f1+2),w
	movwf	((??___fttol+0)+0+2)
	movlw	017h
u4555:
	clrc
	rrf	(??___fttol+0)+2,f
	rrf	(??___fttol+0)+1,f
	rrf	(??___fttol+0)+0,f
u4550:
	addlw	-1
	skipz
	goto	u4555
	movf	0+(??___fttol+0)+0,w
	movwf	(??___fttol+3)+0
	movf	(??___fttol+3)+0,w
	movwf	(___fttol@sign1)
	line	52
	
l10885:	
	bsf	(___fttol@f1)+(15/8),(15)&7
	line	53
	
l10887:	
	movlw	0FFh
	andwf	(___fttol@f1),f
	movlw	0FFh
	andwf	(___fttol@f1+1),f
	movlw	0
	andwf	(___fttol@f1+2),f
	line	54
	
l10889:	
	movf	(___fttol@f1),w
	movwf	(___fttol@lval)
	movf	(___fttol@f1+1),w
	movwf	((___fttol@lval))+1
	movf	(___fttol@f1+2),w
	movwf	((___fttol@lval))+2
	clrf	((___fttol@lval))+3
	line	55
	
l10891:	
	movlw	low(08Eh)
	subwf	(___fttol@exp1),f
	line	56
	
l10893:	
	btfss	(___fttol@exp1),7
	goto	u4561
	goto	u4560
u4561:
	goto	l10903
u4560:
	line	57
	
l10895:	
	movf	(___fttol@exp1),w
	xorlw	80h
	addlw	-((-15)^80h)
	skipnc
	goto	u4571
	goto	u4570
u4571:
	goto	l10901
u4570:
	line	58
	
l10897:	
	movlw	0
	movwf	(?___fttol+3)
	movlw	0
	movwf	(?___fttol+2)
	movlw	0
	movwf	(?___fttol+1)
	movlw	0
	movwf	(?___fttol)

	goto	l7605
	
l10899:	
	goto	l7605
	
l7607:	
	goto	l10901
	line	59
	
l7608:	
	line	60
	
l10901:	
	movlw	01h
u4585:
	clrc
	rrf	(___fttol@lval+3),f
	rrf	(___fttol@lval+2),f
	rrf	(___fttol@lval+1),f
	rrf	(___fttol@lval),f
	addlw	-1
	skipz
	goto	u4585

	line	61
	movlw	(01h)
	movwf	(??___fttol+0)+0
	movf	(??___fttol+0)+0,w
	addwf	(___fttol@exp1),f
	btfss	status,2
	goto	u4591
	goto	u4590
u4591:
	goto	l10901
u4590:
	goto	l10913
	
l7609:	
	line	62
	goto	l10913
	
l7606:	
	line	63
	
l10903:	
	movlw	(018h)
	subwf	(___fttol@exp1),w
	skipc
	goto	u4601
	goto	u4600
u4601:
	goto	l10911
u4600:
	line	64
	
l10905:	
	movlw	0
	movwf	(?___fttol+3)
	movlw	0
	movwf	(?___fttol+2)
	movlw	0
	movwf	(?___fttol+1)
	movlw	0
	movwf	(?___fttol)

	goto	l7605
	
l10907:	
	goto	l7605
	
l7611:	
	line	65
	goto	l10911
	
l7613:	
	line	66
	
l10909:	
	movlw	01h
	movwf	(??___fttol+0)+0
u4615:
	clrc
	rlf	(___fttol@lval),f
	rlf	(___fttol@lval+1),f
	rlf	(___fttol@lval+2),f
	rlf	(___fttol@lval+3),f
	decfsz	(??___fttol+0)+0
	goto	u4615
	line	67
	movlw	low(01h)
	subwf	(___fttol@exp1),f
	goto	l10911
	line	68
	
l7612:	
	line	65
	
l10911:	
	movf	(___fttol@exp1),f
	skipz
	goto	u4621
	goto	u4620
u4621:
	goto	l10909
u4620:
	goto	l10913
	
l7614:	
	goto	l10913
	line	69
	
l7610:	
	line	70
	
l10913:	
	movf	(___fttol@sign1),w
	skipz
	goto	u4630
	goto	l10917
u4630:
	line	71
	
l10915:	
	comf	(___fttol@lval),f
	comf	(___fttol@lval+1),f
	comf	(___fttol@lval+2),f
	comf	(___fttol@lval+3),f
	incf	(___fttol@lval),f
	skipnz
	incf	(___fttol@lval+1),f
	skipnz
	incf	(___fttol@lval+2),f
	skipnz
	incf	(___fttol@lval+3),f
	goto	l10917
	
l7615:	
	line	72
	
l10917:	
	movf	(___fttol@lval+3),w
	movwf	(?___fttol+3)
	movf	(___fttol@lval+2),w
	movwf	(?___fttol+2)
	movf	(___fttol@lval+1),w
	movwf	(?___fttol+1)
	movf	(___fttol@lval),w
	movwf	(?___fttol)

	goto	l7605
	
l10919:	
	line	73
	
l7605:	
	return
	opt stack 0
GLOBAL	__end_of___fttol
	__end_of___fttol:
;; =============== function ___fttol ends ============

	signat	___fttol,4220
	global	___ftpack
psect	text1148,local,class=CODE,delta=2
global __ptext1148
__ptext1148:

;; *************** function ___ftpack *****************
;; Defined at:
;;		line 63 in file "C:\Program Files\HI-TECH Software\PICC\9.83\sources\float.c"
;; Parameters:    Size  Location     Type
;;  arg             3    0[BANK0 ] unsigned um
;;  exp             1    3[BANK0 ] unsigned char 
;;  sign            1    4[BANK0 ] unsigned char 
;; Auto vars:     Size  Location     Type
;;		None
;; Return value:  Size  Location     Type
;;                  3    0[BANK0 ] float 
;; Registers used:
;;		wreg, status,2, status,0
;; Tracked objects:
;;		On entry : 0/0
;;		On exit  : 0/0
;;		Unchanged: 0/0
;; Data sizes:     COMMON   BANK0   BANK1   BANK3   BANK2
;;      Params:         0       5       0       0       0
;;      Locals:         0       0       0       0       0
;;      Temps:          0       3       0       0       0
;;      Totals:         0       8       0       0       0
;;Total ram usage:        8 bytes
;; Hardware stack levels used:    1
;; Hardware stack levels required when called:    3
;; This function calls:
;;		Nothing
;; This function is called by:
;;		___ftdiv
;;		___ftmul
;;		___awtoft
;;		___ftadd
;;		___lbtoft
;;		___abtoft
;;		___lwtoft
;;		___altoft
;;		___lltoft
;;		___attoft
;;		___lttoft
;; This function uses a non-reentrant model
;;
psect	text1148
	file	"C:\Program Files\HI-TECH Software\PICC\9.83\sources\float.c"
	line	63
	global	__size_of___ftpack
	__size_of___ftpack	equ	__end_of___ftpack-___ftpack
	
___ftpack:	
	opt	stack 3
; Regs used in ___ftpack: [wreg+status,2+status,0]
	line	64
	
l10841:	
	bcf	status, 5	;RP0=0, select bank0
	bcf	status, 6	;RP1=0, select bank0
	movf	(___ftpack@exp),w
	skipz
	goto	u4430
	goto	l10845
u4430:
	
l10843:	
	movf	(___ftpack@arg+2),w
	iorwf	(___ftpack@arg+1),w
	iorwf	(___ftpack@arg),w
	skipz
	goto	u4441
	goto	u4440
u4441:
	goto	l10851
u4440:
	goto	l10845
	
l7829:	
	line	65
	
l10845:	
	movlw	0x0
	movwf	(?___ftpack)
	movlw	0x0
	movwf	(?___ftpack+1)
	movlw	0x0
	movwf	(?___ftpack+2)
	goto	l7830
	
l10847:	
	goto	l7830
	
l7827:	
	line	66
	goto	l10851
	
l7832:	
	line	67
	
l10849:	
	movlw	(01h)
	movwf	(??___ftpack+0)+0
	movf	(??___ftpack+0)+0,w
	addwf	(___ftpack@exp),f
	line	68
	movlw	01h
u4455:
	clrc
	rrf	(___ftpack@arg+2),f
	rrf	(___ftpack@arg+1),f
	rrf	(___ftpack@arg),f
	addlw	-1
	skipz
	goto	u4455

	goto	l10851
	line	69
	
l7831:	
	line	66
	
l10851:	
	movlw	low highword(0FE0000h)
	andwf	(___ftpack@arg+2),w
	btfss	status,2
	goto	u4461
	goto	u4460
u4461:
	goto	l10849
u4460:
	goto	l7834
	
l7833:	
	line	70
	goto	l7834
	
l7835:	
	line	71
	
l10853:	
	movlw	(01h)
	movwf	(??___ftpack+0)+0
	movf	(??___ftpack+0)+0,w
	addwf	(___ftpack@exp),f
	line	72
	
l10855:	
	movlw	01h
	addwf	(___ftpack@arg),f
	movlw	0
	skipnc
movlw 1
	addwf	(___ftpack@arg+1),f
	movlw	0
	skipnc
movlw 1
	addwf	(___ftpack@arg+2),f
	line	73
	
l10857:	
	movlw	01h
u4475:
	clrc
	rrf	(___ftpack@arg+2),f
	rrf	(___ftpack@arg+1),f
	rrf	(___ftpack@arg),f
	addlw	-1
	skipz
	goto	u4475

	line	74
	
l7834:	
	line	70
	movlw	low highword(0FF0000h)
	andwf	(___ftpack@arg+2),w
	btfss	status,2
	goto	u4481
	goto	u4480
u4481:
	goto	l10853
u4480:
	goto	l10861
	
l7836:	
	line	75
	goto	l10861
	
l7838:	
	line	76
	
l10859:	
	movlw	low(01h)
	subwf	(___ftpack@exp),f
	line	77
	movlw	01h
u4495:
	clrc
	rlf	(___ftpack@arg),f
	rlf	(___ftpack@arg+1),f
	rlf	(___ftpack@arg+2),f
	addlw	-1
	skipz
	goto	u4495
	goto	l10861
	line	78
	
l7837:	
	line	75
	
l10861:	
	btfss	(___ftpack@arg+1),(15)&7
	goto	u4501
	goto	u4500
u4501:
	goto	l10859
u4500:
	
l7839:	
	line	79
	btfsc	(___ftpack@exp),(0)&7
	goto	u4511
	goto	u4510
u4511:
	goto	l7840
u4510:
	line	80
	
l10863:	
	movlw	0FFh
	andwf	(___ftpack@arg),f
	movlw	07Fh
	andwf	(___ftpack@arg+1),f
	movlw	0FFh
	andwf	(___ftpack@arg+2),f
	
l7840:	
	line	81
	clrc
	rrf	(___ftpack@exp),f

	line	82
	
l10865:	
	movf	(___ftpack@exp),w
	movwf	((??___ftpack+0)+0)
	clrf	((??___ftpack+0)+0+1)
	clrf	((??___ftpack+0)+0+2)
	movlw	010h
u4525:
	clrc
	rlf	(??___ftpack+0)+0,f
	rlf	(??___ftpack+0)+1,f
	rlf	(??___ftpack+0)+2,f
u4520:
	addlw	-1
	skipz
	goto	u4525
	movf	0+(??___ftpack+0)+0,w
	iorwf	(___ftpack@arg),f
	movf	1+(??___ftpack+0)+0,w
	iorwf	(___ftpack@arg+1),f
	movf	2+(??___ftpack+0)+0,w
	iorwf	(___ftpack@arg+2),f
	line	83
	
l10867:	
	movf	(___ftpack@sign),w
	skipz
	goto	u4530
	goto	l7841
u4530:
	line	84
	
l10869:	
	bsf	(___ftpack@arg)+(23/8),(23)&7
	
l7841:	
	line	85
	line	86
	
l7830:	
	return
	opt stack 0
GLOBAL	__end_of___ftpack
	__end_of___ftpack:
;; =============== function ___ftpack ends ============

	signat	___ftpack,12411
	global	___lwmod
psect	text1149,local,class=CODE,delta=2
global __ptext1149
__ptext1149:

;; *************** function ___lwmod *****************
;; Defined at:
;;		line 5 in file "C:\Program Files\HI-TECH Software\PICC\9.83\sources\lwmod.c"
;; Parameters:    Size  Location     Type
;;  divisor         2   14[BANK0 ] unsigned int 
;;  dividend        2   16[BANK0 ] unsigned int 
;; Auto vars:     Size  Location     Type
;;  counter         1   19[BANK0 ] unsigned char 
;; Return value:  Size  Location     Type
;;                  2   14[BANK0 ] unsigned int 
;; Registers used:
;;		wreg, status,2, status,0
;; Tracked objects:
;;		On entry : 0/0
;;		On exit  : 0/0
;;		Unchanged: 0/0
;; Data sizes:     COMMON   BANK0   BANK1   BANK3   BANK2
;;      Params:         0       4       0       0       0
;;      Locals:         0       1       0       0       0
;;      Temps:          0       1       0       0       0
;;      Totals:         0       6       0       0       0
;;Total ram usage:        6 bytes
;; Hardware stack levels used:    1
;; Hardware stack levels required when called:    3
;; This function calls:
;;		Nothing
;; This function is called by:
;;		_sprintf
;; This function uses a non-reentrant model
;;
psect	text1149
	file	"C:\Program Files\HI-TECH Software\PICC\9.83\sources\lwmod.c"
	line	5
	global	__size_of___lwmod
	__size_of___lwmod	equ	__end_of___lwmod-___lwmod
	
___lwmod:	
	opt	stack 1
; Regs used in ___lwmod: [wreg+status,2+status,0]
	line	8
	
l10749:	
	bcf	status, 5	;RP0=0, select bank0
	bcf	status, 6	;RP1=0, select bank0
	movf	(___lwmod@divisor+1),w
	iorwf	(___lwmod@divisor),w
	skipnz
	goto	u4131
	goto	u4130
u4131:
	goto	l10767
u4130:
	line	9
	
l10751:	
	clrf	(___lwmod@counter)
	bsf	status,0
	rlf	(___lwmod@counter),f
	line	10
	goto	l10757
	
l7513:	
	line	11
	
l10753:	
	movlw	01h
	
u4145:
	clrc
	rlf	(___lwmod@divisor),f
	rlf	(___lwmod@divisor+1),f
	addlw	-1
	skipz
	goto	u4145
	line	12
	
l10755:	
	movlw	(01h)
	movwf	(??___lwmod+0)+0
	movf	(??___lwmod+0)+0,w
	addwf	(___lwmod@counter),f
	goto	l10757
	line	13
	
l7512:	
	line	10
	
l10757:	
	btfss	(___lwmod@divisor+1),(15)&7
	goto	u4151
	goto	u4150
u4151:
	goto	l10753
u4150:
	goto	l10759
	
l7514:	
	goto	l10759
	line	14
	
l7515:	
	line	15
	
l10759:	
	movf	(___lwmod@divisor+1),w
	subwf	(___lwmod@dividend+1),w
	skipz
	goto	u4165
	movf	(___lwmod@divisor),w
	subwf	(___lwmod@dividend),w
u4165:
	skipc
	goto	u4161
	goto	u4160
u4161:
	goto	l10763
u4160:
	line	16
	
l10761:	
	movf	(___lwmod@divisor),w
	subwf	(___lwmod@dividend),f
	movf	(___lwmod@divisor+1),w
	skipc
	decf	(___lwmod@dividend+1),f
	subwf	(___lwmod@dividend+1),f
	goto	l10763
	
l7516:	
	line	17
	
l10763:	
	movlw	01h
	
u4175:
	clrc
	rrf	(___lwmod@divisor+1),f
	rrf	(___lwmod@divisor),f
	addlw	-1
	skipz
	goto	u4175
	line	18
	
l10765:	
	movlw	low(01h)
	subwf	(___lwmod@counter),f
	btfss	status,2
	goto	u4181
	goto	u4180
u4181:
	goto	l10759
u4180:
	goto	l10767
	
l7517:	
	goto	l10767
	line	19
	
l7511:	
	line	20
	
l10767:	
	movf	(___lwmod@dividend+1),w
	clrf	(?___lwmod+1)
	addwf	(?___lwmod+1)
	movf	(___lwmod@dividend),w
	clrf	(?___lwmod)
	addwf	(?___lwmod)

	goto	l7518
	
l10769:	
	line	21
	
l7518:	
	return
	opt stack 0
GLOBAL	__end_of___lwmod
	__end_of___lwmod:
;; =============== function ___lwmod ends ============

	signat	___lwmod,8314
	global	___lwdiv
psect	text1150,local,class=CODE,delta=2
global __ptext1150
__ptext1150:

;; *************** function ___lwdiv *****************
;; Defined at:
;;		line 5 in file "C:\Program Files\HI-TECH Software\PICC\9.83\sources\lwdiv.c"
;; Parameters:    Size  Location     Type
;;  divisor         2    6[BANK0 ] unsigned int 
;;  dividend        2    8[BANK0 ] unsigned int 
;; Auto vars:     Size  Location     Type
;;  quotient        2   11[BANK0 ] unsigned int 
;;  counter         1   13[BANK0 ] unsigned char 
;; Return value:  Size  Location     Type
;;                  2    6[BANK0 ] unsigned int 
;; Registers used:
;;		wreg, status,2, status,0
;; Tracked objects:
;;		On entry : 0/0
;;		On exit  : 0/0
;;		Unchanged: 0/0
;; Data sizes:     COMMON   BANK0   BANK1   BANK3   BANK2
;;      Params:         0       4       0       0       0
;;      Locals:         0       3       0       0       0
;;      Temps:          0       1       0       0       0
;;      Totals:         0       8       0       0       0
;;Total ram usage:        8 bytes
;; Hardware stack levels used:    1
;; Hardware stack levels required when called:    3
;; This function calls:
;;		Nothing
;; This function is called by:
;;		_readAvgDistance
;;		_ADCconvert
;;		_sprintf
;; This function uses a non-reentrant model
;;
psect	text1150
	file	"C:\Program Files\HI-TECH Software\PICC\9.83\sources\lwdiv.c"
	line	5
	global	__size_of___lwdiv
	__size_of___lwdiv	equ	__end_of___lwdiv-___lwdiv
	
___lwdiv:	
	opt	stack 1
; Regs used in ___lwdiv: [wreg+status,2+status,0]
	line	9
	
l10723:	
	bcf	status, 5	;RP0=0, select bank0
	bcf	status, 6	;RP1=0, select bank0
	clrf	(___lwdiv@quotient)
	clrf	(___lwdiv@quotient+1)
	line	10
	
l10725:	
	movf	(___lwdiv@divisor+1),w
	iorwf	(___lwdiv@divisor),w
	skipnz
	goto	u4061
	goto	u4060
u4061:
	goto	l10745
u4060:
	line	11
	
l10727:	
	clrf	(___lwdiv@counter)
	bsf	status,0
	rlf	(___lwdiv@counter),f
	line	12
	goto	l10733
	
l7503:	
	line	13
	
l10729:	
	movlw	01h
	
u4075:
	clrc
	rlf	(___lwdiv@divisor),f
	rlf	(___lwdiv@divisor+1),f
	addlw	-1
	skipz
	goto	u4075
	line	14
	
l10731:	
	movlw	(01h)
	movwf	(??___lwdiv+0)+0
	movf	(??___lwdiv+0)+0,w
	addwf	(___lwdiv@counter),f
	goto	l10733
	line	15
	
l7502:	
	line	12
	
l10733:	
	btfss	(___lwdiv@divisor+1),(15)&7
	goto	u4081
	goto	u4080
u4081:
	goto	l10729
u4080:
	goto	l10735
	
l7504:	
	goto	l10735
	line	16
	
l7505:	
	line	17
	
l10735:	
	movlw	01h
	
u4095:
	clrc
	rlf	(___lwdiv@quotient),f
	rlf	(___lwdiv@quotient+1),f
	addlw	-1
	skipz
	goto	u4095
	line	18
	movf	(___lwdiv@divisor+1),w
	subwf	(___lwdiv@dividend+1),w
	skipz
	goto	u4105
	movf	(___lwdiv@divisor),w
	subwf	(___lwdiv@dividend),w
u4105:
	skipc
	goto	u4101
	goto	u4100
u4101:
	goto	l10741
u4100:
	line	19
	
l10737:	
	movf	(___lwdiv@divisor),w
	subwf	(___lwdiv@dividend),f
	movf	(___lwdiv@divisor+1),w
	skipc
	decf	(___lwdiv@dividend+1),f
	subwf	(___lwdiv@dividend+1),f
	line	20
	
l10739:	
	bsf	(___lwdiv@quotient)+(0/8),(0)&7
	goto	l10741
	line	21
	
l7506:	
	line	22
	
l10741:	
	movlw	01h
	
u4115:
	clrc
	rrf	(___lwdiv@divisor+1),f
	rrf	(___lwdiv@divisor),f
	addlw	-1
	skipz
	goto	u4115
	line	23
	
l10743:	
	movlw	low(01h)
	subwf	(___lwdiv@counter),f
	btfss	status,2
	goto	u4121
	goto	u4120
u4121:
	goto	l10735
u4120:
	goto	l10745
	
l7507:	
	goto	l10745
	line	24
	
l7501:	
	line	25
	
l10745:	
	movf	(___lwdiv@quotient+1),w
	clrf	(?___lwdiv+1)
	addwf	(?___lwdiv+1)
	movf	(___lwdiv@quotient),w
	clrf	(?___lwdiv)
	addwf	(?___lwdiv)

	goto	l7508
	
l10747:	
	line	26
	
l7508:	
	return
	opt stack 0
GLOBAL	__end_of___lwdiv
	__end_of___lwdiv:
;; =============== function ___lwdiv ends ============

	signat	___lwdiv,8314
	global	___wmul
psect	text1151,local,class=CODE,delta=2
global __ptext1151
__ptext1151:

;; *************** function ___wmul *****************
;; Defined at:
;;		line 3 in file "C:\Program Files\HI-TECH Software\PICC\9.83\sources\wmul.c"
;; Parameters:    Size  Location     Type
;;  multiplier      2    0[BANK0 ] unsigned int 
;;  multiplicand    2    2[BANK0 ] unsigned int 
;; Auto vars:     Size  Location     Type
;;  product         2    4[BANK0 ] unsigned int 
;; Return value:  Size  Location     Type
;;                  2    0[BANK0 ] unsigned int 
;; Registers used:
;;		wreg, status,2, status,0
;; Tracked objects:
;;		On entry : 0/0
;;		On exit  : 0/0
;;		Unchanged: 0/0
;; Data sizes:     COMMON   BANK0   BANK1   BANK3   BANK2
;;      Params:         0       4       0       0       0
;;      Locals:         0       2       0       0       0
;;      Temps:          0       0       0       0       0
;;      Totals:         0       6       0       0       0
;;Total ram usage:        6 bytes
;; Hardware stack levels used:    1
;; Hardware stack levels required when called:    3
;; This function calls:
;;		Nothing
;; This function is called by:
;;		_ADCconvert
;;		_abs
;; This function uses a non-reentrant model
;;
psect	text1151
	file	"C:\Program Files\HI-TECH Software\PICC\9.83\sources\wmul.c"
	line	3
	global	__size_of___wmul
	__size_of___wmul	equ	__end_of___wmul-___wmul
	
___wmul:	
	opt	stack 2
; Regs used in ___wmul: [wreg+status,2+status,0]
	line	4
	
l10711:	
	bcf	status, 5	;RP0=0, select bank0
	bcf	status, 6	;RP1=0, select bank0
	clrf	(___wmul@product)
	clrf	(___wmul@product+1)
	goto	l10713
	line	6
	
l7495:	
	line	7
	
l10713:	
	btfss	(___wmul@multiplier),(0)&7
	goto	u4021
	goto	u4020
u4021:
	goto	l7496
u4020:
	line	8
	
l10715:	
	movf	(___wmul@multiplicand),w
	addwf	(___wmul@product),f
	skipnc
	incf	(___wmul@product+1),f
	movf	(___wmul@multiplicand+1),w
	addwf	(___wmul@product+1),f
	
l7496:	
	line	9
	movlw	01h
	
u4035:
	clrc
	rlf	(___wmul@multiplicand),f
	rlf	(___wmul@multiplicand+1),f
	addlw	-1
	skipz
	goto	u4035
	line	10
	
l10717:	
	movlw	01h
	
u4045:
	clrc
	rrf	(___wmul@multiplier+1),f
	rrf	(___wmul@multiplier),f
	addlw	-1
	skipz
	goto	u4045
	line	11
	movf	((___wmul@multiplier+1)),w
	iorwf	((___wmul@multiplier)),w
	skipz
	goto	u4051
	goto	u4050
u4051:
	goto	l10713
u4050:
	goto	l10719
	
l7497:	
	line	12
	
l10719:	
	movf	(___wmul@product+1),w
	clrf	(?___wmul+1)
	addwf	(?___wmul+1)
	movf	(___wmul@product),w
	clrf	(?___wmul)
	addwf	(?___wmul)

	goto	l7498
	
l10721:	
	line	13
	
l7498:	
	return
	opt stack 0
GLOBAL	__end_of___wmul
	__end_of___wmul:
;; =============== function ___wmul ends ============

	signat	___wmul,8314
	global	_ser_isrx
psect	text1152,local,class=CODE,delta=2
global __ptext1152
__ptext1152:

;; *************** function _ser_isrx *****************
;; Defined at:
;;		line 45 in file "E:\Aldnoah.Zero\Assignment3\ser.c"
;; Parameters:    Size  Location     Type
;;		None
;; Auto vars:     Size  Location     Type
;;		None
;; Return value:  Size  Location     Type
;;		None               void
;; Registers used:
;;		wreg, status,2, status,0
;; Tracked objects:
;;		On entry : 0/0
;;		On exit  : 0/0
;;		Unchanged: 0/0
;; Data sizes:     COMMON   BANK0   BANK1   BANK3   BANK2
;;      Params:         0       0       0       0       0
;;      Locals:         0       0       0       0       0
;;      Temps:          0       0       0       0       0
;;      Totals:         0       0       0       0       0
;;Total ram usage:        0 bytes
;; Hardware stack levels used:    1
;; Hardware stack levels required when called:    3
;; This function calls:
;;		Nothing
;; This function is called by:
;;		_ser_getch
;; This function uses a non-reentrant model
;;
psect	text1152
	file	"E:\Aldnoah.Zero\Assignment3\ser.c"
	line	45
	global	__size_of_ser_isrx
	__size_of_ser_isrx	equ	__end_of_ser_isrx-_ser_isrx
	
_ser_isrx:	
	opt	stack 1
; Regs used in _ser_isrx: [wreg+status,2+status,0]
	line	46
	
l10663:	
;ser.c: 46: if(OERR) {
	bcf	status, 5	;RP0=0, select bank0
	bcf	status, 6	;RP1=0, select bank0
	btfss	(193/8),(193)&7
	goto	u3951
	goto	u3950
u3951:
	goto	l10671
u3950:
	line	47
	
l10665:	
;ser.c: 47: CREN = 0;
	bcf	(196/8),(196)&7
	line	48
;ser.c: 48: CREN = 1;
	bsf	(196/8),(196)&7
	line	49
	
l10667:	
;ser.c: 49: return 0;
	clrc
	
	goto	l6750
	
l10669:	
	goto	l6750
	line	50
	
l6749:	
	line	51
	
l10671:	
;ser.c: 50: }
;ser.c: 51: return (rxiptr!=rxoptr);
	movf	(_rxiptr),w	;volatile
	xorwf	(_rxoptr),w	;volatile
	skipz
	goto	u3961
	goto	u3960
u3961:
	goto	l10675
u3960:
	
l10673:	
	clrc
	
	goto	l6750
	
l10421:	
	
l10675:	
	setc
	
	goto	l6750
	
l10423:	
	goto	l6750
	
l10677:	
	line	52
	
l6750:	
	return
	opt stack 0
GLOBAL	__end_of_ser_isrx
	__end_of_ser_isrx:
;; =============== function _ser_isrx ends ============

	signat	_ser_isrx,88
	global	_spi_transfer
psect	text1153,local,class=CODE,delta=2
global __ptext1153
__ptext1153:

;; *************** function _spi_transfer *****************
;; Defined at:
;;		line 50 in file "E:\Aldnoah.Zero\Assignment3\steppermotor.c"
;; Parameters:    Size  Location     Type
;;  data            1    wreg     unsigned char 
;; Auto vars:     Size  Location     Type
;;  data            1    2[BANK0 ] unsigned char 
;;  temp            1    1[BANK0 ] unsigned char 
;; Return value:  Size  Location     Type
;;                  1    wreg      unsigned char 
;; Registers used:
;;		wreg
;; Tracked objects:
;;		On entry : 0/0
;;		On exit  : 0/0
;;		Unchanged: 0/0
;; Data sizes:     COMMON   BANK0   BANK1   BANK3   BANK2
;;      Params:         0       0       0       0       0
;;      Locals:         0       2       0       0       0
;;      Temps:          0       1       0       0       0
;;      Totals:         0       3       0       0       0
;;Total ram usage:        3 bytes
;; Hardware stack levels used:    1
;; Hardware stack levels required when called:    3
;; This function calls:
;;		Nothing
;; This function is called by:
;;		_rotate
;; This function uses a non-reentrant model
;;
psect	text1153
	file	"E:\Aldnoah.Zero\Assignment3\steppermotor.c"
	line	50
	global	__size_of_spi_transfer
	__size_of_spi_transfer	equ	__end_of_spi_transfer-_spi_transfer
	
_spi_transfer:	
	opt	stack 3
; Regs used in _spi_transfer: [wreg]
;spi_transfer@data stored from wreg
	bcf	status, 5	;RP0=0, select bank0
	bcf	status, 6	;RP1=0, select bank0
	movwf	(spi_transfer@data)
	line	51
	
l10611:	
;steppermotor.c: 51: unsigned char temp = 0;
	clrf	(spi_transfer@temp)
	line	53
;steppermotor.c: 53: SSPIF = 0;
	bcf	(99/8),(99)&7
	line	54
	
l10613:	
;steppermotor.c: 54: SSPBUF = data;
	movf	(spi_transfer@data),w
	movwf	(19)	;volatile
	line	56
;steppermotor.c: 56: while (SSPIF == 0);
	goto	l3711
	
l3712:	
	
l3711:	
	btfss	(99/8),(99)&7
	goto	u3791
	goto	u3790
u3791:
	goto	l3711
u3790:
	goto	l10615
	
l3713:	
	line	57
	
l10615:	
;steppermotor.c: 57: temp = SSPBUF;
	movf	(19),w	;volatile
	movwf	(??_spi_transfer+0)+0
	movf	(??_spi_transfer+0)+0,w
	movwf	(spi_transfer@temp)
	line	58
	
l10617:	
;steppermotor.c: 58: SSPIF = 0;
	bcf	(99/8),(99)&7
	goto	l3714
	line	60
	
l10619:	
	line	61
;steppermotor.c: 60: return temp;
;	Return value of _spi_transfer is never used
	
l3714:	
	return
	opt stack 0
GLOBAL	__end_of_spi_transfer
	__end_of_spi_transfer:
;; =============== function _spi_transfer ends ============

	signat	_spi_transfer,4217
	global	_ser_putch
psect	text1154,local,class=CODE,delta=2
global __ptext1154
__ptext1154:

;; *************** function _ser_putch *****************
;; Defined at:
;;		line 70 in file "E:\Aldnoah.Zero\Assignment3\ser.c"
;; Parameters:    Size  Location     Type
;;  c               1    wreg     unsigned char 
;; Auto vars:     Size  Location     Type
;;  c               1    1[BANK0 ] unsigned char 
;; Return value:  Size  Location     Type
;;		None               void
;; Registers used:
;;		wreg, fsr0l, fsr0h, status,2, status,0
;; Tracked objects:
;;		On entry : 0/0
;;		On exit  : 0/0
;;		Unchanged: 0/0
;; Data sizes:     COMMON   BANK0   BANK1   BANK3   BANK2
;;      Params:         0       0       0       0       0
;;      Locals:         0       1       0       0       0
;;      Temps:          0       1       0       0       0
;;      Totals:         0       2       0       0       0
;;Total ram usage:        2 bytes
;; Hardware stack levels used:    1
;; Hardware stack levels required when called:    3
;; This function calls:
;;		Nothing
;; This function is called by:
;;		_ChargeMode
;;		_robo_init
;;		_robot_read
;;		_RobotDrive
;;		_robotTurn
;;		_ser_puts
;;		_ser_puts2
;;		_ser_puthex
;; This function uses a non-reentrant model
;;
psect	text1154
	file	"E:\Aldnoah.Zero\Assignment3\ser.c"
	line	70
	global	__size_of_ser_putch
	__size_of_ser_putch	equ	__end_of_ser_putch-_ser_putch
	
_ser_putch:	
	opt	stack 3
; Regs used in _ser_putch: [wreg-fsr0h+status,2+status,0]
;ser_putch@c stored from wreg
	bcf	status, 5	;RP0=0, select bank0
	bcf	status, 6	;RP1=0, select bank0
	movwf	(ser_putch@c)
	line	71
	
l10599:	
;ser.c: 71: while (((txiptr+1) & (16-1))==txoptr)
	goto	l10601
	
l6760:	
	line	72
;ser.c: 72: continue;
	goto	l10601
	
l6759:	
	line	71
	
l10601:	
	movf	(_txiptr),w	;volatile
	addlw	01h
	andlw	0Fh
	xorwf	(_txoptr),w	;volatile
	skipnz
	goto	u3781
	goto	u3780
u3781:
	goto	l10601
u3780:
	
l6761:	
	line	73
;ser.c: 73: GIE=0;
	bcf	(95/8),(95)&7
	line	74
	
l10603:	
;ser.c: 74: txfifo[txiptr] = c;
	movf	(ser_putch@c),w
	movwf	(??_ser_putch+0)+0
	movf	(_txiptr),w
	addlw	_txfifo&0ffh
	movwf	fsr0
	movf	(??_ser_putch+0)+0,w
	bsf	status, 7	;select IRP bank3
	movwf	indf
	line	75
	
l10605:	
;ser.c: 75: txiptr=(txiptr+1) & (16-1);
	movf	(_txiptr),w	;volatile
	addlw	01h
	andlw	0Fh
	movwf	(??_ser_putch+0)+0
	movf	(??_ser_putch+0)+0,w
	movwf	(_txiptr)	;volatile
	line	76
	
l10607:	
;ser.c: 76: TXIE=1;
	bsf	status, 5	;RP0=1, select bank1
	bcf	status, 6	;RP1=0, select bank1
	bsf	(1124/8)^080h,(1124)&7
	line	77
	
l10609:	
;ser.c: 77: GIE=1;
	bsf	(95/8),(95)&7
	line	78
	
l6762:	
	return
	opt stack 0
GLOBAL	__end_of_ser_putch
	__end_of_ser_putch:
;; =============== function _ser_putch ends ============

	signat	_ser_putch,4216
	global	_Menu
psect	text1155,local,class=CODE,delta=2
global __ptext1155
__ptext1155:

;; *************** function _Menu *****************
;; Defined at:
;;		line 201 in file "E:\Aldnoah.Zero\Assignment3\HMI.c"
;; Parameters:    Size  Location     Type
;;  BTN_input       1    wreg     unsigned char 
;; Auto vars:     Size  Location     Type
;;  BTN_input       1    0[BANK0 ] unsigned char 
;; Return value:  Size  Location     Type
;;                  1    wreg      unsigned char 
;; Registers used:
;;		wreg, fsr0l, fsr0h, status,2, status,0
;; Tracked objects:
;;		On entry : 0/0
;;		On exit  : 0/0
;;		Unchanged: 0/0
;; Data sizes:     COMMON   BANK0   BANK1   BANK3   BANK2
;;      Params:         0       0       0       0       0
;;      Locals:         0       1       0       0       0
;;      Temps:          0       0       0       0       0
;;      Totals:         0       1       0       0       0
;;Total ram usage:        1 bytes
;; Hardware stack levels used:    1
;; Hardware stack levels required when called:    3
;; This function calls:
;;		Nothing
;; This function is called by:
;;		_main
;; This function uses a non-reentrant model
;;
psect	text1155
	file	"E:\Aldnoah.Zero\Assignment3\HMI.c"
	line	201
	global	__size_of_Menu
	__size_of_Menu	equ	__end_of_Menu-_Menu
	
_Menu:	
	opt	stack 4
; Regs used in _Menu: [wreg-fsr0h+status,2+status,0]
;Menu@BTN_input stored from wreg
	bcf	status, 5	;RP0=0, select bank0
	bcf	status, 6	;RP1=0, select bank0
	movwf	(Menu@BTN_input)
	line	202
	
l10575:	
;HMI.c: 202: switch (BTN_input)
	goto	l10593
	line	204
;HMI.c: 203: {
;HMI.c: 204: case 1:
	
l4518:	
	line	206
;HMI.c: 206: break;
	goto	l10595
	line	207
;HMI.c: 207: case 2:
	
l4520:	
	line	209
;HMI.c: 209: break;
	goto	l10595
	line	210
;HMI.c: 210: case 3:
	
l4521:	
	line	211
	
l10577:	
;HMI.c: 211: pos--;
	movlw	low(-1)
	bsf	status, 5	;RP0=1, select bank1
	bcf	status, 6	;RP1=0, select bank1
	addwf	(_pos)^080h,f
	skipnc
	incf	(_pos+1)^080h,f
	movlw	high(-1)
	addwf	(_pos+1)^080h,f
	line	212
	
l10579:	
;HMI.c: 212: if (pos < 0)
	btfss	(_pos+1)^080h,7
	goto	u3761
	goto	u3760
u3761:
	goto	l10595
u3760:
	line	213
	
l10581:	
;HMI.c: 213: pos = 6 - 1;
	movlw	low(05h)
	movwf	(_pos)^080h
	movlw	high(05h)
	movwf	((_pos)^080h)+1
	goto	l10595
	
l4522:	
	line	215
;HMI.c: 215: break;
	goto	l10595
	line	216
;HMI.c: 216: case 4:
	
l4523:	
	line	217
	
l10583:	
;HMI.c: 217: pos++;
	movlw	low(01h)
	bsf	status, 5	;RP0=1, select bank1
	bcf	status, 6	;RP1=0, select bank1
	addwf	(_pos)^080h,f
	skipnc
	incf	(_pos+1)^080h,f
	movlw	high(01h)
	addwf	(_pos+1)^080h,f
	line	218
;HMI.c: 218: if (pos == 6)
	movlw	06h
	xorwf	(_pos)^080h,w
	iorwf	(_pos+1)^080h,w
	skipz
	goto	u3771
	goto	u3770
u3771:
	goto	l10595
u3770:
	line	219
	
l10585:	
;HMI.c: 219: pos = 0;
	clrf	(_pos)^080h
	clrf	(_pos+1)^080h
	goto	l10595
	
l4524:	
	line	221
;HMI.c: 221: break;
	goto	l10595
	line	222
;HMI.c: 222: case 5:
	
l4525:	
	line	223
	
l10587:	
;HMI.c: 223: return pos;
	bsf	status, 5	;RP0=1, select bank1
	bcf	status, 6	;RP1=0, select bank1
	movf	(_pos)^080h,w
	goto	l4526
	
l10589:	
	goto	l4526
	line	226
;HMI.c: 226: default:
	
l4527:	
	line	228
;HMI.c: 228: break;
	goto	l10595
	line	229
	
l10591:	
;HMI.c: 229: }
	goto	l10595
	line	202
	
l4517:	
	
l10593:	
	bcf	status, 5	;RP0=0, select bank0
	movf	(Menu@BTN_input),w
	; Switch size 1, requested type "space"
; Number of cases is 5, Range of values is 1 to 5
; switch strategies available:
; Name         Instructions Cycles
; simple_byte           16     9 (average)
; direct_byte           26    11 (fixed)
; jumptable            263     9 (fixed)
;	Chosen strategy is simple_byte

	opt asmopt_off
	xorlw	1^0	; case 1
	skipnz
	goto	l10595
	xorlw	2^1	; case 2
	skipnz
	goto	l10595
	xorlw	3^2	; case 3
	skipnz
	goto	l10577
	xorlw	4^3	; case 4
	skipnz
	goto	l10583
	xorlw	5^4	; case 5
	skipnz
	goto	l10587
	goto	l10595
	opt asmopt_on

	line	229
	
l4519:	
	line	230
	
l10595:	
;HMI.c: 230: return 255;
	movlw	(0FFh)
	goto	l4526
	
l10597:	
	line	231
	
l4526:	
	return
	opt stack 0
GLOBAL	__end_of_Menu
	__end_of_Menu:
;; =============== function _Menu ends ============

	signat	_Menu,4217
	global	_ser_init
psect	text1156,local,class=CODE,delta=2
global __ptext1156
__ptext1156:

;; *************** function _ser_init *****************
;; Defined at:
;;		line 113 in file "E:\Aldnoah.Zero\Assignment3\ser.c"
;; Parameters:    Size  Location     Type
;;		None
;; Auto vars:     Size  Location     Type
;;		None
;; Return value:  Size  Location     Type
;;		None               void
;; Registers used:
;;		wreg, status,2, status,0
;; Tracked objects:
;;		On entry : 0/0
;;		On exit  : 0/0
;;		Unchanged: 0/0
;; Data sizes:     COMMON   BANK0   BANK1   BANK3   BANK2
;;      Params:         0       0       0       0       0
;;      Locals:         0       0       0       0       0
;;      Temps:          0       1       0       0       0
;;      Totals:         0       1       0       0       0
;;Total ram usage:        1 bytes
;; Hardware stack levels used:    1
;; Hardware stack levels required when called:    3
;; This function calls:
;;		Nothing
;; This function is called by:
;;		_init
;; This function uses a non-reentrant model
;;
psect	text1156
	file	"E:\Aldnoah.Zero\Assignment3\ser.c"
	line	113
	global	__size_of_ser_init
	__size_of_ser_init	equ	__end_of_ser_init-_ser_init
	
_ser_init:	
	opt	stack 3
; Regs used in _ser_init: [wreg+status,2+status,0]
	line	114
	
l10549:	
;ser.c: 114: TRISC |= 0b10000000;
	bsf	status, 5	;RP0=1, select bank1
	bcf	status, 6	;RP1=0, select bank1
	bsf	(135)^080h+(7/8),(7)&7	;volatile
	line	115
	
l10551:	
;ser.c: 115: TRISC &= 0b10111111;
	movlw	(0BFh)
	bcf	status, 5	;RP0=0, select bank0
	bcf	status, 6	;RP1=0, select bank0
	movwf	(??_ser_init+0)+0
	movf	(??_ser_init+0)+0,w
	bsf	status, 5	;RP0=1, select bank1
	bcf	status, 6	;RP1=0, select bank1
	andwf	(135)^080h,f	;volatile
	line	116
	
l10553:	
;ser.c: 116: BRGH=1;
	bsf	(1218/8)^080h,(1218)&7
	line	118
	
l10555:	
;ser.c: 118: SPBRG=20;
	movlw	(014h)
	movwf	(153)^080h	;volatile
	line	121
	
l10557:	
;ser.c: 121: TX9=0;
	bcf	(1222/8)^080h,(1222)&7
	line	122
	
l10559:	
;ser.c: 122: RX9=0;
	bcf	status, 5	;RP0=0, select bank0
	bcf	status, 6	;RP1=0, select bank0
	bcf	(198/8),(198)&7
	line	124
	
l10561:	
;ser.c: 124: SYNC=0;
	bsf	status, 5	;RP0=1, select bank1
	bcf	status, 6	;RP1=0, select bank1
	bcf	(1220/8)^080h,(1220)&7
	line	125
	
l10563:	
;ser.c: 125: SPEN=1;
	bcf	status, 5	;RP0=0, select bank0
	bcf	status, 6	;RP1=0, select bank0
	bsf	(199/8),(199)&7
	line	126
	
l10565:	
;ser.c: 126: CREN=1;
	bsf	(196/8),(196)&7
	line	127
	
l10567:	
;ser.c: 127: TXIE=0;
	bsf	status, 5	;RP0=1, select bank1
	bcf	status, 6	;RP1=0, select bank1
	bcf	(1124/8)^080h,(1124)&7
	line	128
	
l10569:	
;ser.c: 128: RCIE=1;
	bsf	(1125/8)^080h,(1125)&7
	line	129
	
l10571:	
;ser.c: 129: TXEN=1;
	bsf	(1221/8)^080h,(1221)&7
	line	132
	
l10573:	
;ser.c: 132: rxiptr=rxoptr=txiptr=txoptr=0;
	movlw	(0)
	bcf	status, 5	;RP0=0, select bank0
	bcf	status, 6	;RP1=0, select bank0
	movwf	(_txoptr)	;volatile
	movwf	(_txiptr)	;volatile
	movwf	(_rxoptr)	;volatile
	movwf	(??_ser_init+0)+0
	movf	(??_ser_init+0)+0,w
	movwf	(_rxiptr)	;volatile
	line	133
	
l6784:	
	return
	opt stack 0
GLOBAL	__end_of_ser_init
	__end_of_ser_init:
;; =============== function _ser_init ends ============

	signat	_ser_init,88
	global	_adc_read
psect	text1157,local,class=CODE,delta=2
global __ptext1157
__ptext1157:

;; *************** function _adc_read *****************
;; Defined at:
;;		line 76 in file "E:\Aldnoah.Zero\Assignment3\adc.c"
;; Parameters:    Size  Location     Type
;;		None
;; Auto vars:     Size  Location     Type
;;  adc_value       2    4[BANK0 ] volatile unsigned int 
;; Return value:  Size  Location     Type
;;                  2    0[BANK0 ] unsigned int 
;; Registers used:
;;		wreg, status,2, status,0
;; Tracked objects:
;;		On entry : 0/0
;;		On exit  : 0/0
;;		Unchanged: 0/0
;; Data sizes:     COMMON   BANK0   BANK1   BANK3   BANK2
;;      Params:         0       2       0       0       0
;;      Locals:         0       2       0       0       0
;;      Temps:          0       2       0       0       0
;;      Totals:         0       6       0       0       0
;;Total ram usage:        6 bytes
;; Hardware stack levels used:    1
;; Hardware stack levels required when called:    3
;; This function calls:
;;		Nothing
;; This function is called by:
;;		_adc_read_channel
;; This function uses a non-reentrant model
;;
psect	text1157
	file	"E:\Aldnoah.Zero\Assignment3\adc.c"
	line	76
	global	__size_of_adc_read
	__size_of_adc_read	equ	__end_of_adc_read-_adc_read
	
_adc_read:	
	opt	stack 0
; Regs used in _adc_read: [wreg+status,2+status,0]
	line	79
	
l10429:	
;adc.c: 77: volatile unsigned int adc_value;
;adc.c: 79: ADRESH = 0;
	bcf	status, 5	;RP0=0, select bank0
	bcf	status, 6	;RP1=0, select bank0
	clrf	(30)	;volatile
	line	81
	
l10431:	
;adc.c: 81: GO = 1;
	bsf	(250/8),(250)&7
	line	82
;adc.c: 82: while(GO) continue;
	goto	l703
	
l704:	
	
l703:	
	btfsc	(250/8),(250)&7
	goto	u3571
	goto	u3570
u3571:
	goto	l703
u3570:
	
l705:	
	line	83
# 83 "E:\Aldnoah.Zero\Assignment3\adc.c"
nop ;#
	line	84
# 84 "E:\Aldnoah.Zero\Assignment3\adc.c"
nop ;#
	line	85
# 85 "E:\Aldnoah.Zero\Assignment3\adc.c"
nop ;#
psect	text1157
	line	88
	
l10433:	
;adc.c: 88: adc_value = ADRESH;
	bcf	status, 5	;RP0=0, select bank0
	bcf	status, 6	;RP1=0, select bank0
	movf	(30),w	;volatile
	movwf	(??_adc_read+0)+0
	clrf	(??_adc_read+0)+0+1
	movf	0+(??_adc_read+0)+0,w
	movwf	(adc_read@adc_value)	;volatile
	movf	1+(??_adc_read+0)+0,w
	movwf	(adc_read@adc_value+1)	;volatile
	line	89
;adc.c: 89: adc_value <<= 1;
	movlw	01h
	
u3585:
	clrc
	rlf	(adc_read@adc_value),f	;volatile
	rlf	(adc_read@adc_value+1),f	;volatile
	addlw	-1
	skipz
	goto	u3585
	line	90
;adc.c: 90: adc_value |= (ADRESL >> 15);
	bsf	status, 5	;RP0=1, select bank1
	bcf	status, 6	;RP1=0, select bank1
	movf	(158)^080h,w	;volatile
	line	93
	
l10435:	
;adc.c: 93: return (adc_value);
	bcf	status, 5	;RP0=0, select bank0
	bcf	status, 6	;RP1=0, select bank0
	movf	(adc_read@adc_value+1),w	;volatile
	clrf	(?_adc_read+1)
	addwf	(?_adc_read+1)
	movf	(adc_read@adc_value),w	;volatile
	clrf	(?_adc_read)
	addwf	(?_adc_read)

	goto	l706
	
l10437:	
	line	94
	
l706:	
	return
	opt stack 0
GLOBAL	__end_of_adc_read
	__end_of_adc_read:
;; =============== function _adc_read ends ============

	signat	_adc_read,90
	global	_isr1
psect	text1158,local,class=CODE,delta=2
global __ptext1158
__ptext1158:

;; *************** function _isr1 *****************
;; Defined at:
;;		line 109 in file "E:\Aldnoah.Zero\Assignment3\Main.c"
;; Parameters:    Size  Location     Type
;;		None
;; Auto vars:     Size  Location     Type
;;		None
;; Return value:  Size  Location     Type
;;		None               void
;; Registers used:
;;		wreg, fsr0l, fsr0h, fsr1l, fsr1h, status,2, status,0, btemp+1, pclath, cstack
;; Tracked objects:
;;		On entry : 0/0
;;		On exit  : 0/0
;;		Unchanged: 0/0
;; Data sizes:     COMMON   BANK0   BANK1   BANK3   BANK2
;;      Params:         0       0       0       0       0
;;      Locals:         0       0       0       0       0
;;      Temps:          5       0       0       0       0
;;      Totals:         5       0       0       0       0
;;Total ram usage:        5 bytes
;; Hardware stack levels used:    1
;; Hardware stack levels required when called:    2
;; This function calls:
;;		i1___lwmod
;;		_ReadButtons
;; This function is called by:
;;		Interrupt level 1
;; This function uses a non-reentrant model
;;
psect	text1158
	file	"E:\Aldnoah.Zero\Assignment3\Main.c"
	line	109
	global	__size_of_isr1
	__size_of_isr1	equ	__end_of_isr1-_isr1
	
_isr1:	
	opt	stack 0
; Regs used in _isr1: [allreg]
psect	intentry,class=CODE,delta=2
global __pintentry
__pintentry:
global interrupt_function
interrupt_function:
	global saved_w
	saved_w	set	btemp+0
	movwf	saved_w
	swapf	status,w
	movwf	(??_isr1+1)
	movf	fsr0,w
	movwf	(??_isr1+2)
	movf	pclath,w
	movwf	(??_isr1+3)
	bcf	status, 5	;RP0=0, select bank0
	bcf	status, 6	;RP1=0, select bank0
	movf	btemp+1,w
	movwf	(??_isr1+4)
	ljmp	_isr1
psect	text1158
	line	110
	
i1l10465:	
;Main.c: 110: if(TMR0IF)
	btfss	(90/8),(90)&7
	goto	u362_21
	goto	u362_20
u362_21:
	goto	i1l10487
u362_20:
	line	112
	
i1l10467:	
;Main.c: 111: {
;Main.c: 112: TMR0IF = 0;
	bcf	(90/8),(90)&7
	line	113
	
i1l10469:	
;Main.c: 113: TMR0 = 100;
	movlw	(064h)
	movwf	(1)	;volatile
	line	115
;Main.c: 115: RTC_Counter++;
	movlw	low(01h)
	bsf	status, 5	;RP0=1, select bank1
	bcf	status, 6	;RP1=0, select bank1
	addwf	(_RTC_Counter)^080h,f	;volatile
	skipnc
	incf	(_RTC_Counter+1)^080h,f	;volatile
	movlw	high(01h)
	addwf	(_RTC_Counter+1)^080h,f	;volatile
	line	118
	
i1l10471:	
;Main.c: 118: RTC_FLAG_1MS = 1;
	bsf	(_RTC_FLAG_1MS/8),(_RTC_FLAG_1MS)&7
	line	119
	
i1l10473:	
;Main.c: 119: if(RTC_Counter % 250 == 0)
	movlw	low(0FAh)
	movwf	(?i1___lwmod)
	movlw	high(0FAh)
	movwf	((?i1___lwmod))+1
	movf	(_RTC_Counter+1)^080h,w	;volatile
	clrf	1+(?i1___lwmod)+02h
	addwf	1+(?i1___lwmod)+02h
	movf	(_RTC_Counter)^080h,w	;volatile
	clrf	0+(?i1___lwmod)+02h
	addwf	0+(?i1___lwmod)+02h

	fcall	i1___lwmod
	movf	((1+(?i1___lwmod))),w
	iorwf	((0+(?i1___lwmod))),w
	skipz
	goto	u363_21
	goto	u363_20
u363_21:
	goto	i1l10477
u363_20:
	line	121
	
i1l10475:	
;Main.c: 120: {
;Main.c: 121: RTC_FLAG_250MS = 1;
	bsf	(_RTC_FLAG_250MS/8),(_RTC_FLAG_250MS)&7
	goto	i1l10477
	line	122
	
i1l2217:	
	line	123
	
i1l10477:	
;Main.c: 122: }
;Main.c: 123: if(RTC_Counter % 500 == 0)
	movlw	low(01F4h)
	movwf	(?i1___lwmod)
	movlw	high(01F4h)
	movwf	((?i1___lwmod))+1
	bsf	status, 5	;RP0=1, select bank1
	bcf	status, 6	;RP1=0, select bank1
	movf	(_RTC_Counter+1)^080h,w	;volatile
	clrf	1+(?i1___lwmod)+02h
	addwf	1+(?i1___lwmod)+02h
	movf	(_RTC_Counter)^080h,w	;volatile
	clrf	0+(?i1___lwmod)+02h
	addwf	0+(?i1___lwmod)+02h

	fcall	i1___lwmod
	movf	((1+(?i1___lwmod))),w
	iorwf	((0+(?i1___lwmod))),w
	skipz
	goto	u364_21
	goto	u364_20
u364_21:
	goto	i1l10483
u364_20:
	line	125
	
i1l10479:	
;Main.c: 124: {
;Main.c: 125: RTC_FLAG_500MS = 1;
	bsf	(_RTC_FLAG_500MS/8),(_RTC_FLAG_500MS)&7
	line	126
	
i1l10481:	
;Main.c: 126: RB0 ^= 0x01;
	bcf	status, 5	;RP0=0, select bank0
	bcf	status, 6	;RP1=0, select bank0
	movlw	1<<((48)&7)
	xorwf	((48)/8),f
	goto	i1l10483
	line	127
	
i1l2218:	
	line	128
	
i1l10483:	
;Main.c: 127: }
;Main.c: 128: if (buttonPressed == 0)
	movf	(_buttonPressed),f
	skipz	;volatile
	goto	u365_21
	goto	u365_20
u365_21:
	goto	i1l10487
u365_20:
	line	130
	
i1l10485:	
;Main.c: 129: {
;Main.c: 130: buttonPressed = ReadButtons();
	fcall	_ReadButtons
	movwf	(??_isr1+0)+0
	movf	(??_isr1+0)+0,w
	movwf	(_buttonPressed)	;volatile
	goto	i1l10487
	line	131
	
i1l2219:	
	goto	i1l10487
	line	132
	
i1l2216:	
	line	133
	
i1l10487:	
;Main.c: 131: }
;Main.c: 132: }
;Main.c: 133: if (RCIF) { rxfifo[rxiptr]=RCREG; ser_tmp=(rxiptr+1) & (16-1); if (ser_tmp!=rxoptr) rxiptr=ser_tmp; } if (TXIF && TXIE) { TXREG = txfifo[txoptr]; ++txoptr; txoptr &= (16-1); if (txoptr==txiptr) { TXIE = 0; } };
	bcf	status, 5	;RP0=0, select bank0
	bcf	status, 6	;RP1=0, select bank0
	btfss	(101/8),(101)&7
	goto	u366_21
	goto	u366_20
u366_21:
	goto	i1l10497
u366_20:
	
i1l10489:	
	movf	(26),w	;volatile
	movwf	(??_isr1+0)+0
	movf	(_rxiptr),w
	addlw	_rxfifo&0ffh
	movwf	fsr0
	movf	(??_isr1+0)+0,w
	bcf	status, 7	;select IRP bank1
	movwf	indf
	
i1l10491:	
	movf	(_rxiptr),w	;volatile
	addlw	01h
	andlw	0Fh
	movwf	(??_isr1+0)+0
	movf	(??_isr1+0)+0,w
	bsf	status, 5	;RP0=1, select bank1
	bcf	status, 6	;RP1=0, select bank1
	movwf	(_ser_tmp)^080h
	
i1l10493:	
	movf	(_ser_tmp)^080h,w
	bcf	status, 5	;RP0=0, select bank0
	bcf	status, 6	;RP1=0, select bank0
	xorwf	(_rxoptr),w	;volatile
	skipnz
	goto	u367_21
	goto	u367_20
u367_21:
	goto	i1l10497
u367_20:
	
i1l10495:	
	bsf	status, 5	;RP0=1, select bank1
	bcf	status, 6	;RP1=0, select bank1
	movf	(_ser_tmp)^080h,w
	movwf	(??_isr1+0)+0
	movf	(??_isr1+0)+0,w
	bcf	status, 5	;RP0=0, select bank0
	bcf	status, 6	;RP1=0, select bank0
	movwf	(_rxiptr)	;volatile
	goto	i1l10497
	
i1l2221:	
	goto	i1l10497
	
i1l2220:	
	
i1l10497:	
	btfss	(100/8),(100)&7
	goto	u368_21
	goto	u368_20
u368_21:
	goto	i1l2224
u368_20:
	
i1l10499:	
	bsf	status, 5	;RP0=1, select bank1
	bcf	status, 6	;RP1=0, select bank1
	btfss	(1124/8)^080h,(1124)&7
	goto	u369_21
	goto	u369_20
u369_21:
	goto	i1l2224
u369_20:
	
i1l10501:	
	bcf	status, 5	;RP0=0, select bank0
	bcf	status, 6	;RP1=0, select bank0
	movf	(_txoptr),w
	addlw	_txfifo&0ffh
	movwf	fsr0
	bsf	status, 7	;select IRP bank3
	movf	indf,w
	movwf	(25)	;volatile
	
i1l10503:	
	movlw	(01h)
	movwf	(??_isr1+0)+0
	movf	(??_isr1+0)+0,w
	addwf	(_txoptr),f	;volatile
	
i1l10505:	
	movlw	(0Fh)
	movwf	(??_isr1+0)+0
	movf	(??_isr1+0)+0,w
	andwf	(_txoptr),f	;volatile
	
i1l10507:	
	movf	(_txoptr),w	;volatile
	xorwf	(_txiptr),w	;volatile
	skipz
	goto	u370_21
	goto	u370_20
u370_21:
	goto	i1l2224
u370_20:
	
i1l10509:	
	bsf	status, 5	;RP0=1, select bank1
	bcf	status, 6	;RP1=0, select bank1
	bcf	(1124/8)^080h,(1124)&7
	goto	i1l2224
	
i1l2223:	
	goto	i1l2224
	
i1l2222:	
	line	134
	
i1l2224:	
	movf	(??_isr1+4),w
	bcf	status, 5	;RP0=0, select bank0
	movwf	btemp+1
	movf	(??_isr1+3),w
	movwf	pclath
	movf	(??_isr1+2),w
	movwf	fsr0
	swapf	(??_isr1+1)^0FFFFFF80h,w
	movwf	status
	swapf	saved_w,f
	swapf	saved_w,w
	retfie
	opt stack 0
GLOBAL	__end_of_isr1
	__end_of_isr1:
;; =============== function _isr1 ends ============

	signat	_isr1,88
	global	_ReadButtons
psect	text1159,local,class=CODE,delta=2
global __ptext1159
__ptext1159:

;; *************** function _ReadButtons *****************
;; Defined at:
;;		line 159 in file "E:\Aldnoah.Zero\Assignment3\HMI.c"
;; Parameters:    Size  Location     Type
;;		None
;; Auto vars:     Size  Location     Type
;;		None
;; Return value:  Size  Location     Type
;;                  1    wreg      unsigned char 
;; Registers used:
;;		wreg, status,2, status,0, pclath, cstack
;; Tracked objects:
;;		On entry : 0/0
;;		On exit  : 0/0
;;		Unchanged: 0/0
;; Data sizes:     COMMON   BANK0   BANK1   BANK3   BANK2
;;      Params:         0       0       0       0       0
;;      Locals:         0       0       0       0       0
;;      Temps:          0       0       0       0       0
;;      Totals:         0       0       0       0       0
;;Total ram usage:        0 bytes
;; Hardware stack levels used:    1
;; Hardware stack levels required when called:    1
;; This function calls:
;;		_Debounce
;; This function is called by:
;;		_isr1
;; This function uses a non-reentrant model
;;
psect	text1159
	file	"E:\Aldnoah.Zero\Assignment3\HMI.c"
	line	159
	global	__size_of_ReadButtons
	__size_of_ReadButtons	equ	__end_of_ReadButtons-_ReadButtons
	
_ReadButtons:	
	opt	stack 0
; Regs used in _ReadButtons: [wreg+status,2+status,0+pclath+cstack]
	line	161
	
i1l10511:	
;HMI.c: 161: Debounce();
	fcall	_Debounce
	line	163
	
i1l10513:	
;HMI.c: 163: if(UpPressed)
	btfss	(_UpPressed/8),(_UpPressed)&7
	goto	u371_21
	goto	u371_20
u371_21:
	goto	i1l4509
u371_20:
	line	165
	
i1l10515:	
;HMI.c: 164: {
;HMI.c: 165: UpPressed = 0;
	bcf	(_UpPressed/8),(_UpPressed)&7
	line	166
	
i1l10517:	
;HMI.c: 166: return 1;
	movlw	(01h)
	goto	i1l4510
	
i1l10519:	
	goto	i1l4510
	line	168
	
i1l4509:	
	line	170
;HMI.c: 168: }
;HMI.c: 170: if(DownPressed)
	btfss	(_DownPressed/8),(_DownPressed)&7
	goto	u372_21
	goto	u372_20
u372_21:
	goto	i1l4511
u372_20:
	line	172
	
i1l10521:	
;HMI.c: 171: {
;HMI.c: 172: DownPressed = 0;
	bcf	(_DownPressed/8),(_DownPressed)&7
	line	173
	
i1l10523:	
;HMI.c: 173: return 2;
	movlw	(02h)
	goto	i1l4510
	
i1l10525:	
	goto	i1l4510
	line	175
	
i1l4511:	
	line	176
;HMI.c: 175: }
;HMI.c: 176: if(LeftPressed)
	btfss	(_LeftPressed/8),(_LeftPressed)&7
	goto	u373_21
	goto	u373_20
u373_21:
	goto	i1l4512
u373_20:
	line	178
	
i1l10527:	
;HMI.c: 177: {
;HMI.c: 178: LeftPressed = 0;
	bcf	(_LeftPressed/8),(_LeftPressed)&7
	line	179
	
i1l10529:	
;HMI.c: 179: return 3;
	movlw	(03h)
	goto	i1l4510
	
i1l10531:	
	goto	i1l4510
	line	181
	
i1l4512:	
	line	182
;HMI.c: 181: }
;HMI.c: 182: if(RightPressed)
	btfss	(_RightPressed/8),(_RightPressed)&7
	goto	u374_21
	goto	u374_20
u374_21:
	goto	i1l4513
u374_20:
	line	184
	
i1l10533:	
;HMI.c: 183: {
;HMI.c: 184: RightPressed = 0;
	bcf	(_RightPressed/8),(_RightPressed)&7
	line	185
	
i1l10535:	
;HMI.c: 185: return 4;
	movlw	(04h)
	goto	i1l4510
	
i1l10537:	
	goto	i1l4510
	line	187
	
i1l4513:	
	line	189
;HMI.c: 187: }
;HMI.c: 189: if(CenterPressed)
	btfss	(_CenterPressed/8),(_CenterPressed)&7
	goto	u375_21
	goto	u375_20
u375_21:
	goto	i1l10545
u375_20:
	line	191
	
i1l10539:	
;HMI.c: 190: {
;HMI.c: 191: CenterPressed = 0;
	bcf	(_CenterPressed/8),(_CenterPressed)&7
	line	192
	
i1l10541:	
;HMI.c: 192: return 5;
	movlw	(05h)
	goto	i1l4510
	
i1l10543:	
	goto	i1l4510
	line	194
	
i1l4514:	
	line	195
	
i1l10545:	
;HMI.c: 194: }
;HMI.c: 195: return 0;
	movlw	(0)
	goto	i1l4510
	
i1l10547:	
	line	196
	
i1l4510:	
	return
	opt stack 0
GLOBAL	__end_of_ReadButtons
	__end_of_ReadButtons:
;; =============== function _ReadButtons ends ============

	signat	_ReadButtons,89
	global	i1___lwmod
psect	text1160,local,class=CODE,delta=2
global __ptext1160
__ptext1160:

;; *************** function i1___lwmod *****************
;; Defined at:
;;		line 5 in file "C:\Program Files\HI-TECH Software\PICC\9.83\sources\lwmod.c"
;; Parameters:    Size  Location     Type
;;  __lwmod         2    0[COMMON] unsigned int 
;;  __lwmod         2    2[COMMON] unsigned int 
;; Auto vars:     Size  Location     Type
;;  __lwmod         1    5[COMMON] unsigned char 
;; Return value:  Size  Location     Type
;;                  2    0[COMMON] unsigned int 
;; Registers used:
;;		wreg, status,2, status,0
;; Tracked objects:
;;		On entry : 0/0
;;		On exit  : 0/0
;;		Unchanged: 0/0
;; Data sizes:     COMMON   BANK0   BANK1   BANK3   BANK2
;;      Params:         4       0       0       0       0
;;      Locals:         1       0       0       0       0
;;      Temps:          1       0       0       0       0
;;      Totals:         6       0       0       0       0
;;Total ram usage:        6 bytes
;; Hardware stack levels used:    1
;; This function calls:
;;		Nothing
;; This function is called by:
;;		_isr1
;; This function uses a non-reentrant model
;;
psect	text1160
	file	"C:\Program Files\HI-TECH Software\PICC\9.83\sources\lwmod.c"
	line	5
	global	__size_ofi1___lwmod
	__size_ofi1___lwmod	equ	__end_ofi1___lwmod-i1___lwmod
	
i1___lwmod:	
	opt	stack 1
; Regs used in i1___lwmod: [wreg+status,2+status,0]
	line	8
	
i1l11033:	
	movf	(i1___lwmod@divisor+1),w
	iorwf	(i1___lwmod@divisor),w
	skipnz
	goto	u485_21
	goto	u485_20
u485_21:
	goto	i1l11051
u485_20:
	line	9
	
i1l11035:	
	clrf	(i1___lwmod@counter)
	bsf	status,0
	rlf	(i1___lwmod@counter),f
	line	10
	goto	i1l11041
	
i1l7513:	
	line	11
	
i1l11037:	
	movlw	01h
	
u486_25:
	clrc
	rlf	(i1___lwmod@divisor),f
	rlf	(i1___lwmod@divisor+1),f
	addlw	-1
	skipz
	goto	u486_25
	line	12
	
i1l11039:	
	movlw	(01h)
	movwf	(??i1___lwmod+0)+0
	movf	(??i1___lwmod+0)+0,w
	addwf	(i1___lwmod@counter),f
	goto	i1l11041
	line	13
	
i1l7512:	
	line	10
	
i1l11041:	
	btfss	(i1___lwmod@divisor+1),(15)&7
	goto	u487_21
	goto	u487_20
u487_21:
	goto	i1l11037
u487_20:
	goto	i1l11043
	
i1l7514:	
	goto	i1l11043
	line	14
	
i1l7515:	
	line	15
	
i1l11043:	
	movf	(i1___lwmod@divisor+1),w
	subwf	(i1___lwmod@dividend+1),w
	skipz
	goto	u488_25
	movf	(i1___lwmod@divisor),w
	subwf	(i1___lwmod@dividend),w
u488_25:
	skipc
	goto	u488_21
	goto	u488_20
u488_21:
	goto	i1l11047
u488_20:
	line	16
	
i1l11045:	
	movf	(i1___lwmod@divisor),w
	subwf	(i1___lwmod@dividend),f
	movf	(i1___lwmod@divisor+1),w
	skipc
	decf	(i1___lwmod@dividend+1),f
	subwf	(i1___lwmod@dividend+1),f
	goto	i1l11047
	
i1l7516:	
	line	17
	
i1l11047:	
	movlw	01h
	
u489_25:
	clrc
	rrf	(i1___lwmod@divisor+1),f
	rrf	(i1___lwmod@divisor),f
	addlw	-1
	skipz
	goto	u489_25
	line	18
	
i1l11049:	
	movlw	low(01h)
	subwf	(i1___lwmod@counter),f
	btfss	status,2
	goto	u490_21
	goto	u490_20
u490_21:
	goto	i1l11043
u490_20:
	goto	i1l11051
	
i1l7517:	
	goto	i1l11051
	line	19
	
i1l7511:	
	line	20
	
i1l11051:	
	movf	(i1___lwmod@dividend+1),w
	clrf	(?i1___lwmod+1)
	addwf	(?i1___lwmod+1)
	movf	(i1___lwmod@dividend),w
	clrf	(?i1___lwmod)
	addwf	(?i1___lwmod)

	goto	i1l7518
	
i1l11053:	
	line	21
	
i1l7518:	
	return
	opt stack 0
GLOBAL	__end_ofi1___lwmod
	__end_ofi1___lwmod:
;; =============== function i1___lwmod ends ============

	signat	i1___lwmod,90
	global	_Debounce
psect	text1161,local,class=CODE,delta=2
global __ptext1161
__ptext1161:

;; *************** function _Debounce *****************
;; Defined at:
;;		line 77 in file "E:\Aldnoah.Zero\Assignment3\HMI.c"
;; Parameters:    Size  Location     Type
;;		None
;; Auto vars:     Size  Location     Type
;;		None
;; Return value:  Size  Location     Type
;;		None               void
;; Registers used:
;;		wreg, status,2, status,0
;; Tracked objects:
;;		On entry : 0/0
;;		On exit  : 0/0
;;		Unchanged: 0/0
;; Data sizes:     COMMON   BANK0   BANK1   BANK3   BANK2
;;      Params:         0       0       0       0       0
;;      Locals:         0       0       0       0       0
;;      Temps:          1       0       0       0       0
;;      Totals:         1       0       0       0       0
;;Total ram usage:        1 bytes
;; Hardware stack levels used:    1
;; This function calls:
;;		Nothing
;; This function is called by:
;;		_ReadButtons
;; This function uses a non-reentrant model
;;
psect	text1161
	file	"E:\Aldnoah.Zero\Assignment3\HMI.c"
	line	77
	global	__size_of_Debounce
	__size_of_Debounce	equ	__end_of_Debounce-_Debounce
	
_Debounce:	
	opt	stack 0
; Regs used in _Debounce: [wreg+status,2+status,0]
	line	79
	
i1l10621:	
;HMI.c: 79: if(!RB2)
	bcf	status, 5	;RP0=0, select bank0
	bcf	status, 6	;RP1=0, select bank0
	btfsc	(50/8),(50)&7
	goto	u380_21
	goto	u380_20
u380_21:
	goto	i1l4491
u380_20:
	line	81
	
i1l10623:	
;HMI.c: 80: {
;HMI.c: 81: UpDebounceCount++;
	movlw	(01h)
	movwf	(??_Debounce+0)+0
	movf	(??_Debounce+0)+0,w
	bsf	status, 5	;RP0=1, select bank1
	bcf	status, 6	;RP1=0, select bank1
	addwf	(_UpDebounceCount)^080h,f	;volatile
	line	82
	
i1l10625:	
;HMI.c: 82: if(UpDebounceCount >= 10 & UpReleased)
	movlw	(0Ah)
	subwf	(_UpDebounceCount)^080h,w	;volatile
	skipc
	goto	u381_21
	goto	u381_20
u381_21:
	goto	i1l4493
u381_20:
	
i1l10627:	
	btfss	(_UpReleased/8),(_UpReleased)&7
	goto	u382_21
	goto	u382_20
u382_21:
	goto	i1l4493
u382_20:
	line	84
	
i1l10629:	
;HMI.c: 83: {
;HMI.c: 84: UpPressed = 1;
	bsf	(_UpPressed/8),(_UpPressed)&7
	line	85
;HMI.c: 85: UpReleased = 0;
	bcf	(_UpReleased/8),(_UpReleased)&7
	goto	i1l4493
	line	86
	
i1l4492:	
	line	87
;HMI.c: 86: }
;HMI.c: 87: }
	goto	i1l4493
	line	88
	
i1l4491:	
	line	90
;HMI.c: 88: else
;HMI.c: 89: {
;HMI.c: 90: UpDebounceCount = 0;
	bsf	status, 5	;RP0=1, select bank1
	bcf	status, 6	;RP1=0, select bank1
	clrf	(_UpDebounceCount)^080h	;volatile
	line	91
;HMI.c: 91: UpReleased = 1;
	bsf	(_UpReleased/8),(_UpReleased)&7
	line	92
	
i1l4493:	
	line	95
;HMI.c: 92: }
;HMI.c: 95: if(!RB3)
	bcf	status, 5	;RP0=0, select bank0
	bcf	status, 6	;RP1=0, select bank0
	btfsc	(51/8),(51)&7
	goto	u383_21
	goto	u383_20
u383_21:
	goto	i1l4494
u383_20:
	line	97
	
i1l10631:	
;HMI.c: 96: {
;HMI.c: 97: DownDebounceCount++;
	movlw	(01h)
	movwf	(??_Debounce+0)+0
	movf	(??_Debounce+0)+0,w
	bsf	status, 5	;RP0=1, select bank1
	bcf	status, 6	;RP1=0, select bank1
	addwf	(_DownDebounceCount)^080h,f	;volatile
	line	98
	
i1l10633:	
;HMI.c: 98: if(DownDebounceCount >= 10 & DownReleased)
	movlw	(0Ah)
	subwf	(_DownDebounceCount)^080h,w	;volatile
	skipc
	goto	u384_21
	goto	u384_20
u384_21:
	goto	i1l4496
u384_20:
	
i1l10635:	
	btfss	(_DownReleased/8),(_DownReleased)&7
	goto	u385_21
	goto	u385_20
u385_21:
	goto	i1l4496
u385_20:
	line	100
	
i1l10637:	
;HMI.c: 99: {
;HMI.c: 100: DownPressed = 1;
	bsf	(_DownPressed/8),(_DownPressed)&7
	line	101
;HMI.c: 101: DownReleased = 0;
	bcf	(_DownReleased/8),(_DownReleased)&7
	goto	i1l4496
	line	102
	
i1l4495:	
	line	103
;HMI.c: 102: }
;HMI.c: 103: }
	goto	i1l4496
	line	104
	
i1l4494:	
	line	106
;HMI.c: 104: else
;HMI.c: 105: {
;HMI.c: 106: DownDebounceCount = 0;
	bsf	status, 5	;RP0=1, select bank1
	bcf	status, 6	;RP1=0, select bank1
	clrf	(_DownDebounceCount)^080h	;volatile
	line	107
;HMI.c: 107: DownReleased = 1;
	bsf	(_DownReleased/8),(_DownReleased)&7
	line	108
	
i1l4496:	
	line	110
;HMI.c: 108: }
;HMI.c: 110: if(!RB4)
	bcf	status, 5	;RP0=0, select bank0
	bcf	status, 6	;RP1=0, select bank0
	btfsc	(52/8),(52)&7
	goto	u386_21
	goto	u386_20
u386_21:
	goto	i1l4497
u386_20:
	line	112
	
i1l10639:	
;HMI.c: 111: {
;HMI.c: 112: LeftDebounceCount++;
	movlw	(01h)
	movwf	(??_Debounce+0)+0
	movf	(??_Debounce+0)+0,w
	bsf	status, 5	;RP0=1, select bank1
	bcf	status, 6	;RP1=0, select bank1
	addwf	(_LeftDebounceCount)^080h,f	;volatile
	line	113
	
i1l10641:	
;HMI.c: 113: if(LeftDebounceCount >= 10 & LeftReleased)
	movlw	(0Ah)
	subwf	(_LeftDebounceCount)^080h,w	;volatile
	skipc
	goto	u387_21
	goto	u387_20
u387_21:
	goto	i1l4499
u387_20:
	
i1l10643:	
	btfss	(_LeftReleased/8),(_LeftReleased)&7
	goto	u388_21
	goto	u388_20
u388_21:
	goto	i1l4499
u388_20:
	line	115
	
i1l10645:	
;HMI.c: 114: {
;HMI.c: 115: LeftPressed = 1;
	bsf	(_LeftPressed/8),(_LeftPressed)&7
	line	116
;HMI.c: 116: LeftReleased = 0;
	bcf	(_LeftReleased/8),(_LeftReleased)&7
	goto	i1l4499
	line	117
	
i1l4498:	
	line	118
;HMI.c: 117: }
;HMI.c: 118: }
	goto	i1l4499
	line	119
	
i1l4497:	
	line	121
;HMI.c: 119: else
;HMI.c: 120: {
;HMI.c: 121: LeftDebounceCount = 0;
	bsf	status, 5	;RP0=1, select bank1
	bcf	status, 6	;RP1=0, select bank1
	clrf	(_LeftDebounceCount)^080h	;volatile
	line	122
;HMI.c: 122: LeftReleased = 1;
	bsf	(_LeftReleased/8),(_LeftReleased)&7
	line	123
	
i1l4499:	
	line	125
;HMI.c: 123: }
;HMI.c: 125: if(!RB5)
	bcf	status, 5	;RP0=0, select bank0
	bcf	status, 6	;RP1=0, select bank0
	btfsc	(53/8),(53)&7
	goto	u389_21
	goto	u389_20
u389_21:
	goto	i1l4500
u389_20:
	line	127
	
i1l10647:	
;HMI.c: 126: {
;HMI.c: 127: RightDebounceCount++;
	movlw	(01h)
	movwf	(??_Debounce+0)+0
	movf	(??_Debounce+0)+0,w
	bsf	status, 5	;RP0=1, select bank1
	bcf	status, 6	;RP1=0, select bank1
	addwf	(_RightDebounceCount)^080h,f	;volatile
	line	128
	
i1l10649:	
;HMI.c: 128: if(RightDebounceCount >= 10 & RightReleased)
	movlw	(0Ah)
	subwf	(_RightDebounceCount)^080h,w	;volatile
	skipc
	goto	u390_21
	goto	u390_20
u390_21:
	goto	i1l4502
u390_20:
	
i1l10651:	
	btfss	(_RightReleased/8),(_RightReleased)&7
	goto	u391_21
	goto	u391_20
u391_21:
	goto	i1l4502
u391_20:
	line	130
	
i1l10653:	
;HMI.c: 129: {
;HMI.c: 130: RightPressed = 1;
	bsf	(_RightPressed/8),(_RightPressed)&7
	line	131
;HMI.c: 131: RightReleased = 0;
	bcf	(_RightReleased/8),(_RightReleased)&7
	goto	i1l4502
	line	132
	
i1l4501:	
	line	133
;HMI.c: 132: }
;HMI.c: 133: }
	goto	i1l4502
	line	134
	
i1l4500:	
	line	136
;HMI.c: 134: else
;HMI.c: 135: {
;HMI.c: 136: RightDebounceCount = 0;
	bsf	status, 5	;RP0=1, select bank1
	bcf	status, 6	;RP1=0, select bank1
	clrf	(_RightDebounceCount)^080h	;volatile
	line	137
;HMI.c: 137: RightReleased = 1;
	bsf	(_RightReleased/8),(_RightReleased)&7
	line	138
	
i1l4502:	
	line	140
;HMI.c: 138: }
;HMI.c: 140: if(!RB6)
	bcf	status, 5	;RP0=0, select bank0
	bcf	status, 6	;RP1=0, select bank0
	btfsc	(54/8),(54)&7
	goto	u392_21
	goto	u392_20
u392_21:
	goto	i1l4503
u392_20:
	line	142
	
i1l10655:	
;HMI.c: 141: {
;HMI.c: 142: CenterDebounceCount++;
	movlw	(01h)
	movwf	(??_Debounce+0)+0
	movf	(??_Debounce+0)+0,w
	bsf	status, 5	;RP0=1, select bank1
	bcf	status, 6	;RP1=0, select bank1
	addwf	(_CenterDebounceCount)^080h,f	;volatile
	line	143
	
i1l10657:	
;HMI.c: 143: if(CenterDebounceCount >= 10 & CenterReleased)
	movlw	(0Ah)
	subwf	(_CenterDebounceCount)^080h,w	;volatile
	skipc
	goto	u393_21
	goto	u393_20
u393_21:
	goto	i1l4506
u393_20:
	
i1l10659:	
	btfss	(_CenterReleased/8),(_CenterReleased)&7
	goto	u394_21
	goto	u394_20
u394_21:
	goto	i1l4506
u394_20:
	line	145
	
i1l10661:	
;HMI.c: 144: {
;HMI.c: 145: CenterPressed = 1;
	bsf	(_CenterPressed/8),(_CenterPressed)&7
	line	146
;HMI.c: 146: CenterReleased = 0;
	bcf	(_CenterReleased/8),(_CenterReleased)&7
	goto	i1l4506
	line	147
	
i1l4504:	
	line	148
;HMI.c: 147: }
;HMI.c: 148: }
	goto	i1l4506
	line	149
	
i1l4503:	
	line	151
;HMI.c: 149: else
;HMI.c: 150: {
;HMI.c: 151: CenterDebounceCount = 0;
	bsf	status, 5	;RP0=1, select bank1
	bcf	status, 6	;RP1=0, select bank1
	clrf	(_CenterDebounceCount)^080h	;volatile
	line	152
;HMI.c: 152: CenterReleased = 1;
	bsf	(_CenterReleased/8),(_CenterReleased)&7
	goto	i1l4506
	line	153
	
i1l4505:	
	line	154
	
i1l4506:	
	return
	opt stack 0
GLOBAL	__end_of_Debounce
	__end_of_Debounce:
;; =============== function _Debounce ends ============

	signat	_Debounce,88
psect	text1162,local,class=CODE,delta=2
global __ptext1162
__ptext1162:
	global	btemp
	btemp set 07Eh

	DABS	1,126,2	;btemp
	global	wtemp0
	wtemp0 set btemp
	end
