opt subtitle "HI-TECH Software Omniscient Code Generator (Lite mode) build 10920"

opt pagewidth 120

	opt lm

	processor	16F877A
clrc	macro
	bcf	3,0
	endm
clrz	macro
	bcf	3,2
	endm
setc	macro
	bsf	3,0
	endm
setz	macro
	bsf	3,2
	endm
skipc	macro
	btfss	3,0
	endm
skipz	macro
	btfss	3,2
	endm
skipnc	macro
	btfsc	3,0
	endm
skipnz	macro
	btfsc	3,2
	endm
indf	equ	0
indf0	equ	0
pc	equ	2
pcl	equ	2
status	equ	3
fsr	equ	4
fsr0	equ	4
c	equ	1
z	equ	0
pclath	equ	10
# 52 "E:\Aldnoah.Zero\Assignment3\Main.c"
	psect config,class=CONFIG,delta=2 ;#
# 52 "E:\Aldnoah.Zero\Assignment3\Main.c"
	dw 0xFFFE & 0xFFFB & 0xFFFF & 0xFFBF & 0xFFF7 & 0xFFFF & 0xFF7F & 0xFFFF ;#
	FNCALL	_main,_init
	FNCALL	_main,_robot_read
	FNCALL	_main,_readAvgDistance
	FNCALL	_main,_UpdateDisplay
	FNCALL	_main,_Menu
	FNCALL	_main,_calibrateIR
	FNCALL	_main,_robotTurnSpeed
	FNCALL	_main,_robotMoveSpeed
	FNCALL	_main,_robotFollow
	FNCALL	_main,_ChargeMode
	FNCALL	_ChargeMode,_ser_putch
	FNCALL	_ChargeMode,_UpdateDisplay
	FNCALL	_robotFollow,_RobotDrive
	FNCALL	_robotFollow,_readAvgDistance
	FNCALL	_robotFollow,_robot_read
	FNCALL	_robotFollow,_UpdateDisplay
	FNCALL	_robotFollow,_abs
	FNCALL	_robotMoveSpeed,_RobotDrive
	FNCALL	_robotMoveSpeed,_robot_read
	FNCALL	_robotMoveSpeed,_UpdateDisplay
	FNCALL	_robotMoveSpeed,_abs
	FNCALL	_robotTurnSpeed,_robotTurn
	FNCALL	_robotTurnSpeed,_robot_read
	FNCALL	_robotTurnSpeed,_UpdateDisplay
	FNCALL	_robotTurnSpeed,_abs
	FNCALL	_calibrateIR,_rotate
	FNCALL	_calibrateIR,_UpdateDisplay
	FNCALL	_UpdateDisplay,_lcd_write_control
	FNCALL	_UpdateDisplay,_sprintf
	FNCALL	_UpdateDisplay,_lcd_set_cursor
	FNCALL	_UpdateDisplay,_lcd_write_string
	FNCALL	_UpdateDisplay,___awmod
	FNCALL	_readAvgDistance,_readDistance
	FNCALL	_init,_ser_init
	FNCALL	_init,_init_adc
	FNCALL	_init,_lcd_init
	FNCALL	_init,_robo_init
	FNCALL	_readDistance,_adc_read_channel
	FNCALL	_robot_read,_ser_putch
	FNCALL	_robot_read,_ser_getch
	FNCALL	_lcd_init,_lcd_write_control
	FNCALL	_lcd_write_string,_lcd_write_data
	FNCALL	_lcd_set_cursor,_lcd_write_control
	FNCALL	_abs,___wmul
	FNCALL	_robotTurn,_ser_putch
	FNCALL	_RobotDrive,_ser_putch
	FNCALL	_ser_getch,_ser_isrx
	FNCALL	_sprintf,___lwdiv
	FNCALL	_sprintf,___lwmod
	FNCALL	_rotate,_spi_transfer
	FNCALL	_robo_init,_ser_putch
	FNCALL	_adc_read_channel,_adc_read
	FNROOT	_main
	FNCALL	_isr1,i1___lwmod
	FNCALL	_isr1,_ReadButtons
	FNCALL	_ReadButtons,_Debounce
	FNCALL	intlevel1,_isr1
	global	intlevel1
	FNROOT	intlevel1
	global	_menuStrings
	global	_shortMenuStrings
	global	_current_step
psect	idataBANK1,class=CODE,space=0,delta=2
global __pidataBANK1
__pidataBANK1:
	file	"E:\Aldnoah.Zero\Assignment3\HMI.c"
	line	49

;initializer for _menuStrings
	retlw	(STR_1-__stringbase)&0ffh
	retlw	(STR_2-__stringbase)&0ffh
	retlw	(STR_3-__stringbase)&0ffh
	retlw	(STR_4-__stringbase)&0ffh
	retlw	(STR_5-__stringbase)&0ffh
	retlw	(STR_6-__stringbase)&0ffh
	line	50

;initializer for _shortMenuStrings
	retlw	(STR_7-__stringbase)&0ffh
	retlw	(STR_8-__stringbase)&0ffh
	retlw	(STR_9-__stringbase)&0ffh
	retlw	(STR_10-__stringbase)&0ffh
	retlw	(STR_11-__stringbase)&0ffh
	retlw	(STR_12-__stringbase)&0ffh
	file	"E:\Aldnoah.Zero\Assignment3\steppermotor.c"
	line	45

;initializer for _current_step
	retlw	03Ch
	global	_dpowers
psect	strings,class=STRING,delta=2
global __pstrings
__pstrings:
;	global	stringdir,stringtab,__stringbase
stringtab:
;	String table - string pointers are 1 byte each
	btfsc	(btemp+1),7
	ljmp	stringcode
	bcf	status,7
	btfsc	(btemp+1),0
	bsf	status,7
	movf	indf,w
	incf fsr
skipnz
incf btemp+1
	return
stringcode:stringdir:
movlw high(stringdir)
movwf pclath
movf fsr,w
incf fsr
	addwf pc
__stringbase:
	retlw	0
psect	strings
	file	"C:\Program Files\HI-TECH Software\PICC\9.83\lib\doprnt.c"
	line	350
_dpowers:
	retlw	01h
	retlw	0

	retlw	0Ah
	retlw	0

	retlw	064h
	retlw	0

	retlw	0E8h
	retlw	03h

	retlw	010h
	retlw	027h

	global	_dpowers
	global	_adcVal
	global	_pos
	global	_BumpSensors
	global	_VwallSensor
	global	_rxiptr
	global	_rxoptr
	global	_txiptr
	global	_txoptr
	global	UpdateDisplay@F1250
	global	_txfifo
	global	_buttonPressed
	global	_CenterPressed
	global	_CenterReleased
	global	_DownPressed
	global	_DownReleased
	global	_LeftPressed
	global	_LeftReleased
	global	_RTC_FLAG_1MS
	global	_RTC_FLAG_250MS
	global	_RTC_FLAG_500MS
	global	_RightPressed
	global	_RightReleased
	global	_UpPressed
	global	_UpReleased
	global	_rxfifo
	global	_Disp1
	global	_Disp2
	global	_IRdistance
	global	_RTC_Counter
	global	_TotalDistTravelled
	global	_angleTurned
	global	_distTravelled
	global	_dist_high
	global	_dist_low
	global	_total
	global	_totalSteps
	global	_AngleHighByte
	global	_AngleLowByte
	global	_CenterDebounceCount
	global	_CliffSensors
	global	_DistHighByte
	global	_DistLowByte
	global	_DownDebounceCount
	global	_LeftDebounceCount
	global	_ROBOTerror
	global	_RightDebounceCount
	global	_UpDebounceCount
	global	_currentMenu
	global	_highByte
	global	_lowByte
	global	_ser_tmp
	global	_turnhighByte
	global	_turnlowByte
	global	_ADCON0
_ADCON0	set	31
	global	_ADRESH
_ADRESH	set	30
	global	_PORTA
_PORTA	set	5
	global	_PORTD
_PORTD	set	8
	global	_PORTE
_PORTE	set	9
	global	_RCREG
_RCREG	set	26
	global	_SSPBUF
_SSPBUF	set	19
	global	_SSPCON
_SSPCON	set	20
	global	_TMR0
_TMR0	set	1
	global	_TXREG
_TXREG	set	25
	global	AT25256A@CS0
AT25256A@CS0	set	56
	global	AT25256A@CS1
AT25256A@CS1	set	57
	global	_CARRY
_CARRY	set	24
	global	_CHS0
_CHS0	set	251
	global	_CHS1
_CHS1	set	252
	global	_CHS2
_CHS2	set	253
	global	_CREN
_CREN	set	196
	global	_GIE
_GIE	set	95
	global	_GO
_GO	set	250
	global	_OERR
_OERR	set	193
	global	_PEIE
_PEIE	set	94
	global	_RB0
_RB0	set	48
	global	_RB2
_RB2	set	50
	global	_RB3
_RB3	set	51
	global	_RB4
_RB4	set	52
	global	_RB5
_RB5	set	53
	global	_RB6
_RB6	set	54
	global	_RC0
_RC0	set	56
	global	_RC1
_RC1	set	57
	global	_RC2
_RC2	set	58
	global	_RCIF
_RCIF	set	101
	global	_RE0
_RE0	set	72
	global	_RE1
_RE1	set	73
	global	_RE2
_RE2	set	74
	global	_RX9
_RX9	set	198
	global	_SPEN
_SPEN	set	199
	global	_SSPIF
_SSPIF	set	99
	global	_TMR0IE
_TMR0IE	set	93
	global	_TMR0IF
_TMR0IF	set	90
	global	_TXIF
_TXIF	set	100
	global	_ADCON1
_ADCON1	set	159
	global	_ADRESL
_ADRESL	set	158
	global	_OPTION_REG
_OPTION_REG	set	129
	global	_SPBRG
_SPBRG	set	153
	global	_SSPSTAT
_SSPSTAT	set	148
	global	_TRISA
_TRISA	set	133
	global	_TRISB
_TRISB	set	134
	global	_TRISC
_TRISC	set	135
	global	_TRISD
_TRISD	set	136
	global	_TRISE
_TRISE	set	137
	global	_BRGH
_BRGH	set	1218
	global	_RCIE
_RCIE	set	1125
	global	_SYNC
_SYNC	set	1220
	global	_TX9
_TX9	set	1222
	global	_TXEN
_TXEN	set	1221
	global	_TXIE
_TXIE	set	1124
	global	_EEADR
_EEADR	set	269
	global	_EEDATA
_EEDATA	set	268
	global	_EECON1
_EECON1	set	396
	global	_EECON2
_EECON2	set	397
	global	_RD
_RD	set	3168
	global	_WR
_WR	set	3169
	global	_WREN
_WREN	set	3170
	
STR_18:	
	retlw	32	;' '
	retlw	67	;'C'
	retlw	104	;'h'
	retlw	97	;'a'
	retlw	114	;'r'
	retlw	103	;'g'
	retlw	105	;'i'
	retlw	110	;'n'
	retlw	103	;'g'
	retlw	32	;' '
	retlw	77	;'M'
	retlw	111	;'o'
	retlw	100	;'d'
	retlw	101	;'e'
	retlw	32	;' '
	retlw	0
psect	strings
	
STR_14:	
	retlw	90	;'Z'
	retlw	101	;'e'
	retlw	114	;'r'
	retlw	111	;'o'
	retlw	32	;' '
	retlw	83	;'S'
	retlw	116	;'t'
	retlw	101	;'e'
	retlw	112	;'p'
	retlw	95	;'_'
	retlw	77	;'M'
	retlw	111	;'o'
	retlw	116	;'t'
	retlw	111	;'o'
	retlw	114	;'r'
	retlw	0
psect	strings
	
STR_13:	
	retlw	73	;'I'
	retlw	82	;'R'
	retlw	58	;':'
	retlw	37	;'%'
	retlw	100	;'d'
	retlw	99	;'c'
	retlw	109	;'m'
	retlw	32	;' '
	retlw	68	;'D'
	retlw	58	;':'
	retlw	37	;'%'
	retlw	100	;'d'
	retlw	0
psect	strings
	
STR_19:	
	retlw	32	;' '
	retlw	32	;' '
	retlw	69	;'E'
	retlw	88	;'X'
	retlw	73	;'I'
	retlw	84	;'T'
	retlw	32	;' '
	retlw	32	;' '
	retlw	0
psect	strings
	
STR_6:	
	retlw	32	;' '
	retlw	67	;'C'
	retlw	104	;'h'
	retlw	97	;'a'
	retlw	114	;'r'
	retlw	103	;'g'
	retlw	101	;'e'
	retlw	32	;' '
	retlw	0
psect	strings
	
STR_2:	
	retlw	83	;'S'
	retlw	99	;'c'
	retlw	97	;'a'
	retlw	110	;'n'
	retlw	95	;'_'
	retlw	51	;'3'
	retlw	54	;'6'
	retlw	48	;'0'
	retlw	0
psect	strings
	
STR_1:	
	retlw	67	;'C'
	retlw	97	;'a'
	retlw	108	;'l'
	retlw	105	;'i'
	retlw	98	;'b'
	retlw	95	;'_'
	retlw	73	;'I'
	retlw	82	;'R'
	retlw	0
psect	strings
	
STR_5:	
	retlw	70	;'F'
	retlw	108	;'l'
	retlw	119	;'w'
	retlw	95	;'_'
	retlw	87	;'W'
	retlw	97	;'a'
	retlw	108	;'l'
	retlw	108	;'l'
	retlw	0
psect	strings
	
STR_3:	
	retlw	68	;'D'
	retlw	114	;'r'
	retlw	105	;'i'
	retlw	118	;'v'
	retlw	101	;'e'
	retlw	95	;'_'
	retlw	50	;'2'
	retlw	109	;'m'
	retlw	0
psect	strings
	
STR_4:	
	retlw	68	;'D'
	retlw	114	;'r'
	retlw	105	;'i'
	retlw	118	;'v'
	retlw	101	;'e'
	retlw	95	;'_'
	retlw	76	;'L'
	retlw	0
psect	strings
	
STR_16:	
	retlw	67	;'C'
	retlw	79	;'O'
	retlw	78	;'N'
	retlw	70	;'F'
	retlw	73	;'I'
	retlw	82	;'R'
	retlw	77	;'M'
	retlw	0
psect	strings
	
STR_9:	
	retlw	68	;'D'
	retlw	114	;'r'
	retlw	50	;'2'
	retlw	0
psect	strings
	
STR_15:	
	retlw	60	;'<'
	retlw	60	;'<'
	retlw	60	;'<'
	retlw	0
psect	strings
	
STR_17:	
	retlw	62	;'>'
	retlw	62	;'>'
	retlw	62	;'>'
	retlw	0
psect	strings
	
STR_10:	
	retlw	68	;'D'
	retlw	114	;'r'
	retlw	76	;'L'
	retlw	0
psect	strings
	
STR_12:	
	retlw	67	;'C'
	retlw	104	;'h'
	retlw	103	;'g'
	retlw	0
psect	strings
	
STR_7:	
	retlw	67	;'C'
	retlw	97	;'a'
	retlw	108	;'l'
	retlw	0
psect	strings
	
STR_8:	
	retlw	83	;'S'
	retlw	99	;'c'
	retlw	110	;'n'
	retlw	0
psect	strings
	
STR_11:	
	retlw	70	;'F'
	retlw	108	;'l'
	retlw	119	;'w'
	retlw	0
psect	strings
	file	"Assignment3_AldnoahZero.as"
	line	#
psect cinit,class=CODE,delta=2
global start_initialization
start_initialization:

psect	bitbssCOMMON,class=COMMON,bit,space=1
global __pbitbssCOMMON
__pbitbssCOMMON:
_CenterPressed:
       ds      1

_CenterReleased:
       ds      1

_DownPressed:
       ds      1

_DownReleased:
       ds      1

_LeftPressed:
       ds      1

_LeftReleased:
       ds      1

_RTC_FLAG_1MS:
       ds      1

_RTC_FLAG_250MS:
       ds      1

_RTC_FLAG_500MS:
       ds      1

_RightPressed:
       ds      1

_RightReleased:
       ds      1

_UpPressed:
       ds      1

_UpReleased:
       ds      1

psect	bssCOMMON,class=COMMON,space=1
global __pbssCOMMON
__pbssCOMMON:
_buttonPressed:
       ds      1

psect	bssBANK0,class=BANK0,space=1
global __pbssBANK0
__pbssBANK0:
_adcVal:
       ds      2

_pos:
       ds      2

_BumpSensors:
       ds      1

_VwallSensor:
       ds      1

_rxiptr:
       ds      1

_rxoptr:
       ds      1

_txiptr:
       ds      1

_txoptr:
       ds      1

psect	bssBANK1,class=BANK1,space=1
global __pbssBANK1
__pbssBANK1:
_rxfifo:
       ds      16

_Disp1:
       ds      2

_Disp2:
       ds      2

_IRdistance:
       ds      2

_RTC_Counter:
       ds      2

_TotalDistTravelled:
       ds      2

_angleTurned:
       ds      2

_distTravelled:
       ds      2

_dist_high:
       ds      2

_dist_low:
       ds      2

_total:
       ds      2

_totalSteps:
       ds      2

_AngleHighByte:
       ds      1

_AngleLowByte:
       ds      1

_CenterDebounceCount:
       ds      1

_CliffSensors:
       ds      1

_DistHighByte:
       ds      1

_DistLowByte:
       ds      1

_DownDebounceCount:
       ds      1

_LeftDebounceCount:
       ds      1

_ROBOTerror:
       ds      1

_RightDebounceCount:
       ds      1

_UpDebounceCount:
       ds      1

_currentMenu:
       ds      1

_highByte:
       ds      1

_lowByte:
       ds      1

_ser_tmp:
       ds      1

_turnhighByte:
       ds      1

_turnlowByte:
       ds      1

psect	dataBANK1,class=BANK1,space=1
global __pdataBANK1
__pdataBANK1:
	file	"E:\Aldnoah.Zero\Assignment3\HMI.c"
	line	49
_menuStrings:
       ds      6

psect	dataBANK1
	file	"E:\Aldnoah.Zero\Assignment3\HMI.c"
	line	50
_shortMenuStrings:
       ds      6

psect	dataBANK1
	file	"E:\Aldnoah.Zero\Assignment3\steppermotor.c"
	line	45
_current_step:
       ds      1

psect	bssBANK3,class=BANK3,space=1
global __pbssBANK3
__pbssBANK3:
UpdateDisplay@F1250:
       ds      16

_txfifo:
       ds      16

psect clrtext,class=CODE,delta=2
global clear_ram
;	Called with FSR containing the base address, and
;	W with the last address+1
clear_ram:
	clrwdt			;clear the watchdog before getting into this loop
clrloop:
	clrf	indf		;clear RAM location pointed to by FSR
	incf	fsr,f		;increment pointer
	xorwf	fsr,w		;XOR with final address
	btfsc	status,2	;have we reached the end yet?
	retlw	0		;all done for this memory range, return
	xorwf	fsr,w		;XOR again to restore value
	goto	clrloop		;do the next byte

; Clear objects allocated to BITCOMMON
psect cinit,class=CODE,delta=2
	clrf	((__pbitbssCOMMON/8)+0)&07Fh
	clrf	((__pbitbssCOMMON/8)+1)&07Fh
; Clear objects allocated to COMMON
psect cinit,class=CODE,delta=2
	clrf	((__pbssCOMMON)+0)&07Fh
; Clear objects allocated to BANK0
psect cinit,class=CODE,delta=2
	bcf	status, 7	;select IRP bank0
	movlw	low(__pbssBANK0)
	movwf	fsr
	movlw	low((__pbssBANK0)+0Ah)
	fcall	clear_ram
; Clear objects allocated to BANK1
psect cinit,class=CODE,delta=2
	movlw	low(__pbssBANK1)
	movwf	fsr
	movlw	low((__pbssBANK1)+037h)
	fcall	clear_ram
; Clear objects allocated to BANK3
psect cinit,class=CODE,delta=2
	bsf	status, 7	;select IRP bank2
	movlw	low(__pbssBANK3)
	movwf	fsr
	movlw	low((__pbssBANK3)+020h)
	fcall	clear_ram
global btemp
psect inittext,class=CODE,delta=2
global init_fetch,btemp
;	Called with low address in FSR and high address in W
init_fetch:
	movf btemp,w
	movwf pclath
	movf btemp+1,w
	movwf pc
global init_ram
;Called with:
;	high address of idata address in btemp 
;	low address of idata address in btemp+1 
;	low address of data in FSR
;	high address + 1 of data in btemp-1
init_ram:
	fcall init_fetch
	movwf indf,f
	incf fsr,f
	movf fsr,w
	xorwf btemp-1,w
	btfsc status,2
	retlw 0
	incf btemp+1,f
	btfsc status,2
	incf btemp,f
	goto init_ram
; Initialize objects allocated to BANK1
psect cinit,class=CODE,delta=2
global init_ram, __pidataBANK1
	bcf	status, 7	;select IRP bank0
	movlw low(__pdataBANK1+13)
	movwf btemp-1,f
	movlw high(__pidataBANK1)
	movwf btemp,f
	movlw low(__pidataBANK1)
	movwf btemp+1,f
	movlw low(__pdataBANK1)
	movwf fsr,f
	fcall init_ram
psect cinit,class=CODE,delta=2
global end_of_initialization

;End of C runtime variable initialization code

end_of_initialization:
clrf status
ljmp _main	;jump to C main() function
psect	cstackCOMMON,class=COMMON,space=1
global __pcstackCOMMON
__pcstackCOMMON:
	global	?_ser_init
?_ser_init:	; 0 bytes @ 0x0
	global	?_robo_init
?_robo_init:	; 0 bytes @ 0x0
	global	?_robot_read
?_robot_read:	; 0 bytes @ 0x0
	global	?_readAvgDistance
?_readAvgDistance:	; 0 bytes @ 0x0
	global	?_UpdateDisplay
?_UpdateDisplay:	; 0 bytes @ 0x0
	global	?_calibrateIR
?_calibrateIR:	; 0 bytes @ 0x0
	global	?_ChargeMode
?_ChargeMode:	; 0 bytes @ 0x0
	global	?_ser_putch
?_ser_putch:	; 0 bytes @ 0x0
	global	?_init_adc
?_init_adc:	; 0 bytes @ 0x0
	global	?_lcd_write_control
?_lcd_write_control:	; 0 bytes @ 0x0
	global	?_lcd_write_data
?_lcd_write_data:	; 0 bytes @ 0x0
	global	?_lcd_set_cursor
?_lcd_set_cursor:	; 0 bytes @ 0x0
	global	?_lcd_init
?_lcd_init:	; 0 bytes @ 0x0
	global	?_isr1
?_isr1:	; 0 bytes @ 0x0
	global	?_init
?_init:	; 0 bytes @ 0x0
	global	?_main
?_main:	; 0 bytes @ 0x0
	global	?_Debounce
?_Debounce:	; 0 bytes @ 0x0
	global	??_Debounce
??_Debounce:	; 0 bytes @ 0x0
	global	?_ser_isrx
?_ser_isrx:	; 1 bit 
	global	?_ReadButtons
?_ReadButtons:	; 1 bytes @ 0x0
	global	?_Menu
?_Menu:	; 1 bytes @ 0x0
	global	?_ser_getch
?_ser_getch:	; 1 bytes @ 0x0
	global	?_adc_read_channel
?_adc_read_channel:	; 1 bytes @ 0x0
	global	?_spi_transfer
?_spi_transfer:	; 1 bytes @ 0x0
	global	?i1___lwmod
?i1___lwmod:	; 2 bytes @ 0x0
	global	i1___lwmod@divisor
i1___lwmod@divisor:	; 2 bytes @ 0x0
	ds	1
	global	??_ReadButtons
??_ReadButtons:	; 0 bytes @ 0x1
	ds	1
	global	i1___lwmod@dividend
i1___lwmod@dividend:	; 2 bytes @ 0x2
	ds	2
	global	??i1___lwmod
??i1___lwmod:	; 0 bytes @ 0x4
	ds	1
	global	i1___lwmod@counter
i1___lwmod@counter:	; 1 bytes @ 0x5
	ds	1
	global	??_isr1
??_isr1:	; 0 bytes @ 0x6
	ds	5
psect	cstackBANK0,class=BANK0,space=1
global __pcstackBANK0
__pcstackBANK0:
	global	??_ser_init
??_ser_init:	; 0 bytes @ 0x0
	global	??_Menu
??_Menu:	; 0 bytes @ 0x0
	global	??_ser_putch
??_ser_putch:	; 0 bytes @ 0x0
	global	??_ser_getch
??_ser_getch:	; 0 bytes @ 0x0
	global	??_init_adc
??_init_adc:	; 0 bytes @ 0x0
	global	??_lcd_write_control
??_lcd_write_control:	; 0 bytes @ 0x0
	global	??_lcd_write_data
??_lcd_write_data:	; 0 bytes @ 0x0
	global	??_spi_transfer
??_spi_transfer:	; 0 bytes @ 0x0
	global	??_ser_isrx
??_ser_isrx:	; 0 bytes @ 0x0
	global	?_adc_read
?_adc_read:	; 2 bytes @ 0x0
	global	?___wmul
?___wmul:	; 2 bytes @ 0x0
	global	?___lwdiv
?___lwdiv:	; 2 bytes @ 0x0
	global	?___awmod
?___awmod:	; 2 bytes @ 0x0
	global	Menu@BTN_input
Menu@BTN_input:	; 1 bytes @ 0x0
	global	___wmul@multiplier
___wmul@multiplier:	; 2 bytes @ 0x0
	global	___lwdiv@divisor
___lwdiv@divisor:	; 2 bytes @ 0x0
	global	___awmod@divisor
___awmod@divisor:	; 2 bytes @ 0x0
	ds	1
	global	spi_transfer@temp
spi_transfer@temp:	; 1 bytes @ 0x1
	global	ser_getch@c
ser_getch@c:	; 1 bytes @ 0x1
	global	ser_putch@c
ser_putch@c:	; 1 bytes @ 0x1
	ds	1
	global	??_adc_read
??_adc_read:	; 0 bytes @ 0x2
	global	??_robo_init
??_robo_init:	; 0 bytes @ 0x2
	global	??_robot_read
??_robot_read:	; 0 bytes @ 0x2
	global	?_RobotDrive
?_RobotDrive:	; 0 bytes @ 0x2
	global	?_robotTurn
?_robotTurn:	; 0 bytes @ 0x2
	global	lcd_write_control@databyte
lcd_write_control@databyte:	; 1 bytes @ 0x2
	global	lcd_write_data@databyte
lcd_write_data@databyte:	; 1 bytes @ 0x2
	global	spi_transfer@data
spi_transfer@data:	; 1 bytes @ 0x2
	global	RobotDrive@speed
RobotDrive@speed:	; 2 bytes @ 0x2
	global	robotTurn@angle
robotTurn@angle:	; 2 bytes @ 0x2
	global	___wmul@multiplicand
___wmul@multiplicand:	; 2 bytes @ 0x2
	global	___lwdiv@dividend
___lwdiv@dividend:	; 2 bytes @ 0x2
	global	___awmod@dividend
___awmod@dividend:	; 2 bytes @ 0x2
	ds	1
	global	?_rotate
?_rotate:	; 0 bytes @ 0x3
	global	??_lcd_set_cursor
??_lcd_set_cursor:	; 0 bytes @ 0x3
	global	??_lcd_init
??_lcd_init:	; 0 bytes @ 0x3
	global	??_init
??_init:	; 0 bytes @ 0x3
	global	lcd_set_cursor@address
lcd_set_cursor@address:	; 1 bytes @ 0x3
	global	rotate@numsteps
rotate@numsteps:	; 2 bytes @ 0x3
	ds	1
	global	??_robotTurn
??_robotTurn:	; 0 bytes @ 0x4
	global	??___wmul
??___wmul:	; 0 bytes @ 0x4
	global	??___lwdiv
??___lwdiv:	; 0 bytes @ 0x4
	global	??___awmod
??___awmod:	; 0 bytes @ 0x4
	global	robot_read@readType
robot_read@readType:	; 1 bytes @ 0x4
	global	adc_read@adc_value
adc_read@adc_value:	; 2 bytes @ 0x4
	global	RobotDrive@radius
RobotDrive@radius:	; 2 bytes @ 0x4
	global	___wmul@product
___wmul@product:	; 2 bytes @ 0x4
	ds	1
	global	rotate@direction
rotate@direction:	; 1 bytes @ 0x5
	global	___awmod@counter
___awmod@counter:	; 1 bytes @ 0x5
	global	___lwdiv@quotient
___lwdiv@quotient:	; 2 bytes @ 0x5
	ds	1
	global	??_rotate
??_rotate:	; 0 bytes @ 0x6
	global	??_adc_read_channel
??_adc_read_channel:	; 0 bytes @ 0x6
	global	??_RobotDrive
??_RobotDrive:	; 0 bytes @ 0x6
	global	?_abs
?_abs:	; 2 bytes @ 0x6
	global	___awmod@sign
___awmod@sign:	; 1 bytes @ 0x6
	global	abs@v
abs@v:	; 2 bytes @ 0x6
	ds	1
	global	?_lcd_write_string
?_lcd_write_string:	; 0 bytes @ 0x7
	global	adc_read_channel@channel
adc_read_channel@channel:	; 1 bytes @ 0x7
	global	RobotDrive@speedlowByte
RobotDrive@speedlowByte:	; 1 bytes @ 0x7
	global	___lwdiv@counter
___lwdiv@counter:	; 1 bytes @ 0x7
	global	lcd_write_string@s
lcd_write_string@s:	; 2 bytes @ 0x7
	ds	1
	global	??_abs
??_abs:	; 0 bytes @ 0x8
	global	?_readDistance
?_readDistance:	; 2 bytes @ 0x8
	global	?___lwmod
?___lwmod:	; 2 bytes @ 0x8
	global	RobotDrive@speedhighByte
RobotDrive@speedhighByte:	; 1 bytes @ 0x8
	global	rotate@i
rotate@i:	; 2 bytes @ 0x8
	global	___lwmod@divisor
___lwmod@divisor:	; 2 bytes @ 0x8
	ds	1
	global	??_lcd_write_string
??_lcd_write_string:	; 0 bytes @ 0x9
	global	RobotDrive@radiuslowByte
RobotDrive@radiuslowByte:	; 1 bytes @ 0x9
	ds	1
	global	??_readDistance
??_readDistance:	; 0 bytes @ 0xA
	global	RobotDrive@radiushighByte
RobotDrive@radiushighByte:	; 1 bytes @ 0xA
	global	___lwmod@dividend
___lwmod@dividend:	; 2 bytes @ 0xA
	ds	2
	global	??___lwmod
??___lwmod:	; 0 bytes @ 0xC
	global	readDistance@readVal
readDistance@readVal:	; 2 bytes @ 0xC
	ds	1
	global	___lwmod@counter
___lwmod@counter:	; 1 bytes @ 0xD
	ds	1
	global	??_readAvgDistance
??_readAvgDistance:	; 0 bytes @ 0xE
	global	?_sprintf
?_sprintf:	; 2 bytes @ 0xE
	global	sprintf@f
sprintf@f:	; 1 bytes @ 0xE
	ds	5
	global	??_sprintf
??_sprintf:	; 0 bytes @ 0x13
	ds	1
	global	readAvgDistance@fullval
readAvgDistance@fullval:	; 2 bytes @ 0x14
	ds	2
	global	sprintf@ap
sprintf@ap:	; 1 bytes @ 0x16
	global	readAvgDistance@values
readAvgDistance@values:	; 14 bytes @ 0x16
	ds	1
	global	sprintf@flag
sprintf@flag:	; 1 bytes @ 0x17
	ds	1
	global	sprintf@prec
sprintf@prec:	; 1 bytes @ 0x18
	ds	1
	global	sprintf@_val
sprintf@_val:	; 4 bytes @ 0x19
	ds	4
	global	sprintf@sp
sprintf@sp:	; 1 bytes @ 0x1D
	ds	1
	global	sprintf@c
sprintf@c:	; 1 bytes @ 0x1E
	ds	1
	global	??_UpdateDisplay
??_UpdateDisplay:	; 0 bytes @ 0x1F
	ds	4
	global	UpdateDisplay@LCDOutput
UpdateDisplay@LCDOutput:	; 16 bytes @ 0x23
	ds	1
	global	readAvgDistance@tempIR
readAvgDistance@tempIR:	; 2 bytes @ 0x24
	ds	2
	global	readAvgDistance@j
readAvgDistance@j:	; 1 bytes @ 0x26
	ds	1
	global	readAvgDistance@i
readAvgDistance@i:	; 1 bytes @ 0x27
	ds	12
	global	??_calibrateIR
??_calibrateIR:	; 0 bytes @ 0x33
	global	?_robotTurnSpeed
?_robotTurnSpeed:	; 0 bytes @ 0x33
	global	?_robotMoveSpeed
?_robotMoveSpeed:	; 0 bytes @ 0x33
	global	?_robotFollow
?_robotFollow:	; 0 bytes @ 0x33
	global	??_ChargeMode
??_ChargeMode:	; 0 bytes @ 0x33
	global	robotFollow@distance
robotFollow@distance:	; 2 bytes @ 0x33
	global	robotMoveSpeed@distance
robotMoveSpeed@distance:	; 2 bytes @ 0x33
	global	robotTurnSpeed@angle
robotTurnSpeed@angle:	; 2 bytes @ 0x33
	ds	2
	global	robotFollow@speed
robotFollow@speed:	; 2 bytes @ 0x35
	global	robotMoveSpeed@speed
robotMoveSpeed@speed:	; 2 bytes @ 0x35
	global	robotTurnSpeed@speed
robotTurnSpeed@speed:	; 2 bytes @ 0x35
	ds	2
	global	??_robotTurnSpeed
??_robotTurnSpeed:	; 0 bytes @ 0x37
	global	??_robotMoveSpeed
??_robotMoveSpeed:	; 0 bytes @ 0x37
	global	robotFollow@AdcTarget
robotFollow@AdcTarget:	; 2 bytes @ 0x37
	ds	2
	global	??_robotFollow
??_robotFollow:	; 0 bytes @ 0x39
	ds	1
	global	robotMoveSpeed@temp1
robotMoveSpeed@temp1:	; 2 bytes @ 0x3A
	global	robotTurnSpeed@temp1
robotTurnSpeed@temp1:	; 2 bytes @ 0x3A
	ds	2
	global	robotFollow@temp1
robotFollow@temp1:	; 2 bytes @ 0x3C
	ds	2
	global	??_main
??_main:	; 0 bytes @ 0x3E
	ds	3
	global	main@shortwall
main@shortwall:	; 2 bytes @ 0x41
	ds	2
	global	main@a
main@a:	; 2 bytes @ 0x43
	ds	2
	global	main@choice
main@choice:	; 1 bytes @ 0x45
	ds	1
;;Data sizes: Strings 147, constant 10, data 13, bss 98, persistent 0 stack 0
;;Auto spaces:   Size  Autos    Used
;; COMMON          14     11      14
;; BANK0           80     70      80
;; BANK1           80      0      68
;; BANK3           96      0      32
;; BANK2           96      0       0

;;
;; Pointer list with targets:

;; ?i1___lwmod	unsigned int  size(1) Largest target is 0
;;
;; ?_abs	int  size(1) Largest target is 0
;;
;; ?___awmod	int  size(1) Largest target is 0
;;
;; ?___wmul	unsigned int  size(1) Largest target is 0
;;
;; ?___lwdiv	unsigned int  size(1) Largest target is 0
;;
;; ?_readDistance	unsigned int  size(1) Largest target is 0
;;
;; ?___lwmod	unsigned int  size(1) Largest target is 0
;;
;; ?_adc_read	unsigned int  size(1) Largest target is 0
;;
;; sprintf@f	PTR const unsigned char  size(1) Largest target is 13
;;		 -> STR_13(CODE[13]), 
;;
;; sprintf@sp	PTR unsigned char  size(1) Largest target is 16
;;		 -> UpdateDisplay@LCDOutput(BANK0[16]), 
;;
;; ?_sprintf	int  size(1) Largest target is 0
;;
;; sprintf@ap	PTR void [1] size(1) Largest target is 2
;;		 -> ?_sprintf(BANK0[2]), 
;;
;; S8211$_cp	PTR const unsigned char  size(1) Largest target is 0
;;
;; _val._str._cp	PTR const unsigned char  size(1) Largest target is 0
;;
;; shortMenuStrings	PTR const unsigned char [6] size(1) Largest target is 4
;;		 -> STR_12(CODE[4]), STR_11(CODE[4]), STR_10(CODE[4]), STR_9(CODE[4]), 
;;		 -> STR_8(CODE[4]), STR_7(CODE[4]), 
;;
;; menuStrings	PTR const unsigned char [6] size(1) Largest target is 9
;;		 -> STR_6(CODE[9]), STR_5(CODE[9]), STR_4(CODE[8]), STR_3(CODE[9]), 
;;		 -> STR_2(CODE[9]), STR_1(CODE[9]), 
;;
;; lcd_write_string@s	PTR unsigned char  size(2) Largest target is 16
;;		 -> STR_19(CODE[9]), STR_18(CODE[16]), STR_17(CODE[4]), STR_16(CODE[8]), 
;;		 -> STR_15(CODE[4]), STR_14(CODE[16]), UpdateDisplay@LCDOutput(BANK0[16]), STR_12(CODE[4]), 
;;		 -> STR_11(CODE[4]), STR_10(CODE[4]), STR_9(CODE[4]), STR_8(CODE[4]), 
;;		 -> STR_7(CODE[4]), STR_6(CODE[9]), STR_5(CODE[9]), STR_4(CODE[8]), 
;;		 -> STR_3(CODE[9]), STR_2(CODE[9]), STR_1(CODE[9]), 
;;


;;
;; Critical Paths under _main in COMMON
;;
;;   None.
;;
;; Critical Paths under _isr1 in COMMON
;;
;;   _isr1->i1___lwmod
;;   _ReadButtons->_Debounce
;;
;; Critical Paths under _main in BANK0
;;
;;   _main->_robotFollow
;;   _ChargeMode->_UpdateDisplay
;;   _robotFollow->_UpdateDisplay
;;   _robotMoveSpeed->_UpdateDisplay
;;   _robotTurnSpeed->_UpdateDisplay
;;   _calibrateIR->_UpdateDisplay
;;   _UpdateDisplay->_sprintf
;;   _readAvgDistance->_readDistance
;;   _readDistance->_adc_read_channel
;;   _robot_read->_ser_putch
;;   _robot_read->_ser_getch
;;   _lcd_init->_lcd_write_control
;;   _lcd_write_string->___awmod
;;   _lcd_set_cursor->_lcd_write_control
;;   _abs->___wmul
;;   _robotTurn->_ser_putch
;;   _RobotDrive->_ser_putch
;;   _sprintf->___lwmod
;;   _rotate->_spi_transfer
;;   _robo_init->_ser_putch
;;   _adc_read_channel->_adc_read
;;   ___lwmod->___lwdiv
;;
;; Critical Paths under _isr1 in BANK0
;;
;;   None.
;;
;; Critical Paths under _main in BANK1
;;
;;   None.
;;
;; Critical Paths under _isr1 in BANK1
;;
;;   None.
;;
;; Critical Paths under _main in BANK3
;;
;;   None.
;;
;; Critical Paths under _isr1 in BANK3
;;
;;   None.
;;
;; Critical Paths under _main in BANK2
;;
;;   None.
;;
;; Critical Paths under _isr1 in BANK2
;;
;;   None.

;;
;;Main: autosize = 0, tempsize = 3, incstack = 0, save=0
;;

;;
;;Call Graph Tables:
;;
;; ---------------------------------------------------------------------------------
;; (Depth) Function   	        Calls       Base Space   Used Autos Params    Refs
;; ---------------------------------------------------------------------------------
;; (0) _main                                                 8     8      0   11027
;;                                             62 BANK0      8     8      0
;;                               _init
;;                         _robot_read
;;                    _readAvgDistance
;;                      _UpdateDisplay
;;                               _Menu
;;                        _calibrateIR
;;                     _robotTurnSpeed
;;                     _robotMoveSpeed
;;                        _robotFollow
;;                         _ChargeMode
;; ---------------------------------------------------------------------------------
;; (1) _ChargeMode                                           1     1      0    1305
;;                                             51 BANK0      1     1      0
;;                          _ser_putch
;;                      _UpdateDisplay
;; ---------------------------------------------------------------------------------
;; (1) _robotFollow                                         11     5      6    2660
;;                                             51 BANK0     11     5      6
;;                         _RobotDrive
;;                    _readAvgDistance
;;                         _robot_read
;;                      _UpdateDisplay
;;                                _abs
;; ---------------------------------------------------------------------------------
;; (1) _robotMoveSpeed                                       9     5      4    1867
;;                                             51 BANK0      9     5      4
;;                         _RobotDrive
;;                         _robot_read
;;                      _UpdateDisplay
;;                                _abs
;; ---------------------------------------------------------------------------------
;; (1) _robotTurnSpeed                                       9     5      4    1710
;;                                             51 BANK0      9     5      4
;;                          _robotTurn
;;                         _robot_read
;;                      _UpdateDisplay
;;                                _abs
;; ---------------------------------------------------------------------------------
;; (1) _calibrateIR                                          0     0      0    1381
;;                             _rotate
;;                      _UpdateDisplay
;; ---------------------------------------------------------------------------------
;; (2) _UpdateDisplay                                       20    20      0    1283
;;                                             31 BANK0     20    20      0
;;                  _lcd_write_control
;;                            _sprintf
;;                     _lcd_set_cursor
;;                   _lcd_write_string
;;                            ___awmod
;; ---------------------------------------------------------------------------------
;; (2) _readAvgDistance                                     26    26      0     595
;;                                             14 BANK0     26    26      0
;;                       _readDistance
;; ---------------------------------------------------------------------------------
;; (1) _init                                                 1     1      0      44
;;                                              3 BANK0      1     1      0
;;                           _ser_init
;;                           _init_adc
;;                           _lcd_init
;;                          _robo_init
;; ---------------------------------------------------------------------------------
;; (3) _readDistance                                         6     4      2      69
;;                                              8 BANK0      6     4      2
;;                   _adc_read_channel
;; ---------------------------------------------------------------------------------
;; (2) _robot_read                                           3     3      0     111
;;                                              2 BANK0      3     3      0
;;                          _ser_putch
;;                          _ser_getch
;; ---------------------------------------------------------------------------------
;; (2) _lcd_init                                             0     0      0      22
;;                  _lcd_write_control
;; ---------------------------------------------------------------------------------
;; (3) _lcd_write_string                                     2     0      2      67
;;                                              7 BANK0      2     0      2
;;                     _lcd_write_data
;;                            ___awmod (ARG)
;; ---------------------------------------------------------------------------------
;; (3) _lcd_set_cursor                                       1     1      0      45
;;                                              3 BANK0      1     1      0
;;                  _lcd_write_control
;; ---------------------------------------------------------------------------------
;; (2) _abs                                                  4     2      2     158
;;                                              6 BANK0      4     2      2
;;                             ___wmul
;; ---------------------------------------------------------------------------------
;; (2) _robotTurn                                            2     0      2      66
;;                                              2 BANK0      2     0      2
;;                          _ser_putch
;; ---------------------------------------------------------------------------------
;; (2) _RobotDrive                                           9     5      4     202
;;                                              2 BANK0      9     5      4
;;                          _ser_putch
;; ---------------------------------------------------------------------------------
;; (3) _ser_getch                                            2     2      0      23
;;                                              0 BANK0      2     2      0
;;                           _ser_isrx
;; ---------------------------------------------------------------------------------
;; (3) _sprintf                                             17    12      5     798
;;                                             14 BANK0     17    12      5
;;                            ___lwdiv
;;                            ___lwmod
;; ---------------------------------------------------------------------------------
;; (2) _rotate                                               7     4      3      98
;;                                              3 BANK0      7     4      3
;;                       _spi_transfer
;; ---------------------------------------------------------------------------------
;; (2) _robo_init                                            0     0      0      22
;;                          _ser_putch
;; ---------------------------------------------------------------------------------
;; (4) _lcd_write_data                                       3     3      0      22
;;                                              0 BANK0      3     3      0
;; ---------------------------------------------------------------------------------
;; (4) _lcd_write_control                                    3     3      0      22
;;                                              0 BANK0      3     3      0
;; ---------------------------------------------------------------------------------
;; (2) _init_adc                                             1     1      0       0
;;                                              0 BANK0      1     1      0
;; ---------------------------------------------------------------------------------
;; (4) _adc_read_channel                                     2     2      0      46
;;                                              6 BANK0      2     2      0
;;                           _adc_read
;; ---------------------------------------------------------------------------------
;; (3) ___awmod                                              7     3      4     296
;;                                              0 BANK0      7     3      4
;; ---------------------------------------------------------------------------------
;; (4) ___lwmod                                              6     2      4     159
;;                                              8 BANK0      6     2      4
;;                            ___lwdiv (ARG)
;; ---------------------------------------------------------------------------------
;; (4) ___lwdiv                                              8     4      4     162
;;                                              0 BANK0      8     4      4
;; ---------------------------------------------------------------------------------
;; (3) ___wmul                                               6     2      4      92
;;                                              0 BANK0      6     2      4
;; ---------------------------------------------------------------------------------
;; (4) _ser_isrx                                             0     0      0       0
;; ---------------------------------------------------------------------------------
;; (3) _spi_transfer                                         3     3      0      30
;;                                              0 BANK0      3     3      0
;; ---------------------------------------------------------------------------------
;; (2) _ser_putch                                            2     2      0      22
;;                                              0 BANK0      2     2      0
;; ---------------------------------------------------------------------------------
;; (1) _Menu                                                 1     1      0      22
;;                                              0 BANK0      1     1      0
;; ---------------------------------------------------------------------------------
;; (2) _ser_init                                             1     1      0       0
;;                                              0 BANK0      1     1      0
;; ---------------------------------------------------------------------------------
;; (5) _adc_read                                             6     4      2      24
;;                                              0 BANK0      6     4      2
;; ---------------------------------------------------------------------------------
;; Estimated maximum stack depth 5
;; ---------------------------------------------------------------------------------
;; (Depth) Function   	        Calls       Base Space   Used Autos Params    Refs
;; ---------------------------------------------------------------------------------
;; (6) _isr1                                                 5     5      0     521
;;                                              6 COMMON     5     5      0
;;                          i1___lwmod
;;                        _ReadButtons
;; ---------------------------------------------------------------------------------
;; (7) _ReadButtons                                          0     0      0       0
;;                           _Debounce
;; ---------------------------------------------------------------------------------
;; (7) i1___lwmod                                            6     2      4     521
;;                                              0 COMMON     6     2      4
;; ---------------------------------------------------------------------------------
;; (8) _Debounce                                             1     1      0       0
;;                                              0 COMMON     1     1      0
;; ---------------------------------------------------------------------------------
;; Estimated maximum stack depth 8
;; ---------------------------------------------------------------------------------

;; Call Graph Graphs:

;; _main (ROOT)
;;   _init
;;     _ser_init
;;     _init_adc
;;     _lcd_init
;;       _lcd_write_control
;;     _robo_init
;;       _ser_putch
;;   _robot_read
;;     _ser_putch
;;     _ser_getch
;;       _ser_isrx
;;   _readAvgDistance
;;     _readDistance
;;       _adc_read_channel
;;         _adc_read
;;   _UpdateDisplay
;;     _lcd_write_control
;;     _sprintf
;;       ___lwdiv
;;       ___lwmod
;;         ___lwdiv (ARG)
;;     _lcd_set_cursor
;;       _lcd_write_control
;;     _lcd_write_string
;;       _lcd_write_data
;;       ___awmod (ARG)
;;     ___awmod
;;   _Menu
;;   _calibrateIR
;;     _rotate
;;       _spi_transfer
;;     _UpdateDisplay
;;       _lcd_write_control
;;       _sprintf
;;         ___lwdiv
;;         ___lwmod
;;           ___lwdiv (ARG)
;;       _lcd_set_cursor
;;         _lcd_write_control
;;       _lcd_write_string
;;         _lcd_write_data
;;         ___awmod (ARG)
;;       ___awmod
;;   _robotTurnSpeed
;;     _robotTurn
;;       _ser_putch
;;     _robot_read
;;       _ser_putch
;;       _ser_getch
;;         _ser_isrx
;;     _UpdateDisplay
;;       _lcd_write_control
;;       _sprintf
;;         ___lwdiv
;;         ___lwmod
;;           ___lwdiv (ARG)
;;       _lcd_set_cursor
;;         _lcd_write_control
;;       _lcd_write_string
;;         _lcd_write_data
;;         ___awmod (ARG)
;;       ___awmod
;;     _abs
;;       ___wmul
;;   _robotMoveSpeed
;;     _RobotDrive
;;       _ser_putch
;;     _robot_read
;;       _ser_putch
;;       _ser_getch
;;         _ser_isrx
;;     _UpdateDisplay
;;       _lcd_write_control
;;       _sprintf
;;         ___lwdiv
;;         ___lwmod
;;           ___lwdiv (ARG)
;;       _lcd_set_cursor
;;         _lcd_write_control
;;       _lcd_write_string
;;         _lcd_write_data
;;         ___awmod (ARG)
;;       ___awmod
;;     _abs
;;       ___wmul
;;   _robotFollow
;;     _RobotDrive
;;       _ser_putch
;;     _readAvgDistance
;;       _readDistance
;;         _adc_read_channel
;;           _adc_read
;;     _robot_read
;;       _ser_putch
;;       _ser_getch
;;         _ser_isrx
;;     _UpdateDisplay
;;       _lcd_write_control
;;       _sprintf
;;         ___lwdiv
;;         ___lwmod
;;           ___lwdiv (ARG)
;;       _lcd_set_cursor
;;         _lcd_write_control
;;       _lcd_write_string
;;         _lcd_write_data
;;         ___awmod (ARG)
;;       ___awmod
;;     _abs
;;       ___wmul
;;   _ChargeMode
;;     _ser_putch
;;     _UpdateDisplay
;;       _lcd_write_control
;;       _sprintf
;;         ___lwdiv
;;         ___lwmod
;;           ___lwdiv (ARG)
;;       _lcd_set_cursor
;;         _lcd_write_control
;;       _lcd_write_string
;;         _lcd_write_data
;;         ___awmod (ARG)
;;       ___awmod
;;
;; _isr1 (ROOT)
;;   i1___lwmod
;;   _ReadButtons
;;     _Debounce
;;

;; Address spaces:

;;Name               Size   Autos  Total    Cost      Usage
;;BANK3               60      0      20       9       33.3%
;;BITBANK3            60      0       0       8        0.0%
;;SFR3                 0      0       0       4        0.0%
;;BITSFR3              0      0       0       4        0.0%
;;BANK2               60      0       0      11        0.0%
;;BITBANK2            60      0       0      10        0.0%
;;SFR2                 0      0       0       5        0.0%
;;BITSFR2              0      0       0       5        0.0%
;;SFR1                 0      0       0       2        0.0%
;;BITSFR1              0      0       0       2        0.0%
;;BANK1               50      0      44       7       85.0%
;;BITBANK1            50      0       0       6        0.0%
;;CODE                 0      0       0       0        0.0%
;;DATA                 0      0      CD      12        0.0%
;;ABS                  0      0      C2       3        0.0%
;;NULL                 0      0       0       0        0.0%
;;STACK                0      0       B       2        0.0%
;;BANK0               50     46      50       5      100.0%
;;BITBANK0            50      0       0       4        0.0%
;;SFR0                 0      0       0       1        0.0%
;;BITSFR0              0      0       0       1        0.0%
;;COMMON               E      B       E       1      100.0%
;;BITCOMMON            E      0       2       0       14.3%
;;EEDATA             100      0       0       0        0.0%

	global	_main
psect	maintext,global,class=CODE,delta=2
global __pmaintext
__pmaintext:

;; *************** function _main *****************
;; Defined at:
;;		line 172 in file "E:\Aldnoah.Zero\Assignment3\Main.c"
;; Parameters:    Size  Location     Type
;;		None
;; Auto vars:     Size  Location     Type
;;  a               2   67[BANK0 ] int 
;;  shortwall       2   65[BANK0 ] int 
;;  choice          1   69[BANK0 ] unsigned char 
;; Return value:  Size  Location     Type
;;		None               void
;; Registers used:
;;		wreg, fsr0l, fsr0h, status,2, status,0, btemp+1, pclath, cstack
;; Tracked objects:
;;		On entry : 17F/0
;;		On exit  : 0/0
;;		Unchanged: 0/0
;; Data sizes:     COMMON   BANK0   BANK1   BANK3   BANK2
;;      Params:         0       0       0       0       0
;;      Locals:         0       5       0       0       0
;;      Temps:          0       3       0       0       0
;;      Totals:         0       8       0       0       0
;;Total ram usage:        8 bytes
;; Hardware stack levels required when called:    8
;; This function calls:
;;		_init
;;		_robot_read
;;		_readAvgDistance
;;		_UpdateDisplay
;;		_Menu
;;		_calibrateIR
;;		_robotTurnSpeed
;;		_robotMoveSpeed
;;		_robotFollow
;;		_ChargeMode
;; This function is called by:
;;		Startup code after reset
;; This function uses a non-reentrant model
;;
psect	maintext
	file	"E:\Aldnoah.Zero\Assignment3\Main.c"
	line	172
	global	__size_of_main
	__size_of_main	equ	__end_of_main-_main
	
_main:	
	opt	stack 0
; Regs used in _main: [wreg-fsr0h+status,2+status,0+btemp+1+pclath+cstack]
	line	173
	
l11388:	
;Main.c: 173: unsigned char choice = 255;
	movlw	(0FFh)
	bcf	status, 5	;RP0=0, select bank0
	bcf	status, 6	;RP1=0, select bank0
	movwf	(??_main+0)+0
	movf	(??_main+0)+0,w
	movwf	(main@choice)
	line	174
	
l11390:	
;Main.c: 174: int shortwall = 0;
	clrf	(main@shortwall)
	clrf	(main@shortwall+1)
	line	177
	
l11392:	
;Main.c: 177: init();
	fcall	_init
	goto	l11394
	line	180
;Main.c: 180: while(1)
	
l2234:	
	line	182
	
l11394:	
;Main.c: 181: {
;Main.c: 182: if (RTC_FLAG_250MS == 1)
	btfss	(_RTC_FLAG_250MS/8),(_RTC_FLAG_250MS)&7
	goto	u4991
	goto	u4990
u4991:
	goto	l11402
u4990:
	line	184
	
l11396:	
;Main.c: 183: {
;Main.c: 184: RTC_FLAG_250MS = 0;
	bcf	(_RTC_FLAG_250MS/8),(_RTC_FLAG_250MS)&7
	line	185
	
l11398:	
;Main.c: 185: robot_read(2);
	movlw	(02h)
	fcall	_robot_read
	line	186
;Main.c: 186: readAvgDistance();
	fcall	_readAvgDistance
	line	187
	
l11400:	
;Main.c: 187: UpdateDisplay();
	fcall	_UpdateDisplay
	goto	l11402
	line	188
	
l2235:	
	line	189
	
l11402:	
;Main.c: 188: }
;Main.c: 189: if (buttonPressed)
	movf	(_buttonPressed),w	;volatile
	skipz
	goto	u5000
	goto	l11470
u5000:
	line	192
	
l11404:	
;Main.c: 191: {
;Main.c: 192: choice = Menu(buttonPressed);
	movf	(_buttonPressed),w	;volatile
	fcall	_Menu
	bcf	status, 5	;RP0=0, select bank0
	bcf	status, 6	;RP1=0, select bank0
	movwf	(??_main+0)+0
	movf	(??_main+0)+0,w
	movwf	(main@choice)
	line	193
	
l11406:	
;Main.c: 193: buttonPressed = 0;
	clrf	(_buttonPressed)	;volatile
	goto	l11470
	line	194
	
l2236:	
	line	198
;Main.c: 194: }
;Main.c: 198: switch (choice)
	goto	l11470
	line	200
;Main.c: 199: {
;Main.c: 200: case 0:
	
l2238:	
	line	201
	
l11408:	
;Main.c: 201: calibrateIR();
	fcall	_calibrateIR
	line	202
;Main.c: 202: break;
	goto	l11472
	line	203
;Main.c: 203: case 1:
	
l2240:	
	line	209
;Main.c: 209: break;
	goto	l11472
	line	210
;Main.c: 210: case 2:
	
l2241:	
	line	215
	
l11410:	
;Main.c: 215: robotTurnSpeed(-90,400);
	movlw	low(-90)
	bcf	status, 5	;RP0=0, select bank0
	bcf	status, 6	;RP1=0, select bank0
	movwf	(?_robotTurnSpeed)
	movlw	high(-90)
	movwf	((?_robotTurnSpeed))+1
	movlw	low(0190h)
	movwf	0+(?_robotTurnSpeed)+02h
	movlw	high(0190h)
	movwf	(0+(?_robotTurnSpeed)+02h)+1
	fcall	_robotTurnSpeed
	line	216
	
l11412:	
;Main.c: 216: readAvgDistance();
	fcall	_readAvgDistance
	line	217
	
l11414:	
;Main.c: 217: int a = adcVal;
	bcf	status, 5	;RP0=0, select bank0
	bcf	status, 6	;RP1=0, select bank0
	movf	(_adcVal+1),w	;volatile
	clrf	(main@a+1)	;volatile
	addwf	(main@a+1)	;volatile
	movf	(_adcVal),w	;volatile
	clrf	(main@a)	;volatile
	addwf	(main@a)	;volatile

	line	218
	
l11416:	
;Main.c: 218: robotMoveSpeed(1500 - a,400);
	comf	(main@a),w
	movwf	(??_main+0)+0
	comf	(main@a+1),w
	movwf	((??_main+0)+0+1)
	incf	(??_main+0)+0,f
	skipnz
	incf	((??_main+0)+0+1),f
	movf	0+(??_main+0)+0,w
	addlw	low(05DCh)
	movwf	(?_robotMoveSpeed)
	movf	1+(??_main+0)+0,w
	skipnc
	addlw	1
	addlw	high(05DCh)
	movwf	1+(?_robotMoveSpeed)
	movlw	low(0190h)
	movwf	0+(?_robotMoveSpeed)+02h
	movlw	high(0190h)
	movwf	(0+(?_robotMoveSpeed)+02h)+1
	fcall	_robotMoveSpeed
	line	220
	
l11418:	
;Main.c: 220: robotTurnSpeed(-90,400);
	movlw	low(-90)
	bcf	status, 5	;RP0=0, select bank0
	bcf	status, 6	;RP1=0, select bank0
	movwf	(?_robotTurnSpeed)
	movlw	high(-90)
	movwf	((?_robotTurnSpeed))+1
	movlw	low(0190h)
	movwf	0+(?_robotTurnSpeed)+02h
	movlw	high(0190h)
	movwf	(0+(?_robotTurnSpeed)+02h)+1
	fcall	_robotTurnSpeed
	line	221
	
l11420:	
;Main.c: 221: robotMoveSpeed(4000,400);
	movlw	low(0FA0h)
	bcf	status, 5	;RP0=0, select bank0
	bcf	status, 6	;RP1=0, select bank0
	movwf	(?_robotMoveSpeed)
	movlw	high(0FA0h)
	movwf	((?_robotMoveSpeed))+1
	movlw	low(0190h)
	movwf	0+(?_robotMoveSpeed)+02h
	movlw	high(0190h)
	movwf	(0+(?_robotMoveSpeed)+02h)+1
	fcall	_robotMoveSpeed
	line	223
	
l11422:	
;Main.c: 223: robotTurnSpeed(90,400);
	movlw	low(05Ah)
	bcf	status, 5	;RP0=0, select bank0
	bcf	status, 6	;RP1=0, select bank0
	movwf	(?_robotTurnSpeed)
	movlw	high(05Ah)
	movwf	((?_robotTurnSpeed))+1
	movlw	low(0190h)
	movwf	0+(?_robotTurnSpeed)+02h
	movlw	high(0190h)
	movwf	(0+(?_robotTurnSpeed)+02h)+1
	fcall	_robotTurnSpeed
	line	224
	
l11424:	
;Main.c: 224: robotMoveSpeed(1000,400);
	movlw	low(03E8h)
	bcf	status, 5	;RP0=0, select bank0
	bcf	status, 6	;RP1=0, select bank0
	movwf	(?_robotMoveSpeed)
	movlw	high(03E8h)
	movwf	((?_robotMoveSpeed))+1
	movlw	low(0190h)
	movwf	0+(?_robotMoveSpeed)+02h
	movlw	high(0190h)
	movwf	(0+(?_robotMoveSpeed)+02h)+1
	fcall	_robotMoveSpeed
	line	225
	
l11426:	
;Main.c: 225: robotTurnSpeed(90,400);
	movlw	low(05Ah)
	bcf	status, 5	;RP0=0, select bank0
	bcf	status, 6	;RP1=0, select bank0
	movwf	(?_robotTurnSpeed)
	movlw	high(05Ah)
	movwf	((?_robotTurnSpeed))+1
	movlw	low(0190h)
	movwf	0+(?_robotTurnSpeed)+02h
	movlw	high(0190h)
	movwf	(0+(?_robotTurnSpeed)+02h)+1
	fcall	_robotTurnSpeed
	line	226
	
l11428:	
;Main.c: 226: robotMoveSpeed(1000,400);
	movlw	low(03E8h)
	bcf	status, 5	;RP0=0, select bank0
	bcf	status, 6	;RP1=0, select bank0
	movwf	(?_robotMoveSpeed)
	movlw	high(03E8h)
	movwf	((?_robotMoveSpeed))+1
	movlw	low(0190h)
	movwf	0+(?_robotMoveSpeed)+02h
	movlw	high(0190h)
	movwf	(0+(?_robotMoveSpeed)+02h)+1
	fcall	_robotMoveSpeed
	line	229
;Main.c: 229: break;
	goto	l11472
	line	230
;Main.c: 230: case 3:
	
l2242:	
	line	237
	
l11430:	
;Main.c: 237: _delay((unsigned long)((100)*(20000000/4000.0)));
	opt asmopt_off
movlw  3
	bcf	status, 5	;RP0=0, select bank0
	bcf	status, 6	;RP1=0, select bank0
movwf	((??_main+0)+0+2),f
movlw	138
movwf	((??_main+0)+0+1),f
	movlw	86
movwf	((??_main+0)+0),f
u5027:
	decfsz	((??_main+0)+0),f
	goto	u5027
	decfsz	((??_main+0)+0+1),f
	goto	u5027
	decfsz	((??_main+0)+0+2),f
	goto	u5027
	nop2
opt asmopt_on

	line	238
	
l11432:	
;Main.c: 238: robotMoveSpeed(1000,400);
	movlw	low(03E8h)
	bcf	status, 5	;RP0=0, select bank0
	bcf	status, 6	;RP1=0, select bank0
	movwf	(?_robotMoveSpeed)
	movlw	high(03E8h)
	movwf	((?_robotMoveSpeed))+1
	movlw	low(0190h)
	movwf	0+(?_robotMoveSpeed)+02h
	movlw	high(0190h)
	movwf	(0+(?_robotMoveSpeed)+02h)+1
	fcall	_robotMoveSpeed
	line	239
	
l11434:	
;Main.c: 239: robotTurnSpeed(80,200);
	movlw	low(050h)
	bcf	status, 5	;RP0=0, select bank0
	bcf	status, 6	;RP1=0, select bank0
	movwf	(?_robotTurnSpeed)
	movlw	high(050h)
	movwf	((?_robotTurnSpeed))+1
	movlw	low(0C8h)
	movwf	0+(?_robotTurnSpeed)+02h
	movlw	high(0C8h)
	movwf	(0+(?_robotTurnSpeed)+02h)+1
	fcall	_robotTurnSpeed
	line	240
	
l11436:	
;Main.c: 240: robotMoveSpeed(1000,400);
	movlw	low(03E8h)
	bcf	status, 5	;RP0=0, select bank0
	bcf	status, 6	;RP1=0, select bank0
	movwf	(?_robotMoveSpeed)
	movlw	high(03E8h)
	movwf	((?_robotMoveSpeed))+1
	movlw	low(0190h)
	movwf	0+(?_robotMoveSpeed)+02h
	movlw	high(0190h)
	movwf	(0+(?_robotMoveSpeed)+02h)+1
	fcall	_robotMoveSpeed
	line	241
	
l11438:	
;Main.c: 241: robotTurnSpeed(80,200);
	movlw	low(050h)
	bcf	status, 5	;RP0=0, select bank0
	bcf	status, 6	;RP1=0, select bank0
	movwf	(?_robotTurnSpeed)
	movlw	high(050h)
	movwf	((?_robotTurnSpeed))+1
	movlw	low(0C8h)
	movwf	0+(?_robotTurnSpeed)+02h
	movlw	high(0C8h)
	movwf	(0+(?_robotTurnSpeed)+02h)+1
	fcall	_robotTurnSpeed
	line	242
	
l11440:	
;Main.c: 242: robotMoveSpeed(2000,400);
	movlw	low(07D0h)
	bcf	status, 5	;RP0=0, select bank0
	bcf	status, 6	;RP1=0, select bank0
	movwf	(?_robotMoveSpeed)
	movlw	high(07D0h)
	movwf	((?_robotMoveSpeed))+1
	movlw	low(0190h)
	movwf	0+(?_robotMoveSpeed)+02h
	movlw	high(0190h)
	movwf	(0+(?_robotMoveSpeed)+02h)+1
	fcall	_robotMoveSpeed
	line	243
	
l11442:	
;Main.c: 243: robotTurnSpeed(-80,200);
	movlw	low(-80)
	bcf	status, 5	;RP0=0, select bank0
	bcf	status, 6	;RP1=0, select bank0
	movwf	(?_robotTurnSpeed)
	movlw	high(-80)
	movwf	((?_robotTurnSpeed))+1
	movlw	low(0C8h)
	movwf	0+(?_robotTurnSpeed)+02h
	movlw	high(0C8h)
	movwf	(0+(?_robotTurnSpeed)+02h)+1
	fcall	_robotTurnSpeed
	line	244
;Main.c: 244: break;
	goto	l11472
	line	245
;Main.c: 245: case 4:
	
l2243:	
	line	246
;Main.c: 246: while (ROBOTerror != 1)
	goto	l11464
	
l2245:	
	line	248
;Main.c: 247: {
;Main.c: 248: switch (ROBOTerror)
	goto	l11462
	line	250
;Main.c: 249: {
;Main.c: 250: case 0:
	
l2247:	
	line	251
	
l11444:	
;Main.c: 251: robotFollow(1000, 300, adcVal);
	movlw	low(03E8h)
	bcf	status, 5	;RP0=0, select bank0
	bcf	status, 6	;RP1=0, select bank0
	movwf	(?_robotFollow)
	movlw	high(03E8h)
	movwf	((?_robotFollow))+1
	movlw	low(012Ch)
	movwf	0+(?_robotFollow)+02h
	movlw	high(012Ch)
	movwf	(0+(?_robotFollow)+02h)+1
	movf	(_adcVal+1),w	;volatile
	clrf	1+(?_robotFollow)+04h
	addwf	1+(?_robotFollow)+04h
	movf	(_adcVal),w	;volatile
	clrf	0+(?_robotFollow)+04h
	addwf	0+(?_robotFollow)+04h

	fcall	_robotFollow
	line	252
;Main.c: 252: break;
	goto	l11464
	line	253
;Main.c: 253: case 1:
	
l2249:	
	line	255
;Main.c: 255: break;
	goto	l11464
	line	256
;Main.c: 256: case 2:
	
l2250:	
	line	258
;Main.c: 258: break;
	goto	l11464
	line	259
;Main.c: 259: case 3:
	
l2251:	
	line	261
;Main.c: 261: break;
	goto	l11464
	line	262
;Main.c: 262: case 10:
	
l2252:	
	line	263
	
l11446:	
;Main.c: 263: robotTurnSpeed(90,400);
	movlw	low(05Ah)
	bcf	status, 5	;RP0=0, select bank0
	bcf	status, 6	;RP1=0, select bank0
	movwf	(?_robotTurnSpeed)
	movlw	high(05Ah)
	movwf	((?_robotTurnSpeed))+1
	movlw	low(0190h)
	movwf	0+(?_robotTurnSpeed)+02h
	movlw	high(0190h)
	movwf	(0+(?_robotTurnSpeed)+02h)+1
	fcall	_robotTurnSpeed
	line	265
	
l11448:	
;Main.c: 265: readAvgDistance();
	fcall	_readAvgDistance
	line	266
	
l11450:	
;Main.c: 266: robotFollow(1000, 300, adcVal - 10);
	movlw	low(03E8h)
	bcf	status, 5	;RP0=0, select bank0
	bcf	status, 6	;RP1=0, select bank0
	movwf	(?_robotFollow)
	movlw	high(03E8h)
	movwf	((?_robotFollow))+1
	movlw	low(012Ch)
	movwf	0+(?_robotFollow)+02h
	movlw	high(012Ch)
	movwf	(0+(?_robotFollow)+02h)+1
	movf	(_adcVal),w	;volatile
	addlw	low(-10)
	movwf	0+(?_robotFollow)+04h
	movf	(_adcVal+1),w	;volatile
	skipnc
	addlw	1
	addlw	high(-10)
	movwf	1+0+(?_robotFollow)+04h
	fcall	_robotFollow
	line	267
;Main.c: 267: break;
	goto	l11464
	line	268
;Main.c: 268: case 11:
	
l2253:	
	line	270
	
l11452:	
;Main.c: 270: robotMoveSpeed(700,300);
	movlw	low(02BCh)
	bcf	status, 5	;RP0=0, select bank0
	bcf	status, 6	;RP1=0, select bank0
	movwf	(?_robotMoveSpeed)
	movlw	high(02BCh)
	movwf	((?_robotMoveSpeed))+1
	movlw	low(012Ch)
	movwf	0+(?_robotMoveSpeed)+02h
	movlw	high(012Ch)
	movwf	(0+(?_robotMoveSpeed)+02h)+1
	fcall	_robotMoveSpeed
	line	271
;Main.c: 271: robotTurnSpeed(-90,400);
	movlw	low(-90)
	bcf	status, 5	;RP0=0, select bank0
	bcf	status, 6	;RP1=0, select bank0
	movwf	(?_robotTurnSpeed)
	movlw	high(-90)
	movwf	((?_robotTurnSpeed))+1
	movlw	low(0190h)
	movwf	0+(?_robotTurnSpeed)+02h
	movlw	high(0190h)
	movwf	(0+(?_robotTurnSpeed)+02h)+1
	fcall	_robotTurnSpeed
	line	272
	
l11454:	
;Main.c: 272: readAvgDistance();
	fcall	_readAvgDistance
	line	273
	
l11456:	
;Main.c: 273: robotFollow(1000, 300, adcVal - 10);
	movlw	low(03E8h)
	bcf	status, 5	;RP0=0, select bank0
	bcf	status, 6	;RP1=0, select bank0
	movwf	(?_robotFollow)
	movlw	high(03E8h)
	movwf	((?_robotFollow))+1
	movlw	low(012Ch)
	movwf	0+(?_robotFollow)+02h
	movlw	high(012Ch)
	movwf	(0+(?_robotFollow)+02h)+1
	movf	(_adcVal),w	;volatile
	addlw	low(-10)
	movwf	0+(?_robotFollow)+04h
	movf	(_adcVal+1),w	;volatile
	skipnc
	addlw	1
	addlw	high(-10)
	movwf	1+0+(?_robotFollow)+04h
	fcall	_robotFollow
	line	274
;Main.c: 274: break;
	goto	l11464
	line	275
;Main.c: 275: default:
	
l2254:	
	line	276
	
l11458:	
;Main.c: 276: robotFollow(1000, 300, adcVal);
	movlw	low(03E8h)
	bcf	status, 5	;RP0=0, select bank0
	bcf	status, 6	;RP1=0, select bank0
	movwf	(?_robotFollow)
	movlw	high(03E8h)
	movwf	((?_robotFollow))+1
	movlw	low(012Ch)
	movwf	0+(?_robotFollow)+02h
	movlw	high(012Ch)
	movwf	(0+(?_robotFollow)+02h)+1
	movf	(_adcVal+1),w	;volatile
	clrf	1+(?_robotFollow)+04h
	addwf	1+(?_robotFollow)+04h
	movf	(_adcVal),w	;volatile
	clrf	0+(?_robotFollow)+04h
	addwf	0+(?_robotFollow)+04h

	fcall	_robotFollow
	line	277
;Main.c: 277: break;
	goto	l11464
	line	279
	
l11460:	
;Main.c: 279: }
	goto	l11464
	line	248
	
l2246:	
	
l11462:	
	bsf	status, 5	;RP0=1, select bank1
	bcf	status, 6	;RP1=0, select bank1
	movf	(_ROBOTerror)^080h,w
	; Switch size 1, requested type "space"
; Number of cases is 6, Range of values is 0 to 11
; switch strategies available:
; Name         Instructions Cycles
; simple_byte           19    10 (average)
; direct_byte           44     8 (fixed)
; jumptable            260     6 (fixed)
; rangetable            16     6 (fixed)
; spacedrange           30     9 (fixed)
; locatedrange          12     3 (fixed)
;	Chosen strategy is simple_byte

	opt asmopt_off
	xorlw	0^0	; case 0
	skipnz
	goto	l11444
	xorlw	1^0	; case 1
	skipnz
	goto	l11464
	xorlw	2^1	; case 2
	skipnz
	goto	l11464
	xorlw	3^2	; case 3
	skipnz
	goto	l11464
	xorlw	10^3	; case 10
	skipnz
	goto	l11446
	xorlw	11^10	; case 11
	skipnz
	goto	l11452
	goto	l11458
	opt asmopt_on

	line	279
	
l2248:	
	goto	l11464
	line	280
	
l2244:	
	line	246
	
l11464:	
	bsf	status, 5	;RP0=1, select bank1
	bcf	status, 6	;RP1=0, select bank1
	movf	(_ROBOTerror)^080h,w
	xorlw	01h
	skipz
	goto	u5011
	goto	u5010
u5011:
	goto	l11462
u5010:
	goto	l11472
	
l2255:	
	line	281
;Main.c: 280: }
;Main.c: 281: break;
	goto	l11472
	line	283
;Main.c: 283: case 5:
	
l2256:	
	line	284
	
l11466:	
;Main.c: 284: ChargeMode();
	fcall	_ChargeMode
	line	285
;Main.c: 285: break;
	goto	l11472
	line	286
;Main.c: 286: default:
	
l2257:	
	line	288
;Main.c: 288: break;
	goto	l11472
	line	289
	
l11468:	
;Main.c: 289: }
	goto	l11472
	line	198
	
l2237:	
	
l11470:	
	bcf	status, 5	;RP0=0, select bank0
	bcf	status, 6	;RP1=0, select bank0
	movf	(main@choice),w
	; Switch size 1, requested type "space"
; Number of cases is 6, Range of values is 0 to 5
; switch strategies available:
; Name         Instructions Cycles
; simple_byte           19    10 (average)
; direct_byte           26     8 (fixed)
; jumptable            260     6 (fixed)
; rangetable            10     6 (fixed)
; spacedrange           18     9 (fixed)
; locatedrange           6     3 (fixed)
;	Chosen strategy is simple_byte

	opt asmopt_off
	xorlw	0^0	; case 0
	skipnz
	goto	l11408
	xorlw	1^0	; case 1
	skipnz
	goto	l11472
	xorlw	2^1	; case 2
	skipnz
	goto	l11410
	xorlw	3^2	; case 3
	skipnz
	goto	l11430
	xorlw	4^3	; case 4
	skipnz
	goto	l11464
	xorlw	5^4	; case 5
	skipnz
	goto	l11466
	goto	l11472
	opt asmopt_on

	line	289
	
l2239:	
	line	290
	
l11472:	
;Main.c: 290: choice = 255;
	movlw	(0FFh)
	bcf	status, 5	;RP0=0, select bank0
	bcf	status, 6	;RP1=0, select bank0
	movwf	(??_main+0)+0
	movf	(??_main+0)+0,w
	movwf	(main@choice)
	goto	l11394
	line	291
	
l2258:	
	line	180
	goto	l11394
	
l2259:	
	line	292
	
l2260:	
	global	start
	ljmp	start
	opt stack 0
GLOBAL	__end_of_main
	__end_of_main:
;; =============== function _main ends ============

	signat	_main,88
	global	_ChargeMode
psect	text951,local,class=CODE,delta=2
global __ptext951
__ptext951:

;; *************** function _ChargeMode *****************
;; Defined at:
;;		line 439 in file "E:\Aldnoah.Zero\Assignment3\Main.c"
;; Parameters:    Size  Location     Type
;;		None
;; Auto vars:     Size  Location     Type
;;		None
;; Return value:  Size  Location     Type
;;		None               void
;; Registers used:
;;		wreg, fsr0l, fsr0h, status,2, status,0, btemp+1, pclath, cstack
;; Tracked objects:
;;		On entry : 0/0
;;		On exit  : 0/0
;;		Unchanged: 0/0
;; Data sizes:     COMMON   BANK0   BANK1   BANK3   BANK2
;;      Params:         0       0       0       0       0
;;      Locals:         0       0       0       0       0
;;      Temps:          0       1       0       0       0
;;      Totals:         0       1       0       0       0
;;Total ram usage:        1 bytes
;; Hardware stack levels used:    1
;; Hardware stack levels required when called:    6
;; This function calls:
;;		_ser_putch
;;		_UpdateDisplay
;; This function is called by:
;;		_main
;; This function uses a non-reentrant model
;;
psect	text951
	file	"E:\Aldnoah.Zero\Assignment3\Main.c"
	line	439
	global	__size_of_ChargeMode
	__size_of_ChargeMode	equ	__end_of_ChargeMode-_ChargeMode
	
_ChargeMode:	
	opt	stack 1
; Regs used in _ChargeMode: [wreg-fsr0h+status,2+status,0+btemp+1+pclath+cstack]
	line	441
	
l11366:	
;Main.c: 441: currentMenu = 2;
	movlw	(02h)
	bcf	status, 5	;RP0=0, select bank0
	bcf	status, 6	;RP1=0, select bank0
	movwf	(??_ChargeMode+0)+0
	movf	(??_ChargeMode+0)+0,w
	bsf	status, 5	;RP0=1, select bank1
	bcf	status, 6	;RP1=0, select bank1
	movwf	(_currentMenu)^080h	;volatile
	line	442
	
l11368:	
;Main.c: 442: ser_putch(128);
	movlw	(080h)
	fcall	_ser_putch
	goto	l11370
	line	444
;Main.c: 444: while (1)
	
l2281:	
	line	446
	
l11370:	
;Main.c: 445: {
;Main.c: 446: if (RTC_FLAG_250MS == 1)
	btfss	(_RTC_FLAG_250MS/8),(_RTC_FLAG_250MS)&7
	goto	u4981
	goto	u4980
u4981:
	goto	l11386
u4980:
	line	448
	
l11372:	
;Main.c: 447: {
;Main.c: 448: RTC_FLAG_250MS = 0;
	bcf	(_RTC_FLAG_250MS/8),(_RTC_FLAG_250MS)&7
	line	449
	
l11374:	
;Main.c: 449: UpdateDisplay();
	fcall	_UpdateDisplay
	goto	l11386
	line	450
	
l2282:	
	line	451
;Main.c: 450: }
;Main.c: 451: switch (buttonPressed)
	goto	l11386
	line	453
;Main.c: 452: {
;Main.c: 453: case 1:
	
l2284:	
	line	454
;Main.c: 454: buttonPressed = 0;
	clrf	(_buttonPressed)	;volatile
	line	455
;Main.c: 455: break;
	goto	l11370
	line	456
;Main.c: 456: case 2:
	
l2286:	
	line	457
;Main.c: 457: buttonPressed = 0;
	clrf	(_buttonPressed)	;volatile
	line	458
;Main.c: 458: break;
	goto	l11370
	line	459
;Main.c: 459: case 3:
	
l2287:	
	line	460
;Main.c: 460: buttonPressed = 0;
	clrf	(_buttonPressed)	;volatile
	line	461
;Main.c: 461: break;
	goto	l11370
	line	462
;Main.c: 462: case 4:
	
l2288:	
	line	463
;Main.c: 463: buttonPressed = 0;
	clrf	(_buttonPressed)	;volatile
	line	464
;Main.c: 464: break;
	goto	l11370
	line	465
;Main.c: 465: case 5:
	
l2289:	
	line	466
	
l11376:	
;Main.c: 466: ser_putch(132);
	movlw	(084h)
	fcall	_ser_putch
	line	467
	
l11378:	
;Main.c: 467: buttonPressed = 0;
	clrf	(_buttonPressed)	;volatile
	line	468
	
l11380:	
;Main.c: 468: currentMenu = 0;
	bsf	status, 5	;RP0=1, select bank1
	bcf	status, 6	;RP1=0, select bank1
	clrf	(_currentMenu)^080h	;volatile
	goto	l2290
	line	469
	
l11382:	
;Main.c: 469: return;
	goto	l2290
	line	470
;Main.c: 470: default:
	
l2291:	
	line	471
;Main.c: 471: buttonPressed = 0;
	clrf	(_buttonPressed)	;volatile
	line	472
;Main.c: 472: break;
	goto	l11370
	line	473
	
l11384:	
;Main.c: 473: }
	goto	l11370
	line	451
	
l2283:	
	
l11386:	
	movf	(_buttonPressed),w	;volatile
	; Switch size 1, requested type "space"
; Number of cases is 5, Range of values is 1 to 5
; switch strategies available:
; Name         Instructions Cycles
; simple_byte           16     9 (average)
; direct_byte           26    11 (fixed)
; jumptable            263     9 (fixed)
;	Chosen strategy is simple_byte

	opt asmopt_off
	xorlw	1^0	; case 1
	skipnz
	goto	l2284
	xorlw	2^1	; case 2
	skipnz
	goto	l2286
	xorlw	3^2	; case 3
	skipnz
	goto	l2287
	xorlw	4^3	; case 4
	skipnz
	goto	l2288
	xorlw	5^4	; case 5
	skipnz
	goto	l11376
	goto	l2291
	opt asmopt_on

	line	473
	
l2285:	
	goto	l11370
	line	474
	
l2292:	
	line	444
	goto	l11370
	
l2293:	
	line	475
	
l2290:	
	return
	opt stack 0
GLOBAL	__end_of_ChargeMode
	__end_of_ChargeMode:
;; =============== function _ChargeMode ends ============

	signat	_ChargeMode,88
	global	_robotFollow
psect	text952,local,class=CODE,delta=2
global __ptext952
__ptext952:

;; *************** function _robotFollow *****************
;; Defined at:
;;		line 167 in file "E:\Aldnoah.Zero\Assignment3\robot.c"
;; Parameters:    Size  Location     Type
;;  distance        2   51[BANK0 ] int 
;;  speed           2   53[BANK0 ] int 
;;  AdcTarget       2   55[BANK0 ] int 
;; Auto vars:     Size  Location     Type
;;  temp1           2   60[BANK0 ] int 
;; Return value:  Size  Location     Type
;;		None               void
;; Registers used:
;;		wreg, fsr0l, fsr0h, status,2, status,0, btemp+1, pclath, cstack
;; Tracked objects:
;;		On entry : 0/0
;;		On exit  : 0/0
;;		Unchanged: 0/0
;; Data sizes:     COMMON   BANK0   BANK1   BANK3   BANK2
;;      Params:         0       6       0       0       0
;;      Locals:         0       2       0       0       0
;;      Temps:          0       3       0       0       0
;;      Totals:         0      11       0       0       0
;;Total ram usage:       11 bytes
;; Hardware stack levels used:    1
;; Hardware stack levels required when called:    7
;; This function calls:
;;		_RobotDrive
;;		_readAvgDistance
;;		_robot_read
;;		_UpdateDisplay
;;		_abs
;; This function is called by:
;;		_main
;; This function uses a non-reentrant model
;;
psect	text952
	file	"E:\Aldnoah.Zero\Assignment3\robot.c"
	line	167
	global	__size_of_robotFollow
	__size_of_robotFollow	equ	__end_of_robotFollow-_robotFollow
	
_robotFollow:	
	opt	stack 0
; Regs used in _robotFollow: [wreg-fsr0h+status,2+status,0+btemp+1+pclath+cstack]
	line	168
	
l11298:	
;robot.c: 168: distTravelled = 0;
	bsf	status, 5	;RP0=1, select bank1
	bcf	status, 6	;RP1=0, select bank1
	clrf	(_distTravelled)^080h
	clrf	(_distTravelled+1)^080h
	line	170
	
l11300:	
;robot.c: 169: int temp1;
;robot.c: 170: RobotDrive(speed, 0x7FFF);
	bcf	status, 5	;RP0=0, select bank0
	bcf	status, 6	;RP1=0, select bank0
	movf	(robotFollow@speed+1),w
	clrf	(?_RobotDrive+1)
	addwf	(?_RobotDrive+1)
	movf	(robotFollow@speed),w
	clrf	(?_RobotDrive)
	addwf	(?_RobotDrive)

	movlw	low(07FFFh)
	movwf	0+(?_RobotDrive)+02h
	movlw	high(07FFFh)
	movwf	(0+(?_RobotDrive)+02h)+1
	fcall	_RobotDrive
	line	171
	
l11302:	
;robot.c: 171: ROBOTerror = 0;
	bsf	status, 5	;RP0=1, select bank1
	bcf	status, 6	;RP1=0, select bank1
	clrf	(_ROBOTerror)^080h
	line	174
;robot.c: 174: while (abs(distTravelled) < abs(distance))
	goto	l11358
	
l6065:	
	line	177
	
l11304:	
;robot.c: 175: {
;robot.c: 177: readAvgDistance();
	fcall	_readAvgDistance
	line	178
	
l11306:	
;robot.c: 178: if (adcVal > (AdcTarget + 5) && adcVal < (AdcTarget + 30))
	bcf	status, 5	;RP0=0, select bank0
	bcf	status, 6	;RP1=0, select bank0
	movf	(robotFollow@AdcTarget),w
	addlw	low(05h)
	movwf	(??_robotFollow+0)+0
	movf	(robotFollow@AdcTarget+1),w
	skipnc
	addlw	1
	addlw	high(05h)
	movwf	1+(??_robotFollow+0)+0
	movf	(_adcVal+1),w	;volatile
	subwf	1+(??_robotFollow+0)+0,w
	skipz
	goto	u4885
	movf	(_adcVal),w	;volatile
	subwf	0+(??_robotFollow+0)+0,w
u4885:
	skipnc
	goto	u4881
	goto	u4880
u4881:
	goto	l11312
u4880:
	
l11308:	
	movf	(robotFollow@AdcTarget),w
	addlw	low(01Eh)
	movwf	(??_robotFollow+0)+0
	movf	(robotFollow@AdcTarget+1),w
	skipnc
	addlw	1
	addlw	high(01Eh)
	movwf	1+(??_robotFollow+0)+0
	movf	1+(??_robotFollow+0)+0,w
	subwf	(_adcVal+1),w	;volatile
	skipz
	goto	u4895
	movf	0+(??_robotFollow+0)+0,w
	subwf	(_adcVal),w	;volatile
u4895:
	skipnc
	goto	u4891
	goto	u4890
u4891:
	goto	l11312
u4890:
	line	180
	
l11310:	
;robot.c: 179: {
;robot.c: 180: RobotDrive(speed, 1800);
	movf	(robotFollow@speed+1),w
	clrf	(?_RobotDrive+1)
	addwf	(?_RobotDrive+1)
	movf	(robotFollow@speed),w
	clrf	(?_RobotDrive)
	addwf	(?_RobotDrive)

	movlw	low(0708h)
	movwf	0+(?_RobotDrive)+02h
	movlw	high(0708h)
	movwf	(0+(?_RobotDrive)+02h)+1
	fcall	_RobotDrive
	line	181
;robot.c: 181: }
	goto	l6067
	line	182
	
l6066:	
	
l11312:	
;robot.c: 182: else if (adcVal < (AdcTarget - 5) && adcVal > (AdcTarget - 30))
	bcf	status, 5	;RP0=0, select bank0
	bcf	status, 6	;RP1=0, select bank0
	movf	(robotFollow@AdcTarget),w
	addlw	low(0FFFBh)
	movwf	(??_robotFollow+0)+0
	movf	(robotFollow@AdcTarget+1),w
	skipnc
	addlw	1
	addlw	high(0FFFBh)
	movwf	1+(??_robotFollow+0)+0
	movf	1+(??_robotFollow+0)+0,w
	subwf	(_adcVal+1),w	;volatile
	skipz
	goto	u4905
	movf	0+(??_robotFollow+0)+0,w
	subwf	(_adcVal),w	;volatile
u4905:
	skipnc
	goto	u4901
	goto	u4900
u4901:
	goto	l11318
u4900:
	
l11314:	
	movf	(robotFollow@AdcTarget),w
	addlw	low(0FFE2h)
	movwf	(??_robotFollow+0)+0
	movf	(robotFollow@AdcTarget+1),w
	skipnc
	addlw	1
	addlw	high(0FFE2h)
	movwf	1+(??_robotFollow+0)+0
	movf	(_adcVal+1),w	;volatile
	subwf	1+(??_robotFollow+0)+0,w
	skipz
	goto	u4915
	movf	(_adcVal),w	;volatile
	subwf	0+(??_robotFollow+0)+0,w
u4915:
	skipnc
	goto	u4911
	goto	u4910
u4911:
	goto	l11318
u4910:
	line	184
	
l11316:	
;robot.c: 183: {
;robot.c: 184: RobotDrive(speed, -1800);
	movf	(robotFollow@speed+1),w
	clrf	(?_RobotDrive+1)
	addwf	(?_RobotDrive+1)
	movf	(robotFollow@speed),w
	clrf	(?_RobotDrive)
	addwf	(?_RobotDrive)

	movlw	low(-1800)
	movwf	0+(?_RobotDrive)+02h
	movlw	high(-1800)
	movwf	(0+(?_RobotDrive)+02h)+1
	fcall	_RobotDrive
	line	185
;robot.c: 185: }
	goto	l6067
	line	186
	
l6068:	
	
l11318:	
;robot.c: 186: else if (adcVal <= (AdcTarget - 30))
	bcf	status, 5	;RP0=0, select bank0
	bcf	status, 6	;RP1=0, select bank0
	movf	(robotFollow@AdcTarget),w
	addlw	low(0FFE2h)
	movwf	(??_robotFollow+0)+0
	movf	(robotFollow@AdcTarget+1),w
	skipnc
	addlw	1
	addlw	high(0FFE2h)
	movwf	1+(??_robotFollow+0)+0
	movf	(_adcVal+1),w	;volatile
	subwf	1+(??_robotFollow+0)+0,w
	skipz
	goto	u4925
	movf	(_adcVal),w	;volatile
	subwf	0+(??_robotFollow+0)+0,w
u4925:
	skipc
	goto	u4921
	goto	u4920
u4921:
	goto	l11324
u4920:
	line	188
	
l11320:	
;robot.c: 187: {
;robot.c: 188: ROBOTerror = 10;
	movlw	(0Ah)
	movwf	(??_robotFollow+0)+0
	movf	(??_robotFollow+0)+0,w
	bsf	status, 5	;RP0=1, select bank1
	bcf	status, 6	;RP1=0, select bank1
	movwf	(_ROBOTerror)^080h
	line	189
;robot.c: 189: break;
	goto	l11360
	line	190
	
l11322:	
;robot.c: 190: }
	goto	l6067
	line	191
	
l6070:	
	
l11324:	
;robot.c: 191: else if (adcVal >= (AdcTarget + 30))
	bcf	status, 5	;RP0=0, select bank0
	movf	(robotFollow@AdcTarget),w
	addlw	low(01Eh)
	movwf	(??_robotFollow+0)+0
	movf	(robotFollow@AdcTarget+1),w
	skipnc
	addlw	1
	addlw	high(01Eh)
	movwf	1+(??_robotFollow+0)+0
	movf	1+(??_robotFollow+0)+0,w
	subwf	(_adcVal+1),w	;volatile
	skipz
	goto	u4935
	movf	0+(??_robotFollow+0)+0,w
	subwf	(_adcVal),w	;volatile
u4935:
	skipc
	goto	u4931
	goto	u4930
u4931:
	goto	l11330
u4930:
	line	193
	
l11326:	
;robot.c: 192: {
;robot.c: 193: ROBOTerror = 11;
	movlw	(0Bh)
	movwf	(??_robotFollow+0)+0
	movf	(??_robotFollow+0)+0,w
	bsf	status, 5	;RP0=1, select bank1
	bcf	status, 6	;RP1=0, select bank1
	movwf	(_ROBOTerror)^080h
	line	194
;robot.c: 194: break;
	goto	l11360
	line	195
	
l11328:	
;robot.c: 195: }
	goto	l6067
	line	196
	
l6073:	
	line	198
	
l11330:	
;robot.c: 196: else
;robot.c: 197: {
;robot.c: 198: RobotDrive(speed, 0x7FFF);
	bcf	status, 5	;RP0=0, select bank0
	movf	(robotFollow@speed+1),w
	clrf	(?_RobotDrive+1)
	addwf	(?_RobotDrive+1)
	movf	(robotFollow@speed),w
	clrf	(?_RobotDrive)
	addwf	(?_RobotDrive)

	movlw	low(07FFFh)
	movwf	0+(?_RobotDrive)+02h
	movlw	high(07FFFh)
	movwf	(0+(?_RobotDrive)+02h)+1
	fcall	_RobotDrive
	goto	l6067
	line	199
	
l6074:	
	goto	l6067
	
l6072:	
	goto	l6067
	
l6069:	
	
l6067:	
	line	200
;robot.c: 199: }
;robot.c: 200: robot_read(0);
	movlw	(0)
	fcall	_robot_read
	line	201
	
l11332:	
;robot.c: 201: if (BumpSensors)
	bcf	status, 5	;RP0=0, select bank0
	bcf	status, 6	;RP1=0, select bank0
	movf	(_BumpSensors),w	;volatile
	skipz
	goto	u4940
	goto	l11336
u4940:
	line	203
	
l11334:	
;robot.c: 202: {
;robot.c: 203: ROBOTerror = 1;
	bsf	status, 5	;RP0=1, select bank1
	bcf	status, 6	;RP1=0, select bank1
	clrf	(_ROBOTerror)^080h
	bsf	status,0
	rlf	(_ROBOTerror)^080h,f
	line	204
;robot.c: 204: break;
	goto	l11360
	line	205
	
l6075:	
	line	206
	
l11336:	
;robot.c: 205: }
;robot.c: 206: if (VwallSensor)
	bcf	status, 5	;RP0=0, select bank0
	movf	(_VwallSensor),w	;volatile
	skipz
	goto	u4950
	goto	l11340
u4950:
	line	208
	
l11338:	
;robot.c: 207: {
;robot.c: 208: ROBOTerror = 2;
	movlw	(02h)
	movwf	(??_robotFollow+0)+0
	movf	(??_robotFollow+0)+0,w
	bsf	status, 5	;RP0=1, select bank1
	bcf	status, 6	;RP1=0, select bank1
	movwf	(_ROBOTerror)^080h
	line	209
;robot.c: 209: break;
	goto	l11360
	line	210
	
l6076:	
	line	211
	
l11340:	
;robot.c: 210: }
;robot.c: 211: if (CliffSensors)
	bsf	status, 5	;RP0=1, select bank1
	bcf	status, 6	;RP1=0, select bank1
	movf	(_CliffSensors)^080h,w	;volatile
	skipz
	goto	u4960
	goto	l11344
u4960:
	line	213
	
l11342:	
;robot.c: 212: {
;robot.c: 213: ROBOTerror = 3;
	movlw	(03h)
	bcf	status, 5	;RP0=0, select bank0
	bcf	status, 6	;RP1=0, select bank0
	movwf	(??_robotFollow+0)+0
	movf	(??_robotFollow+0)+0,w
	bsf	status, 5	;RP0=1, select bank1
	bcf	status, 6	;RP1=0, select bank1
	movwf	(_ROBOTerror)^080h
	line	214
;robot.c: 214: break;
	goto	l11360
	line	215
	
l6077:	
	line	216
	
l11344:	
;robot.c: 215: }
;robot.c: 216: temp1 = DistHighByte;
	movf	(_DistHighByte)^080h,w	;volatile
	bcf	status, 5	;RP0=0, select bank0
	bcf	status, 6	;RP1=0, select bank0
	movwf	(??_robotFollow+0)+0
	clrf	(??_robotFollow+0)+0+1
	movf	0+(??_robotFollow+0)+0,w
	movwf	(robotFollow@temp1)
	movf	1+(??_robotFollow+0)+0,w
	movwf	(robotFollow@temp1+1)
	line	217
	
l11346:	
;robot.c: 217: temp1 = temp1 << 8;
	movf	(robotFollow@temp1+1),w
	movwf	(??_robotFollow+0)+0+1
	movf	(robotFollow@temp1),w
	movwf	(??_robotFollow+0)+0
	movf	(??_robotFollow+0)+0,w
	movwf	(??_robotFollow+0)+1
	clrf	(??_robotFollow+0)+0
	movf	0+(??_robotFollow+0)+0,w
	movwf	(robotFollow@temp1)
	movf	1+(??_robotFollow+0)+0,w
	movwf	(robotFollow@temp1+1)
	line	218
	
l11348:	
;robot.c: 218: temp1 += DistLowByte;
	bsf	status, 5	;RP0=1, select bank1
	bcf	status, 6	;RP1=0, select bank1
	movf	(_DistLowByte)^080h,w	;volatile
	bcf	status, 5	;RP0=0, select bank0
	bcf	status, 6	;RP1=0, select bank0
	movwf	(??_robotFollow+0)+0
	clrf	(??_robotFollow+0)+0+1
	movf	0+(??_robotFollow+0)+0,w
	addwf	(robotFollow@temp1),f
	skipnc
	incf	(robotFollow@temp1+1),f
	movf	1+(??_robotFollow+0)+0,w
	addwf	(robotFollow@temp1+1),f
	line	219
	
l11350:	
;robot.c: 219: distTravelled += temp1;
	movf	(robotFollow@temp1),w
	bsf	status, 5	;RP0=1, select bank1
	bcf	status, 6	;RP1=0, select bank1
	addwf	(_distTravelled)^080h,f
	skipnc
	incf	(_distTravelled+1)^080h,f
	bcf	status, 5	;RP0=0, select bank0
	bcf	status, 6	;RP1=0, select bank0
	movf	(robotFollow@temp1+1),w
	bsf	status, 5	;RP0=1, select bank1
	bcf	status, 6	;RP1=0, select bank1
	addwf	(_distTravelled+1)^080h,f
	line	220
	
l11352:	
;robot.c: 220: TotalDistTravelled += temp1;
	bcf	status, 5	;RP0=0, select bank0
	bcf	status, 6	;RP1=0, select bank0
	movf	(robotFollow@temp1),w
	bsf	status, 5	;RP0=1, select bank1
	bcf	status, 6	;RP1=0, select bank1
	addwf	(_TotalDistTravelled)^080h,f
	skipnc
	incf	(_TotalDistTravelled+1)^080h,f
	bcf	status, 5	;RP0=0, select bank0
	bcf	status, 6	;RP1=0, select bank0
	movf	(robotFollow@temp1+1),w
	bsf	status, 5	;RP0=1, select bank1
	bcf	status, 6	;RP1=0, select bank1
	addwf	(_TotalDistTravelled+1)^080h,f
	line	221
	
l11354:	
;robot.c: 221: Disp2 = distTravelled;
	movf	(_distTravelled+1)^080h,w
	clrf	(_Disp2+1)^080h
	addwf	(_Disp2+1)^080h
	movf	(_distTravelled)^080h,w
	clrf	(_Disp2)^080h
	addwf	(_Disp2)^080h

	line	222
	
l11356:	
;robot.c: 222: UpdateDisplay();
	fcall	_UpdateDisplay
	goto	l11358
	line	228
	
l6064:	
	line	174
	
l11358:	
	bsf	status, 5	;RP0=1, select bank1
	bcf	status, 6	;RP1=0, select bank1
	movf	(_distTravelled+1)^080h,w
	bcf	status, 5	;RP0=0, select bank0
	bcf	status, 6	;RP1=0, select bank0
	clrf	(?_abs+1)
	addwf	(?_abs+1)
	bsf	status, 5	;RP0=1, select bank1
	bcf	status, 6	;RP1=0, select bank1
	movf	(_distTravelled)^080h,w
	bcf	status, 5	;RP0=0, select bank0
	bcf	status, 6	;RP1=0, select bank0
	clrf	(?_abs)
	addwf	(?_abs)

	fcall	_abs
	bcf	status, 5	;RP0=0, select bank0
	bcf	status, 6	;RP1=0, select bank0
	movf	(0+?_abs),w
	movwf	(??_robotFollow+0)+0
	movf	(1+?_abs),w
	movwf	((??_robotFollow+0)+0+1)
	movf	(robotFollow@distance+1),w
	clrf	(?_abs+1)
	addwf	(?_abs+1)
	movf	(robotFollow@distance),w
	clrf	(?_abs)
	addwf	(?_abs)

	fcall	_abs
	bcf	status, 5	;RP0=0, select bank0
	bcf	status, 6	;RP1=0, select bank0
	movf	1+(??_robotFollow+0)+0,w
	xorlw	80h
	movwf	(??_robotFollow+2)+0
	movf	(1+(?_abs)),w
	xorlw	80h
	subwf	(??_robotFollow+2)+0,w
	skipz
	goto	u4975
	movf	(0+(?_abs)),w
	subwf	0+(??_robotFollow+0)+0,w
u4975:

	skipc
	goto	u4971
	goto	u4970
u4971:
	goto	l11304
u4970:
	goto	l11360
	
l6071:	
	line	229
	
l11360:	
;robot.c: 228: }
;robot.c: 229: Disp2 = ROBOTerror;
	bsf	status, 5	;RP0=1, select bank1
	bcf	status, 6	;RP1=0, select bank1
	movf	(_ROBOTerror)^080h,w
	bcf	status, 5	;RP0=0, select bank0
	bcf	status, 6	;RP1=0, select bank0
	movwf	(??_robotFollow+0)+0
	clrf	(??_robotFollow+0)+0+1
	movf	0+(??_robotFollow+0)+0,w
	bsf	status, 5	;RP0=1, select bank1
	bcf	status, 6	;RP1=0, select bank1
	movwf	(_Disp2)^080h
	bcf	status, 5	;RP0=0, select bank0
	bcf	status, 6	;RP1=0, select bank0
	movf	1+(??_robotFollow+0)+0,w
	bsf	status, 5	;RP0=1, select bank1
	bcf	status, 6	;RP1=0, select bank1
	movwf	(_Disp2+1)^080h
	line	230
	
l11362:	
;robot.c: 230: UpdateDisplay();
	fcall	_UpdateDisplay
	line	231
	
l11364:	
;robot.c: 231: RobotDrive(0, 0x7FFF);
	movlw	low(0)
	bcf	status, 5	;RP0=0, select bank0
	bcf	status, 6	;RP1=0, select bank0
	movwf	(?_RobotDrive)
	movlw	high(0)
	movwf	((?_RobotDrive))+1
	movlw	low(07FFFh)
	movwf	0+(?_RobotDrive)+02h
	movlw	high(07FFFh)
	movwf	(0+(?_RobotDrive)+02h)+1
	fcall	_RobotDrive
	line	233
	
l6078:	
	return
	opt stack 0
GLOBAL	__end_of_robotFollow
	__end_of_robotFollow:
;; =============== function _robotFollow ends ============

	signat	_robotFollow,12408
	global	_robotMoveSpeed
psect	text953,local,class=CODE,delta=2
global __ptext953
__ptext953:

;; *************** function _robotMoveSpeed *****************
;; Defined at:
;;		line 240 in file "E:\Aldnoah.Zero\Assignment3\robot.c"
;; Parameters:    Size  Location     Type
;;  distance        2   51[BANK0 ] int 
;;  speed           2   53[BANK0 ] int 
;; Auto vars:     Size  Location     Type
;;  temp1           2   58[BANK0 ] int 
;; Return value:  Size  Location     Type
;;		None               void
;; Registers used:
;;		wreg, fsr0l, fsr0h, status,2, status,0, btemp+1, pclath, cstack
;; Tracked objects:
;;		On entry : 0/0
;;		On exit  : 0/0
;;		Unchanged: 0/0
;; Data sizes:     COMMON   BANK0   BANK1   BANK3   BANK2
;;      Params:         0       4       0       0       0
;;      Locals:         0       2       0       0       0
;;      Temps:          0       3       0       0       0
;;      Totals:         0       9       0       0       0
;;Total ram usage:        9 bytes
;; Hardware stack levels used:    1
;; Hardware stack levels required when called:    6
;; This function calls:
;;		_RobotDrive
;;		_robot_read
;;		_UpdateDisplay
;;		_abs
;; This function is called by:
;;		_main
;; This function uses a non-reentrant model
;;
psect	text953
	file	"E:\Aldnoah.Zero\Assignment3\robot.c"
	line	240
	global	__size_of_robotMoveSpeed
	__size_of_robotMoveSpeed	equ	__end_of_robotMoveSpeed-_robotMoveSpeed
	
_robotMoveSpeed:	
	opt	stack 1
; Regs used in _robotMoveSpeed: [wreg-fsr0h+status,2+status,0+btemp+1+pclath+cstack]
	line	241
	
l11258:	
;robot.c: 241: distTravelled = 0;
	bsf	status, 5	;RP0=1, select bank1
	bcf	status, 6	;RP1=0, select bank1
	clrf	(_distTravelled)^080h
	clrf	(_distTravelled+1)^080h
	line	243
	
l11260:	
;robot.c: 242: int temp1;
;robot.c: 243: RobotDrive(speed, 0x7FFF);
	bcf	status, 5	;RP0=0, select bank0
	bcf	status, 6	;RP1=0, select bank0
	movf	(robotMoveSpeed@speed+1),w
	clrf	(?_RobotDrive+1)
	addwf	(?_RobotDrive+1)
	movf	(robotMoveSpeed@speed),w
	clrf	(?_RobotDrive)
	addwf	(?_RobotDrive)

	movlw	low(07FFFh)
	movwf	0+(?_RobotDrive)+02h
	movlw	high(07FFFh)
	movwf	(0+(?_RobotDrive)+02h)+1
	fcall	_RobotDrive
	line	246
;robot.c: 246: while (abs(distTravelled) < abs(distance))
	goto	l11290
	
l6082:	
	line	248
	
l11262:	
;robot.c: 247: {
;robot.c: 248: robot_read(0);
	movlw	(0)
	fcall	_robot_read
	line	249
	
l11264:	
;robot.c: 249: if (BumpSensors)
	bcf	status, 5	;RP0=0, select bank0
	bcf	status, 6	;RP1=0, select bank0
	movf	(_BumpSensors),w	;volatile
	skipz
	goto	u4840
	goto	l11268
u4840:
	line	251
	
l11266:	
;robot.c: 250: {
;robot.c: 251: ROBOTerror = 1;
	bsf	status, 5	;RP0=1, select bank1
	bcf	status, 6	;RP1=0, select bank1
	clrf	(_ROBOTerror)^080h
	bsf	status,0
	rlf	(_ROBOTerror)^080h,f
	line	252
;robot.c: 252: break;
	goto	l11292
	line	253
	
l6083:	
	line	254
	
l11268:	
;robot.c: 253: }
;robot.c: 254: if (VwallSensor)
	bcf	status, 5	;RP0=0, select bank0
	movf	(_VwallSensor),w	;volatile
	skipz
	goto	u4850
	goto	l11272
u4850:
	line	256
	
l11270:	
;robot.c: 255: {
;robot.c: 256: ROBOTerror = 2;
	movlw	(02h)
	movwf	(??_robotMoveSpeed+0)+0
	movf	(??_robotMoveSpeed+0)+0,w
	bsf	status, 5	;RP0=1, select bank1
	bcf	status, 6	;RP1=0, select bank1
	movwf	(_ROBOTerror)^080h
	line	257
;robot.c: 257: break;
	goto	l11292
	line	258
	
l6085:	
	line	259
	
l11272:	
;robot.c: 258: }
;robot.c: 259: if (CliffSensors)
	bsf	status, 5	;RP0=1, select bank1
	bcf	status, 6	;RP1=0, select bank1
	movf	(_CliffSensors)^080h,w	;volatile
	skipz
	goto	u4860
	goto	l11276
u4860:
	line	261
	
l11274:	
;robot.c: 260: {
;robot.c: 261: ROBOTerror = 3;
	movlw	(03h)
	bcf	status, 5	;RP0=0, select bank0
	bcf	status, 6	;RP1=0, select bank0
	movwf	(??_robotMoveSpeed+0)+0
	movf	(??_robotMoveSpeed+0)+0,w
	bsf	status, 5	;RP0=1, select bank1
	bcf	status, 6	;RP1=0, select bank1
	movwf	(_ROBOTerror)^080h
	line	262
;robot.c: 262: break;
	goto	l11292
	line	263
	
l6086:	
	line	264
	
l11276:	
;robot.c: 263: }
;robot.c: 264: temp1 = DistHighByte;
	movf	(_DistHighByte)^080h,w	;volatile
	bcf	status, 5	;RP0=0, select bank0
	bcf	status, 6	;RP1=0, select bank0
	movwf	(??_robotMoveSpeed+0)+0
	clrf	(??_robotMoveSpeed+0)+0+1
	movf	0+(??_robotMoveSpeed+0)+0,w
	movwf	(robotMoveSpeed@temp1)
	movf	1+(??_robotMoveSpeed+0)+0,w
	movwf	(robotMoveSpeed@temp1+1)
	line	265
	
l11278:	
;robot.c: 265: temp1 = temp1 << 8;
	movf	(robotMoveSpeed@temp1+1),w
	movwf	(??_robotMoveSpeed+0)+0+1
	movf	(robotMoveSpeed@temp1),w
	movwf	(??_robotMoveSpeed+0)+0
	movf	(??_robotMoveSpeed+0)+0,w
	movwf	(??_robotMoveSpeed+0)+1
	clrf	(??_robotMoveSpeed+0)+0
	movf	0+(??_robotMoveSpeed+0)+0,w
	movwf	(robotMoveSpeed@temp1)
	movf	1+(??_robotMoveSpeed+0)+0,w
	movwf	(robotMoveSpeed@temp1+1)
	line	266
	
l11280:	
;robot.c: 266: temp1 += DistLowByte;
	bsf	status, 5	;RP0=1, select bank1
	bcf	status, 6	;RP1=0, select bank1
	movf	(_DistLowByte)^080h,w	;volatile
	bcf	status, 5	;RP0=0, select bank0
	bcf	status, 6	;RP1=0, select bank0
	movwf	(??_robotMoveSpeed+0)+0
	clrf	(??_robotMoveSpeed+0)+0+1
	movf	0+(??_robotMoveSpeed+0)+0,w
	addwf	(robotMoveSpeed@temp1),f
	skipnc
	incf	(robotMoveSpeed@temp1+1),f
	movf	1+(??_robotMoveSpeed+0)+0,w
	addwf	(robotMoveSpeed@temp1+1),f
	line	267
	
l11282:	
;robot.c: 267: distTravelled += temp1;
	movf	(robotMoveSpeed@temp1),w
	bsf	status, 5	;RP0=1, select bank1
	bcf	status, 6	;RP1=0, select bank1
	addwf	(_distTravelled)^080h,f
	skipnc
	incf	(_distTravelled+1)^080h,f
	bcf	status, 5	;RP0=0, select bank0
	bcf	status, 6	;RP1=0, select bank0
	movf	(robotMoveSpeed@temp1+1),w
	bsf	status, 5	;RP0=1, select bank1
	bcf	status, 6	;RP1=0, select bank1
	addwf	(_distTravelled+1)^080h,f
	line	268
	
l11284:	
;robot.c: 268: TotalDistTravelled += temp1;
	bcf	status, 5	;RP0=0, select bank0
	bcf	status, 6	;RP1=0, select bank0
	movf	(robotMoveSpeed@temp1),w
	bsf	status, 5	;RP0=1, select bank1
	bcf	status, 6	;RP1=0, select bank1
	addwf	(_TotalDistTravelled)^080h,f
	skipnc
	incf	(_TotalDistTravelled+1)^080h,f
	bcf	status, 5	;RP0=0, select bank0
	bcf	status, 6	;RP1=0, select bank0
	movf	(robotMoveSpeed@temp1+1),w
	bsf	status, 5	;RP0=1, select bank1
	bcf	status, 6	;RP1=0, select bank1
	addwf	(_TotalDistTravelled+1)^080h,f
	line	269
	
l11286:	
;robot.c: 269: Disp2 = distTravelled;
	movf	(_distTravelled+1)^080h,w
	clrf	(_Disp2+1)^080h
	addwf	(_Disp2+1)^080h
	movf	(_distTravelled)^080h,w
	clrf	(_Disp2)^080h
	addwf	(_Disp2)^080h

	line	270
	
l11288:	
;robot.c: 270: UpdateDisplay();
	fcall	_UpdateDisplay
	goto	l11290
	line	276
	
l6081:	
	line	246
	
l11290:	
	bsf	status, 5	;RP0=1, select bank1
	bcf	status, 6	;RP1=0, select bank1
	movf	(_distTravelled+1)^080h,w
	bcf	status, 5	;RP0=0, select bank0
	bcf	status, 6	;RP1=0, select bank0
	clrf	(?_abs+1)
	addwf	(?_abs+1)
	bsf	status, 5	;RP0=1, select bank1
	bcf	status, 6	;RP1=0, select bank1
	movf	(_distTravelled)^080h,w
	bcf	status, 5	;RP0=0, select bank0
	bcf	status, 6	;RP1=0, select bank0
	clrf	(?_abs)
	addwf	(?_abs)

	fcall	_abs
	bcf	status, 5	;RP0=0, select bank0
	bcf	status, 6	;RP1=0, select bank0
	movf	(0+?_abs),w
	movwf	(??_robotMoveSpeed+0)+0
	movf	(1+?_abs),w
	movwf	((??_robotMoveSpeed+0)+0+1)
	movf	(robotMoveSpeed@distance+1),w
	clrf	(?_abs+1)
	addwf	(?_abs+1)
	movf	(robotMoveSpeed@distance),w
	clrf	(?_abs)
	addwf	(?_abs)

	fcall	_abs
	bcf	status, 5	;RP0=0, select bank0
	bcf	status, 6	;RP1=0, select bank0
	movf	1+(??_robotMoveSpeed+0)+0,w
	xorlw	80h
	movwf	(??_robotMoveSpeed+2)+0
	movf	(1+(?_abs)),w
	xorlw	80h
	subwf	(??_robotMoveSpeed+2)+0,w
	skipz
	goto	u4875
	movf	(0+(?_abs)),w
	subwf	0+(??_robotMoveSpeed+0)+0,w
u4875:

	skipc
	goto	u4871
	goto	u4870
u4871:
	goto	l11262
u4870:
	goto	l11292
	
l6084:	
	line	277
	
l11292:	
;robot.c: 276: }
;robot.c: 277: Disp2 = ROBOTerror;
	bsf	status, 5	;RP0=1, select bank1
	bcf	status, 6	;RP1=0, select bank1
	movf	(_ROBOTerror)^080h,w
	bcf	status, 5	;RP0=0, select bank0
	bcf	status, 6	;RP1=0, select bank0
	movwf	(??_robotMoveSpeed+0)+0
	clrf	(??_robotMoveSpeed+0)+0+1
	movf	0+(??_robotMoveSpeed+0)+0,w
	bsf	status, 5	;RP0=1, select bank1
	bcf	status, 6	;RP1=0, select bank1
	movwf	(_Disp2)^080h
	bcf	status, 5	;RP0=0, select bank0
	bcf	status, 6	;RP1=0, select bank0
	movf	1+(??_robotMoveSpeed+0)+0,w
	bsf	status, 5	;RP0=1, select bank1
	bcf	status, 6	;RP1=0, select bank1
	movwf	(_Disp2+1)^080h
	line	278
	
l11294:	
;robot.c: 278: UpdateDisplay();
	fcall	_UpdateDisplay
	line	279
	
l11296:	
;robot.c: 279: RobotDrive(0, 0x7FFF);
	movlw	low(0)
	bcf	status, 5	;RP0=0, select bank0
	bcf	status, 6	;RP1=0, select bank0
	movwf	(?_RobotDrive)
	movlw	high(0)
	movwf	((?_RobotDrive))+1
	movlw	low(07FFFh)
	movwf	0+(?_RobotDrive)+02h
	movlw	high(07FFFh)
	movwf	(0+(?_RobotDrive)+02h)+1
	fcall	_RobotDrive
	line	281
	
l6087:	
	return
	opt stack 0
GLOBAL	__end_of_robotMoveSpeed
	__end_of_robotMoveSpeed:
;; =============== function _robotMoveSpeed ends ============

	signat	_robotMoveSpeed,8312
	global	_robotTurnSpeed
psect	text954,local,class=CODE,delta=2
global __ptext954
__ptext954:

;; *************** function _robotTurnSpeed *****************
;; Defined at:
;;		line 288 in file "E:\Aldnoah.Zero\Assignment3\robot.c"
;; Parameters:    Size  Location     Type
;;  angle           2   51[BANK0 ] int 
;;  speed           2   53[BANK0 ] int 
;; Auto vars:     Size  Location     Type
;;  temp1           2   58[BANK0 ] int 
;; Return value:  Size  Location     Type
;;		None               void
;; Registers used:
;;		wreg, fsr0l, fsr0h, status,2, status,0, btemp+1, pclath, cstack
;; Tracked objects:
;;		On entry : 0/0
;;		On exit  : 0/0
;;		Unchanged: 0/0
;; Data sizes:     COMMON   BANK0   BANK1   BANK3   BANK2
;;      Params:         0       4       0       0       0
;;      Locals:         0       2       0       0       0
;;      Temps:          0       3       0       0       0
;;      Totals:         0       9       0       0       0
;;Total ram usage:        9 bytes
;; Hardware stack levels used:    1
;; Hardware stack levels required when called:    6
;; This function calls:
;;		_robotTurn
;;		_robot_read
;;		_UpdateDisplay
;;		_abs
;; This function is called by:
;;		_main
;; This function uses a non-reentrant model
;;
psect	text954
	file	"E:\Aldnoah.Zero\Assignment3\robot.c"
	line	288
	global	__size_of_robotTurnSpeed
	__size_of_robotTurnSpeed	equ	__end_of_robotTurnSpeed-_robotTurnSpeed
	
_robotTurnSpeed:	
	opt	stack 1
; Regs used in _robotTurnSpeed: [wreg-fsr0h+status,2+status,0+btemp+1+pclath+cstack]
	line	289
	
l11230:	
;robot.c: 289: angleTurned = 0;
	bsf	status, 5	;RP0=1, select bank1
	bcf	status, 6	;RP1=0, select bank1
	clrf	(_angleTurned)^080h
	clrf	(_angleTurned+1)^080h
	line	290
;robot.c: 290: int temp1 = 0;
	bcf	status, 5	;RP0=0, select bank0
	bcf	status, 6	;RP1=0, select bank0
	clrf	(robotTurnSpeed@temp1)
	clrf	(robotTurnSpeed@temp1+1)
	line	292
	
l11232:	
;robot.c: 292: robotTurn(angle);
	movf	(robotTurnSpeed@angle+1),w
	clrf	(?_robotTurn+1)
	addwf	(?_robotTurn+1)
	movf	(robotTurnSpeed@angle),w
	clrf	(?_robotTurn)
	addwf	(?_robotTurn)

	fcall	_robotTurn
	line	295
;robot.c: 295: while (abs(angleTurned) < abs(angle))
	goto	l11254
	
l6091:	
	line	297
	
l11234:	
;robot.c: 296: {
;robot.c: 297: robot_read(1);
	movlw	(01h)
	fcall	_robot_read
	line	298
	
l11236:	
;robot.c: 298: if (BumpSensors || VwallSensor)
	bcf	status, 5	;RP0=0, select bank0
	bcf	status, 6	;RP1=0, select bank0
	movf	(_BumpSensors),f
	skipz	;volatile
	goto	u4811
	goto	u4810
u4811:
	goto	l11240
u4810:
	
l11238:	
	movf	(_VwallSensor),w	;volatile
	skipz
	goto	u4820
	goto	l11242
u4820:
	goto	l11240
	
l6094:	
	line	300
	
l11240:	
;robot.c: 299: {
;robot.c: 300: ROBOTerror = 1;
	bsf	status, 5	;RP0=1, select bank1
	bcf	status, 6	;RP1=0, select bank1
	clrf	(_ROBOTerror)^080h
	bsf	status,0
	rlf	(_ROBOTerror)^080h,f
	line	301
;robot.c: 301: break;
	goto	l11256
	line	302
	
l6092:	
	line	303
	
l11242:	
;robot.c: 302: }
;robot.c: 303: temp1 = AngleHighByte;
	bsf	status, 5	;RP0=1, select bank1
	bcf	status, 6	;RP1=0, select bank1
	movf	(_AngleHighByte)^080h,w	;volatile
	bcf	status, 5	;RP0=0, select bank0
	bcf	status, 6	;RP1=0, select bank0
	movwf	(??_robotTurnSpeed+0)+0
	clrf	(??_robotTurnSpeed+0)+0+1
	movf	0+(??_robotTurnSpeed+0)+0,w
	movwf	(robotTurnSpeed@temp1)
	movf	1+(??_robotTurnSpeed+0)+0,w
	movwf	(robotTurnSpeed@temp1+1)
	line	304
	
l11244:	
;robot.c: 304: temp1 = temp1 << 8;
	movf	(robotTurnSpeed@temp1+1),w
	movwf	(??_robotTurnSpeed+0)+0+1
	movf	(robotTurnSpeed@temp1),w
	movwf	(??_robotTurnSpeed+0)+0
	movf	(??_robotTurnSpeed+0)+0,w
	movwf	(??_robotTurnSpeed+0)+1
	clrf	(??_robotTurnSpeed+0)+0
	movf	0+(??_robotTurnSpeed+0)+0,w
	movwf	(robotTurnSpeed@temp1)
	movf	1+(??_robotTurnSpeed+0)+0,w
	movwf	(robotTurnSpeed@temp1+1)
	line	305
	
l11246:	
;robot.c: 305: temp1 += AngleLowByte;
	bsf	status, 5	;RP0=1, select bank1
	bcf	status, 6	;RP1=0, select bank1
	movf	(_AngleLowByte)^080h,w	;volatile
	bcf	status, 5	;RP0=0, select bank0
	bcf	status, 6	;RP1=0, select bank0
	movwf	(??_robotTurnSpeed+0)+0
	clrf	(??_robotTurnSpeed+0)+0+1
	movf	0+(??_robotTurnSpeed+0)+0,w
	addwf	(robotTurnSpeed@temp1),f
	skipnc
	incf	(robotTurnSpeed@temp1+1),f
	movf	1+(??_robotTurnSpeed+0)+0,w
	addwf	(robotTurnSpeed@temp1+1),f
	line	306
	
l11248:	
;robot.c: 306: angleTurned += temp1;
	movf	(robotTurnSpeed@temp1),w
	bsf	status, 5	;RP0=1, select bank1
	bcf	status, 6	;RP1=0, select bank1
	addwf	(_angleTurned)^080h,f
	skipnc
	incf	(_angleTurned+1)^080h,f
	bcf	status, 5	;RP0=0, select bank0
	bcf	status, 6	;RP1=0, select bank0
	movf	(robotTurnSpeed@temp1+1),w
	bsf	status, 5	;RP0=1, select bank1
	bcf	status, 6	;RP1=0, select bank1
	addwf	(_angleTurned+1)^080h,f
	line	307
	
l11250:	
;robot.c: 307: Disp2 = angleTurned;
	movf	(_angleTurned+1)^080h,w
	clrf	(_Disp2+1)^080h
	addwf	(_Disp2+1)^080h
	movf	(_angleTurned)^080h,w
	clrf	(_Disp2)^080h
	addwf	(_Disp2)^080h

	line	308
	
l11252:	
;robot.c: 308: UpdateDisplay();
	fcall	_UpdateDisplay
	goto	l11254
	line	309
	
l6090:	
	line	295
	
l11254:	
	bsf	status, 5	;RP0=1, select bank1
	bcf	status, 6	;RP1=0, select bank1
	movf	(_angleTurned+1)^080h,w
	bcf	status, 5	;RP0=0, select bank0
	bcf	status, 6	;RP1=0, select bank0
	clrf	(?_abs+1)
	addwf	(?_abs+1)
	bsf	status, 5	;RP0=1, select bank1
	bcf	status, 6	;RP1=0, select bank1
	movf	(_angleTurned)^080h,w
	bcf	status, 5	;RP0=0, select bank0
	bcf	status, 6	;RP1=0, select bank0
	clrf	(?_abs)
	addwf	(?_abs)

	fcall	_abs
	bcf	status, 5	;RP0=0, select bank0
	bcf	status, 6	;RP1=0, select bank0
	movf	(0+?_abs),w
	movwf	(??_robotTurnSpeed+0)+0
	movf	(1+?_abs),w
	movwf	((??_robotTurnSpeed+0)+0+1)
	movf	(robotTurnSpeed@angle+1),w
	clrf	(?_abs+1)
	addwf	(?_abs+1)
	movf	(robotTurnSpeed@angle),w
	clrf	(?_abs)
	addwf	(?_abs)

	fcall	_abs
	bcf	status, 5	;RP0=0, select bank0
	bcf	status, 6	;RP1=0, select bank0
	movf	1+(??_robotTurnSpeed+0)+0,w
	xorlw	80h
	movwf	(??_robotTurnSpeed+2)+0
	movf	(1+(?_abs)),w
	xorlw	80h
	subwf	(??_robotTurnSpeed+2)+0,w
	skipz
	goto	u4835
	movf	(0+(?_abs)),w
	subwf	0+(??_robotTurnSpeed+0)+0,w
u4835:

	skipc
	goto	u4831
	goto	u4830
u4831:
	goto	l11234
u4830:
	goto	l11256
	
l6095:	
	line	311
	
l11256:	
;robot.c: 309: }
;robot.c: 311: robotTurn(0);
	movlw	low(0)
	bcf	status, 5	;RP0=0, select bank0
	bcf	status, 6	;RP1=0, select bank0
	movwf	(?_robotTurn)
	movlw	high(0)
	movwf	((?_robotTurn))+1
	fcall	_robotTurn
	line	312
	
l6096:	
	return
	opt stack 0
GLOBAL	__end_of_robotTurnSpeed
	__end_of_robotTurnSpeed:
;; =============== function _robotTurnSpeed ends ============

	signat	_robotTurnSpeed,8312
	global	_calibrateIR
psect	text955,local,class=CODE,delta=2
global __ptext955
__ptext955:

;; *************** function _calibrateIR *****************
;; Defined at:
;;		line 399 in file "E:\Aldnoah.Zero\Assignment3\Main.c"
;; Parameters:    Size  Location     Type
;;		None
;; Auto vars:     Size  Location     Type
;;		None
;; Return value:  Size  Location     Type
;;		None               void
;; Registers used:
;;		wreg, fsr0l, fsr0h, status,2, status,0, btemp+1, pclath, cstack
;; Tracked objects:
;;		On entry : 0/0
;;		On exit  : 0/0
;;		Unchanged: 0/0
;; Data sizes:     COMMON   BANK0   BANK1   BANK3   BANK2
;;      Params:         0       0       0       0       0
;;      Locals:         0       0       0       0       0
;;      Temps:          0       0       0       0       0
;;      Totals:         0       0       0       0       0
;;Total ram usage:        0 bytes
;; Hardware stack levels used:    1
;; Hardware stack levels required when called:    6
;; This function calls:
;;		_rotate
;;		_UpdateDisplay
;; This function is called by:
;;		_main
;; This function uses a non-reentrant model
;;
psect	text955
	file	"E:\Aldnoah.Zero\Assignment3\Main.c"
	line	399
	global	__size_of_calibrateIR
	__size_of_calibrateIR	equ	__end_of_calibrateIR-_calibrateIR
	
_calibrateIR:	
	opt	stack 1
; Regs used in _calibrateIR: [wreg-fsr0h+status,2+status,0+btemp+1+pclath+cstack]
	line	400
	
l11200:	
;Main.c: 400: currentMenu = 1;
	bsf	status, 5	;RP0=1, select bank1
	bcf	status, 6	;RP1=0, select bank1
	clrf	(_currentMenu)^080h	;volatile
	bsf	status,0
	rlf	(_currentMenu)^080h,f	;volatile
	line	401
	
l11202:	
;Main.c: 401: rotate(8, 0);
	movlw	low(08h)
	bcf	status, 5	;RP0=0, select bank0
	bcf	status, 6	;RP1=0, select bank0
	movwf	(?_rotate)
	movlw	high(08h)
	movwf	((?_rotate))+1
	clrf	0+(?_rotate)+02h
	fcall	_rotate
	goto	l11204
	line	402
;Main.c: 402: while (1)
	
l2266:	
	line	404
	
l11204:	
;Main.c: 403: {
;Main.c: 404: if (RTC_FLAG_250MS == 1)
	btfss	(_RTC_FLAG_250MS/8),(_RTC_FLAG_250MS)&7
	goto	u4801
	goto	u4800
u4801:
	goto	l11228
u4800:
	line	406
	
l11206:	
;Main.c: 405: {
;Main.c: 406: RTC_FLAG_250MS = 0;
	bcf	(_RTC_FLAG_250MS/8),(_RTC_FLAG_250MS)&7
	line	407
	
l11208:	
;Main.c: 407: UpdateDisplay();
	fcall	_UpdateDisplay
	goto	l11228
	line	408
	
l2267:	
	line	409
;Main.c: 408: }
;Main.c: 409: switch (buttonPressed)
	goto	l11228
	line	411
;Main.c: 410: {
;Main.c: 411: case 1:
	
l2269:	
	line	412
;Main.c: 412: buttonPressed = 0;
	clrf	(_buttonPressed)	;volatile
	line	413
;Main.c: 413: break;
	goto	l11204
	line	414
;Main.c: 414: case 2:
	
l2271:	
	line	415
;Main.c: 415: buttonPressed = 0;
	clrf	(_buttonPressed)	;volatile
	line	416
;Main.c: 416: break;
	goto	l11204
	line	417
;Main.c: 417: case 3:
	
l2272:	
	line	418
	
l11210:	
;Main.c: 418: rotate(1, 1);
	movlw	low(01h)
	bcf	status, 5	;RP0=0, select bank0
	bcf	status, 6	;RP1=0, select bank0
	movwf	(?_rotate)
	movlw	high(01h)
	movwf	((?_rotate))+1
	clrf	0+(?_rotate)+02h
	bsf	status,0
	rlf	0+(?_rotate)+02h,f
	fcall	_rotate
	line	419
	
l11212:	
;Main.c: 419: buttonPressed = 0;
	clrf	(_buttonPressed)	;volatile
	line	420
;Main.c: 420: break;
	goto	l11204
	line	421
;Main.c: 421: case 4:
	
l2273:	
	line	422
	
l11214:	
;Main.c: 422: rotate(1, 0);
	movlw	low(01h)
	bcf	status, 5	;RP0=0, select bank0
	bcf	status, 6	;RP1=0, select bank0
	movwf	(?_rotate)
	movlw	high(01h)
	movwf	((?_rotate))+1
	clrf	0+(?_rotate)+02h
	fcall	_rotate
	line	423
	
l11216:	
;Main.c: 423: buttonPressed = 0;
	clrf	(_buttonPressed)	;volatile
	line	424
;Main.c: 424: break;
	goto	l11204
	line	425
;Main.c: 425: case 5:
	
l2274:	
	line	426
	
l11218:	
;Main.c: 426: totalSteps = 0;
	bsf	status, 5	;RP0=1, select bank1
	bcf	status, 6	;RP1=0, select bank1
	clrf	(_totalSteps)^080h
	clrf	(_totalSteps+1)^080h
	line	427
	
l11220:	
;Main.c: 427: buttonPressed = 0;
	clrf	(_buttonPressed)	;volatile
	line	428
	
l11222:	
;Main.c: 428: currentMenu = 0;
	clrf	(_currentMenu)^080h	;volatile
	goto	l2275
	line	429
	
l11224:	
;Main.c: 429: return;
	goto	l2275
	line	430
;Main.c: 430: default:
	
l2276:	
	line	431
;Main.c: 431: break;
	goto	l11204
	line	432
	
l11226:	
;Main.c: 432: }
	goto	l11204
	line	409
	
l2268:	
	
l11228:	
	movf	(_buttonPressed),w	;volatile
	; Switch size 1, requested type "space"
; Number of cases is 5, Range of values is 1 to 5
; switch strategies available:
; Name         Instructions Cycles
; simple_byte           16     9 (average)
; direct_byte           26    11 (fixed)
; jumptable            263     9 (fixed)
;	Chosen strategy is simple_byte

	opt asmopt_off
	xorlw	1^0	; case 1
	skipnz
	goto	l2269
	xorlw	2^1	; case 2
	skipnz
	goto	l2271
	xorlw	3^2	; case 3
	skipnz
	goto	l11210
	xorlw	4^3	; case 4
	skipnz
	goto	l11214
	xorlw	5^4	; case 5
	skipnz
	goto	l11218
	goto	l11204
	opt asmopt_on

	line	432
	
l2270:	
	goto	l11204
	line	433
	
l2277:	
	line	402
	goto	l11204
	
l2278:	
	line	434
	
l2275:	
	return
	opt stack 0
GLOBAL	__end_of_calibrateIR
	__end_of_calibrateIR:
;; =============== function _calibrateIR ends ============

	signat	_calibrateIR,88
	global	_UpdateDisplay
psect	text956,local,class=CODE,delta=2
global __ptext956
__ptext956:

;; *************** function _UpdateDisplay *****************
;; Defined at:
;;		line 236 in file "E:\Aldnoah.Zero\Assignment3\HMI.c"
;; Parameters:    Size  Location     Type
;;		None
;; Auto vars:     Size  Location     Type
;;  LCDOutput      16   35[BANK0 ] unsigned char [16]
;; Return value:  Size  Location     Type
;;		None               void
;; Registers used:
;;		wreg, fsr0l, fsr0h, status,2, status,0, btemp+1, pclath, cstack
;; Tracked objects:
;;		On entry : 0/0
;;		On exit  : 0/0
;;		Unchanged: 0/0
;; Data sizes:     COMMON   BANK0   BANK1   BANK3   BANK2
;;      Params:         0       0       0       0       0
;;      Locals:         0      16       0       0       0
;;      Temps:          0       4       0       0       0
;;      Totals:         0      20       0       0       0
;;Total ram usage:       20 bytes
;; Hardware stack levels used:    1
;; Hardware stack levels required when called:    5
;; This function calls:
;;		_lcd_write_control
;;		_sprintf
;;		_lcd_set_cursor
;;		_lcd_write_string
;;		___awmod
;; This function is called by:
;;		_main
;;		_calibrateIR
;;		_ChargeMode
;;		_robotFollow
;;		_robotMoveSpeed
;;		_robotTurnSpeed
;;		_scan360
;; This function uses a non-reentrant model
;;
psect	text956
	file	"E:\Aldnoah.Zero\Assignment3\HMI.c"
	line	236
	global	__size_of_UpdateDisplay
	__size_of_UpdateDisplay	equ	__end_of_UpdateDisplay-_UpdateDisplay
	
_UpdateDisplay:	
	opt	stack 1
; Regs used in _UpdateDisplay: [wreg-fsr0h+status,2+status,0+btemp+1+pclath+cstack]
	line	237
	
l11156:	
;HMI.c: 237: char LCDOutput[16] = "";
	movlw	(UpdateDisplay@LCDOutput)&0ffh
	movwf	fsr0
	movlw	low(UpdateDisplay@F1250)
	bcf	status, 5	;RP0=0, select bank0
	bcf	status, 6	;RP1=0, select bank0
	movwf	(??_UpdateDisplay+0)+0
	movf	fsr0,w
	movwf	((??_UpdateDisplay+0)+0+1)
	movlw	16
	movwf	((??_UpdateDisplay+0)+0+2)
u4780:
	movf	(??_UpdateDisplay+0)+0,w
	movwf	fsr0
	bsf	status, 7	;select IRP bank3
	
	movf	indf,w
	movwf	((??_UpdateDisplay+0)+0+3)
	incf	(??_UpdateDisplay+0)+0,f
	movf	((??_UpdateDisplay+0)+0+1),w
	movwf	fsr0
	bcf	status, 7	;select IRP bank0
	
	movf	((??_UpdateDisplay+0)+0+3),w
	movwf	indf
	incf	((??_UpdateDisplay+0)+0+1),f
	decfsz	((??_UpdateDisplay+0)+0+2),f
	goto	u4780
	line	238
;HMI.c: 238: switch (currentMenu)
	goto	l11198
	line	240
;HMI.c: 239: {
;HMI.c: 240: case 0:
	
l4554:	
	line	241
	
l11158:	
;HMI.c: 241: lcd_write_control(0b00000001);
	movlw	(01h)
	fcall	_lcd_write_control
	line	242
	
l11160:	
;HMI.c: 242: sprintf(LCDOutput,"IR:%dcm D:%d",Disp1, Disp2);
	movlw	((STR_13-__stringbase))&0ffh
	bcf	status, 5	;RP0=0, select bank0
	bcf	status, 6	;RP1=0, select bank0
	movwf	(??_UpdateDisplay+0)+0
	movf	(??_UpdateDisplay+0)+0,w
	movwf	(?_sprintf)
	bsf	status, 5	;RP0=1, select bank1
	bcf	status, 6	;RP1=0, select bank1
	movf	(_Disp1+1)^080h,w
	bcf	status, 5	;RP0=0, select bank0
	bcf	status, 6	;RP1=0, select bank0
	clrf	1+(?_sprintf)+01h
	addwf	1+(?_sprintf)+01h
	bsf	status, 5	;RP0=1, select bank1
	bcf	status, 6	;RP1=0, select bank1
	movf	(_Disp1)^080h,w
	bcf	status, 5	;RP0=0, select bank0
	bcf	status, 6	;RP1=0, select bank0
	clrf	0+(?_sprintf)+01h
	addwf	0+(?_sprintf)+01h

	bsf	status, 5	;RP0=1, select bank1
	bcf	status, 6	;RP1=0, select bank1
	movf	(_Disp2+1)^080h,w
	bcf	status, 5	;RP0=0, select bank0
	bcf	status, 6	;RP1=0, select bank0
	clrf	1+(?_sprintf)+03h
	addwf	1+(?_sprintf)+03h
	bsf	status, 5	;RP0=1, select bank1
	bcf	status, 6	;RP1=0, select bank1
	movf	(_Disp2)^080h,w
	bcf	status, 5	;RP0=0, select bank0
	bcf	status, 6	;RP1=0, select bank0
	clrf	0+(?_sprintf)+03h
	addwf	0+(?_sprintf)+03h

	movlw	(UpdateDisplay@LCDOutput)&0ffh
	fcall	_sprintf
	line	243
	
l11162:	
;HMI.c: 243: lcd_set_cursor(0x00);
	movlw	(0)
	fcall	_lcd_set_cursor
	line	244
;HMI.c: 244: lcd_write_string(LCDOutput);
	movlw	(UpdateDisplay@LCDOutput&0ffh)
	bcf	status, 5	;RP0=0, select bank0
	bcf	status, 6	;RP1=0, select bank0
	movwf	(?_lcd_write_string)
	movlw	(0x0/2)
	movwf	(?_lcd_write_string+1)
	fcall	_lcd_write_string
	line	245
	
l11164:	
;HMI.c: 245: lcd_set_cursor(0x40);
	movlw	(040h)
	fcall	_lcd_set_cursor
	line	246
	
l11166:	
;HMI.c: 246: if (pos > 0)
	bcf	status, 5	;RP0=0, select bank0
	bcf	status, 6	;RP1=0, select bank0
	movf	(_pos+1),w
	xorlw	80h
	movwf	btemp+1
	movlw	(high(01h))^80h
	subwf	btemp+1,w
	skipz
	goto	u4795
	movlw	low(01h)
	subwf	(_pos),w
u4795:

	skipc
	goto	u4791
	goto	u4790
u4791:
	goto	l11170
u4790:
	line	247
	
l11168:	
;HMI.c: 247: lcd_write_string(shortMenuStrings[pos - 1]);
	bcf	status, 5	;RP0=0, select bank0
	bcf	status, 6	;RP1=0, select bank0
	movf	(_pos),w
	addlw	0FFh
	addlw	_shortMenuStrings&0ffh
	movwf	fsr0
	bcf	status, 7	;select IRP bank1
	movf	indf,w
	movwf	(?_lcd_write_string)
	movlw	80h
	movwf	(?_lcd_write_string+1)
	fcall	_lcd_write_string
	goto	l11172
	line	248
	
l4555:	
	line	249
	
l11170:	
;HMI.c: 248: else
;HMI.c: 249: lcd_write_string(shortMenuStrings[pos + 6 - 1]);
	bcf	status, 5	;RP0=0, select bank0
	bcf	status, 6	;RP1=0, select bank0
	movf	(_pos),w
	addlw	05h
	addlw	_shortMenuStrings&0ffh
	movwf	fsr0
	bcf	status, 7	;select IRP bank1
	movf	indf,w
	movwf	(?_lcd_write_string)
	movlw	80h
	movwf	(?_lcd_write_string+1)
	fcall	_lcd_write_string
	goto	l11172
	
l4556:	
	line	250
	
l11172:	
;HMI.c: 250: lcd_set_cursor(0x44);
	movlw	(044h)
	fcall	_lcd_set_cursor
	line	251
	
l11174:	
;HMI.c: 251: lcd_write_string(menuStrings[pos]);
	bcf	status, 5	;RP0=0, select bank0
	bcf	status, 6	;RP1=0, select bank0
	movf	(_pos),w
	addlw	_menuStrings&0ffh
	movwf	fsr0
	bcf	status, 7	;select IRP bank1
	movf	indf,w
	movwf	(?_lcd_write_string)
	movlw	80h
	movwf	(?_lcd_write_string+1)
	fcall	_lcd_write_string
	line	252
;HMI.c: 252: lcd_set_cursor(0x4D);
	movlw	(04Dh)
	fcall	_lcd_set_cursor
	line	253
	
l11176:	
;HMI.c: 253: lcd_write_string(shortMenuStrings[(pos + 1) % 6]);
	movlw	low(06h)
	bcf	status, 5	;RP0=0, select bank0
	bcf	status, 6	;RP1=0, select bank0
	movwf	(?___awmod)
	movlw	high(06h)
	movwf	((?___awmod))+1
	movf	(_pos),w
	addlw	low(01h)
	movwf	0+(?___awmod)+02h
	movf	(_pos+1),w
	skipnc
	addlw	1
	addlw	high(01h)
	movwf	1+0+(?___awmod)+02h
	fcall	___awmod
	bcf	status, 5	;RP0=0, select bank0
	bcf	status, 6	;RP1=0, select bank0
	movf	(0+(?___awmod)),w
	addlw	_shortMenuStrings&0ffh
	movwf	fsr0
	bcf	status, 7	;select IRP bank1
	movf	indf,w
	movwf	(?_lcd_write_string)
	movlw	80h
	movwf	(?_lcd_write_string+1)
	fcall	_lcd_write_string
	line	254
;HMI.c: 254: break;
	goto	l4561
	line	255
;HMI.c: 255: case 1:
	
l4558:	
	line	256
	
l11178:	
;HMI.c: 256: lcd_write_control(0b00000001);
	movlw	(01h)
	fcall	_lcd_write_control
	line	257
;HMI.c: 257: lcd_set_cursor(0x00);
	movlw	(0)
	fcall	_lcd_set_cursor
	line	258
	
l11180:	
;HMI.c: 258: lcd_write_string("Zero Step_Motor");
	movlw	low((STR_14-__stringbase))
	bcf	status, 5	;RP0=0, select bank0
	bcf	status, 6	;RP1=0, select bank0
	movwf	(?_lcd_write_string)
	movlw	80h
	movwf	(?_lcd_write_string+1)
	fcall	_lcd_write_string
	line	259
	
l11182:	
;HMI.c: 259: lcd_set_cursor(0x40);
	movlw	(040h)
	fcall	_lcd_set_cursor
	line	260
;HMI.c: 260: lcd_write_string("<<<");
	movlw	low((STR_15-__stringbase))
	bcf	status, 5	;RP0=0, select bank0
	bcf	status, 6	;RP1=0, select bank0
	movwf	(?_lcd_write_string)
	movlw	80h
	movwf	(?_lcd_write_string+1)
	fcall	_lcd_write_string
	line	261
	
l11184:	
;HMI.c: 261: lcd_set_cursor(0x44);
	movlw	(044h)
	fcall	_lcd_set_cursor
	line	262
	
l11186:	
;HMI.c: 262: lcd_write_string("CONFIRM");
	movlw	low((STR_16-__stringbase))
	bcf	status, 5	;RP0=0, select bank0
	bcf	status, 6	;RP1=0, select bank0
	movwf	(?_lcd_write_string)
	movlw	80h
	movwf	(?_lcd_write_string+1)
	fcall	_lcd_write_string
	line	263
;HMI.c: 263: lcd_set_cursor(0x4D);
	movlw	(04Dh)
	fcall	_lcd_set_cursor
	line	264
	
l11188:	
;HMI.c: 264: lcd_write_string(">>>");
	movlw	low((STR_17-__stringbase))
	bcf	status, 5	;RP0=0, select bank0
	bcf	status, 6	;RP1=0, select bank0
	movwf	(?_lcd_write_string)
	movlw	80h
	movwf	(?_lcd_write_string+1)
	fcall	_lcd_write_string
	line	265
;HMI.c: 265: break;
	goto	l4561
	line	266
;HMI.c: 266: case 2:
	
l4559:	
	line	267
	
l11190:	
;HMI.c: 267: lcd_write_control(0b00000001);
	movlw	(01h)
	fcall	_lcd_write_control
	line	268
;HMI.c: 268: lcd_set_cursor(0x00);
	movlw	(0)
	fcall	_lcd_set_cursor
	line	269
	
l11192:	
;HMI.c: 269: lcd_write_string(" Charging Mode ");
	movlw	low((STR_18-__stringbase))
	bcf	status, 5	;RP0=0, select bank0
	bcf	status, 6	;RP1=0, select bank0
	movwf	(?_lcd_write_string)
	movlw	80h
	movwf	(?_lcd_write_string+1)
	fcall	_lcd_write_string
	line	270
	
l11194:	
;HMI.c: 270: lcd_set_cursor(0x44);
	movlw	(044h)
	fcall	_lcd_set_cursor
	line	271
;HMI.c: 271: lcd_write_string("  EXIT  ");
	movlw	low((STR_19-__stringbase))
	bcf	status, 5	;RP0=0, select bank0
	bcf	status, 6	;RP1=0, select bank0
	movwf	(?_lcd_write_string)
	movlw	80h
	movwf	(?_lcd_write_string+1)
	fcall	_lcd_write_string
	line	272
;HMI.c: 272: break;
	goto	l4561
	line	273
;HMI.c: 273: default:
	
l4560:	
	line	274
;HMI.c: 274: break;
	goto	l4561
	line	275
	
l11196:	
;HMI.c: 275: }
	goto	l4561
	line	238
	
l4553:	
	
l11198:	
	bsf	status, 5	;RP0=1, select bank1
	bcf	status, 6	;RP1=0, select bank1
	movf	(_currentMenu)^080h,w	;volatile
	; Switch size 1, requested type "space"
; Number of cases is 3, Range of values is 0 to 2
; switch strategies available:
; Name         Instructions Cycles
; simple_byte           10     6 (average)
; direct_byte           17     8 (fixed)
; jumptable            260     6 (fixed)
; rangetable             7     6 (fixed)
; spacedrange           12     9 (fixed)
; locatedrange           3     3 (fixed)
;	Chosen strategy is simple_byte

	opt asmopt_off
	xorlw	0^0	; case 0
	skipnz
	goto	l11158
	xorlw	1^0	; case 1
	skipnz
	goto	l11178
	xorlw	2^1	; case 2
	skipnz
	goto	l11190
	goto	l4561
	opt asmopt_on

	line	275
	
l4557:	
	line	276
	
l4561:	
	return
	opt stack 0
GLOBAL	__end_of_UpdateDisplay
	__end_of_UpdateDisplay:
;; =============== function _UpdateDisplay ends ============

	signat	_UpdateDisplay,88
	global	_readAvgDistance
psect	text957,local,class=CODE,delta=2
global __ptext957
__ptext957:

;; *************** function _readAvgDistance *****************
;; Defined at:
;;		line 28 in file "E:\Aldnoah.Zero\Assignment3\infrared.c"
;; Parameters:    Size  Location     Type
;;		None
;; Auto vars:     Size  Location     Type
;;  values         14   22[BANK0 ] unsigned int [7]
;;  tempIR          2   36[BANK0 ] unsigned int 
;;  fullval         2   20[BANK0 ] unsigned int 
;;  i               1   39[BANK0 ] unsigned char 
;;  j               1   38[BANK0 ] unsigned char 
;; Return value:  Size  Location     Type
;;		None               void
;; Registers used:
;;		wreg, fsr0l, fsr0h, status,2, status,0, pclath, cstack
;; Tracked objects:
;;		On entry : 0/0
;;		On exit  : 0/0
;;		Unchanged: 0/0
;; Data sizes:     COMMON   BANK0   BANK1   BANK3   BANK2
;;      Params:         0       0       0       0       0
;;      Locals:         0      20       0       0       0
;;      Temps:          0       6       0       0       0
;;      Totals:         0      26       0       0       0
;;Total ram usage:       26 bytes
;; Hardware stack levels used:    1
;; Hardware stack levels required when called:    6
;; This function calls:
;;		_readDistance
;; This function is called by:
;;		_main
;;		_robotFollow
;;		_scan360
;; This function uses a non-reentrant model
;;
psect	text957
	file	"E:\Aldnoah.Zero\Assignment3\infrared.c"
	line	28
	global	__size_of_readAvgDistance
	__size_of_readAvgDistance	equ	__end_of_readAvgDistance-_readAvgDistance
	
_readAvgDistance:	
	opt	stack 0
; Regs used in _readAvgDistance: [wreg-fsr0h+status,2+status,0+pclath+cstack]
	line	29
	
l11120:	
;infrared.c: 29: unsigned int fullval = 0, tempIR = 0;
	bcf	status, 5	;RP0=0, select bank0
	bcf	status, 6	;RP1=0, select bank0
	clrf	(readAvgDistance@fullval)
	clrf	(readAvgDistance@fullval+1)
	clrf	(readAvgDistance@tempIR)
	clrf	(readAvgDistance@tempIR+1)
	line	33
	
l11122:	
;infrared.c: 30: unsigned char j, i;
;infrared.c: 31: unsigned int values[7];
;infrared.c: 33: for (i = 0; i < 7; i++)
	clrf	(readAvgDistance@i)
	
l11124:	
	movlw	(07h)
	subwf	(readAvgDistance@i),w
	skipc
	goto	u4711
	goto	u4710
u4711:
	goto	l11128
u4710:
	goto	l3006
	
l11126:	
	goto	l3006
	line	34
	
l3005:	
	line	35
	
l11128:	
;infrared.c: 34: {
;infrared.c: 35: values[i] = readDistance();
	fcall	_readDistance
	bcf	status, 5	;RP0=0, select bank0
	bcf	status, 6	;RP1=0, select bank0
	movf	(readAvgDistance@i),w
	movwf	(??_readAvgDistance+0)+0
	addwf	(??_readAvgDistance+0)+0,w
	addlw	readAvgDistance@values&0ffh
	movwf	fsr0
	movf	(0+(?_readDistance)),w
	bcf	status, 7	;select IRP bank0
	movwf	indf
	incf	fsr0,f
	movf	(1+(?_readDistance)),w
	movwf	indf
	line	33
	
l11130:	
	movlw	(01h)
	movwf	(??_readAvgDistance+0)+0
	movf	(??_readAvgDistance+0)+0,w
	addwf	(readAvgDistance@i),f
	
l11132:	
	movlw	(07h)
	subwf	(readAvgDistance@i),w
	skipc
	goto	u4721
	goto	u4720
u4721:
	goto	l11128
u4720:
	
l3006:	
	line	37
;infrared.c: 36: }
;infrared.c: 37: for (i = 0; i < 7; i++)
	clrf	(readAvgDistance@i)
	
l11134:	
	movlw	(07h)
	subwf	(readAvgDistance@i),w
	skipc
	goto	u4731
	goto	u4730
u4731:
	goto	l11138
u4730:
	goto	l11154
	
l11136:	
	goto	l11154
	line	38
	
l3007:	
	line	39
	
l11138:	
;infrared.c: 38: {
;infrared.c: 39: for (j = i ; j < 7; j++)
	movf	(readAvgDistance@i),w
	movwf	(??_readAvgDistance+0)+0
	movf	(??_readAvgDistance+0)+0,w
	movwf	(readAvgDistance@j)
	movlw	(07h)
	subwf	(readAvgDistance@j),w
	skipc
	goto	u4741
	goto	u4740
u4741:
	goto	l11142
u4740:
	goto	l11150
	
l11140:	
	goto	l11150
	line	40
	
l3009:	
	line	41
	
l11142:	
;infrared.c: 40: {
;infrared.c: 41: if (values[i] > values[j])
	movf	(readAvgDistance@i),w
	movwf	(??_readAvgDistance+0)+0
	addwf	(??_readAvgDistance+0)+0,w
	addlw	readAvgDistance@values&0ffh
	movwf	fsr0
	bcf	status, 7	;select IRP bank0
	movf	indf,w
	movwf	(??_readAvgDistance+1)+0+0
	incf	fsr0,f
	movf	indf,w
	movwf	(??_readAvgDistance+1)+0+1
	movf	(readAvgDistance@j),w
	movwf	(??_readAvgDistance+3)+0
	addwf	(??_readAvgDistance+3)+0,w
	addlw	readAvgDistance@values&0ffh
	movwf	fsr0
	movf	indf,w
	movwf	(??_readAvgDistance+4)+0+0
	incf	fsr0,f
	movf	indf,w
	movwf	(??_readAvgDistance+4)+0+1
	movf	1+(??_readAvgDistance+1)+0,w
	subwf	1+(??_readAvgDistance+4)+0,w
	skipz
	goto	u4755
	movf	0+(??_readAvgDistance+1)+0,w
	subwf	0+(??_readAvgDistance+4)+0,w
u4755:
	skipnc
	goto	u4751
	goto	u4750
u4751:
	goto	l11146
u4750:
	line	43
	
l11144:	
;infrared.c: 42: {
;infrared.c: 43: tempIR = values[i];
	movf	(readAvgDistance@i),w
	movwf	(??_readAvgDistance+0)+0
	addwf	(??_readAvgDistance+0)+0,w
	addlw	readAvgDistance@values&0ffh
	movwf	fsr0
	movf	indf,w
	movwf	(readAvgDistance@tempIR)
	incf	fsr0,f
	movf	indf,w
	movwf	(readAvgDistance@tempIR+1)
	line	44
;infrared.c: 44: values[i] = values[j];
	movf	(readAvgDistance@j),w
	movwf	(??_readAvgDistance+0)+0
	addwf	(??_readAvgDistance+0)+0,w
	addlw	readAvgDistance@values&0ffh
	movwf	fsr0
	movf	indf,w
	movwf	(??_readAvgDistance+1)+0+0
	incf	fsr0,f
	movf	indf,w
	movwf	(??_readAvgDistance+1)+0+1
	movf	(readAvgDistance@i),w
	movwf	(??_readAvgDistance+3)+0
	addwf	(??_readAvgDistance+3)+0,w
	addlw	readAvgDistance@values&0ffh
	movwf	fsr0
	movf	0+(??_readAvgDistance+1)+0,w
	movwf	indf
	incf	fsr0,f
	movf	1+(??_readAvgDistance+1)+0,w
	movwf	indf
	line	45
;infrared.c: 45: values[j] = tempIR;
	movf	(readAvgDistance@j),w
	movwf	(??_readAvgDistance+0)+0
	addwf	(??_readAvgDistance+0)+0,w
	addlw	readAvgDistance@values&0ffh
	movwf	fsr0
	movf	(readAvgDistance@tempIR),w
	movwf	indf
	incf	fsr0,f
	movf	(readAvgDistance@tempIR+1),w
	movwf	indf
	goto	l11146
	line	46
	
l3011:	
	line	39
	
l11146:	
	movlw	(01h)
	movwf	(??_readAvgDistance+0)+0
	movf	(??_readAvgDistance+0)+0,w
	addwf	(readAvgDistance@j),f
	
l11148:	
	movlw	(07h)
	subwf	(readAvgDistance@j),w
	skipc
	goto	u4761
	goto	u4760
u4761:
	goto	l11142
u4760:
	goto	l11150
	
l3010:	
	line	37
	
l11150:	
	movlw	(01h)
	movwf	(??_readAvgDistance+0)+0
	movf	(??_readAvgDistance+0)+0,w
	addwf	(readAvgDistance@i),f
	
l11152:	
	movlw	(07h)
	subwf	(readAvgDistance@i),w
	skipc
	goto	u4771
	goto	u4770
u4771:
	goto	l11138
u4770:
	goto	l11154
	
l3008:	
	line	49
	
l11154:	
;infrared.c: 46: }
;infrared.c: 47: }
;infrared.c: 48: }
;infrared.c: 49: adcVal = values[7/2];
	movf	1+(readAvgDistance@values)+06h,w
	clrf	(_adcVal+1)	;volatile
	addwf	(_adcVal+1)	;volatile
	movf	0+(readAvgDistance@values)+06h,w
	clrf	(_adcVal)	;volatile
	addwf	(_adcVal)	;volatile

	line	51
;infrared.c: 51: Disp1 = adcVal;
	movf	(_adcVal+1),w	;volatile
	bsf	status, 5	;RP0=1, select bank1
	bcf	status, 6	;RP1=0, select bank1
	clrf	(_Disp1+1)^080h	;volatile
	addwf	(_Disp1+1)^080h	;volatile
	bcf	status, 5	;RP0=0, select bank0
	bcf	status, 6	;RP1=0, select bank0
	movf	(_adcVal),w	;volatile
	bsf	status, 5	;RP0=1, select bank1
	bcf	status, 6	;RP1=0, select bank1
	clrf	(_Disp1)^080h	;volatile
	addwf	(_Disp1)^080h	;volatile

	line	52
	
l3012:	
	return
	opt stack 0
GLOBAL	__end_of_readAvgDistance
	__end_of_readAvgDistance:
;; =============== function _readAvgDistance ends ============

	signat	_readAvgDistance,88
	global	_init
psect	text958,local,class=CODE,delta=2
global __ptext958
__ptext958:

;; *************** function _init *****************
;; Defined at:
;;		line 139 in file "E:\Aldnoah.Zero\Assignment3\Main.c"
;; Parameters:    Size  Location     Type
;;		None
;; Auto vars:     Size  Location     Type
;;		None
;; Return value:  Size  Location     Type
;;		None               void
;; Registers used:
;;		wreg, fsr0l, fsr0h, status,2, status,0, pclath, cstack
;; Tracked objects:
;;		On entry : 0/0
;;		On exit  : 0/0
;;		Unchanged: 0/0
;; Data sizes:     COMMON   BANK0   BANK1   BANK3   BANK2
;;      Params:         0       0       0       0       0
;;      Locals:         0       0       0       0       0
;;      Temps:          0       1       0       0       0
;;      Totals:         0       1       0       0       0
;;Total ram usage:        1 bytes
;; Hardware stack levels used:    1
;; Hardware stack levels required when called:    5
;; This function calls:
;;		_ser_init
;;		_init_adc
;;		_lcd_init
;;		_robo_init
;; This function is called by:
;;		_main
;; This function uses a non-reentrant model
;;
psect	text958
	file	"E:\Aldnoah.Zero\Assignment3\Main.c"
	line	139
	global	__size_of_init
	__size_of_init	equ	__end_of_init-_init
	
_init:	
	opt	stack 2
; Regs used in _init: [wreg-fsr0h+status,2+status,0+pclath+cstack]
	line	140
	
l11094:	
;Main.c: 140: buttonPressed = 0;
	clrf	(_buttonPressed)	;volatile
	line	142
	
l11096:	
;Main.c: 142: TRISB = 0b11111100;
	movlw	(0FCh)
	bsf	status, 5	;RP0=1, select bank1
	bcf	status, 6	;RP1=0, select bank1
	movwf	(134)^080h	;volatile
	line	143
	
l11098:	
;Main.c: 143: TRISC &= 0b10010000;
	movlw	(090h)
	bcf	status, 5	;RP0=0, select bank0
	bcf	status, 6	;RP1=0, select bank0
	movwf	(??_init+0)+0
	movf	(??_init+0)+0,w
	bsf	status, 5	;RP0=1, select bank1
	bcf	status, 6	;RP1=0, select bank1
	andwf	(135)^080h,f	;volatile
	line	146
	
l11100:	
;Main.c: 146: SSPSTAT = 0b01000000;
	movlw	(040h)
	movwf	(148)^080h	;volatile
	line	147
	
l11102:	
;Main.c: 147: SSPCON = 0b10100001;
	movlw	(0A1h)
	bcf	status, 5	;RP0=0, select bank0
	bcf	status, 6	;RP1=0, select bank0
	movwf	(20)	;volatile
	line	150
	
l11104:	
;Main.c: 150: OPTION_REG = 0b00000100;
	movlw	(04h)
	bsf	status, 5	;RP0=1, select bank1
	bcf	status, 6	;RP1=0, select bank1
	movwf	(129)^080h	;volatile
	line	153
	
l11106:	
;Main.c: 153: ser_init();
	fcall	_ser_init
	line	154
	
l11108:	
;Main.c: 154: init_adc();
	fcall	_init_adc
	line	155
	
l11110:	
;Main.c: 155: lcd_init();
	fcall	_lcd_init
	line	156
	
l11112:	
;Main.c: 156: robo_init();
	fcall	_robo_init
	line	160
	
l11114:	
;Main.c: 160: TMR0IE = 1;
	bsf	(93/8),(93)&7
	line	162
	
l11116:	
;Main.c: 162: PEIE=1;
	bsf	(94/8),(94)&7
	line	164
	
l11118:	
;Main.c: 164: (GIE = 1);
	bsf	(95/8),(95)&7
	line	165
	
l2231:	
	return
	opt stack 0
GLOBAL	__end_of_init
	__end_of_init:
;; =============== function _init ends ============

	signat	_init,88
	global	_readDistance
psect	text959,local,class=CODE,delta=2
global __ptext959
__ptext959:

;; *************** function _readDistance *****************
;; Defined at:
;;		line 57 in file "E:\Aldnoah.Zero\Assignment3\infrared.c"
;; Parameters:    Size  Location     Type
;;		None
;; Auto vars:     Size  Location     Type
;;  readVal         2   12[BANK0 ] unsigned int 
;; Return value:  Size  Location     Type
;;                  2    8[BANK0 ] unsigned int 
;; Registers used:
;;		wreg, fsr0l, fsr0h, status,2, status,0, pclath, cstack
;; Tracked objects:
;;		On entry : 0/0
;;		On exit  : 0/0
;;		Unchanged: 0/0
;; Data sizes:     COMMON   BANK0   BANK1   BANK3   BANK2
;;      Params:         0       2       0       0       0
;;      Locals:         0       2       0       0       0
;;      Temps:          0       2       0       0       0
;;      Totals:         0       6       0       0       0
;;Total ram usage:        6 bytes
;; Hardware stack levels used:    1
;; Hardware stack levels required when called:    5
;; This function calls:
;;		_adc_read_channel
;; This function is called by:
;;		_readAvgDistance
;; This function uses a non-reentrant model
;;
psect	text959
	file	"E:\Aldnoah.Zero\Assignment3\infrared.c"
	line	57
	global	__size_of_readDistance
	__size_of_readDistance	equ	__end_of_readDistance-_readDistance
	
_readDistance:	
	opt	stack 0
; Regs used in _readDistance: [wreg-fsr0h+status,2+status,0+pclath+cstack]
	line	60
	
l11088:	
;infrared.c: 58: unsigned int readVal;
;infrared.c: 60: readVal = adc_read_channel(0);
	movlw	(0)
	fcall	_adc_read_channel
	bcf	status, 5	;RP0=0, select bank0
	bcf	status, 6	;RP1=0, select bank0
	movwf	(??_readDistance+0)+0
	clrf	(??_readDistance+0)+0+1
	movf	0+(??_readDistance+0)+0,w
	movwf	(readDistance@readVal)
	movf	1+(??_readDistance+0)+0,w
	movwf	(readDistance@readVal+1)
	line	62
	
l11090:	
;infrared.c: 62: return readVal;
	movf	(readDistance@readVal+1),w
	clrf	(?_readDistance+1)
	addwf	(?_readDistance+1)
	movf	(readDistance@readVal),w
	clrf	(?_readDistance)
	addwf	(?_readDistance)

	goto	l3015
	
l11092:	
	line	63
	
l3015:	
	return
	opt stack 0
GLOBAL	__end_of_readDistance
	__end_of_readDistance:
;; =============== function _readDistance ends ============

	signat	_readDistance,90
	global	_robot_read
psect	text960,local,class=CODE,delta=2
global __ptext960
__ptext960:

;; *************** function _robot_read *****************
;; Defined at:
;;		line 46 in file "E:\Aldnoah.Zero\Assignment3\robot.c"
;; Parameters:    Size  Location     Type
;;  readType        1    wreg     unsigned char 
;; Auto vars:     Size  Location     Type
;;  readType        1    4[BANK0 ] unsigned char 
;; Return value:  Size  Location     Type
;;		None               void
;; Registers used:
;;		wreg, fsr0l, fsr0h, status,2, status,0, pclath, cstack
;; Tracked objects:
;;		On entry : 0/0
;;		On exit  : 0/0
;;		Unchanged: 0/0
;; Data sizes:     COMMON   BANK0   BANK1   BANK3   BANK2
;;      Params:         0       0       0       0       0
;;      Locals:         0       1       0       0       0
;;      Temps:          0       2       0       0       0
;;      Totals:         0       3       0       0       0
;;Total ram usage:        3 bytes
;; Hardware stack levels used:    1
;; Hardware stack levels required when called:    5
;; This function calls:
;;		_ser_putch
;;		_ser_getch
;; This function is called by:
;;		_main
;;		_robotFollow
;;		_robotMoveSpeed
;;		_robotTurnSpeed
;; This function uses a non-reentrant model
;;
psect	text960
	file	"E:\Aldnoah.Zero\Assignment3\robot.c"
	line	46
	global	__size_of_robot_read
	__size_of_robot_read	equ	__end_of_robot_read-_robot_read
	
_robot_read:	
	opt	stack 1
; Regs used in _robot_read: [wreg-fsr0h+status,2+status,0+pclath+cstack]
;robot_read@readType stored from wreg
	bcf	status, 5	;RP0=0, select bank0
	bcf	status, 6	;RP1=0, select bank0
	movwf	(robot_read@readType)
	line	47
	
l11030:	
;robot.c: 47: ser_putch(142);
	movlw	(08Eh)
	fcall	_ser_putch
	line	48
;robot.c: 48: ser_putch(7);
	movlw	(07h)
	fcall	_ser_putch
	line	49
	
l11032:	
;robot.c: 49: _delay((unsigned long)((5)*(20000000/4000.0)));
	opt asmopt_off
movlw	33
	bcf	status, 5	;RP0=0, select bank0
	bcf	status, 6	;RP1=0, select bank0
movwf	((??_robot_read+0)+0+1),f
	movlw	118
movwf	((??_robot_read+0)+0),f
u5037:
	decfsz	((??_robot_read+0)+0),f
	goto	u5037
	decfsz	((??_robot_read+0)+0+1),f
	goto	u5037
	clrwdt
opt asmopt_on

	line	50
	
l11034:	
;robot.c: 50: BumpSensors = ser_getch();
	fcall	_ser_getch
	bcf	status, 5	;RP0=0, select bank0
	bcf	status, 6	;RP1=0, select bank0
	movwf	(??_robot_read+0)+0
	movf	(??_robot_read+0)+0,w
	movwf	(_BumpSensors)	;volatile
	line	52
	
l11036:	
;robot.c: 52: ser_putch(142);
	movlw	(08Eh)
	fcall	_ser_putch
	line	53
	
l11038:	
;robot.c: 53: ser_putch(13);
	movlw	(0Dh)
	fcall	_ser_putch
	line	54
;robot.c: 54: _delay((unsigned long)((5)*(20000000/4000.0)));
	opt asmopt_off
movlw	33
	bcf	status, 5	;RP0=0, select bank0
	bcf	status, 6	;RP1=0, select bank0
movwf	((??_robot_read+0)+0+1),f
	movlw	118
movwf	((??_robot_read+0)+0),f
u5047:
	decfsz	((??_robot_read+0)+0),f
	goto	u5047
	decfsz	((??_robot_read+0)+0+1),f
	goto	u5047
	clrwdt
opt asmopt_on

	line	55
	
l11040:	
;robot.c: 55: VwallSensor = ser_getch();
	fcall	_ser_getch
	bcf	status, 5	;RP0=0, select bank0
	bcf	status, 6	;RP1=0, select bank0
	movwf	(??_robot_read+0)+0
	movf	(??_robot_read+0)+0,w
	movwf	(_VwallSensor)	;volatile
	line	57
	
l11042:	
;robot.c: 57: ser_putch(142);
	movlw	(08Eh)
	fcall	_ser_putch
	line	58
	
l11044:	
;robot.c: 58: ser_putch(10);
	movlw	(0Ah)
	fcall	_ser_putch
	line	59
	
l11046:	
;robot.c: 59: _delay((unsigned long)((5)*(20000000/4000.0)));
	opt asmopt_off
movlw	33
	bcf	status, 5	;RP0=0, select bank0
	bcf	status, 6	;RP1=0, select bank0
movwf	((??_robot_read+0)+0+1),f
	movlw	118
movwf	((??_robot_read+0)+0),f
u5057:
	decfsz	((??_robot_read+0)+0),f
	goto	u5057
	decfsz	((??_robot_read+0)+0+1),f
	goto	u5057
	clrwdt
opt asmopt_on

	line	60
;robot.c: 60: CliffSensors = ser_getch();
	fcall	_ser_getch
	bcf	status, 5	;RP0=0, select bank0
	bcf	status, 6	;RP1=0, select bank0
	movwf	(??_robot_read+0)+0
	movf	(??_robot_read+0)+0,w
	bsf	status, 5	;RP0=1, select bank1
	bcf	status, 6	;RP1=0, select bank1
	movwf	(_CliffSensors)^080h	;volatile
	line	62
;robot.c: 62: ser_putch(142);
	movlw	(08Eh)
	fcall	_ser_putch
	line	63
;robot.c: 63: ser_putch(11);
	movlw	(0Bh)
	fcall	_ser_putch
	line	64
	
l11048:	
;robot.c: 64: _delay((unsigned long)((5)*(20000000/4000.0)));
	opt asmopt_off
movlw	33
	bcf	status, 5	;RP0=0, select bank0
	bcf	status, 6	;RP1=0, select bank0
movwf	((??_robot_read+0)+0+1),f
	movlw	118
movwf	((??_robot_read+0)+0),f
u5067:
	decfsz	((??_robot_read+0)+0),f
	goto	u5067
	decfsz	((??_robot_read+0)+0+1),f
	goto	u5067
	clrwdt
opt asmopt_on

	line	65
	
l11050:	
;robot.c: 65: CliffSensors += ser_getch();
	fcall	_ser_getch
	bcf	status, 5	;RP0=0, select bank0
	bcf	status, 6	;RP1=0, select bank0
	movwf	(??_robot_read+0)+0
	movf	(??_robot_read+0)+0,w
	bsf	status, 5	;RP0=1, select bank1
	bcf	status, 6	;RP1=0, select bank1
	addwf	(_CliffSensors)^080h,f	;volatile
	line	67
	
l11052:	
;robot.c: 67: if (readType == 0)
	bcf	status, 5	;RP0=0, select bank0
	bcf	status, 6	;RP1=0, select bank0
	movf	(robot_read@readType),f
	skipz
	goto	u4681
	goto	u4680
u4681:
	goto	l11062
u4680:
	line	69
	
l11054:	
;robot.c: 68: {
;robot.c: 69: ser_putch(142);
	movlw	(08Eh)
	fcall	_ser_putch
	line	70
;robot.c: 70: ser_putch(19);
	movlw	(013h)
	fcall	_ser_putch
	line	71
	
l11056:	
;robot.c: 71: _delay((unsigned long)((5)*(20000000/4000.0)));
	opt asmopt_off
movlw	33
	bcf	status, 5	;RP0=0, select bank0
	bcf	status, 6	;RP1=0, select bank0
movwf	((??_robot_read+0)+0+1),f
	movlw	118
movwf	((??_robot_read+0)+0),f
u5077:
	decfsz	((??_robot_read+0)+0),f
	goto	u5077
	decfsz	((??_robot_read+0)+0+1),f
	goto	u5077
	clrwdt
opt asmopt_on

	line	72
	
l11058:	
;robot.c: 72: DistHighByte = ser_getch();
	fcall	_ser_getch
	bcf	status, 5	;RP0=0, select bank0
	bcf	status, 6	;RP1=0, select bank0
	movwf	(??_robot_read+0)+0
	movf	(??_robot_read+0)+0,w
	bsf	status, 5	;RP0=1, select bank1
	bcf	status, 6	;RP1=0, select bank1
	movwf	(_DistHighByte)^080h	;volatile
	line	73
	
l11060:	
;robot.c: 73: DistLowByte = ser_getch();
	fcall	_ser_getch
	bcf	status, 5	;RP0=0, select bank0
	bcf	status, 6	;RP1=0, select bank0
	movwf	(??_robot_read+0)+0
	movf	(??_robot_read+0)+0,w
	bsf	status, 5	;RP0=1, select bank1
	bcf	status, 6	;RP1=0, select bank1
	movwf	(_DistLowByte)^080h	;volatile
	line	74
;robot.c: 74: }
	goto	l6051
	line	75
	
l6046:	
	
l11062:	
;robot.c: 75: else if (readType == 1)
	bcf	status, 5	;RP0=0, select bank0
	movf	(robot_read@readType),w
	xorlw	01h
	skipz
	goto	u4691
	goto	u4690
u4691:
	goto	l11072
u4690:
	line	77
	
l11064:	
;robot.c: 76: {
;robot.c: 77: ser_putch(142);
	movlw	(08Eh)
	fcall	_ser_putch
	line	78
;robot.c: 78: ser_putch(20);
	movlw	(014h)
	fcall	_ser_putch
	line	79
	
l11066:	
;robot.c: 79: _delay((unsigned long)((5)*(20000000/4000.0)));
	opt asmopt_off
movlw	33
	bcf	status, 5	;RP0=0, select bank0
	bcf	status, 6	;RP1=0, select bank0
movwf	((??_robot_read+0)+0+1),f
	movlw	118
movwf	((??_robot_read+0)+0),f
u5087:
	decfsz	((??_robot_read+0)+0),f
	goto	u5087
	decfsz	((??_robot_read+0)+0+1),f
	goto	u5087
	clrwdt
opt asmopt_on

	line	80
	
l11068:	
;robot.c: 80: AngleHighByte = ser_getch();
	fcall	_ser_getch
	bcf	status, 5	;RP0=0, select bank0
	bcf	status, 6	;RP1=0, select bank0
	movwf	(??_robot_read+0)+0
	movf	(??_robot_read+0)+0,w
	bsf	status, 5	;RP0=1, select bank1
	bcf	status, 6	;RP1=0, select bank1
	movwf	(_AngleHighByte)^080h	;volatile
	line	81
	
l11070:	
;robot.c: 81: AngleLowByte = ser_getch();
	fcall	_ser_getch
	bcf	status, 5	;RP0=0, select bank0
	bcf	status, 6	;RP1=0, select bank0
	movwf	(??_robot_read+0)+0
	movf	(??_robot_read+0)+0,w
	bsf	status, 5	;RP0=1, select bank1
	bcf	status, 6	;RP1=0, select bank1
	movwf	(_AngleLowByte)^080h	;volatile
	line	82
;robot.c: 82: }
	goto	l6051
	line	83
	
l6048:	
	
l11072:	
;robot.c: 83: else if (readType == 2)
	bcf	status, 5	;RP0=0, select bank0
	movf	(robot_read@readType),w
	xorlw	02h
	skipz
	goto	u4701
	goto	u4700
u4701:
	goto	l6051
u4700:
	line	86
	
l11074:	
;robot.c: 84: {
;robot.c: 86: ser_putch(142);
	movlw	(08Eh)
	fcall	_ser_putch
	line	87
;robot.c: 87: ser_putch(19);
	movlw	(013h)
	fcall	_ser_putch
	line	88
	
l11076:	
;robot.c: 88: _delay((unsigned long)((5)*(20000000/4000.0)));
	opt asmopt_off
movlw	33
	bcf	status, 5	;RP0=0, select bank0
	bcf	status, 6	;RP1=0, select bank0
movwf	((??_robot_read+0)+0+1),f
	movlw	118
movwf	((??_robot_read+0)+0),f
u5097:
	decfsz	((??_robot_read+0)+0),f
	goto	u5097
	decfsz	((??_robot_read+0)+0+1),f
	goto	u5097
	clrwdt
opt asmopt_on

	line	89
	
l11078:	
;robot.c: 89: DistHighByte = ser_getch();
	fcall	_ser_getch
	bcf	status, 5	;RP0=0, select bank0
	bcf	status, 6	;RP1=0, select bank0
	movwf	(??_robot_read+0)+0
	movf	(??_robot_read+0)+0,w
	bsf	status, 5	;RP0=1, select bank1
	bcf	status, 6	;RP1=0, select bank1
	movwf	(_DistHighByte)^080h	;volatile
	line	90
	
l11080:	
;robot.c: 90: DistLowByte = ser_getch();
	fcall	_ser_getch
	bcf	status, 5	;RP0=0, select bank0
	bcf	status, 6	;RP1=0, select bank0
	movwf	(??_robot_read+0)+0
	movf	(??_robot_read+0)+0,w
	bsf	status, 5	;RP0=1, select bank1
	bcf	status, 6	;RP1=0, select bank1
	movwf	(_DistLowByte)^080h	;volatile
	line	91
	
l11082:	
;robot.c: 91: ser_putch(142);
	movlw	(08Eh)
	fcall	_ser_putch
	line	92
	
l11084:	
;robot.c: 92: ser_putch(20);
	movlw	(014h)
	fcall	_ser_putch
	line	93
	
l11086:	
;robot.c: 93: _delay((unsigned long)((5)*(20000000/4000.0)));
	opt asmopt_off
movlw	33
	bcf	status, 5	;RP0=0, select bank0
	bcf	status, 6	;RP1=0, select bank0
movwf	((??_robot_read+0)+0+1),f
	movlw	118
movwf	((??_robot_read+0)+0),f
u5107:
	decfsz	((??_robot_read+0)+0),f
	goto	u5107
	decfsz	((??_robot_read+0)+0+1),f
	goto	u5107
	clrwdt
opt asmopt_on

	line	94
;robot.c: 94: AngleHighByte = ser_getch();
	fcall	_ser_getch
	bcf	status, 5	;RP0=0, select bank0
	bcf	status, 6	;RP1=0, select bank0
	movwf	(??_robot_read+0)+0
	movf	(??_robot_read+0)+0,w
	bsf	status, 5	;RP0=1, select bank1
	bcf	status, 6	;RP1=0, select bank1
	movwf	(_AngleHighByte)^080h	;volatile
	line	95
;robot.c: 95: AngleLowByte = ser_getch();
	fcall	_ser_getch
	bcf	status, 5	;RP0=0, select bank0
	bcf	status, 6	;RP1=0, select bank0
	movwf	(??_robot_read+0)+0
	movf	(??_robot_read+0)+0,w
	bsf	status, 5	;RP0=1, select bank1
	bcf	status, 6	;RP1=0, select bank1
	movwf	(_AngleLowByte)^080h	;volatile
	goto	l6051
	line	96
	
l6050:	
	goto	l6051
	line	97
	
l6049:	
	goto	l6051
	
l6047:	
	
l6051:	
	return
	opt stack 0
GLOBAL	__end_of_robot_read
	__end_of_robot_read:
;; =============== function _robot_read ends ============

	signat	_robot_read,4216
	global	_lcd_init
psect	text961,local,class=CODE,delta=2
global __ptext961
__ptext961:

;; *************** function _lcd_init *****************
;; Defined at:
;;		line 101 in file "E:\Aldnoah.Zero\Assignment3\lcd.c"
;; Parameters:    Size  Location     Type
;;		None
;; Auto vars:     Size  Location     Type
;;		None
;; Return value:  Size  Location     Type
;;		None               void
;; Registers used:
;;		wreg, status,2, status,0, pclath, cstack
;; Tracked objects:
;;		On entry : 0/0
;;		On exit  : 0/0
;;		Unchanged: 0/0
;; Data sizes:     COMMON   BANK0   BANK1   BANK3   BANK2
;;      Params:         0       0       0       0       0
;;      Locals:         0       0       0       0       0
;;      Temps:          0       0       0       0       0
;;      Totals:         0       0       0       0       0
;;Total ram usage:        0 bytes
;; Hardware stack levels used:    1
;; Hardware stack levels required when called:    4
;; This function calls:
;;		_lcd_write_control
;; This function is called by:
;;		_init
;; This function uses a non-reentrant model
;;
psect	text961
	file	"E:\Aldnoah.Zero\Assignment3\lcd.c"
	line	101
	global	__size_of_lcd_init
	__size_of_lcd_init	equ	__end_of_lcd_init-_lcd_init
	
_lcd_init:	
	opt	stack 2
; Regs used in _lcd_init: [wreg+status,2+status,0+pclath+cstack]
	line	105
	
l11010:	
;lcd.c: 105: ADCON1 = 0b00000010;
	movlw	(02h)
	bsf	status, 5	;RP0=1, select bank1
	bcf	status, 6	;RP1=0, select bank1
	movwf	(159)^080h	;volatile
	line	108
	
l11012:	
;lcd.c: 108: PORTD = 0;
	bcf	status, 5	;RP0=0, select bank0
	bcf	status, 6	;RP1=0, select bank0
	clrf	(8)	;volatile
	line	109
	
l11014:	
;lcd.c: 109: PORTE = 0;
	clrf	(9)	;volatile
	line	111
	
l11016:	
;lcd.c: 111: TRISD = 0b00000000;
	bsf	status, 5	;RP0=1, select bank1
	bcf	status, 6	;RP1=0, select bank1
	clrf	(136)^080h	;volatile
	line	112
	
l11018:	
;lcd.c: 112: TRISE = 0b00000000;
	clrf	(137)^080h	;volatile
	line	115
	
l11020:	
;lcd.c: 115: lcd_write_control(0b00000001);
	movlw	(01h)
	fcall	_lcd_write_control
	line	116
	
l11022:	
;lcd.c: 116: lcd_write_control(0b00111000);
	movlw	(038h)
	fcall	_lcd_write_control
	line	117
	
l11024:	
;lcd.c: 117: lcd_write_control(0b00001100);
	movlw	(0Ch)
	fcall	_lcd_write_control
	line	118
	
l11026:	
;lcd.c: 118: lcd_write_control(0b00000110);
	movlw	(06h)
	fcall	_lcd_write_control
	line	119
	
l11028:	
;lcd.c: 119: lcd_write_control(0b00000010);
	movlw	(02h)
	fcall	_lcd_write_control
	line	121
	
l1429:	
	return
	opt stack 0
GLOBAL	__end_of_lcd_init
	__end_of_lcd_init:
;; =============== function _lcd_init ends ============

	signat	_lcd_init,88
	global	_lcd_write_string
psect	text962,local,class=CODE,delta=2
global __ptext962
__ptext962:

;; *************** function _lcd_write_string *****************
;; Defined at:
;;		line 48 in file "E:\Aldnoah.Zero\Assignment3\lcd.c"
;; Parameters:    Size  Location     Type
;;  s               2    7[BANK0 ] PTR unsigned char 
;;		 -> STR_19(9), STR_18(16), STR_17(4), STR_16(8), 
;;		 -> STR_15(4), STR_14(16), UpdateDisplay@LCDOutput(16), STR_12(4), 
;;		 -> STR_11(4), STR_10(4), STR_9(4), STR_8(4), 
;;		 -> STR_7(4), STR_6(9), STR_5(9), STR_4(8), 
;;		 -> STR_3(9), STR_2(9), STR_1(9), 
;; Auto vars:     Size  Location     Type
;;		None
;; Return value:  Size  Location     Type
;;		None               void
;; Registers used:
;;		wreg, fsr0l, fsr0h, status,2, status,0, btemp+1, pclath, cstack
;; Tracked objects:
;;		On entry : 0/0
;;		On exit  : 0/0
;;		Unchanged: 0/0
;; Data sizes:     COMMON   BANK0   BANK1   BANK3   BANK2
;;      Params:         0       2       0       0       0
;;      Locals:         0       0       0       0       0
;;      Temps:          0       0       0       0       0
;;      Totals:         0       2       0       0       0
;;Total ram usage:        2 bytes
;; Hardware stack levels used:    1
;; Hardware stack levels required when called:    4
;; This function calls:
;;		_lcd_write_data
;; This function is called by:
;;		_UpdateDisplay
;; This function uses a non-reentrant model
;;
psect	text962
	file	"E:\Aldnoah.Zero\Assignment3\lcd.c"
	line	48
	global	__size_of_lcd_write_string
	__size_of_lcd_write_string	equ	__end_of_lcd_write_string-_lcd_write_string
	
_lcd_write_string:	
	opt	stack 1
; Regs used in _lcd_write_string: [wreg-fsr0h+status,2+status,0+btemp+1+pclath+cstack]
	line	50
	
l11002:	
;lcd.c: 50: while(*s) lcd_write_data(*s++);
	goto	l11008
	
l1409:	
	
l11004:	
	bcf	status, 5	;RP0=0, select bank0
	bcf	status, 6	;RP1=0, select bank0
	movf	(lcd_write_string@s+1),w
	movwf	btemp+1
	movf	(lcd_write_string@s),w
	movwf	fsr0
	fcall	stringtab
	fcall	_lcd_write_data
	
l11006:	
	movlw	low(01h)
	bcf	status, 5	;RP0=0, select bank0
	bcf	status, 6	;RP1=0, select bank0
	addwf	(lcd_write_string@s),f
	skipnc
	incf	(lcd_write_string@s+1),f
	movlw	high(01h)
	addwf	(lcd_write_string@s+1),f
	goto	l11008
	
l1408:	
	
l11008:	
	bcf	status, 5	;RP0=0, select bank0
	bcf	status, 6	;RP1=0, select bank0
	movf	(lcd_write_string@s+1),w
	movwf	btemp+1
	movf	(lcd_write_string@s),w
	movwf	fsr0
	fcall	stringtab
	iorlw	0
	skipz
	goto	u4671
	goto	u4670
u4671:
	goto	l11004
u4670:
	goto	l1411
	
l1410:	
	line	51
	
l1411:	
	return
	opt stack 0
GLOBAL	__end_of_lcd_write_string
	__end_of_lcd_write_string:
;; =============== function _lcd_write_string ends ============

	signat	_lcd_write_string,4216
	global	_lcd_set_cursor
psect	text963,local,class=CODE,delta=2
global __ptext963
__ptext963:

;; *************** function _lcd_set_cursor *****************
;; Defined at:
;;		line 42 in file "E:\Aldnoah.Zero\Assignment3\lcd.c"
;; Parameters:    Size  Location     Type
;;  address         1    wreg     unsigned char 
;; Auto vars:     Size  Location     Type
;;  address         1    3[BANK0 ] unsigned char 
;; Return value:  Size  Location     Type
;;		None               void
;; Registers used:
;;		wreg, status,2, status,0, pclath, cstack
;; Tracked objects:
;;		On entry : 0/0
;;		On exit  : 0/0
;;		Unchanged: 0/0
;; Data sizes:     COMMON   BANK0   BANK1   BANK3   BANK2
;;      Params:         0       0       0       0       0
;;      Locals:         0       1       0       0       0
;;      Temps:          0       0       0       0       0
;;      Totals:         0       1       0       0       0
;;Total ram usage:        1 bytes
;; Hardware stack levels used:    1
;; Hardware stack levels required when called:    4
;; This function calls:
;;		_lcd_write_control
;; This function is called by:
;;		_UpdateDisplay
;; This function uses a non-reentrant model
;;
psect	text963
	file	"E:\Aldnoah.Zero\Assignment3\lcd.c"
	line	42
	global	__size_of_lcd_set_cursor
	__size_of_lcd_set_cursor	equ	__end_of_lcd_set_cursor-_lcd_set_cursor
	
_lcd_set_cursor:	
	opt	stack 1
; Regs used in _lcd_set_cursor: [wreg+status,2+status,0+pclath+cstack]
;lcd_set_cursor@address stored from wreg
	bcf	status, 5	;RP0=0, select bank0
	bcf	status, 6	;RP1=0, select bank0
	movwf	(lcd_set_cursor@address)
	line	43
	
l10998:	
;lcd.c: 43: address |= 0b10000000;
	bsf	(lcd_set_cursor@address)+(7/8),(7)&7
	line	44
	
l11000:	
;lcd.c: 44: lcd_write_control(address);
	movf	(lcd_set_cursor@address),w
	fcall	_lcd_write_control
	line	45
	
l1405:	
	return
	opt stack 0
GLOBAL	__end_of_lcd_set_cursor
	__end_of_lcd_set_cursor:
;; =============== function _lcd_set_cursor ends ============

	signat	_lcd_set_cursor,4216
	global	_abs
psect	text964,local,class=CODE,delta=2
global __ptext964
__ptext964:

;; *************** function _abs *****************
;; Defined at:
;;		line 317 in file "E:\Aldnoah.Zero\Assignment3\robot.c"
;; Parameters:    Size  Location     Type
;;  v               2    6[BANK0 ] int 
;; Auto vars:     Size  Location     Type
;;		None
;; Return value:  Size  Location     Type
;;                  2    6[BANK0 ] int 
;; Registers used:
;;		wreg, status,2, status,0, btemp+1, pclath, cstack
;; Tracked objects:
;;		On entry : 0/0
;;		On exit  : 0/0
;;		Unchanged: 0/0
;; Data sizes:     COMMON   BANK0   BANK1   BANK3   BANK2
;;      Params:         0       2       0       0       0
;;      Locals:         0       0       0       0       0
;;      Temps:          0       2       0       0       0
;;      Totals:         0       4       0       0       0
;;Total ram usage:        4 bytes
;; Hardware stack levels used:    1
;; Hardware stack levels required when called:    4
;; This function calls:
;;		___wmul
;; This function is called by:
;;		_robotFollow
;;		_robotMoveSpeed
;;		_robotTurnSpeed
;; This function uses a non-reentrant model
;;
psect	text964
	file	"E:\Aldnoah.Zero\Assignment3\robot.c"
	line	317
	global	__size_of_abs
	__size_of_abs	equ	__end_of_abs-_abs
	
_abs:	
	opt	stack 2
; Regs used in _abs: [wreg+status,2+status,0+btemp+1+pclath+cstack]
	line	318
	
l10994:	
;robot.c: 318: return (v * ((v > 0) - (v < 0)));
	movlw	0
	bcf	status, 5	;RP0=0, select bank0
	bcf	status, 6	;RP1=0, select bank0
	btfsc	(abs@v+1),7
	movlw	1
	movwf	(??_abs+0)+0
	clrf	(??_abs+0)+0+1
	comf	(??_abs+0)+0,f
	comf	(??_abs+0)+1,f
	incf	(??_abs+0)+0,f
	skipnz
	incf	(??_abs+0)+1,f
	movf	(abs@v+1),w
	xorlw	80h
	movwf	btemp+1
	movlw	(high(01h))^80h
	subwf	btemp+1,w
	skipz
	goto	u4665
	movlw	low(01h)
	subwf	(abs@v),w
u4665:

	movlw	0
	skipnc
	movlw	1
	bcf	status, 5	;RP0=0, select bank0
	bcf	status, 6	;RP1=0, select bank0
	addwf	0+(??_abs+0)+0,w
	movwf	(?___wmul)
	movf	1+(??_abs+0)+0,w
	skipnc
	incf	1+(??_abs+0)+0,w
	movwf	((?___wmul))+1
	movf	(abs@v+1),w
	clrf	1+(?___wmul)+02h
	addwf	1+(?___wmul)+02h
	movf	(abs@v),w
	clrf	0+(?___wmul)+02h
	addwf	0+(?___wmul)+02h

	fcall	___wmul
	bcf	status, 5	;RP0=0, select bank0
	bcf	status, 6	;RP1=0, select bank0
	movf	(1+(?___wmul)),w
	clrf	(?_abs+1)
	addwf	(?_abs+1)
	movf	(0+(?___wmul)),w
	clrf	(?_abs)
	addwf	(?_abs)

	goto	l6099
	
l10996:	
	line	319
	
l6099:	
	return
	opt stack 0
GLOBAL	__end_of_abs
	__end_of_abs:
;; =============== function _abs ends ============

	signat	_abs,4218
	global	_robotTurn
psect	text965,local,class=CODE,delta=2
global __ptext965
__ptext965:

;; *************** function _robotTurn *****************
;; Defined at:
;;		line 123 in file "E:\Aldnoah.Zero\Assignment3\robot.c"
;; Parameters:    Size  Location     Type
;;  angle           2    2[BANK0 ] int 
;; Auto vars:     Size  Location     Type
;;		None
;; Return value:  Size  Location     Type
;;		None               void
;; Registers used:
;;		wreg, fsr0l, fsr0h, status,2, status,0, btemp+1, pclath, cstack
;; Tracked objects:
;;		On entry : 0/0
;;		On exit  : 0/0
;;		Unchanged: 0/0
;; Data sizes:     COMMON   BANK0   BANK1   BANK3   BANK2
;;      Params:         0       2       0       0       0
;;      Locals:         0       0       0       0       0
;;      Temps:          0       0       0       0       0
;;      Totals:         0       2       0       0       0
;;Total ram usage:        2 bytes
;; Hardware stack levels used:    1
;; Hardware stack levels required when called:    4
;; This function calls:
;;		_ser_putch
;; This function is called by:
;;		_robotTurnSpeed
;; This function uses a non-reentrant model
;;
psect	text965
	file	"E:\Aldnoah.Zero\Assignment3\robot.c"
	line	123
	global	__size_of_robotTurn
	__size_of_robotTurn	equ	__end_of_robotTurn-_robotTurn
	
_robotTurn:	
	opt	stack 2
; Regs used in _robotTurn: [wreg-fsr0h+status,2+status,0+btemp+1+pclath+cstack]
	line	125
	
l10986:	
;robot.c: 125: if (angle > 0)
	bcf	status, 5	;RP0=0, select bank0
	bcf	status, 6	;RP1=0, select bank0
	movf	(robotTurn@angle+1),w
	xorlw	80h
	movwf	btemp+1
	movlw	(high(01h))^80h
	subwf	btemp+1,w
	skipz
	goto	u4645
	movlw	low(01h)
	subwf	(robotTurn@angle),w
u4645:

	skipc
	goto	u4641
	goto	u4640
u4641:
	goto	l6057
u4640:
	line	127
	
l10988:	
;robot.c: 126: {
;robot.c: 127: ser_putch(137);
	movlw	(089h)
	fcall	_ser_putch
	line	129
;robot.c: 129: ser_putch(0);
	movlw	(0)
	fcall	_ser_putch
	line	131
;robot.c: 131: ser_putch(200);
	movlw	(0C8h)
	fcall	_ser_putch
	line	133
;robot.c: 133: ser_putch(0);
	movlw	(0)
	fcall	_ser_putch
	line	135
;robot.c: 135: ser_putch(1);
	movlw	(01h)
	fcall	_ser_putch
	line	136
;robot.c: 136: }
	goto	l6061
	line	137
	
l6057:	
;robot.c: 137: else if (angle < 0)
	bcf	status, 5	;RP0=0, select bank0
	bcf	status, 6	;RP1=0, select bank0
	btfss	(robotTurn@angle+1),7
	goto	u4651
	goto	u4650
u4651:
	goto	l10992
u4650:
	line	139
	
l10990:	
;robot.c: 138: {
;robot.c: 139: ser_putch(137);
	movlw	(089h)
	fcall	_ser_putch
	line	141
;robot.c: 141: ser_putch(0);
	movlw	(0)
	fcall	_ser_putch
	line	143
;robot.c: 143: ser_putch(200);
	movlw	(0C8h)
	fcall	_ser_putch
	line	145
;robot.c: 145: ser_putch(255);
	movlw	(0FFh)
	fcall	_ser_putch
	line	147
;robot.c: 147: ser_putch(255);
	movlw	(0FFh)
	fcall	_ser_putch
	line	148
;robot.c: 148: }
	goto	l6061
	line	149
	
l6059:	
	line	151
	
l10992:	
;robot.c: 149: else
;robot.c: 150: {
;robot.c: 151: ser_putch(137);
	movlw	(089h)
	fcall	_ser_putch
	line	153
;robot.c: 153: ser_putch(0);
	movlw	(0)
	fcall	_ser_putch
	line	155
;robot.c: 155: ser_putch(0);
	movlw	(0)
	fcall	_ser_putch
	line	157
;robot.c: 157: ser_putch(0);
	movlw	(0)
	fcall	_ser_putch
	line	159
;robot.c: 159: ser_putch(0);
	movlw	(0)
	fcall	_ser_putch
	goto	l6061
	line	160
	
l6060:	
	goto	l6061
	
l6058:	
	line	161
	
l6061:	
	return
	opt stack 0
GLOBAL	__end_of_robotTurn
	__end_of_robotTurn:
;; =============== function _robotTurn ends ============

	signat	_robotTurn,4216
	global	_RobotDrive
psect	text966,local,class=CODE,delta=2
global __ptext966
__ptext966:

;; *************** function _RobotDrive *****************
;; Defined at:
;;		line 102 in file "E:\Aldnoah.Zero\Assignment3\robot.c"
;; Parameters:    Size  Location     Type
;;  speed           2    2[BANK0 ] int 
;;  radius          2    4[BANK0 ] int 
;; Auto vars:     Size  Location     Type
;;  radiushighBy    1   10[BANK0 ] unsigned char 
;;  radiuslowByt    1    9[BANK0 ] unsigned char 
;;  speedhighByt    1    8[BANK0 ] unsigned char 
;;  speedlowByte    1    7[BANK0 ] unsigned char 
;; Return value:  Size  Location     Type
;;		None               void
;; Registers used:
;;		wreg, fsr0l, fsr0h, status,2, status,0, pclath, cstack
;; Tracked objects:
;;		On entry : 0/0
;;		On exit  : 0/0
;;		Unchanged: 0/0
;; Data sizes:     COMMON   BANK0   BANK1   BANK3   BANK2
;;      Params:         0       4       0       0       0
;;      Locals:         0       4       0       0       0
;;      Temps:          0       1       0       0       0
;;      Totals:         0       9       0       0       0
;;Total ram usage:        9 bytes
;; Hardware stack levels used:    1
;; Hardware stack levels required when called:    4
;; This function calls:
;;		_ser_putch
;; This function is called by:
;;		_robotFollow
;;		_robotMoveSpeed
;; This function uses a non-reentrant model
;;
psect	text966
	file	"E:\Aldnoah.Zero\Assignment3\robot.c"
	line	102
	global	__size_of_RobotDrive
	__size_of_RobotDrive	equ	__end_of_RobotDrive-_RobotDrive
	
_RobotDrive:	
	opt	stack 2
; Regs used in _RobotDrive: [wreg-fsr0h+status,2+status,0+pclath+cstack]
	line	104
	
l10970:	
;robot.c: 104: unsigned char speedlowByte = (unsigned char)(speed);
	bcf	status, 5	;RP0=0, select bank0
	bcf	status, 6	;RP1=0, select bank0
	movf	(RobotDrive@speed),w
	movwf	(??_RobotDrive+0)+0
	movf	(??_RobotDrive+0)+0,w
	movwf	(RobotDrive@speedlowByte)
	line	105
	
l10972:	
;robot.c: 105: unsigned char speedhighByte = (unsigned char)(speed >> 8);
	movf	(RobotDrive@speed+1),w
	movwf	(??_RobotDrive+0)+0
	movf	(??_RobotDrive+0)+0,w
	movwf	(RobotDrive@speedhighByte)
	line	106
	
l10974:	
;robot.c: 106: unsigned char radiuslowByte = (unsigned char)(radius);
	movf	(RobotDrive@radius),w
	movwf	(??_RobotDrive+0)+0
	movf	(??_RobotDrive+0)+0,w
	movwf	(RobotDrive@radiuslowByte)
	line	107
;robot.c: 107: unsigned char radiushighByte = (unsigned char)(radius >> 8);
	movf	(RobotDrive@radius+1),w
	movwf	(??_RobotDrive+0)+0
	movf	(??_RobotDrive+0)+0,w
	movwf	(RobotDrive@radiushighByte)
	line	109
	
l10976:	
;robot.c: 109: ser_putch(137);
	movlw	(089h)
	fcall	_ser_putch
	line	111
	
l10978:	
;robot.c: 111: ser_putch(speedhighByte);
	bcf	status, 5	;RP0=0, select bank0
	bcf	status, 6	;RP1=0, select bank0
	movf	(RobotDrive@speedhighByte),w
	fcall	_ser_putch
	line	113
	
l10980:	
;robot.c: 113: ser_putch(speedlowByte);
	bcf	status, 5	;RP0=0, select bank0
	bcf	status, 6	;RP1=0, select bank0
	movf	(RobotDrive@speedlowByte),w
	fcall	_ser_putch
	line	115
	
l10982:	
;robot.c: 115: ser_putch(radiushighByte);
	bcf	status, 5	;RP0=0, select bank0
	bcf	status, 6	;RP1=0, select bank0
	movf	(RobotDrive@radiushighByte),w
	fcall	_ser_putch
	line	117
	
l10984:	
;robot.c: 117: ser_putch(radiuslowByte);
	bcf	status, 5	;RP0=0, select bank0
	bcf	status, 6	;RP1=0, select bank0
	movf	(RobotDrive@radiuslowByte),w
	fcall	_ser_putch
	line	118
	
l6054:	
	return
	opt stack 0
GLOBAL	__end_of_RobotDrive
	__end_of_RobotDrive:
;; =============== function _RobotDrive ends ============

	signat	_RobotDrive,8312
	global	_ser_getch
psect	text967,local,class=CODE,delta=2
global __ptext967
__ptext967:

;; *************** function _ser_getch *****************
;; Defined at:
;;		line 55 in file "E:\Aldnoah.Zero\Assignment3\ser.c"
;; Parameters:    Size  Location     Type
;;		None
;; Auto vars:     Size  Location     Type
;;  c               1    1[BANK0 ] unsigned char 
;; Return value:  Size  Location     Type
;;                  1    wreg      unsigned char 
;; Registers used:
;;		wreg, fsr0l, fsr0h, status,2, status,0, pclath, cstack
;; Tracked objects:
;;		On entry : 0/0
;;		On exit  : 0/0
;;		Unchanged: 0/0
;; Data sizes:     COMMON   BANK0   BANK1   BANK3   BANK2
;;      Params:         0       0       0       0       0
;;      Locals:         0       1       0       0       0
;;      Temps:          0       1       0       0       0
;;      Totals:         0       2       0       0       0
;;Total ram usage:        2 bytes
;; Hardware stack levels used:    1
;; Hardware stack levels required when called:    4
;; This function calls:
;;		_ser_isrx
;; This function is called by:
;;		_robot_read
;; This function uses a non-reentrant model
;;
psect	text967
	file	"E:\Aldnoah.Zero\Assignment3\ser.c"
	line	55
	global	__size_of_ser_getch
	__size_of_ser_getch	equ	__end_of_ser_getch-_ser_getch
	
_ser_getch:	
	opt	stack 1
; Regs used in _ser_getch: [wreg-fsr0h+status,2+status,0+pclath+cstack]
	line	58
	
l10954:	
;ser.c: 56: unsigned char c;
;ser.c: 58: while (ser_isrx()==0)
	goto	l10956
	
l6803:	
	line	59
;ser.c: 59: continue;
	goto	l10956
	
l6802:	
	line	58
	
l10956:	
	fcall	_ser_isrx
	btfss	status,0
	goto	u4631
	goto	u4630
u4631:
	goto	l10956
u4630:
	
l6804:	
	line	61
;ser.c: 61: GIE=0;
	bcf	(95/8),(95)&7
	line	62
	
l10958:	
;ser.c: 62: c=rxfifo[rxoptr];
	bcf	status, 5	;RP0=0, select bank0
	bcf	status, 6	;RP1=0, select bank0
	movf	(_rxoptr),w
	addlw	_rxfifo&0ffh
	movwf	fsr0
	bcf	status, 7	;select IRP bank1
	movf	indf,w
	movwf	(??_ser_getch+0)+0
	movf	(??_ser_getch+0)+0,w
	movwf	(ser_getch@c)
	line	63
	
l10960:	
;ser.c: 63: ++rxoptr;
	movlw	(01h)
	movwf	(??_ser_getch+0)+0
	movf	(??_ser_getch+0)+0,w
	addwf	(_rxoptr),f	;volatile
	line	64
	
l10962:	
;ser.c: 64: rxoptr &= (16-1);
	movlw	(0Fh)
	movwf	(??_ser_getch+0)+0
	movf	(??_ser_getch+0)+0,w
	andwf	(_rxoptr),f	;volatile
	line	65
	
l10964:	
;ser.c: 65: GIE=1;
	bsf	(95/8),(95)&7
	line	66
	
l10966:	
;ser.c: 66: return c;
	movf	(ser_getch@c),w
	goto	l6805
	
l10968:	
	line	67
	
l6805:	
	return
	opt stack 0
GLOBAL	__end_of_ser_getch
	__end_of_ser_getch:
;; =============== function _ser_getch ends ============

	signat	_ser_getch,89
	global	_sprintf
psect	text968,local,class=CODE,delta=2
global __ptext968
__ptext968:

;; *************** function _sprintf *****************
;; Defined at:
;;		line 488 in file "C:\Program Files\HI-TECH Software\PICC\9.83\lib\doprnt.c"
;; Parameters:    Size  Location     Type
;;  sp              1    wreg     PTR unsigned char 
;;		 -> UpdateDisplay@LCDOutput(16), 
;;  f               1   14[BANK0 ] PTR const unsigned char 
;;		 -> STR_13(13), 
;; Auto vars:     Size  Location     Type
;;  sp              1   29[BANK0 ] PTR unsigned char 
;;		 -> UpdateDisplay@LCDOutput(16), 
;;  _val            4   25[BANK0 ] struct .
;;  c               1   30[BANK0 ] char 
;;  prec            1   24[BANK0 ] char 
;;  flag            1   23[BANK0 ] unsigned char 
;;  ap              1   22[BANK0 ] PTR void [1]
;;		 -> ?_sprintf(2), 
;; Return value:  Size  Location     Type
;;                  2   14[BANK0 ] int 
;; Registers used:
;;		wreg, fsr0l, fsr0h, status,2, status,0, btemp+1, pclath, cstack
;; Tracked objects:
;;		On entry : 0/0
;;		On exit  : 0/0
;;		Unchanged: 0/0
;; Data sizes:     COMMON   BANK0   BANK1   BANK3   BANK2
;;      Params:         0       5       0       0       0
;;      Locals:         0       9       0       0       0
;;      Temps:          0       3       0       0       0
;;      Totals:         0      17       0       0       0
;;Total ram usage:       17 bytes
;; Hardware stack levels used:    1
;; Hardware stack levels required when called:    4
;; This function calls:
;;		___lwdiv
;;		___lwmod
;; This function is called by:
;;		_UpdateDisplay
;; This function uses a non-reentrant model
;;
psect	text968
	file	"C:\Program Files\HI-TECH Software\PICC\9.83\sources\doprnt.c"
	line	488
	global	__size_of_sprintf
	__size_of_sprintf	equ	__end_of_sprintf-_sprintf
	
_sprintf:	
	opt	stack 1
; Regs used in _sprintf: [wreg-fsr0h+status,2+status,0+btemp+1+pclath+cstack]
;sprintf@sp stored from wreg
	line	537
	bcf	status, 5	;RP0=0, select bank0
	bcf	status, 6	;RP1=0, select bank0
	movwf	(sprintf@sp)
	
l10896:	
	movlw	(?_sprintf+01h)&0ffh
	movwf	(??_sprintf+0)+0
	movf	(??_sprintf+0)+0,w
	movwf	(sprintf@ap)
	line	540
	goto	l10948
	
l6843:	
	line	542
	
l10898:	
	movf	(sprintf@c),w
	xorlw	025h
	skipnz
	goto	u4551
	goto	u4550
u4551:
	goto	l6844
u4550:
	line	545
	
l10900:	
	movf	(sprintf@c),w
	movwf	(??_sprintf+0)+0
	movf	(sprintf@sp),w
	movwf	fsr0
	movf	(??_sprintf+0)+0,w
	bcf	status, 7	;select IRP bank0
	movwf	indf
	
l10902:	
	movlw	(01h)
	movwf	(??_sprintf+0)+0
	movf	(??_sprintf+0)+0,w
	addwf	(sprintf@sp),f
	line	546
	goto	l10948
	line	547
	
l6844:	
	line	552
	clrf	(sprintf@flag)
	line	638
	goto	l10906
	line	640
	
l6846:	
	line	641
	goto	l10950
	line	700
	
l6848:	
	goto	l10908
	line	701
	
l6849:	
	line	702
	goto	l10908
	line	805
	
l6851:	
	line	816
	goto	l10948
	line	825
	
l10904:	
	goto	l10908
	line	638
	
l6845:	
	
l10906:	
	movlw	01h
	addwf	(sprintf@f),f
	movlw	-01h
	addwf	(sprintf@f),w
	movwf	fsr0
	fcall	stringdir
	movwf	(sprintf@c)
	; Switch size 1, requested type "space"
; Number of cases is 3, Range of values is 0 to 105
; switch strategies available:
; Name         Instructions Cycles
; simple_byte           10     6 (average)
; jumptable            260     6 (fixed)
; rangetable           110     6 (fixed)
; spacedrange          218     9 (fixed)
; locatedrange         106     3 (fixed)
;	Chosen strategy is simple_byte

	opt asmopt_off
	xorlw	0^0	; case 0
	skipnz
	goto	l10950
	xorlw	100^0	; case 100
	skipnz
	goto	l10908
	xorlw	105^100	; case 105
	skipnz
	goto	l10908
	goto	l10948
	opt asmopt_on

	line	825
	
l6850:	
	line	1254
	
l10908:	
	movf	(sprintf@ap),w
	movwf	fsr0
	bcf	status, 7	;select IRP bank0
	movf	indf,w
	movwf	(sprintf@_val)
	incf	fsr0,f
	movf	indf,w
	movwf	(sprintf@_val+1)
	
l10910:	
	movlw	(02h)
	movwf	(??_sprintf+0)+0
	movf	(??_sprintf+0)+0,w
	addwf	(sprintf@ap),f
	line	1256
	
l10912:	
	btfss	(sprintf@_val+1),7
	goto	u4561
	goto	u4560
u4561:
	goto	l10918
u4560:
	line	1257
	
l10914:	
	movlw	(03h)
	movwf	(??_sprintf+0)+0
	movf	(??_sprintf+0)+0,w
	iorwf	(sprintf@flag),f
	line	1258
	
l10916:	
	comf	(sprintf@_val),f
	comf	(sprintf@_val+1),f
	incf	(sprintf@_val),f
	skipnz
	incf	(sprintf@_val+1),f
	goto	l10918
	line	1259
	
l6852:	
	line	1300
	
l10918:	
	clrf	(sprintf@c)
	bsf	status,0
	rlf	(sprintf@c),f
	
l10920:	
	movf	(sprintf@c),w
	xorlw	05h
	skipz
	goto	u4571
	goto	u4570
u4571:
	goto	l10924
u4570:
	goto	l10932
	
l10922:	
	goto	l10932
	line	1301
	
l6853:	
	
l10924:	
	movf	(sprintf@c),w
	movwf	(??_sprintf+0)+0
	addwf	(??_sprintf+0)+0,w
	addlw	low((_dpowers-__stringbase))
	movwf	fsr0
	fcall	stringdir
	movwf	(??_sprintf+1)+0
	fcall	stringdir
	movwf	(??_sprintf+1)+0+1
	movf	1+(??_sprintf+1)+0,w
	subwf	(sprintf@_val+1),w
	skipz
	goto	u4585
	movf	0+(??_sprintf+1)+0,w
	subwf	(sprintf@_val),w
u4585:
	skipnc
	goto	u4581
	goto	u4580
u4581:
	goto	l10928
u4580:
	goto	l10932
	line	1302
	
l10926:	
	goto	l10932
	
l6855:	
	line	1300
	
l10928:	
	movlw	(01h)
	movwf	(??_sprintf+0)+0
	movf	(??_sprintf+0)+0,w
	addwf	(sprintf@c),f
	
l10930:	
	movf	(sprintf@c),w
	xorlw	05h
	skipz
	goto	u4591
	goto	u4590
u4591:
	goto	l10924
u4590:
	goto	l10932
	
l6854:	
	line	1433
	
l10932:	
	movf	(sprintf@flag),w
	andlw	03h
	btfsc	status,2
	goto	u4601
	goto	u4600
u4601:
	goto	l10938
u4600:
	line	1434
	
l10934:	
	movlw	(02Dh)
	movwf	(??_sprintf+0)+0
	movf	(sprintf@sp),w
	movwf	fsr0
	movf	(??_sprintf+0)+0,w
	bcf	status, 7	;select IRP bank0
	movwf	indf
	
l10936:	
	movlw	(01h)
	movwf	(??_sprintf+0)+0
	movf	(??_sprintf+0)+0,w
	addwf	(sprintf@sp),f
	goto	l10938
	
l6856:	
	line	1467
	
l10938:	
	movf	(sprintf@c),w
	movwf	(??_sprintf+0)+0
	movf	(??_sprintf+0)+0,w
	movwf	(sprintf@prec)
	line	1469
	goto	l10946
	
l6858:	
	line	1484
	
l10940:	
	movlw	low(0Ah)
	movwf	(?___lwmod)
	movlw	high(0Ah)
	movwf	((?___lwmod))+1
	movf	(sprintf@prec),w
	movwf	(??_sprintf+0)+0
	addwf	(??_sprintf+0)+0,w
	addlw	low((_dpowers-__stringbase))
	movwf	fsr0
	fcall	stringdir
	movwf	(?___lwdiv)
	fcall	stringdir
	movwf	(?___lwdiv+1)
	movf	(sprintf@_val+1),w
	clrf	1+(?___lwdiv)+02h
	addwf	1+(?___lwdiv)+02h
	movf	(sprintf@_val),w
	clrf	0+(?___lwdiv)+02h
	addwf	0+(?___lwdiv)+02h

	fcall	___lwdiv
	bcf	status, 5	;RP0=0, select bank0
	bcf	status, 6	;RP1=0, select bank0
	movf	(1+(?___lwdiv)),w
	clrf	1+(?___lwmod)+02h
	addwf	1+(?___lwmod)+02h
	movf	(0+(?___lwdiv)),w
	clrf	0+(?___lwmod)+02h
	addwf	0+(?___lwmod)+02h

	fcall	___lwmod
	bcf	status, 5	;RP0=0, select bank0
	bcf	status, 6	;RP1=0, select bank0
	movf	(0+(?___lwmod)),w
	addlw	030h
	movwf	(??_sprintf+1)+0
	movf	(??_sprintf+1)+0,w
	movwf	(sprintf@c)
	line	1516
	
l10942:	
	movf	(sprintf@c),w
	movwf	(??_sprintf+0)+0
	movf	(sprintf@sp),w
	movwf	fsr0
	movf	(??_sprintf+0)+0,w
	bcf	status, 7	;select IRP bank0
	movwf	indf
	
l10944:	
	movlw	(01h)
	movwf	(??_sprintf+0)+0
	movf	(??_sprintf+0)+0,w
	addwf	(sprintf@sp),f
	goto	l10946
	line	1517
	
l6857:	
	line	1469
	
l10946:	
	movlw	(-1)
	movwf	(??_sprintf+0)+0
	movf	(??_sprintf+0)+0,w
	addwf	(sprintf@prec),f
	movf	((sprintf@prec)),w
	xorlw	-1
	skipz
	goto	u4611
	goto	u4610
u4611:
	goto	l10940
u4610:
	goto	l10948
	
l6859:	
	goto	l10948
	line	1525
	
l6842:	
	line	540
	
l10948:	
	movlw	01h
	addwf	(sprintf@f),f
	movlw	-01h
	addwf	(sprintf@f),w
	movwf	fsr0
	fcall	stringdir
	movwf	(??_sprintf+0)+0
	movf	(??_sprintf+0)+0,w
	movwf	(sprintf@c)
	movf	((sprintf@c)),f
	skipz
	goto	u4621
	goto	u4620
u4621:
	goto	l10898
u4620:
	goto	l10950
	
l6860:	
	goto	l10950
	line	1527
	
l6847:	
	line	1530
	
l10950:	
	movf	(sprintf@sp),w
	movwf	fsr0
	bcf	status, 7	;select IRP bank0
	clrf	indf
	goto	l6861
	line	1532
	
l10952:	
	line	1533
;	Return value of _sprintf is never used
	
l6861:	
	return
	opt stack 0
GLOBAL	__end_of_sprintf
	__end_of_sprintf:
;; =============== function _sprintf ends ============

	signat	_sprintf,4698
	global	_rotate
psect	text969,local,class=CODE,delta=2
global __ptext969
__ptext969:

;; *************** function _rotate *****************
;; Defined at:
;;		line 66 in file "E:\Aldnoah.Zero\Assignment3\steppermotor.c"
;; Parameters:    Size  Location     Type
;;  numsteps        2    3[BANK0 ] unsigned int 
;;  direction       1    5[BANK0 ] unsigned char 
;; Auto vars:     Size  Location     Type
;;  i               2    8[BANK0 ] unsigned int 
;; Return value:  Size  Location     Type
;;		None               void
;; Registers used:
;;		wreg, status,2, status,0, pclath, cstack
;; Tracked objects:
;;		On entry : 0/0
;;		On exit  : 0/0
;;		Unchanged: 0/0
;; Data sizes:     COMMON   BANK0   BANK1   BANK3   BANK2
;;      Params:         0       3       0       0       0
;;      Locals:         0       2       0       0       0
;;      Temps:          0       2       0       0       0
;;      Totals:         0       7       0       0       0
;;Total ram usage:        7 bytes
;; Hardware stack levels used:    1
;; Hardware stack levels required when called:    4
;; This function calls:
;;		_spi_transfer
;; This function is called by:
;;		_calibrateIR
;;		_scan360
;; This function uses a non-reentrant model
;;
psect	text969
	file	"E:\Aldnoah.Zero\Assignment3\steppermotor.c"
	line	66
	global	__size_of_rotate
	__size_of_rotate	equ	__end_of_rotate-_rotate
	
_rotate:	
	opt	stack 2
; Regs used in _rotate: [wreg+status,2+status,0+pclath+cstack]
	line	68
	
l10868:	
;steppermotor.c: 68: RC0 = 1; RC1 = 1;;
	bcf	status, 5	;RP0=0, select bank0
	bcf	status, 6	;RP1=0, select bank0
	bsf	(56/8),(56)&7
	bsf	(57/8),(57)&7
	line	69
	
l10870:	
;steppermotor.c: 69: if (direction == 0)
	movf	(rotate@direction),f
	skipz
	goto	u4531
	goto	u4530
u4531:
	goto	l10874
u4530:
	line	70
	
l10872:	
;steppermotor.c: 70: spi_transfer(0b00001011);
	movlw	(0Bh)
	fcall	_spi_transfer
	goto	l10876
	line	71
	
l3732:	
	line	72
	
l10874:	
;steppermotor.c: 71: else
;steppermotor.c: 72: spi_transfer(0b00001001);
	movlw	(09h)
	fcall	_spi_transfer
	goto	l10876
	
l3733:	
	line	73
	
l10876:	
;steppermotor.c: 73: RC0 = 0; RC1 = 0;;
	bcf	status, 5	;RP0=0, select bank0
	bcf	status, 6	;RP1=0, select bank0
	bcf	(56/8),(56)&7
	
l10878:	
	bcf	(57/8),(57)&7
	line	74
	
l10880:	
;steppermotor.c: 74: for (unsigned int i = 0; i < numsteps; i++)
	clrf	(rotate@i)
	clrf	(rotate@i+1)
	goto	l3734
	line	75
	
l3735:	
	line	76
;steppermotor.c: 75: {
;steppermotor.c: 76: RC2 = 1; _nop(); RC2 = 0;;
	bsf	(58/8),(58)&7
	nop
	bcf	status, 5	;RP0=0, select bank0
	bcf	status, 6	;RP1=0, select bank0
	bcf	(58/8),(58)&7
	line	77
	
l10882:	
;steppermotor.c: 77: _delay((unsigned long)((15)*(20000000/4000.0)));
	opt asmopt_off
movlw	98
movwf	((??_rotate+0)+0+1),f
	movlw	101
movwf	((??_rotate+0)+0),f
u5117:
	decfsz	((??_rotate+0)+0),f
	goto	u5117
	decfsz	((??_rotate+0)+0+1),f
	goto	u5117
	nop2
opt asmopt_on

	line	74
	movlw	low(01h)
	bcf	status, 5	;RP0=0, select bank0
	bcf	status, 6	;RP1=0, select bank0
	addwf	(rotate@i),f
	skipnc
	incf	(rotate@i+1),f
	movlw	high(01h)
	addwf	(rotate@i+1),f
	
l3734:	
	movf	(rotate@numsteps+1),w
	subwf	(rotate@i+1),w
	skipz
	goto	u4545
	movf	(rotate@numsteps),w
	subwf	(rotate@i),w
u4545:
	skipc
	goto	u4541
	goto	u4540
u4541:
	goto	l3735
u4540:
	
l3736:	
	line	79
;steppermotor.c: 78: }
;steppermotor.c: 79: RC0 = 1; RC1 = 1;;
	bsf	(56/8),(56)&7
	bsf	(57/8),(57)&7
	line	80
	
l10884:	
;steppermotor.c: 80: spi_transfer(0b00000000);
	movlw	(0)
	fcall	_spi_transfer
	line	81
	
l10886:	
;steppermotor.c: 81: RC0 = 0; RC1 = 0;;
	bcf	status, 5	;RP0=0, select bank0
	bcf	status, 6	;RP1=0, select bank0
	bcf	(56/8),(56)&7
	
l10888:	
	bcf	(57/8),(57)&7
	line	82
	
l10890:	
;steppermotor.c: 82: RC2 = 1; _nop(); RC2 = 0;;
	bsf	(58/8),(58)&7
	
l10892:	
	nop
	
l10894:	
	bcf	status, 5	;RP0=0, select bank0
	bcf	status, 6	;RP1=0, select bank0
	bcf	(58/8),(58)&7
	line	83
	
l3737:	
	return
	opt stack 0
GLOBAL	__end_of_rotate
	__end_of_rotate:
;; =============== function _rotate ends ============

	signat	_rotate,8312
	global	_robo_init
psect	text970,local,class=CODE,delta=2
global __ptext970
__ptext970:

;; *************** function _robo_init *****************
;; Defined at:
;;		line 36 in file "E:\Aldnoah.Zero\Assignment3\robot.c"
;; Parameters:    Size  Location     Type
;;		None
;; Auto vars:     Size  Location     Type
;;		None
;; Return value:  Size  Location     Type
;;		None               void
;; Registers used:
;;		wreg, fsr0l, fsr0h, status,2, status,0, pclath, cstack
;; Tracked objects:
;;		On entry : 0/0
;;		On exit  : 0/0
;;		Unchanged: 0/0
;; Data sizes:     COMMON   BANK0   BANK1   BANK3   BANK2
;;      Params:         0       0       0       0       0
;;      Locals:         0       0       0       0       0
;;      Temps:          0       0       0       0       0
;;      Totals:         0       0       0       0       0
;;Total ram usage:        0 bytes
;; Hardware stack levels used:    1
;; Hardware stack levels required when called:    4
;; This function calls:
;;		_ser_putch
;; This function is called by:
;;		_init
;; This function uses a non-reentrant model
;;
psect	text970
	file	"E:\Aldnoah.Zero\Assignment3\robot.c"
	line	36
	global	__size_of_robo_init
	__size_of_robo_init	equ	__end_of_robo_init-_robo_init
	
_robo_init:	
	opt	stack 2
; Regs used in _robo_init: [wreg-fsr0h+status,2+status,0+pclath+cstack]
	line	37
	
l10866:	
;robot.c: 37: ser_putch(128);
	movlw	(080h)
	fcall	_ser_putch
	line	38
;robot.c: 38: ser_putch(132);
	movlw	(084h)
	fcall	_ser_putch
	line	39
;robot.c: 39: ser_putch(150);
	movlw	(096h)
	fcall	_ser_putch
	line	40
;robot.c: 40: ser_putch(0);
	movlw	(0)
	fcall	_ser_putch
	line	41
	
l6043:	
	return
	opt stack 0
GLOBAL	__end_of_robo_init
	__end_of_robo_init:
;; =============== function _robo_init ends ============

	signat	_robo_init,88
	global	_lcd_write_data
psect	text971,local,class=CODE,delta=2
global __ptext971
__ptext971:

;; *************** function _lcd_write_data *****************
;; Defined at:
;;		line 30 in file "E:\Aldnoah.Zero\Assignment3\lcd.c"
;; Parameters:    Size  Location     Type
;;  databyte        1    wreg     unsigned char 
;; Auto vars:     Size  Location     Type
;;  databyte        1    2[BANK0 ] unsigned char 
;; Return value:  Size  Location     Type
;;		None               void
;; Registers used:
;;		wreg
;; Tracked objects:
;;		On entry : 0/0
;;		On exit  : 0/0
;;		Unchanged: 0/0
;; Data sizes:     COMMON   BANK0   BANK1   BANK3   BANK2
;;      Params:         0       0       0       0       0
;;      Locals:         0       1       0       0       0
;;      Temps:          0       2       0       0       0
;;      Totals:         0       3       0       0       0
;;Total ram usage:        3 bytes
;; Hardware stack levels used:    1
;; Hardware stack levels required when called:    3
;; This function calls:
;;		Nothing
;; This function is called by:
;;		_lcd_write_string
;;		_lcd_write_2_digit_bcd
;;		_lcd_write_3_digit_bcd
;; This function uses a non-reentrant model
;;
psect	text971
	file	"E:\Aldnoah.Zero\Assignment3\lcd.c"
	line	30
	global	__size_of_lcd_write_data
	__size_of_lcd_write_data	equ	__end_of_lcd_write_data-_lcd_write_data
	
_lcd_write_data:	
	opt	stack 1
; Regs used in _lcd_write_data: [wreg]
;lcd_write_data@databyte stored from wreg
	bcf	status, 5	;RP0=0, select bank0
	bcf	status, 6	;RP1=0, select bank0
	movwf	(lcd_write_data@databyte)
	line	31
	
l10858:	
;lcd.c: 31: RE2 = 0;
	bcf	(74/8),(74)&7
	line	32
;lcd.c: 32: RE1 = 0;
	bcf	(73/8),(73)&7
	line	33
;lcd.c: 33: RE0 = 1;
	bsf	(72/8),(72)&7
	line	34
	
l10860:	
;lcd.c: 34: PORTD = databyte;
	movf	(lcd_write_data@databyte),w
	movwf	(8)	;volatile
	line	35
	
l10862:	
;lcd.c: 35: RE2 = 1;
	bsf	(74/8),(74)&7
	line	36
	
l10864:	
;lcd.c: 36: RE2 = 0;
	bcf	(74/8),(74)&7
	line	37
;lcd.c: 37: _delay((unsigned long)((1)*(20000000/4000.0)));
	opt asmopt_off
movlw	7
movwf	((??_lcd_write_data+0)+0+1),f
	movlw	125
movwf	((??_lcd_write_data+0)+0),f
u5127:
	decfsz	((??_lcd_write_data+0)+0),f
	goto	u5127
	decfsz	((??_lcd_write_data+0)+0+1),f
	goto	u5127
opt asmopt_on

	line	38
	
l1402:	
	return
	opt stack 0
GLOBAL	__end_of_lcd_write_data
	__end_of_lcd_write_data:
;; =============== function _lcd_write_data ends ============

	signat	_lcd_write_data,4216
	global	_lcd_write_control
psect	text972,local,class=CODE,delta=2
global __ptext972
__ptext972:

;; *************** function _lcd_write_control *****************
;; Defined at:
;;		line 18 in file "E:\Aldnoah.Zero\Assignment3\lcd.c"
;; Parameters:    Size  Location     Type
;;  databyte        1    wreg     unsigned char 
;; Auto vars:     Size  Location     Type
;;  databyte        1    2[BANK0 ] unsigned char 
;; Return value:  Size  Location     Type
;;		None               void
;; Registers used:
;;		wreg
;; Tracked objects:
;;		On entry : 0/0
;;		On exit  : 0/0
;;		Unchanged: 0/0
;; Data sizes:     COMMON   BANK0   BANK1   BANK3   BANK2
;;      Params:         0       0       0       0       0
;;      Locals:         0       1       0       0       0
;;      Temps:          0       2       0       0       0
;;      Totals:         0       3       0       0       0
;;Total ram usage:        3 bytes
;; Hardware stack levels used:    1
;; Hardware stack levels required when called:    3
;; This function calls:
;;		Nothing
;; This function is called by:
;;		_lcd_set_cursor
;;		_lcd_init
;;		_UpdateDisplay
;; This function uses a non-reentrant model
;;
psect	text972
	file	"E:\Aldnoah.Zero\Assignment3\lcd.c"
	line	18
	global	__size_of_lcd_write_control
	__size_of_lcd_write_control	equ	__end_of_lcd_write_control-_lcd_write_control
	
_lcd_write_control:	
	opt	stack 1
; Regs used in _lcd_write_control: [wreg]
;lcd_write_control@databyte stored from wreg
	bcf	status, 5	;RP0=0, select bank0
	bcf	status, 6	;RP1=0, select bank0
	movwf	(lcd_write_control@databyte)
	line	19
	
l10850:	
;lcd.c: 19: RE2 = 0;
	bcf	(74/8),(74)&7
	line	20
;lcd.c: 20: RE1 = 0;
	bcf	(73/8),(73)&7
	line	21
;lcd.c: 21: RE0 = 0;
	bcf	(72/8),(72)&7
	line	22
	
l10852:	
;lcd.c: 22: PORTD = databyte;
	movf	(lcd_write_control@databyte),w
	movwf	(8)	;volatile
	line	23
	
l10854:	
;lcd.c: 23: RE2 = 1;
	bsf	(74/8),(74)&7
	line	24
	
l10856:	
;lcd.c: 24: RE2 = 0;
	bcf	(74/8),(74)&7
	line	25
;lcd.c: 25: _delay((unsigned long)((2)*(20000000/4000.0)));
	opt asmopt_off
movlw	13
movwf	((??_lcd_write_control+0)+0+1),f
	movlw	251
movwf	((??_lcd_write_control+0)+0),f
u5137:
	decfsz	((??_lcd_write_control+0)+0),f
	goto	u5137
	decfsz	((??_lcd_write_control+0)+0+1),f
	goto	u5137
	nop2
opt asmopt_on

	line	26
	
l1399:	
	return
	opt stack 0
GLOBAL	__end_of_lcd_write_control
	__end_of_lcd_write_control:
;; =============== function _lcd_write_control ends ============

	signat	_lcd_write_control,4216
	global	_init_adc
psect	text973,local,class=CODE,delta=2
global __ptext973
__ptext973:

;; *************** function _init_adc *****************
;; Defined at:
;;		line 61 in file "E:\Aldnoah.Zero\Assignment3\adc.c"
;; Parameters:    Size  Location     Type
;;		None
;; Auto vars:     Size  Location     Type
;;		None
;; Return value:  Size  Location     Type
;;		None               void
;; Registers used:
;;		wreg, status,2
;; Tracked objects:
;;		On entry : 0/0
;;		On exit  : 0/0
;;		Unchanged: 0/0
;; Data sizes:     COMMON   BANK0   BANK1   BANK3   BANK2
;;      Params:         0       0       0       0       0
;;      Locals:         0       0       0       0       0
;;      Temps:          0       1       0       0       0
;;      Totals:         0       1       0       0       0
;;Total ram usage:        1 bytes
;; Hardware stack levels used:    1
;; Hardware stack levels required when called:    3
;; This function calls:
;;		Nothing
;; This function is called by:
;;		_init
;; This function uses a non-reentrant model
;;
psect	text973
	file	"E:\Aldnoah.Zero\Assignment3\adc.c"
	line	61
	global	__size_of_init_adc
	__size_of_init_adc	equ	__end_of_init_adc-_init_adc
	
_init_adc:	
	opt	stack 3
; Regs used in _init_adc: [wreg+status,2]
	line	63
	
l10840:	
;adc.c: 63: PORTA = 0;
	bcf	status, 5	;RP0=0, select bank0
	bcf	status, 6	;RP1=0, select bank0
	clrf	(5)	;volatile
	line	64
	
l10842:	
;adc.c: 64: TRISA = 0b00111111;
	movlw	(03Fh)
	bsf	status, 5	;RP0=1, select bank1
	bcf	status, 6	;RP1=0, select bank1
	movwf	(133)^080h	;volatile
	line	67
	
l10844:	
;adc.c: 67: ADCON0 = 0b10100001;
	movlw	(0A1h)
	bcf	status, 5	;RP0=0, select bank0
	bcf	status, 6	;RP1=0, select bank0
	movwf	(31)	;volatile
	line	68
	
l10846:	
;adc.c: 68: ADCON1 = 0b0000010;
	movlw	(02h)
	bsf	status, 5	;RP0=1, select bank1
	bcf	status, 6	;RP1=0, select bank1
	movwf	(159)^080h	;volatile
	line	70
	
l10848:	
;adc.c: 70: _delay((unsigned long)((50)*(20000000/4000000.0)));
	opt asmopt_off
movlw	83
	bcf	status, 5	;RP0=0, select bank0
	bcf	status, 6	;RP1=0, select bank0
movwf	(??_init_adc+0)+0,f
u5147:
decfsz	(??_init_adc+0)+0,f
	goto	u5147
opt asmopt_on

	line	72
	
l700:	
	return
	opt stack 0
GLOBAL	__end_of_init_adc
	__end_of_init_adc:
;; =============== function _init_adc ends ============

	signat	_init_adc,88
	global	_adc_read_channel
psect	text974,local,class=CODE,delta=2
global __ptext974
__ptext974:

;; *************** function _adc_read_channel *****************
;; Defined at:
;;		line 20 in file "E:\Aldnoah.Zero\Assignment3\adc.c"
;; Parameters:    Size  Location     Type
;;  channel         1    wreg     unsigned char 
;; Auto vars:     Size  Location     Type
;;  channel         1    7[BANK0 ] unsigned char 
;; Return value:  Size  Location     Type
;;                  1    wreg      unsigned char 
;; Registers used:
;;		wreg, fsr0l, fsr0h, status,2, status,0, pclath, cstack
;; Tracked objects:
;;		On entry : 0/0
;;		On exit  : 0/0
;;		Unchanged: 0/0
;; Data sizes:     COMMON   BANK0   BANK1   BANK3   BANK2
;;      Params:         0       0       0       0       0
;;      Locals:         0       1       0       0       0
;;      Temps:          0       1       0       0       0
;;      Totals:         0       2       0       0       0
;;Total ram usage:        2 bytes
;; Hardware stack levels used:    1
;; Hardware stack levels required when called:    4
;; This function calls:
;;		_adc_read
;; This function is called by:
;;		_readDistance
;; This function uses a non-reentrant model
;;
psect	text974
	file	"E:\Aldnoah.Zero\Assignment3\adc.c"
	line	20
	global	__size_of_adc_read_channel
	__size_of_adc_read_channel	equ	__end_of_adc_read_channel-_adc_read_channel
	
_adc_read_channel:	
	opt	stack 0
; Regs used in _adc_read_channel: [wreg-fsr0h+status,2+status,0+pclath+cstack]
;adc_read_channel@channel stored from wreg
	bcf	status, 5	;RP0=0, select bank0
	bcf	status, 6	;RP1=0, select bank0
	movwf	(adc_read_channel@channel)
	line	21
	
l10824:	
;adc.c: 21: switch(channel)
	goto	l10832
	line	23
;adc.c: 22: {
;adc.c: 23: case 0:
	
l690:	
	line	24
;adc.c: 24: CHS0 = 0;
	bcf	(251/8),(251)&7
	line	25
;adc.c: 25: CHS1 = 0;
	bcf	(252/8),(252)&7
	line	26
;adc.c: 26: CHS2 = 0;
	bcf	(253/8),(253)&7
	line	27
;adc.c: 27: break;
	goto	l10834
	line	28
;adc.c: 28: case 1:
	
l692:	
	line	29
;adc.c: 29: CHS0 = 1;
	bsf	(251/8),(251)&7
	line	30
;adc.c: 30: CHS1 = 0;
	bcf	(252/8),(252)&7
	line	31
;adc.c: 31: CHS2 = 0;
	bcf	(253/8),(253)&7
	line	32
;adc.c: 32: break;
	goto	l10834
	line	33
;adc.c: 33: case 2:
	
l693:	
	line	34
;adc.c: 34: CHS0 = 0;
	bcf	(251/8),(251)&7
	line	35
;adc.c: 35: CHS1 = 1;
	bsf	(252/8),(252)&7
	line	36
;adc.c: 36: CHS2 = 0;
	bcf	(253/8),(253)&7
	line	37
;adc.c: 37: break;
	goto	l10834
	line	38
;adc.c: 38: case 3:
	
l694:	
	line	39
;adc.c: 39: CHS0 = 1;
	bsf	(251/8),(251)&7
	line	40
;adc.c: 40: CHS1 = 1;
	bsf	(252/8),(252)&7
	line	41
;adc.c: 41: CHS2 = 0;
	bcf	(253/8),(253)&7
	line	42
;adc.c: 42: break;
	goto	l10834
	line	43
;adc.c: 43: case 4:
	
l695:	
	line	44
;adc.c: 44: CHS0 = 0;
	bcf	(251/8),(251)&7
	line	45
;adc.c: 45: CHS1 = 0;
	bcf	(252/8),(252)&7
	line	46
;adc.c: 46: CHS2 = 1;
	bsf	(253/8),(253)&7
	line	47
;adc.c: 47: break;
	goto	l10834
	line	50
;adc.c: 50: default:
	
l696:	
	line	51
	
l10826:	
;adc.c: 51: return 0;
	movlw	(0)
	goto	l697
	
l10828:	
	goto	l697
	line	52
	
l10830:	
;adc.c: 52: }
	goto	l10834
	line	21
	
l689:	
	
l10832:	
	movf	(adc_read_channel@channel),w
	; Switch size 1, requested type "space"
; Number of cases is 5, Range of values is 0 to 4
; switch strategies available:
; Name         Instructions Cycles
; simple_byte           16     9 (average)
; direct_byte           23     8 (fixed)
; jumptable            260     6 (fixed)
; rangetable             9     6 (fixed)
; spacedrange           16     9 (fixed)
; locatedrange           5     3 (fixed)
;	Chosen strategy is simple_byte

	opt asmopt_off
	xorlw	0^0	; case 0
	skipnz
	goto	l690
	xorlw	1^0	; case 1
	skipnz
	goto	l692
	xorlw	2^1	; case 2
	skipnz
	goto	l693
	xorlw	3^2	; case 3
	skipnz
	goto	l694
	xorlw	4^3	; case 4
	skipnz
	goto	l695
	goto	l10826
	opt asmopt_on

	line	52
	
l691:	
	line	54
	
l10834:	
;adc.c: 54: _delay((unsigned long)((50)*(20000000/4000000.0)));
	opt asmopt_off
movlw	83
movwf	(??_adc_read_channel+0)+0,f
u5157:
decfsz	(??_adc_read_channel+0)+0,f
	goto	u5157
opt asmopt_on

	line	56
	
l10836:	
;adc.c: 56: return adc_read();
	fcall	_adc_read
	bcf	status, 5	;RP0=0, select bank0
	bcf	status, 6	;RP1=0, select bank0
	movf	(0+(?_adc_read)),w
	goto	l697
	
l10838:	
	line	58
	
l697:	
	return
	opt stack 0
GLOBAL	__end_of_adc_read_channel
	__end_of_adc_read_channel:
;; =============== function _adc_read_channel ends ============

	signat	_adc_read_channel,4217
	global	___awmod
psect	text975,local,class=CODE,delta=2
global __ptext975
__ptext975:

;; *************** function ___awmod *****************
;; Defined at:
;;		line 5 in file "C:\Program Files\HI-TECH Software\PICC\9.83\sources\awmod.c"
;; Parameters:    Size  Location     Type
;;  divisor         2    0[BANK0 ] int 
;;  dividend        2    2[BANK0 ] int 
;; Auto vars:     Size  Location     Type
;;  sign            1    6[BANK0 ] unsigned char 
;;  counter         1    5[BANK0 ] unsigned char 
;; Return value:  Size  Location     Type
;;                  2    0[BANK0 ] int 
;; Registers used:
;;		wreg, status,2, status,0
;; Tracked objects:
;;		On entry : 0/0
;;		On exit  : 0/0
;;		Unchanged: 0/0
;; Data sizes:     COMMON   BANK0   BANK1   BANK3   BANK2
;;      Params:         0       4       0       0       0
;;      Locals:         0       2       0       0       0
;;      Temps:          0       1       0       0       0
;;      Totals:         0       7       0       0       0
;;Total ram usage:        7 bytes
;; Hardware stack levels used:    1
;; Hardware stack levels required when called:    3
;; This function calls:
;;		Nothing
;; This function is called by:
;;		_UpdateDisplay
;; This function uses a non-reentrant model
;;
psect	text975
	file	"C:\Program Files\HI-TECH Software\PICC\9.83\sources\awmod.c"
	line	5
	global	__size_of___awmod
	__size_of___awmod	equ	__end_of___awmod-___awmod
	
___awmod:	
	opt	stack 2
; Regs used in ___awmod: [wreg+status,2+status,0]
	line	8
	
l10768:	
	bcf	status, 5	;RP0=0, select bank0
	bcf	status, 6	;RP1=0, select bank0
	clrf	(___awmod@sign)
	line	9
	btfss	(___awmod@dividend+1),7
	goto	u4381
	goto	u4380
u4381:
	goto	l10772
u4380:
	line	10
	
l10770:	
	comf	(___awmod@dividend),f
	comf	(___awmod@dividend+1),f
	incf	(___awmod@dividend),f
	skipnz
	incf	(___awmod@dividend+1),f
	line	11
	clrf	(___awmod@sign)
	bsf	status,0
	rlf	(___awmod@sign),f
	goto	l10772
	line	12
	
l7752:	
	line	13
	
l10772:	
	btfss	(___awmod@divisor+1),7
	goto	u4391
	goto	u4390
u4391:
	goto	l10776
u4390:
	line	14
	
l10774:	
	comf	(___awmod@divisor),f
	comf	(___awmod@divisor+1),f
	incf	(___awmod@divisor),f
	skipnz
	incf	(___awmod@divisor+1),f
	goto	l10776
	
l7753:	
	line	15
	
l10776:	
	movf	(___awmod@divisor+1),w
	iorwf	(___awmod@divisor),w
	skipnz
	goto	u4401
	goto	u4400
u4401:
	goto	l10794
u4400:
	line	16
	
l10778:	
	clrf	(___awmod@counter)
	bsf	status,0
	rlf	(___awmod@counter),f
	line	17
	goto	l10784
	
l7756:	
	line	18
	
l10780:	
	movlw	01h
	
u4415:
	clrc
	rlf	(___awmod@divisor),f
	rlf	(___awmod@divisor+1),f
	addlw	-1
	skipz
	goto	u4415
	line	19
	
l10782:	
	movlw	(01h)
	movwf	(??___awmod+0)+0
	movf	(??___awmod+0)+0,w
	addwf	(___awmod@counter),f
	goto	l10784
	line	20
	
l7755:	
	line	17
	
l10784:	
	btfss	(___awmod@divisor+1),(15)&7
	goto	u4421
	goto	u4420
u4421:
	goto	l10780
u4420:
	goto	l10786
	
l7757:	
	goto	l10786
	line	21
	
l7758:	
	line	22
	
l10786:	
	movf	(___awmod@divisor+1),w
	subwf	(___awmod@dividend+1),w
	skipz
	goto	u4435
	movf	(___awmod@divisor),w
	subwf	(___awmod@dividend),w
u4435:
	skipc
	goto	u4431
	goto	u4430
u4431:
	goto	l10790
u4430:
	line	23
	
l10788:	
	movf	(___awmod@divisor),w
	subwf	(___awmod@dividend),f
	movf	(___awmod@divisor+1),w
	skipc
	decf	(___awmod@dividend+1),f
	subwf	(___awmod@dividend+1),f
	goto	l10790
	
l7759:	
	line	24
	
l10790:	
	movlw	01h
	
u4445:
	clrc
	rrf	(___awmod@divisor+1),f
	rrf	(___awmod@divisor),f
	addlw	-1
	skipz
	goto	u4445
	line	25
	
l10792:	
	movlw	low(01h)
	subwf	(___awmod@counter),f
	btfss	status,2
	goto	u4451
	goto	u4450
u4451:
	goto	l10786
u4450:
	goto	l10794
	
l7760:	
	goto	l10794
	line	26
	
l7754:	
	line	27
	
l10794:	
	movf	(___awmod@sign),w
	skipz
	goto	u4460
	goto	l10798
u4460:
	line	28
	
l10796:	
	comf	(___awmod@dividend),f
	comf	(___awmod@dividend+1),f
	incf	(___awmod@dividend),f
	skipnz
	incf	(___awmod@dividend+1),f
	goto	l10798
	
l7761:	
	line	29
	
l10798:	
	movf	(___awmod@dividend+1),w
	clrf	(?___awmod+1)
	addwf	(?___awmod+1)
	movf	(___awmod@dividend),w
	clrf	(?___awmod)
	addwf	(?___awmod)

	goto	l7762
	
l10800:	
	line	30
	
l7762:	
	return
	opt stack 0
GLOBAL	__end_of___awmod
	__end_of___awmod:
;; =============== function ___awmod ends ============

	signat	___awmod,8314
	global	___lwmod
psect	text976,local,class=CODE,delta=2
global __ptext976
__ptext976:

;; *************** function ___lwmod *****************
;; Defined at:
;;		line 5 in file "C:\Program Files\HI-TECH Software\PICC\9.83\sources\lwmod.c"
;; Parameters:    Size  Location     Type
;;  divisor         2    8[BANK0 ] unsigned int 
;;  dividend        2   10[BANK0 ] unsigned int 
;; Auto vars:     Size  Location     Type
;;  counter         1   13[BANK0 ] unsigned char 
;; Return value:  Size  Location     Type
;;                  2    8[BANK0 ] unsigned int 
;; Registers used:
;;		wreg, status,2, status,0
;; Tracked objects:
;;		On entry : 0/0
;;		On exit  : 0/0
;;		Unchanged: 0/0
;; Data sizes:     COMMON   BANK0   BANK1   BANK3   BANK2
;;      Params:         0       4       0       0       0
;;      Locals:         0       1       0       0       0
;;      Temps:          0       1       0       0       0
;;      Totals:         0       6       0       0       0
;;Total ram usage:        6 bytes
;; Hardware stack levels used:    1
;; Hardware stack levels required when called:    3
;; This function calls:
;;		Nothing
;; This function is called by:
;;		_sprintf
;; This function uses a non-reentrant model
;;
psect	text976
	file	"C:\Program Files\HI-TECH Software\PICC\9.83\sources\lwmod.c"
	line	5
	global	__size_of___lwmod
	__size_of___lwmod	equ	__end_of___lwmod-___lwmod
	
___lwmod:	
	opt	stack 1
; Regs used in ___lwmod: [wreg+status,2+status,0]
	line	8
	
l10746:	
	bcf	status, 5	;RP0=0, select bank0
	bcf	status, 6	;RP1=0, select bank0
	movf	(___lwmod@divisor+1),w
	iorwf	(___lwmod@divisor),w
	skipnz
	goto	u4321
	goto	u4320
u4321:
	goto	l10764
u4320:
	line	9
	
l10748:	
	clrf	(___lwmod@counter)
	bsf	status,0
	rlf	(___lwmod@counter),f
	line	10
	goto	l10754
	
l7562:	
	line	11
	
l10750:	
	movlw	01h
	
u4335:
	clrc
	rlf	(___lwmod@divisor),f
	rlf	(___lwmod@divisor+1),f
	addlw	-1
	skipz
	goto	u4335
	line	12
	
l10752:	
	movlw	(01h)
	movwf	(??___lwmod+0)+0
	movf	(??___lwmod+0)+0,w
	addwf	(___lwmod@counter),f
	goto	l10754
	line	13
	
l7561:	
	line	10
	
l10754:	
	btfss	(___lwmod@divisor+1),(15)&7
	goto	u4341
	goto	u4340
u4341:
	goto	l10750
u4340:
	goto	l10756
	
l7563:	
	goto	l10756
	line	14
	
l7564:	
	line	15
	
l10756:	
	movf	(___lwmod@divisor+1),w
	subwf	(___lwmod@dividend+1),w
	skipz
	goto	u4355
	movf	(___lwmod@divisor),w
	subwf	(___lwmod@dividend),w
u4355:
	skipc
	goto	u4351
	goto	u4350
u4351:
	goto	l10760
u4350:
	line	16
	
l10758:	
	movf	(___lwmod@divisor),w
	subwf	(___lwmod@dividend),f
	movf	(___lwmod@divisor+1),w
	skipc
	decf	(___lwmod@dividend+1),f
	subwf	(___lwmod@dividend+1),f
	goto	l10760
	
l7565:	
	line	17
	
l10760:	
	movlw	01h
	
u4365:
	clrc
	rrf	(___lwmod@divisor+1),f
	rrf	(___lwmod@divisor),f
	addlw	-1
	skipz
	goto	u4365
	line	18
	
l10762:	
	movlw	low(01h)
	subwf	(___lwmod@counter),f
	btfss	status,2
	goto	u4371
	goto	u4370
u4371:
	goto	l10756
u4370:
	goto	l10764
	
l7566:	
	goto	l10764
	line	19
	
l7560:	
	line	20
	
l10764:	
	movf	(___lwmod@dividend+1),w
	clrf	(?___lwmod+1)
	addwf	(?___lwmod+1)
	movf	(___lwmod@dividend),w
	clrf	(?___lwmod)
	addwf	(?___lwmod)

	goto	l7567
	
l10766:	
	line	21
	
l7567:	
	return
	opt stack 0
GLOBAL	__end_of___lwmod
	__end_of___lwmod:
;; =============== function ___lwmod ends ============

	signat	___lwmod,8314
	global	___lwdiv
psect	text977,local,class=CODE,delta=2
global __ptext977
__ptext977:

;; *************** function ___lwdiv *****************
;; Defined at:
;;		line 5 in file "C:\Program Files\HI-TECH Software\PICC\9.83\sources\lwdiv.c"
;; Parameters:    Size  Location     Type
;;  divisor         2    0[BANK0 ] unsigned int 
;;  dividend        2    2[BANK0 ] unsigned int 
;; Auto vars:     Size  Location     Type
;;  quotient        2    5[BANK0 ] unsigned int 
;;  counter         1    7[BANK0 ] unsigned char 
;; Return value:  Size  Location     Type
;;                  2    0[BANK0 ] unsigned int 
;; Registers used:
;;		wreg, status,2, status,0
;; Tracked objects:
;;		On entry : 0/0
;;		On exit  : 0/0
;;		Unchanged: 0/0
;; Data sizes:     COMMON   BANK0   BANK1   BANK3   BANK2
;;      Params:         0       4       0       0       0
;;      Locals:         0       3       0       0       0
;;      Temps:          0       1       0       0       0
;;      Totals:         0       8       0       0       0
;;Total ram usage:        8 bytes
;; Hardware stack levels used:    1
;; Hardware stack levels required when called:    3
;; This function calls:
;;		Nothing
;; This function is called by:
;;		_sprintf
;;		_ADCconvert
;; This function uses a non-reentrant model
;;
psect	text977
	file	"C:\Program Files\HI-TECH Software\PICC\9.83\sources\lwdiv.c"
	line	5
	global	__size_of___lwdiv
	__size_of___lwdiv	equ	__end_of___lwdiv-___lwdiv
	
___lwdiv:	
	opt	stack 1
; Regs used in ___lwdiv: [wreg+status,2+status,0]
	line	9
	
l10720:	
	bcf	status, 5	;RP0=0, select bank0
	bcf	status, 6	;RP1=0, select bank0
	clrf	(___lwdiv@quotient)
	clrf	(___lwdiv@quotient+1)
	line	10
	
l10722:	
	movf	(___lwdiv@divisor+1),w
	iorwf	(___lwdiv@divisor),w
	skipnz
	goto	u4251
	goto	u4250
u4251:
	goto	l10742
u4250:
	line	11
	
l10724:	
	clrf	(___lwdiv@counter)
	bsf	status,0
	rlf	(___lwdiv@counter),f
	line	12
	goto	l10730
	
l7552:	
	line	13
	
l10726:	
	movlw	01h
	
u4265:
	clrc
	rlf	(___lwdiv@divisor),f
	rlf	(___lwdiv@divisor+1),f
	addlw	-1
	skipz
	goto	u4265
	line	14
	
l10728:	
	movlw	(01h)
	movwf	(??___lwdiv+0)+0
	movf	(??___lwdiv+0)+0,w
	addwf	(___lwdiv@counter),f
	goto	l10730
	line	15
	
l7551:	
	line	12
	
l10730:	
	btfss	(___lwdiv@divisor+1),(15)&7
	goto	u4271
	goto	u4270
u4271:
	goto	l10726
u4270:
	goto	l10732
	
l7553:	
	goto	l10732
	line	16
	
l7554:	
	line	17
	
l10732:	
	movlw	01h
	
u4285:
	clrc
	rlf	(___lwdiv@quotient),f
	rlf	(___lwdiv@quotient+1),f
	addlw	-1
	skipz
	goto	u4285
	line	18
	movf	(___lwdiv@divisor+1),w
	subwf	(___lwdiv@dividend+1),w
	skipz
	goto	u4295
	movf	(___lwdiv@divisor),w
	subwf	(___lwdiv@dividend),w
u4295:
	skipc
	goto	u4291
	goto	u4290
u4291:
	goto	l10738
u4290:
	line	19
	
l10734:	
	movf	(___lwdiv@divisor),w
	subwf	(___lwdiv@dividend),f
	movf	(___lwdiv@divisor+1),w
	skipc
	decf	(___lwdiv@dividend+1),f
	subwf	(___lwdiv@dividend+1),f
	line	20
	
l10736:	
	bsf	(___lwdiv@quotient)+(0/8),(0)&7
	goto	l10738
	line	21
	
l7555:	
	line	22
	
l10738:	
	movlw	01h
	
u4305:
	clrc
	rrf	(___lwdiv@divisor+1),f
	rrf	(___lwdiv@divisor),f
	addlw	-1
	skipz
	goto	u4305
	line	23
	
l10740:	
	movlw	low(01h)
	subwf	(___lwdiv@counter),f
	btfss	status,2
	goto	u4311
	goto	u4310
u4311:
	goto	l10732
u4310:
	goto	l10742
	
l7556:	
	goto	l10742
	line	24
	
l7550:	
	line	25
	
l10742:	
	movf	(___lwdiv@quotient+1),w
	clrf	(?___lwdiv+1)
	addwf	(?___lwdiv+1)
	movf	(___lwdiv@quotient),w
	clrf	(?___lwdiv)
	addwf	(?___lwdiv)

	goto	l7557
	
l10744:	
	line	26
	
l7557:	
	return
	opt stack 0
GLOBAL	__end_of___lwdiv
	__end_of___lwdiv:
;; =============== function ___lwdiv ends ============

	signat	___lwdiv,8314
	global	___wmul
psect	text978,local,class=CODE,delta=2
global __ptext978
__ptext978:

;; *************** function ___wmul *****************
;; Defined at:
;;		line 3 in file "C:\Program Files\HI-TECH Software\PICC\9.83\sources\wmul.c"
;; Parameters:    Size  Location     Type
;;  multiplier      2    0[BANK0 ] unsigned int 
;;  multiplicand    2    2[BANK0 ] unsigned int 
;; Auto vars:     Size  Location     Type
;;  product         2    4[BANK0 ] unsigned int 
;; Return value:  Size  Location     Type
;;                  2    0[BANK0 ] unsigned int 
;; Registers used:
;;		wreg, status,2, status,0
;; Tracked objects:
;;		On entry : 0/0
;;		On exit  : 0/0
;;		Unchanged: 0/0
;; Data sizes:     COMMON   BANK0   BANK1   BANK3   BANK2
;;      Params:         0       4       0       0       0
;;      Locals:         0       2       0       0       0
;;      Temps:          0       0       0       0       0
;;      Totals:         0       6       0       0       0
;;Total ram usage:        6 bytes
;; Hardware stack levels used:    1
;; Hardware stack levels required when called:    3
;; This function calls:
;;		Nothing
;; This function is called by:
;;		_abs
;;		_ADCconvert
;; This function uses a non-reentrant model
;;
psect	text978
	file	"C:\Program Files\HI-TECH Software\PICC\9.83\sources\wmul.c"
	line	3
	global	__size_of___wmul
	__size_of___wmul	equ	__end_of___wmul-___wmul
	
___wmul:	
	opt	stack 2
; Regs used in ___wmul: [wreg+status,2+status,0]
	line	4
	
l10708:	
	bcf	status, 5	;RP0=0, select bank0
	bcf	status, 6	;RP1=0, select bank0
	clrf	(___wmul@product)
	clrf	(___wmul@product+1)
	goto	l10710
	line	6
	
l7544:	
	line	7
	
l10710:	
	btfss	(___wmul@multiplier),(0)&7
	goto	u4211
	goto	u4210
u4211:
	goto	l7545
u4210:
	line	8
	
l10712:	
	movf	(___wmul@multiplicand),w
	addwf	(___wmul@product),f
	skipnc
	incf	(___wmul@product+1),f
	movf	(___wmul@multiplicand+1),w
	addwf	(___wmul@product+1),f
	
l7545:	
	line	9
	movlw	01h
	
u4225:
	clrc
	rlf	(___wmul@multiplicand),f
	rlf	(___wmul@multiplicand+1),f
	addlw	-1
	skipz
	goto	u4225
	line	10
	
l10714:	
	movlw	01h
	
u4235:
	clrc
	rrf	(___wmul@multiplier+1),f
	rrf	(___wmul@multiplier),f
	addlw	-1
	skipz
	goto	u4235
	line	11
	movf	((___wmul@multiplier+1)),w
	iorwf	((___wmul@multiplier)),w
	skipz
	goto	u4241
	goto	u4240
u4241:
	goto	l10710
u4240:
	goto	l10716
	
l7546:	
	line	12
	
l10716:	
	movf	(___wmul@product+1),w
	clrf	(?___wmul+1)
	addwf	(?___wmul+1)
	movf	(___wmul@product),w
	clrf	(?___wmul)
	addwf	(?___wmul)

	goto	l7547
	
l10718:	
	line	13
	
l7547:	
	return
	opt stack 0
GLOBAL	__end_of___wmul
	__end_of___wmul:
;; =============== function ___wmul ends ============

	signat	___wmul,8314
	global	_ser_isrx
psect	text979,local,class=CODE,delta=2
global __ptext979
__ptext979:

;; *************** function _ser_isrx *****************
;; Defined at:
;;		line 45 in file "E:\Aldnoah.Zero\Assignment3\ser.c"
;; Parameters:    Size  Location     Type
;;		None
;; Auto vars:     Size  Location     Type
;;		None
;; Return value:  Size  Location     Type
;;		None               void
;; Registers used:
;;		wreg, status,2, status,0
;; Tracked objects:
;;		On entry : 0/0
;;		On exit  : 0/0
;;		Unchanged: 0/0
;; Data sizes:     COMMON   BANK0   BANK1   BANK3   BANK2
;;      Params:         0       0       0       0       0
;;      Locals:         0       0       0       0       0
;;      Temps:          0       0       0       0       0
;;      Totals:         0       0       0       0       0
;;Total ram usage:        0 bytes
;; Hardware stack levels used:    1
;; Hardware stack levels required when called:    3
;; This function calls:
;;		Nothing
;; This function is called by:
;;		_ser_getch
;; This function uses a non-reentrant model
;;
psect	text979
	file	"E:\Aldnoah.Zero\Assignment3\ser.c"
	line	45
	global	__size_of_ser_isrx
	__size_of_ser_isrx	equ	__end_of_ser_isrx-_ser_isrx
	
_ser_isrx:	
	opt	stack 1
; Regs used in _ser_isrx: [wreg+status,2+status,0]
	line	46
	
l10660:	
;ser.c: 46: if(OERR) {
	bcf	status, 5	;RP0=0, select bank0
	bcf	status, 6	;RP1=0, select bank0
	btfss	(193/8),(193)&7
	goto	u4141
	goto	u4140
u4141:
	goto	l10668
u4140:
	line	47
	
l10662:	
;ser.c: 47: CREN = 0;
	bcf	(196/8),(196)&7
	line	48
;ser.c: 48: CREN = 1;
	bsf	(196/8),(196)&7
	line	49
	
l10664:	
;ser.c: 49: return 0;
	clrc
	
	goto	l6799
	
l10666:	
	goto	l6799
	line	50
	
l6798:	
	line	51
	
l10668:	
;ser.c: 50: }
;ser.c: 51: return (rxiptr!=rxoptr);
	movf	(_rxiptr),w	;volatile
	xorwf	(_rxoptr),w	;volatile
	skipz
	goto	u4151
	goto	u4150
u4151:
	goto	l10672
u4150:
	
l10670:	
	clrc
	
	goto	l6799
	
l10352:	
	
l10672:	
	setc
	
	goto	l6799
	
l10354:	
	goto	l6799
	
l10674:	
	line	52
	
l6799:	
	return
	opt stack 0
GLOBAL	__end_of_ser_isrx
	__end_of_ser_isrx:
;; =============== function _ser_isrx ends ============

	signat	_ser_isrx,88
	global	_spi_transfer
psect	text980,local,class=CODE,delta=2
global __ptext980
__ptext980:

;; *************** function _spi_transfer *****************
;; Defined at:
;;		line 50 in file "E:\Aldnoah.Zero\Assignment3\steppermotor.c"
;; Parameters:    Size  Location     Type
;;  data            1    wreg     unsigned char 
;; Auto vars:     Size  Location     Type
;;  data            1    2[BANK0 ] unsigned char 
;;  temp            1    1[BANK0 ] unsigned char 
;; Return value:  Size  Location     Type
;;                  1    wreg      unsigned char 
;; Registers used:
;;		wreg
;; Tracked objects:
;;		On entry : 0/0
;;		On exit  : 0/0
;;		Unchanged: 0/0
;; Data sizes:     COMMON   BANK0   BANK1   BANK3   BANK2
;;      Params:         0       0       0       0       0
;;      Locals:         0       2       0       0       0
;;      Temps:          0       1       0       0       0
;;      Totals:         0       3       0       0       0
;;Total ram usage:        3 bytes
;; Hardware stack levels used:    1
;; Hardware stack levels required when called:    3
;; This function calls:
;;		Nothing
;; This function is called by:
;;		_rotate
;; This function uses a non-reentrant model
;;
psect	text980
	file	"E:\Aldnoah.Zero\Assignment3\steppermotor.c"
	line	50
	global	__size_of_spi_transfer
	__size_of_spi_transfer	equ	__end_of_spi_transfer-_spi_transfer
	
_spi_transfer:	
	opt	stack 2
; Regs used in _spi_transfer: [wreg]
;spi_transfer@data stored from wreg
	bcf	status, 5	;RP0=0, select bank0
	bcf	status, 6	;RP1=0, select bank0
	movwf	(spi_transfer@data)
	line	51
	
l10608:	
;steppermotor.c: 51: unsigned char temp = 0;
	clrf	(spi_transfer@temp)
	line	53
;steppermotor.c: 53: SSPIF = 0;
	bcf	(99/8),(99)&7
	line	54
	
l10610:	
;steppermotor.c: 54: SSPBUF = data;
	movf	(spi_transfer@data),w
	movwf	(19)	;volatile
	line	56
;steppermotor.c: 56: while (SSPIF == 0);
	goto	l3726
	
l3727:	
	
l3726:	
	btfss	(99/8),(99)&7
	goto	u3981
	goto	u3980
u3981:
	goto	l3726
u3980:
	goto	l10612
	
l3728:	
	line	57
	
l10612:	
;steppermotor.c: 57: temp = SSPBUF;
	movf	(19),w	;volatile
	movwf	(??_spi_transfer+0)+0
	movf	(??_spi_transfer+0)+0,w
	movwf	(spi_transfer@temp)
	line	58
	
l10614:	
;steppermotor.c: 58: SSPIF = 0;
	bcf	(99/8),(99)&7
	goto	l3729
	line	60
	
l10616:	
	line	61
;steppermotor.c: 60: return temp;
;	Return value of _spi_transfer is never used
	
l3729:	
	return
	opt stack 0
GLOBAL	__end_of_spi_transfer
	__end_of_spi_transfer:
;; =============== function _spi_transfer ends ============

	signat	_spi_transfer,4217
	global	_ser_putch
psect	text981,local,class=CODE,delta=2
global __ptext981
__ptext981:

;; *************** function _ser_putch *****************
;; Defined at:
;;		line 70 in file "E:\Aldnoah.Zero\Assignment3\ser.c"
;; Parameters:    Size  Location     Type
;;  c               1    wreg     unsigned char 
;; Auto vars:     Size  Location     Type
;;  c               1    1[BANK0 ] unsigned char 
;; Return value:  Size  Location     Type
;;		None               void
;; Registers used:
;;		wreg, fsr0l, fsr0h, status,2, status,0
;; Tracked objects:
;;		On entry : 0/0
;;		On exit  : 0/0
;;		Unchanged: 0/0
;; Data sizes:     COMMON   BANK0   BANK1   BANK3   BANK2
;;      Params:         0       0       0       0       0
;;      Locals:         0       1       0       0       0
;;      Temps:          0       1       0       0       0
;;      Totals:         0       2       0       0       0
;;Total ram usage:        2 bytes
;; Hardware stack levels used:    1
;; Hardware stack levels required when called:    3
;; This function calls:
;;		Nothing
;; This function is called by:
;;		_ChargeMode
;;		_robo_init
;;		_robot_read
;;		_RobotDrive
;;		_robotTurn
;;		_ser_puts
;;		_ser_puts2
;;		_ser_puthex
;; This function uses a non-reentrant model
;;
psect	text981
	file	"E:\Aldnoah.Zero\Assignment3\ser.c"
	line	70
	global	__size_of_ser_putch
	__size_of_ser_putch	equ	__end_of_ser_putch-_ser_putch
	
_ser_putch:	
	opt	stack 3
; Regs used in _ser_putch: [wreg-fsr0h+status,2+status,0]
;ser_putch@c stored from wreg
	bcf	status, 5	;RP0=0, select bank0
	bcf	status, 6	;RP1=0, select bank0
	movwf	(ser_putch@c)
	line	71
	
l10530:	
;ser.c: 71: while (((txiptr+1) & (16-1))==txoptr)
	goto	l10532
	
l6809:	
	line	72
;ser.c: 72: continue;
	goto	l10532
	
l6808:	
	line	71
	
l10532:	
	movf	(_txiptr),w	;volatile
	addlw	01h
	andlw	0Fh
	xorwf	(_txoptr),w	;volatile
	skipnz
	goto	u3791
	goto	u3790
u3791:
	goto	l10532
u3790:
	
l6810:	
	line	73
;ser.c: 73: GIE=0;
	bcf	(95/8),(95)&7
	line	74
	
l10534:	
;ser.c: 74: txfifo[txiptr] = c;
	movf	(ser_putch@c),w
	movwf	(??_ser_putch+0)+0
	movf	(_txiptr),w
	addlw	_txfifo&0ffh
	movwf	fsr0
	movf	(??_ser_putch+0)+0,w
	bsf	status, 7	;select IRP bank3
	movwf	indf
	line	75
	
l10536:	
;ser.c: 75: txiptr=(txiptr+1) & (16-1);
	movf	(_txiptr),w	;volatile
	addlw	01h
	andlw	0Fh
	movwf	(??_ser_putch+0)+0
	movf	(??_ser_putch+0)+0,w
	movwf	(_txiptr)	;volatile
	line	76
	
l10538:	
;ser.c: 76: TXIE=1;
	bsf	status, 5	;RP0=1, select bank1
	bcf	status, 6	;RP1=0, select bank1
	bsf	(1124/8)^080h,(1124)&7
	line	77
	
l10540:	
;ser.c: 77: GIE=1;
	bsf	(95/8),(95)&7
	line	78
	
l6811:	
	return
	opt stack 0
GLOBAL	__end_of_ser_putch
	__end_of_ser_putch:
;; =============== function _ser_putch ends ============

	signat	_ser_putch,4216
	global	_Menu
psect	text982,local,class=CODE,delta=2
global __ptext982
__ptext982:

;; *************** function _Menu *****************
;; Defined at:
;;		line 201 in file "E:\Aldnoah.Zero\Assignment3\HMI.c"
;; Parameters:    Size  Location     Type
;;  BTN_input       1    wreg     unsigned char 
;; Auto vars:     Size  Location     Type
;;  BTN_input       1    0[BANK0 ] unsigned char 
;; Return value:  Size  Location     Type
;;                  1    wreg      unsigned char 
;; Registers used:
;;		wreg, fsr0l, fsr0h, status,2, status,0
;; Tracked objects:
;;		On entry : 0/0
;;		On exit  : 0/0
;;		Unchanged: 0/0
;; Data sizes:     COMMON   BANK0   BANK1   BANK3   BANK2
;;      Params:         0       0       0       0       0
;;      Locals:         0       1       0       0       0
;;      Temps:          0       0       0       0       0
;;      Totals:         0       1       0       0       0
;;Total ram usage:        1 bytes
;; Hardware stack levels used:    1
;; Hardware stack levels required when called:    3
;; This function calls:
;;		Nothing
;; This function is called by:
;;		_main
;; This function uses a non-reentrant model
;;
psect	text982
	file	"E:\Aldnoah.Zero\Assignment3\HMI.c"
	line	201
	global	__size_of_Menu
	__size_of_Menu	equ	__end_of_Menu-_Menu
	
_Menu:	
	opt	stack 4
; Regs used in _Menu: [wreg-fsr0h+status,2+status,0]
;Menu@BTN_input stored from wreg
	bcf	status, 5	;RP0=0, select bank0
	bcf	status, 6	;RP1=0, select bank0
	movwf	(Menu@BTN_input)
	line	202
	
l10506:	
;HMI.c: 202: switch (BTN_input)
	goto	l10524
	line	204
;HMI.c: 203: {
;HMI.c: 204: case 1:
	
l4539:	
	line	206
;HMI.c: 206: break;
	goto	l10526
	line	207
;HMI.c: 207: case 2:
	
l4541:	
	line	209
;HMI.c: 209: break;
	goto	l10526
	line	210
;HMI.c: 210: case 3:
	
l4542:	
	line	211
	
l10508:	
;HMI.c: 211: pos--;
	movlw	low(-1)
	addwf	(_pos),f
	skipnc
	incf	(_pos+1),f
	movlw	high(-1)
	addwf	(_pos+1),f
	line	212
	
l10510:	
;HMI.c: 212: if (pos < 0)
	btfss	(_pos+1),7
	goto	u3771
	goto	u3770
u3771:
	goto	l10526
u3770:
	line	213
	
l10512:	
;HMI.c: 213: pos = 6 - 1;
	movlw	low(05h)
	movwf	(_pos)
	movlw	high(05h)
	movwf	((_pos))+1
	goto	l10526
	
l4543:	
	line	215
;HMI.c: 215: break;
	goto	l10526
	line	216
;HMI.c: 216: case 4:
	
l4544:	
	line	217
	
l10514:	
;HMI.c: 217: pos++;
	movlw	low(01h)
	addwf	(_pos),f
	skipnc
	incf	(_pos+1),f
	movlw	high(01h)
	addwf	(_pos+1),f
	line	218
;HMI.c: 218: if (pos == 6)
	movlw	06h
	xorwf	(_pos),w
	iorwf	(_pos+1),w
	skipz
	goto	u3781
	goto	u3780
u3781:
	goto	l10526
u3780:
	line	219
	
l10516:	
;HMI.c: 219: pos = 0;
	clrf	(_pos)
	clrf	(_pos+1)
	goto	l10526
	
l4545:	
	line	221
;HMI.c: 221: break;
	goto	l10526
	line	222
;HMI.c: 222: case 5:
	
l4546:	
	line	223
	
l10518:	
;HMI.c: 223: return pos;
	movf	(_pos),w
	goto	l4547
	
l10520:	
	goto	l4547
	line	226
;HMI.c: 226: default:
	
l4548:	
	line	228
;HMI.c: 228: break;
	goto	l10526
	line	229
	
l10522:	
;HMI.c: 229: }
	goto	l10526
	line	202
	
l4538:	
	
l10524:	
	movf	(Menu@BTN_input),w
	; Switch size 1, requested type "space"
; Number of cases is 5, Range of values is 1 to 5
; switch strategies available:
; Name         Instructions Cycles
; simple_byte           16     9 (average)
; direct_byte           26    11 (fixed)
; jumptable            263     9 (fixed)
;	Chosen strategy is simple_byte

	opt asmopt_off
	xorlw	1^0	; case 1
	skipnz
	goto	l10526
	xorlw	2^1	; case 2
	skipnz
	goto	l10526
	xorlw	3^2	; case 3
	skipnz
	goto	l10508
	xorlw	4^3	; case 4
	skipnz
	goto	l10514
	xorlw	5^4	; case 5
	skipnz
	goto	l10518
	goto	l10526
	opt asmopt_on

	line	229
	
l4540:	
	line	230
	
l10526:	
;HMI.c: 230: return 255;
	movlw	(0FFh)
	goto	l4547
	
l10528:	
	line	231
	
l4547:	
	return
	opt stack 0
GLOBAL	__end_of_Menu
	__end_of_Menu:
;; =============== function _Menu ends ============

	signat	_Menu,4217
	global	_ser_init
psect	text983,local,class=CODE,delta=2
global __ptext983
__ptext983:

;; *************** function _ser_init *****************
;; Defined at:
;;		line 113 in file "E:\Aldnoah.Zero\Assignment3\ser.c"
;; Parameters:    Size  Location     Type
;;		None
;; Auto vars:     Size  Location     Type
;;		None
;; Return value:  Size  Location     Type
;;		None               void
;; Registers used:
;;		wreg, status,2, status,0
;; Tracked objects:
;;		On entry : 0/0
;;		On exit  : 0/0
;;		Unchanged: 0/0
;; Data sizes:     COMMON   BANK0   BANK1   BANK3   BANK2
;;      Params:         0       0       0       0       0
;;      Locals:         0       0       0       0       0
;;      Temps:          0       1       0       0       0
;;      Totals:         0       1       0       0       0
;;Total ram usage:        1 bytes
;; Hardware stack levels used:    1
;; Hardware stack levels required when called:    3
;; This function calls:
;;		Nothing
;; This function is called by:
;;		_init
;; This function uses a non-reentrant model
;;
psect	text983
	file	"E:\Aldnoah.Zero\Assignment3\ser.c"
	line	113
	global	__size_of_ser_init
	__size_of_ser_init	equ	__end_of_ser_init-_ser_init
	
_ser_init:	
	opt	stack 3
; Regs used in _ser_init: [wreg+status,2+status,0]
	line	114
	
l10480:	
;ser.c: 114: TRISC |= 0b10000000;
	bsf	status, 5	;RP0=1, select bank1
	bcf	status, 6	;RP1=0, select bank1
	bsf	(135)^080h+(7/8),(7)&7	;volatile
	line	115
	
l10482:	
;ser.c: 115: TRISC &= 0b10111111;
	movlw	(0BFh)
	bcf	status, 5	;RP0=0, select bank0
	bcf	status, 6	;RP1=0, select bank0
	movwf	(??_ser_init+0)+0
	movf	(??_ser_init+0)+0,w
	bsf	status, 5	;RP0=1, select bank1
	bcf	status, 6	;RP1=0, select bank1
	andwf	(135)^080h,f	;volatile
	line	116
	
l10484:	
;ser.c: 116: BRGH=1;
	bsf	(1218/8)^080h,(1218)&7
	line	118
	
l10486:	
;ser.c: 118: SPBRG=20;
	movlw	(014h)
	movwf	(153)^080h	;volatile
	line	121
	
l10488:	
;ser.c: 121: TX9=0;
	bcf	(1222/8)^080h,(1222)&7
	line	122
	
l10490:	
;ser.c: 122: RX9=0;
	bcf	status, 5	;RP0=0, select bank0
	bcf	status, 6	;RP1=0, select bank0
	bcf	(198/8),(198)&7
	line	124
	
l10492:	
;ser.c: 124: SYNC=0;
	bsf	status, 5	;RP0=1, select bank1
	bcf	status, 6	;RP1=0, select bank1
	bcf	(1220/8)^080h,(1220)&7
	line	125
	
l10494:	
;ser.c: 125: SPEN=1;
	bcf	status, 5	;RP0=0, select bank0
	bcf	status, 6	;RP1=0, select bank0
	bsf	(199/8),(199)&7
	line	126
	
l10496:	
;ser.c: 126: CREN=1;
	bsf	(196/8),(196)&7
	line	127
	
l10498:	
;ser.c: 127: TXIE=0;
	bsf	status, 5	;RP0=1, select bank1
	bcf	status, 6	;RP1=0, select bank1
	bcf	(1124/8)^080h,(1124)&7
	line	128
	
l10500:	
;ser.c: 128: RCIE=1;
	bsf	(1125/8)^080h,(1125)&7
	line	129
	
l10502:	
;ser.c: 129: TXEN=1;
	bsf	(1221/8)^080h,(1221)&7
	line	132
	
l10504:	
;ser.c: 132: rxiptr=rxoptr=txiptr=txoptr=0;
	movlw	(0)
	bcf	status, 5	;RP0=0, select bank0
	bcf	status, 6	;RP1=0, select bank0
	movwf	(_txoptr)	;volatile
	movwf	(_txiptr)	;volatile
	movwf	(_rxoptr)	;volatile
	movwf	(??_ser_init+0)+0
	movf	(??_ser_init+0)+0,w
	movwf	(_rxiptr)	;volatile
	line	133
	
l6833:	
	return
	opt stack 0
GLOBAL	__end_of_ser_init
	__end_of_ser_init:
;; =============== function _ser_init ends ============

	signat	_ser_init,88
	global	_adc_read
psect	text984,local,class=CODE,delta=2
global __ptext984
__ptext984:

;; *************** function _adc_read *****************
;; Defined at:
;;		line 76 in file "E:\Aldnoah.Zero\Assignment3\adc.c"
;; Parameters:    Size  Location     Type
;;		None
;; Auto vars:     Size  Location     Type
;;  adc_value       2    4[BANK0 ] volatile unsigned int 
;; Return value:  Size  Location     Type
;;                  2    0[BANK0 ] unsigned int 
;; Registers used:
;;		wreg, status,2, status,0
;; Tracked objects:
;;		On entry : 0/0
;;		On exit  : 0/0
;;		Unchanged: 0/0
;; Data sizes:     COMMON   BANK0   BANK1   BANK3   BANK2
;;      Params:         0       2       0       0       0
;;      Locals:         0       2       0       0       0
;;      Temps:          0       2       0       0       0
;;      Totals:         0       6       0       0       0
;;Total ram usage:        6 bytes
;; Hardware stack levels used:    1
;; Hardware stack levels required when called:    3
;; This function calls:
;;		Nothing
;; This function is called by:
;;		_adc_read_channel
;; This function uses a non-reentrant model
;;
psect	text984
	file	"E:\Aldnoah.Zero\Assignment3\adc.c"
	line	76
	global	__size_of_adc_read
	__size_of_adc_read	equ	__end_of_adc_read-_adc_read
	
_adc_read:	
	opt	stack 0
; Regs used in _adc_read: [wreg+status,2+status,0]
	line	79
	
l10360:	
;adc.c: 77: volatile unsigned int adc_value;
;adc.c: 79: ADRESH = 0;
	bcf	status, 5	;RP0=0, select bank0
	bcf	status, 6	;RP1=0, select bank0
	clrf	(30)	;volatile
	line	81
	
l10362:	
;adc.c: 81: GO = 1;
	bsf	(250/8),(250)&7
	line	82
;adc.c: 82: while(GO) continue;
	goto	l703
	
l704:	
	
l703:	
	btfsc	(250/8),(250)&7
	goto	u3581
	goto	u3580
u3581:
	goto	l703
u3580:
	
l705:	
	line	83
# 83 "E:\Aldnoah.Zero\Assignment3\adc.c"
nop ;#
	line	84
# 84 "E:\Aldnoah.Zero\Assignment3\adc.c"
nop ;#
	line	85
# 85 "E:\Aldnoah.Zero\Assignment3\adc.c"
nop ;#
psect	text984
	line	88
	
l10364:	
;adc.c: 88: adc_value = ADRESH;
	bcf	status, 5	;RP0=0, select bank0
	bcf	status, 6	;RP1=0, select bank0
	movf	(30),w	;volatile
	movwf	(??_adc_read+0)+0
	clrf	(??_adc_read+0)+0+1
	movf	0+(??_adc_read+0)+0,w
	movwf	(adc_read@adc_value)	;volatile
	movf	1+(??_adc_read+0)+0,w
	movwf	(adc_read@adc_value+1)	;volatile
	line	89
;adc.c: 89: adc_value <<= 1;
	movlw	01h
	
u3595:
	clrc
	rlf	(adc_read@adc_value),f	;volatile
	rlf	(adc_read@adc_value+1),f	;volatile
	addlw	-1
	skipz
	goto	u3595
	line	90
;adc.c: 90: adc_value |= (ADRESL >> 15);
	bsf	status, 5	;RP0=1, select bank1
	bcf	status, 6	;RP1=0, select bank1
	movf	(158)^080h,w	;volatile
	line	93
	
l10366:	
;adc.c: 93: return (adc_value);
	bcf	status, 5	;RP0=0, select bank0
	bcf	status, 6	;RP1=0, select bank0
	movf	(adc_read@adc_value+1),w	;volatile
	clrf	(?_adc_read+1)
	addwf	(?_adc_read+1)
	movf	(adc_read@adc_value),w	;volatile
	clrf	(?_adc_read)
	addwf	(?_adc_read)

	goto	l706
	
l10368:	
	line	94
	
l706:	
	return
	opt stack 0
GLOBAL	__end_of_adc_read
	__end_of_adc_read:
;; =============== function _adc_read ends ============

	signat	_adc_read,90
	global	_isr1
psect	text985,local,class=CODE,delta=2
global __ptext985
__ptext985:

;; *************** function _isr1 *****************
;; Defined at:
;;		line 109 in file "E:\Aldnoah.Zero\Assignment3\Main.c"
;; Parameters:    Size  Location     Type
;;		None
;; Auto vars:     Size  Location     Type
;;		None
;; Return value:  Size  Location     Type
;;		None               void
;; Registers used:
;;		wreg, fsr0l, fsr0h, fsr1l, fsr1h, status,2, status,0, btemp+1, pclath, cstack
;; Tracked objects:
;;		On entry : 0/0
;;		On exit  : 0/0
;;		Unchanged: 0/0
;; Data sizes:     COMMON   BANK0   BANK1   BANK3   BANK2
;;      Params:         0       0       0       0       0
;;      Locals:         0       0       0       0       0
;;      Temps:          5       0       0       0       0
;;      Totals:         5       0       0       0       0
;;Total ram usage:        5 bytes
;; Hardware stack levels used:    1
;; Hardware stack levels required when called:    2
;; This function calls:
;;		i1___lwmod
;;		_ReadButtons
;; This function is called by:
;;		Interrupt level 1
;; This function uses a non-reentrant model
;;
psect	text985
	file	"E:\Aldnoah.Zero\Assignment3\Main.c"
	line	109
	global	__size_of_isr1
	__size_of_isr1	equ	__end_of_isr1-_isr1
	
_isr1:	
	opt	stack 0
; Regs used in _isr1: [allreg]
psect	intentry,class=CODE,delta=2
global __pintentry
__pintentry:
global interrupt_function
interrupt_function:
	global saved_w
	saved_w	set	btemp+0
	movwf	saved_w
	swapf	status,w
	movwf	(??_isr1+1)
	movf	fsr0,w
	movwf	(??_isr1+2)
	movf	pclath,w
	movwf	(??_isr1+3)
	bcf	status, 5	;RP0=0, select bank0
	bcf	status, 6	;RP1=0, select bank0
	movf	btemp+1,w
	movwf	(??_isr1+4)
	ljmp	_isr1
psect	text985
	line	110
	
i1l10396:	
;Main.c: 110: if(TMR0IF)
	btfss	(90/8),(90)&7
	goto	u363_21
	goto	u363_20
u363_21:
	goto	i1l10418
u363_20:
	line	112
	
i1l10398:	
;Main.c: 111: {
;Main.c: 112: TMR0IF = 0;
	bcf	(90/8),(90)&7
	line	113
	
i1l10400:	
;Main.c: 113: TMR0 = 100;
	movlw	(064h)
	movwf	(1)	;volatile
	line	115
;Main.c: 115: RTC_Counter++;
	movlw	low(01h)
	bsf	status, 5	;RP0=1, select bank1
	bcf	status, 6	;RP1=0, select bank1
	addwf	(_RTC_Counter)^080h,f	;volatile
	skipnc
	incf	(_RTC_Counter+1)^080h,f	;volatile
	movlw	high(01h)
	addwf	(_RTC_Counter+1)^080h,f	;volatile
	line	118
	
i1l10402:	
;Main.c: 118: RTC_FLAG_1MS = 1;
	bsf	(_RTC_FLAG_1MS/8),(_RTC_FLAG_1MS)&7
	line	119
	
i1l10404:	
;Main.c: 119: if(RTC_Counter % 250 == 0)
	movlw	low(0FAh)
	movwf	(?i1___lwmod)
	movlw	high(0FAh)
	movwf	((?i1___lwmod))+1
	movf	(_RTC_Counter+1)^080h,w	;volatile
	clrf	1+(?i1___lwmod)+02h
	addwf	1+(?i1___lwmod)+02h
	movf	(_RTC_Counter)^080h,w	;volatile
	clrf	0+(?i1___lwmod)+02h
	addwf	0+(?i1___lwmod)+02h

	fcall	i1___lwmod
	movf	((1+(?i1___lwmod))),w
	iorwf	((0+(?i1___lwmod))),w
	skipz
	goto	u364_21
	goto	u364_20
u364_21:
	goto	i1l10408
u364_20:
	line	121
	
i1l10406:	
;Main.c: 120: {
;Main.c: 121: RTC_FLAG_250MS = 1;
	bsf	(_RTC_FLAG_250MS/8),(_RTC_FLAG_250MS)&7
	goto	i1l10408
	line	122
	
i1l2221:	
	line	123
	
i1l10408:	
;Main.c: 122: }
;Main.c: 123: if(RTC_Counter % 500 == 0)
	movlw	low(01F4h)
	movwf	(?i1___lwmod)
	movlw	high(01F4h)
	movwf	((?i1___lwmod))+1
	bsf	status, 5	;RP0=1, select bank1
	bcf	status, 6	;RP1=0, select bank1
	movf	(_RTC_Counter+1)^080h,w	;volatile
	clrf	1+(?i1___lwmod)+02h
	addwf	1+(?i1___lwmod)+02h
	movf	(_RTC_Counter)^080h,w	;volatile
	clrf	0+(?i1___lwmod)+02h
	addwf	0+(?i1___lwmod)+02h

	fcall	i1___lwmod
	movf	((1+(?i1___lwmod))),w
	iorwf	((0+(?i1___lwmod))),w
	skipz
	goto	u365_21
	goto	u365_20
u365_21:
	goto	i1l10414
u365_20:
	line	125
	
i1l10410:	
;Main.c: 124: {
;Main.c: 125: RTC_FLAG_500MS = 1;
	bsf	(_RTC_FLAG_500MS/8),(_RTC_FLAG_500MS)&7
	line	126
	
i1l10412:	
;Main.c: 126: RB0 ^= 0x01;
	bcf	status, 5	;RP0=0, select bank0
	bcf	status, 6	;RP1=0, select bank0
	movlw	1<<((48)&7)
	xorwf	((48)/8),f
	goto	i1l10414
	line	127
	
i1l2222:	
	line	128
	
i1l10414:	
;Main.c: 127: }
;Main.c: 128: if (buttonPressed == 0)
	movf	(_buttonPressed),f
	skipz	;volatile
	goto	u366_21
	goto	u366_20
u366_21:
	goto	i1l10418
u366_20:
	line	130
	
i1l10416:	
;Main.c: 129: {
;Main.c: 130: buttonPressed = ReadButtons();
	fcall	_ReadButtons
	movwf	(??_isr1+0)+0
	movf	(??_isr1+0)+0,w
	movwf	(_buttonPressed)	;volatile
	goto	i1l10418
	line	131
	
i1l2223:	
	goto	i1l10418
	line	132
	
i1l2220:	
	line	133
	
i1l10418:	
;Main.c: 131: }
;Main.c: 132: }
;Main.c: 133: if (RCIF) { rxfifo[rxiptr]=RCREG; ser_tmp=(rxiptr+1) & (16-1); if (ser_tmp!=rxoptr) rxiptr=ser_tmp; } if (TXIF && TXIE) { TXREG = txfifo[txoptr]; ++txoptr; txoptr &= (16-1); if (txoptr==txiptr) { TXIE = 0; } };
	bcf	status, 5	;RP0=0, select bank0
	bcf	status, 6	;RP1=0, select bank0
	btfss	(101/8),(101)&7
	goto	u367_21
	goto	u367_20
u367_21:
	goto	i1l10428
u367_20:
	
i1l10420:	
	movf	(26),w	;volatile
	movwf	(??_isr1+0)+0
	movf	(_rxiptr),w
	addlw	_rxfifo&0ffh
	movwf	fsr0
	movf	(??_isr1+0)+0,w
	bcf	status, 7	;select IRP bank1
	movwf	indf
	
i1l10422:	
	movf	(_rxiptr),w	;volatile
	addlw	01h
	andlw	0Fh
	movwf	(??_isr1+0)+0
	movf	(??_isr1+0)+0,w
	bsf	status, 5	;RP0=1, select bank1
	bcf	status, 6	;RP1=0, select bank1
	movwf	(_ser_tmp)^080h
	
i1l10424:	
	movf	(_ser_tmp)^080h,w
	bcf	status, 5	;RP0=0, select bank0
	bcf	status, 6	;RP1=0, select bank0
	xorwf	(_rxoptr),w	;volatile
	skipnz
	goto	u368_21
	goto	u368_20
u368_21:
	goto	i1l10428
u368_20:
	
i1l10426:	
	bsf	status, 5	;RP0=1, select bank1
	bcf	status, 6	;RP1=0, select bank1
	movf	(_ser_tmp)^080h,w
	movwf	(??_isr1+0)+0
	movf	(??_isr1+0)+0,w
	bcf	status, 5	;RP0=0, select bank0
	bcf	status, 6	;RP1=0, select bank0
	movwf	(_rxiptr)	;volatile
	goto	i1l10428
	
i1l2225:	
	goto	i1l10428
	
i1l2224:	
	
i1l10428:	
	btfss	(100/8),(100)&7
	goto	u369_21
	goto	u369_20
u369_21:
	goto	i1l2228
u369_20:
	
i1l10430:	
	bsf	status, 5	;RP0=1, select bank1
	bcf	status, 6	;RP1=0, select bank1
	btfss	(1124/8)^080h,(1124)&7
	goto	u370_21
	goto	u370_20
u370_21:
	goto	i1l2228
u370_20:
	
i1l10432:	
	bcf	status, 5	;RP0=0, select bank0
	bcf	status, 6	;RP1=0, select bank0
	movf	(_txoptr),w
	addlw	_txfifo&0ffh
	movwf	fsr0
	bsf	status, 7	;select IRP bank3
	movf	indf,w
	movwf	(25)	;volatile
	
i1l10434:	
	movlw	(01h)
	movwf	(??_isr1+0)+0
	movf	(??_isr1+0)+0,w
	addwf	(_txoptr),f	;volatile
	
i1l10436:	
	movlw	(0Fh)
	movwf	(??_isr1+0)+0
	movf	(??_isr1+0)+0,w
	andwf	(_txoptr),f	;volatile
	
i1l10438:	
	movf	(_txoptr),w	;volatile
	xorwf	(_txiptr),w	;volatile
	skipz
	goto	u371_21
	goto	u371_20
u371_21:
	goto	i1l2228
u371_20:
	
i1l10440:	
	bsf	status, 5	;RP0=1, select bank1
	bcf	status, 6	;RP1=0, select bank1
	bcf	(1124/8)^080h,(1124)&7
	goto	i1l2228
	
i1l2227:	
	goto	i1l2228
	
i1l2226:	
	line	134
	
i1l2228:	
	movf	(??_isr1+4),w
	bcf	status, 5	;RP0=0, select bank0
	movwf	btemp+1
	movf	(??_isr1+3),w
	movwf	pclath
	movf	(??_isr1+2),w
	movwf	fsr0
	swapf	(??_isr1+1)^0FFFFFF80h,w
	movwf	status
	swapf	saved_w,f
	swapf	saved_w,w
	retfie
	opt stack 0
GLOBAL	__end_of_isr1
	__end_of_isr1:
;; =============== function _isr1 ends ============

	signat	_isr1,88
	global	_ReadButtons
psect	text986,local,class=CODE,delta=2
global __ptext986
__ptext986:

;; *************** function _ReadButtons *****************
;; Defined at:
;;		line 159 in file "E:\Aldnoah.Zero\Assignment3\HMI.c"
;; Parameters:    Size  Location     Type
;;		None
;; Auto vars:     Size  Location     Type
;;		None
;; Return value:  Size  Location     Type
;;                  1    wreg      unsigned char 
;; Registers used:
;;		wreg, status,2, status,0, pclath, cstack
;; Tracked objects:
;;		On entry : 0/0
;;		On exit  : 0/0
;;		Unchanged: 0/0
;; Data sizes:     COMMON   BANK0   BANK1   BANK3   BANK2
;;      Params:         0       0       0       0       0
;;      Locals:         0       0       0       0       0
;;      Temps:          0       0       0       0       0
;;      Totals:         0       0       0       0       0
;;Total ram usage:        0 bytes
;; Hardware stack levels used:    1
;; Hardware stack levels required when called:    1
;; This function calls:
;;		_Debounce
;; This function is called by:
;;		_isr1
;; This function uses a non-reentrant model
;;
psect	text986
	file	"E:\Aldnoah.Zero\Assignment3\HMI.c"
	line	159
	global	__size_of_ReadButtons
	__size_of_ReadButtons	equ	__end_of_ReadButtons-_ReadButtons
	
_ReadButtons:	
	opt	stack 0
; Regs used in _ReadButtons: [wreg+status,2+status,0+pclath+cstack]
	line	161
	
i1l10442:	
;HMI.c: 161: Debounce();
	fcall	_Debounce
	line	163
	
i1l10444:	
;HMI.c: 163: if(UpPressed)
	btfss	(_UpPressed/8),(_UpPressed)&7
	goto	u372_21
	goto	u372_20
u372_21:
	goto	i1l4530
u372_20:
	line	165
	
i1l10446:	
;HMI.c: 164: {
;HMI.c: 165: UpPressed = 0;
	bcf	(_UpPressed/8),(_UpPressed)&7
	line	166
	
i1l10448:	
;HMI.c: 166: return 1;
	movlw	(01h)
	goto	i1l4531
	
i1l10450:	
	goto	i1l4531
	line	168
	
i1l4530:	
	line	170
;HMI.c: 168: }
;HMI.c: 170: if(DownPressed)
	btfss	(_DownPressed/8),(_DownPressed)&7
	goto	u373_21
	goto	u373_20
u373_21:
	goto	i1l4532
u373_20:
	line	172
	
i1l10452:	
;HMI.c: 171: {
;HMI.c: 172: DownPressed = 0;
	bcf	(_DownPressed/8),(_DownPressed)&7
	line	173
	
i1l10454:	
;HMI.c: 173: return 2;
	movlw	(02h)
	goto	i1l4531
	
i1l10456:	
	goto	i1l4531
	line	175
	
i1l4532:	
	line	176
;HMI.c: 175: }
;HMI.c: 176: if(LeftPressed)
	btfss	(_LeftPressed/8),(_LeftPressed)&7
	goto	u374_21
	goto	u374_20
u374_21:
	goto	i1l4533
u374_20:
	line	178
	
i1l10458:	
;HMI.c: 177: {
;HMI.c: 178: LeftPressed = 0;
	bcf	(_LeftPressed/8),(_LeftPressed)&7
	line	179
	
i1l10460:	
;HMI.c: 179: return 3;
	movlw	(03h)
	goto	i1l4531
	
i1l10462:	
	goto	i1l4531
	line	181
	
i1l4533:	
	line	182
;HMI.c: 181: }
;HMI.c: 182: if(RightPressed)
	btfss	(_RightPressed/8),(_RightPressed)&7
	goto	u375_21
	goto	u375_20
u375_21:
	goto	i1l4534
u375_20:
	line	184
	
i1l10464:	
;HMI.c: 183: {
;HMI.c: 184: RightPressed = 0;
	bcf	(_RightPressed/8),(_RightPressed)&7
	line	185
	
i1l10466:	
;HMI.c: 185: return 4;
	movlw	(04h)
	goto	i1l4531
	
i1l10468:	
	goto	i1l4531
	line	187
	
i1l4534:	
	line	189
;HMI.c: 187: }
;HMI.c: 189: if(CenterPressed)
	btfss	(_CenterPressed/8),(_CenterPressed)&7
	goto	u376_21
	goto	u376_20
u376_21:
	goto	i1l10476
u376_20:
	line	191
	
i1l10470:	
;HMI.c: 190: {
;HMI.c: 191: CenterPressed = 0;
	bcf	(_CenterPressed/8),(_CenterPressed)&7
	line	192
	
i1l10472:	
;HMI.c: 192: return 5;
	movlw	(05h)
	goto	i1l4531
	
i1l10474:	
	goto	i1l4531
	line	194
	
i1l4535:	
	line	195
	
i1l10476:	
;HMI.c: 194: }
;HMI.c: 195: return 0;
	movlw	(0)
	goto	i1l4531
	
i1l10478:	
	line	196
	
i1l4531:	
	return
	opt stack 0
GLOBAL	__end_of_ReadButtons
	__end_of_ReadButtons:
;; =============== function _ReadButtons ends ============

	signat	_ReadButtons,89
	global	i1___lwmod
psect	text987,local,class=CODE,delta=2
global __ptext987
__ptext987:

;; *************** function i1___lwmod *****************
;; Defined at:
;;		line 5 in file "C:\Program Files\HI-TECH Software\PICC\9.83\sources\lwmod.c"
;; Parameters:    Size  Location     Type
;;  __lwmod         2    0[COMMON] unsigned int 
;;  __lwmod         2    2[COMMON] unsigned int 
;; Auto vars:     Size  Location     Type
;;  __lwmod         1    5[COMMON] unsigned char 
;; Return value:  Size  Location     Type
;;                  2    0[COMMON] unsigned int 
;; Registers used:
;;		wreg, status,2, status,0
;; Tracked objects:
;;		On entry : 0/0
;;		On exit  : 0/0
;;		Unchanged: 0/0
;; Data sizes:     COMMON   BANK0   BANK1   BANK3   BANK2
;;      Params:         4       0       0       0       0
;;      Locals:         1       0       0       0       0
;;      Temps:          1       0       0       0       0
;;      Totals:         6       0       0       0       0
;;Total ram usage:        6 bytes
;; Hardware stack levels used:    1
;; This function calls:
;;		Nothing
;; This function is called by:
;;		_isr1
;; This function uses a non-reentrant model
;;
psect	text987
	file	"C:\Program Files\HI-TECH Software\PICC\9.83\sources\lwmod.c"
	line	5
	global	__size_ofi1___lwmod
	__size_ofi1___lwmod	equ	__end_ofi1___lwmod-i1___lwmod
	
i1___lwmod:	
	opt	stack 1
; Regs used in i1___lwmod: [wreg+status,2+status,0]
	line	8
	
i1l10802:	
	movf	(i1___lwmod@divisor+1),w
	iorwf	(i1___lwmod@divisor),w
	skipnz
	goto	u447_21
	goto	u447_20
u447_21:
	goto	i1l10820
u447_20:
	line	9
	
i1l10804:	
	clrf	(i1___lwmod@counter)
	bsf	status,0
	rlf	(i1___lwmod@counter),f
	line	10
	goto	i1l10810
	
i1l7562:	
	line	11
	
i1l10806:	
	movlw	01h
	
u448_25:
	clrc
	rlf	(i1___lwmod@divisor),f
	rlf	(i1___lwmod@divisor+1),f
	addlw	-1
	skipz
	goto	u448_25
	line	12
	
i1l10808:	
	movlw	(01h)
	movwf	(??i1___lwmod+0)+0
	movf	(??i1___lwmod+0)+0,w
	addwf	(i1___lwmod@counter),f
	goto	i1l10810
	line	13
	
i1l7561:	
	line	10
	
i1l10810:	
	btfss	(i1___lwmod@divisor+1),(15)&7
	goto	u449_21
	goto	u449_20
u449_21:
	goto	i1l10806
u449_20:
	goto	i1l10812
	
i1l7563:	
	goto	i1l10812
	line	14
	
i1l7564:	
	line	15
	
i1l10812:	
	movf	(i1___lwmod@divisor+1),w
	subwf	(i1___lwmod@dividend+1),w
	skipz
	goto	u450_25
	movf	(i1___lwmod@divisor),w
	subwf	(i1___lwmod@dividend),w
u450_25:
	skipc
	goto	u450_21
	goto	u450_20
u450_21:
	goto	i1l10816
u450_20:
	line	16
	
i1l10814:	
	movf	(i1___lwmod@divisor),w
	subwf	(i1___lwmod@dividend),f
	movf	(i1___lwmod@divisor+1),w
	skipc
	decf	(i1___lwmod@dividend+1),f
	subwf	(i1___lwmod@dividend+1),f
	goto	i1l10816
	
i1l7565:	
	line	17
	
i1l10816:	
	movlw	01h
	
u451_25:
	clrc
	rrf	(i1___lwmod@divisor+1),f
	rrf	(i1___lwmod@divisor),f
	addlw	-1
	skipz
	goto	u451_25
	line	18
	
i1l10818:	
	movlw	low(01h)
	subwf	(i1___lwmod@counter),f
	btfss	status,2
	goto	u452_21
	goto	u452_20
u452_21:
	goto	i1l10812
u452_20:
	goto	i1l10820
	
i1l7566:	
	goto	i1l10820
	line	19
	
i1l7560:	
	line	20
	
i1l10820:	
	movf	(i1___lwmod@dividend+1),w
	clrf	(?i1___lwmod+1)
	addwf	(?i1___lwmod+1)
	movf	(i1___lwmod@dividend),w
	clrf	(?i1___lwmod)
	addwf	(?i1___lwmod)

	goto	i1l7567
	
i1l10822:	
	line	21
	
i1l7567:	
	return
	opt stack 0
GLOBAL	__end_ofi1___lwmod
	__end_ofi1___lwmod:
;; =============== function i1___lwmod ends ============

	signat	i1___lwmod,90
	global	_Debounce
psect	text988,local,class=CODE,delta=2
global __ptext988
__ptext988:

;; *************** function _Debounce *****************
;; Defined at:
;;		line 77 in file "E:\Aldnoah.Zero\Assignment3\HMI.c"
;; Parameters:    Size  Location     Type
;;		None
;; Auto vars:     Size  Location     Type
;;		None
;; Return value:  Size  Location     Type
;;		None               void
;; Registers used:
;;		wreg, status,2, status,0
;; Tracked objects:
;;		On entry : 0/0
;;		On exit  : 0/0
;;		Unchanged: 0/0
;; Data sizes:     COMMON   BANK0   BANK1   BANK3   BANK2
;;      Params:         0       0       0       0       0
;;      Locals:         0       0       0       0       0
;;      Temps:          1       0       0       0       0
;;      Totals:         1       0       0       0       0
;;Total ram usage:        1 bytes
;; Hardware stack levels used:    1
;; This function calls:
;;		Nothing
;; This function is called by:
;;		_ReadButtons
;; This function uses a non-reentrant model
;;
psect	text988
	file	"E:\Aldnoah.Zero\Assignment3\HMI.c"
	line	77
	global	__size_of_Debounce
	__size_of_Debounce	equ	__end_of_Debounce-_Debounce
	
_Debounce:	
	opt	stack 0
; Regs used in _Debounce: [wreg+status,2+status,0]
	line	79
	
i1l10618:	
;HMI.c: 79: if(!RB2)
	bcf	status, 5	;RP0=0, select bank0
	bcf	status, 6	;RP1=0, select bank0
	btfsc	(50/8),(50)&7
	goto	u399_21
	goto	u399_20
u399_21:
	goto	i1l4512
u399_20:
	line	81
	
i1l10620:	
;HMI.c: 80: {
;HMI.c: 81: UpDebounceCount++;
	movlw	(01h)
	movwf	(??_Debounce+0)+0
	movf	(??_Debounce+0)+0,w
	bsf	status, 5	;RP0=1, select bank1
	bcf	status, 6	;RP1=0, select bank1
	addwf	(_UpDebounceCount)^080h,f	;volatile
	line	82
	
i1l10622:	
;HMI.c: 82: if(UpDebounceCount >= 10 & UpReleased)
	movlw	(0Ah)
	subwf	(_UpDebounceCount)^080h,w	;volatile
	skipc
	goto	u400_21
	goto	u400_20
u400_21:
	goto	i1l4514
u400_20:
	
i1l10624:	
	btfss	(_UpReleased/8),(_UpReleased)&7
	goto	u401_21
	goto	u401_20
u401_21:
	goto	i1l4514
u401_20:
	line	84
	
i1l10626:	
;HMI.c: 83: {
;HMI.c: 84: UpPressed = 1;
	bsf	(_UpPressed/8),(_UpPressed)&7
	line	85
;HMI.c: 85: UpReleased = 0;
	bcf	(_UpReleased/8),(_UpReleased)&7
	goto	i1l4514
	line	86
	
i1l4513:	
	line	87
;HMI.c: 86: }
;HMI.c: 87: }
	goto	i1l4514
	line	88
	
i1l4512:	
	line	90
;HMI.c: 88: else
;HMI.c: 89: {
;HMI.c: 90: UpDebounceCount = 0;
	bsf	status, 5	;RP0=1, select bank1
	bcf	status, 6	;RP1=0, select bank1
	clrf	(_UpDebounceCount)^080h	;volatile
	line	91
;HMI.c: 91: UpReleased = 1;
	bsf	(_UpReleased/8),(_UpReleased)&7
	line	92
	
i1l4514:	
	line	95
;HMI.c: 92: }
;HMI.c: 95: if(!RB3)
	bcf	status, 5	;RP0=0, select bank0
	bcf	status, 6	;RP1=0, select bank0
	btfsc	(51/8),(51)&7
	goto	u402_21
	goto	u402_20
u402_21:
	goto	i1l4515
u402_20:
	line	97
	
i1l10628:	
;HMI.c: 96: {
;HMI.c: 97: DownDebounceCount++;
	movlw	(01h)
	movwf	(??_Debounce+0)+0
	movf	(??_Debounce+0)+0,w
	bsf	status, 5	;RP0=1, select bank1
	bcf	status, 6	;RP1=0, select bank1
	addwf	(_DownDebounceCount)^080h,f	;volatile
	line	98
	
i1l10630:	
;HMI.c: 98: if(DownDebounceCount >= 10 & DownReleased)
	movlw	(0Ah)
	subwf	(_DownDebounceCount)^080h,w	;volatile
	skipc
	goto	u403_21
	goto	u403_20
u403_21:
	goto	i1l4517
u403_20:
	
i1l10632:	
	btfss	(_DownReleased/8),(_DownReleased)&7
	goto	u404_21
	goto	u404_20
u404_21:
	goto	i1l4517
u404_20:
	line	100
	
i1l10634:	
;HMI.c: 99: {
;HMI.c: 100: DownPressed = 1;
	bsf	(_DownPressed/8),(_DownPressed)&7
	line	101
;HMI.c: 101: DownReleased = 0;
	bcf	(_DownReleased/8),(_DownReleased)&7
	goto	i1l4517
	line	102
	
i1l4516:	
	line	103
;HMI.c: 102: }
;HMI.c: 103: }
	goto	i1l4517
	line	104
	
i1l4515:	
	line	106
;HMI.c: 104: else
;HMI.c: 105: {
;HMI.c: 106: DownDebounceCount = 0;
	bsf	status, 5	;RP0=1, select bank1
	bcf	status, 6	;RP1=0, select bank1
	clrf	(_DownDebounceCount)^080h	;volatile
	line	107
;HMI.c: 107: DownReleased = 1;
	bsf	(_DownReleased/8),(_DownReleased)&7
	line	108
	
i1l4517:	
	line	110
;HMI.c: 108: }
;HMI.c: 110: if(!RB4)
	bcf	status, 5	;RP0=0, select bank0
	bcf	status, 6	;RP1=0, select bank0
	btfsc	(52/8),(52)&7
	goto	u405_21
	goto	u405_20
u405_21:
	goto	i1l4518
u405_20:
	line	112
	
i1l10636:	
;HMI.c: 111: {
;HMI.c: 112: LeftDebounceCount++;
	movlw	(01h)
	movwf	(??_Debounce+0)+0
	movf	(??_Debounce+0)+0,w
	bsf	status, 5	;RP0=1, select bank1
	bcf	status, 6	;RP1=0, select bank1
	addwf	(_LeftDebounceCount)^080h,f	;volatile
	line	113
	
i1l10638:	
;HMI.c: 113: if(LeftDebounceCount >= 10 & LeftReleased)
	movlw	(0Ah)
	subwf	(_LeftDebounceCount)^080h,w	;volatile
	skipc
	goto	u406_21
	goto	u406_20
u406_21:
	goto	i1l4520
u406_20:
	
i1l10640:	
	btfss	(_LeftReleased/8),(_LeftReleased)&7
	goto	u407_21
	goto	u407_20
u407_21:
	goto	i1l4520
u407_20:
	line	115
	
i1l10642:	
;HMI.c: 114: {
;HMI.c: 115: LeftPressed = 1;
	bsf	(_LeftPressed/8),(_LeftPressed)&7
	line	116
;HMI.c: 116: LeftReleased = 0;
	bcf	(_LeftReleased/8),(_LeftReleased)&7
	goto	i1l4520
	line	117
	
i1l4519:	
	line	118
;HMI.c: 117: }
;HMI.c: 118: }
	goto	i1l4520
	line	119
	
i1l4518:	
	line	121
;HMI.c: 119: else
;HMI.c: 120: {
;HMI.c: 121: LeftDebounceCount = 0;
	bsf	status, 5	;RP0=1, select bank1
	bcf	status, 6	;RP1=0, select bank1
	clrf	(_LeftDebounceCount)^080h	;volatile
	line	122
;HMI.c: 122: LeftReleased = 1;
	bsf	(_LeftReleased/8),(_LeftReleased)&7
	line	123
	
i1l4520:	
	line	125
;HMI.c: 123: }
;HMI.c: 125: if(!RB5)
	bcf	status, 5	;RP0=0, select bank0
	bcf	status, 6	;RP1=0, select bank0
	btfsc	(53/8),(53)&7
	goto	u408_21
	goto	u408_20
u408_21:
	goto	i1l4521
u408_20:
	line	127
	
i1l10644:	
;HMI.c: 126: {
;HMI.c: 127: RightDebounceCount++;
	movlw	(01h)
	movwf	(??_Debounce+0)+0
	movf	(??_Debounce+0)+0,w
	bsf	status, 5	;RP0=1, select bank1
	bcf	status, 6	;RP1=0, select bank1
	addwf	(_RightDebounceCount)^080h,f	;volatile
	line	128
	
i1l10646:	
;HMI.c: 128: if(RightDebounceCount >= 10 & RightReleased)
	movlw	(0Ah)
	subwf	(_RightDebounceCount)^080h,w	;volatile
	skipc
	goto	u409_21
	goto	u409_20
u409_21:
	goto	i1l4523
u409_20:
	
i1l10648:	
	btfss	(_RightReleased/8),(_RightReleased)&7
	goto	u410_21
	goto	u410_20
u410_21:
	goto	i1l4523
u410_20:
	line	130
	
i1l10650:	
;HMI.c: 129: {
;HMI.c: 130: RightPressed = 1;
	bsf	(_RightPressed/8),(_RightPressed)&7
	line	131
;HMI.c: 131: RightReleased = 0;
	bcf	(_RightReleased/8),(_RightReleased)&7
	goto	i1l4523
	line	132
	
i1l4522:	
	line	133
;HMI.c: 132: }
;HMI.c: 133: }
	goto	i1l4523
	line	134
	
i1l4521:	
	line	136
;HMI.c: 134: else
;HMI.c: 135: {
;HMI.c: 136: RightDebounceCount = 0;
	bsf	status, 5	;RP0=1, select bank1
	bcf	status, 6	;RP1=0, select bank1
	clrf	(_RightDebounceCount)^080h	;volatile
	line	137
;HMI.c: 137: RightReleased = 1;
	bsf	(_RightReleased/8),(_RightReleased)&7
	line	138
	
i1l4523:	
	line	140
;HMI.c: 138: }
;HMI.c: 140: if(!RB6)
	bcf	status, 5	;RP0=0, select bank0
	bcf	status, 6	;RP1=0, select bank0
	btfsc	(54/8),(54)&7
	goto	u411_21
	goto	u411_20
u411_21:
	goto	i1l4524
u411_20:
	line	142
	
i1l10652:	
;HMI.c: 141: {
;HMI.c: 142: CenterDebounceCount++;
	movlw	(01h)
	movwf	(??_Debounce+0)+0
	movf	(??_Debounce+0)+0,w
	bsf	status, 5	;RP0=1, select bank1
	bcf	status, 6	;RP1=0, select bank1
	addwf	(_CenterDebounceCount)^080h,f	;volatile
	line	143
	
i1l10654:	
;HMI.c: 143: if(CenterDebounceCount >= 10 & CenterReleased)
	movlw	(0Ah)
	subwf	(_CenterDebounceCount)^080h,w	;volatile
	skipc
	goto	u412_21
	goto	u412_20
u412_21:
	goto	i1l4527
u412_20:
	
i1l10656:	
	btfss	(_CenterReleased/8),(_CenterReleased)&7
	goto	u413_21
	goto	u413_20
u413_21:
	goto	i1l4527
u413_20:
	line	145
	
i1l10658:	
;HMI.c: 144: {
;HMI.c: 145: CenterPressed = 1;
	bsf	(_CenterPressed/8),(_CenterPressed)&7
	line	146
;HMI.c: 146: CenterReleased = 0;
	bcf	(_CenterReleased/8),(_CenterReleased)&7
	goto	i1l4527
	line	147
	
i1l4525:	
	line	148
;HMI.c: 147: }
;HMI.c: 148: }
	goto	i1l4527
	line	149
	
i1l4524:	
	line	151
;HMI.c: 149: else
;HMI.c: 150: {
;HMI.c: 151: CenterDebounceCount = 0;
	bsf	status, 5	;RP0=1, select bank1
	bcf	status, 6	;RP1=0, select bank1
	clrf	(_CenterDebounceCount)^080h	;volatile
	line	152
;HMI.c: 152: CenterReleased = 1;
	bsf	(_CenterReleased/8),(_CenterReleased)&7
	goto	i1l4527
	line	153
	
i1l4526:	
	line	154
	
i1l4527:	
	return
	opt stack 0
GLOBAL	__end_of_Debounce
	__end_of_Debounce:
;; =============== function _Debounce ends ============

	signat	_Debounce,88
psect	text989,local,class=CODE,delta=2
global __ptext989
__ptext989:
	global	btemp
	btemp set 07Eh

	DABS	1,126,2	;btemp
	global	wtemp0
	wtemp0 set btemp
	end
