HI-TECH Software C Compiler 

Linker command line:

--edf=C:\Program Files\HI-TECH Software\PICC\9.83\dat\en_msgs.txt -cs \
  -h+Assignment3_AldnoahZero.sym -z -Q16F877A -ol.obj \
  -MAssignment3_AldnoahZero.map -E1 -ACONST=00h-0FFhx32 -ACODE=00h-07FFhx4 \
  -ASTRCODE=00h-01FFFh -AENTRY=00h-0FFhx32 -ASTRING=00h-0FFhx32 \
  -ABANK0=020h-06Fh -ABANK1=0A0h-0EFh -ABANK2=0110h-016Fh \
  -ABANK3=0190h-01EFh -ARAM=020h-06Fh,0A0h-0EFh,0110h-016Fh,0190h-01EFh \
  -AABS1=020h-07Fh,0A0h-0EFh,0110h-016Fh,0190h-01EFh -ACOMMON=070h-07Fh \
  -ASFR0=00h-01Fh -ASFR1=080h-09Fh -ASFR2=0100h-010Fh -ASFR3=0180h-018Fh \
  -preset_vec=00h,intentry=04h,init,end_init -ppowerup=CODE -pfunctab=CODE \
  -ACONFIG=02007h-02007h -pconfig=CONFIG -DCONFIG=2 -AIDLOC=02000h-02003h \
  -pidloc=IDLOC -DIDLOC=2 -AEEDATA=00h-0FFh/02100h -peeprom_data=EEDATA \
  -DEEDATA=2 -DCODE=2 -DSTRCODE=2 -DSTRING=2 -DCONST=2 -DENTRY=2 -k \
  startup.obj Assignment3_AldnoahZero.obj 

Object code version is 3.10

Machine type is 16F877A



                Name                               Link     Load   Length Selector   Space Scale
startup.obj     end_init                             12       12        3        8       0
                reset_vec                             0        0        3        0       0
Assignment3_AldnoahZero.obj
                intentry                              4        4        E        8       0
                config                             2007     2007        1     400E       0
                text1138                           11E2     11E2       C1     23C4       0
                text1137                           1B98     1B98       44     3730       0
                text1136                           1F56     1F56       AA     3EAC       0
                text1135                           1991     1991       29     3322       0
                text1134                           19BA     19BA       2A     3374       0
                text1133                           1C22     1C22       47     3844       0
                text1132                           1A93     1A93       2D     3526       0
                text1131                           18CD     18CD       14     319A       0
                text1130                           1938     1938       19     3270       0
                text1129                           1921     1921       17     3242       0
                text1128                           1A0F     1A0F       2C     341E       0
                text1127                           10E8     10E8       50     21D0       0
                text1126                           1BDC     1BDC       46     37B8       0
                text1125                           1E69     1E69       76     3CD2       0
                text1124                           1D1D     1D1D       68     3A3A       0
                text1123                           1B5D     1B5D       3B     36BA       0
                text1122                           18F5     18F5       16     31EA       0
                text1121                           18E1     18E1       14     31C2       0
                text1120                           18A7     18A7       13     314E       0
                text1119                           1951     1951       19     32A2       0
                text1118                           1655     1655      1AB     2CAA       0
                text1117                           1CB6     1CB6       67     396C       0
                text1116                           1B24     1B24       39     3648       0
                text1115                            98E      98E      1B6     131C       0
                text1114                           1A3B     1A3B       2C     3476       0
                text1113                           1DF5     1DF5       74     3BEA       0
                text1112                           1AEF     1AEF       35     35DE       0
                text1111                           1890     1890        B     3120       0
                text1110                           1A67     1A67       2C     34CE       0
                text1109                           19E4     19E4       2B     33C8       0
                text1108                           1533     1533      122     2A66       0
                text1107                            76F      76F       89        8       0
                text1106                           190B     190B       16     3216       0
                text1105                           1AC0     1AC0       2F     3580       0
                text1104                           1EDF     1EDF       77     3DBE       0
                text1103                            D7B      D7B      285     1AF6       0
                text1102                           1D85     1D85       70     3B0A       0
                text1101                           1C69     1C69       4D     38D2       0
                text1100                           1138     1138       AA     2270       0
                text1099                           143C     143C       F7     2878       0
                text1098                            800      800       21     1000       0
                text1097                             15       15      427        8       0
                text1096                            43C      43C      333        8       0
                text1095                           12A3     12A3       CC     2546       0
                text1094                            821      821      16D     1042       0
                text1093                            B44      B44      237     1688       0
                maintext                           136F     136F       CD     26DE       0
                cstackBANK0                          20       20       50       20       1
                cstackCOMMON                         72       72        B       70       1
                cstackBANK1                          E7       E7        1       A0       1
                inittext                           18BA     18BA       13     3174       0
                clrtext                             7F8      7F8        8        8       0
                bssBANK3                            190      190       30      190       1
                dataBANK1                            DB       DB        C       A0       1
                bssBANK1                             A0       A0       3B       A0       1
                bssCOMMON                            7D       7D        1       70       1
                bitbssCOMMON                        380       70        D       70       1     8
                cinit                              196A     196A       27     32D4       0
                strings                            1000     1000       E2     2000       0
                idataBANK1                         189B     189B        C     3136       0

TOTAL           Name                               Link     Load   Length     Space
        CLASS   CONST          

        CLASS   CODE           
                end_init                             12       12        3         0
                intentry                              4        4        E         0
                reset_vec                             0        0        3         0
                text1138                           11E2     11E2       C1         0
                text1137                           1B98     1B98       44         0
                text1136                           1F56     1F56       AA         0
                text1135                           1991     1991       29         0
                text1134                           19BA     19BA       2A         0
                text1133                           1C22     1C22       47         0
                text1132                           1A93     1A93       2D         0
                text1131                           18CD     18CD       14         0
                text1130                           1938     1938       19         0
                text1129                           1921     1921       17         0
                text1128                           1A0F     1A0F       2C         0
                text1127                           10E8     10E8       50         0
                text1126                           1BDC     1BDC       46         0
                text1125                           1E69     1E69       76         0
                text1124                           1D1D     1D1D       68         0
                text1123                           1B5D     1B5D       3B         0
                text1122                           18F5     18F5       16         0
                text1121                           18E1     18E1       14         0
                text1120                           18A7     18A7       13         0
                text1119                           1951     1951       19         0
                text1118                           1655     1655      1AB         0
                text1117                           1CB6     1CB6       67         0
                text1116                           1B24     1B24       39         0
                text1115                            98E      98E      1B6         0
                text1114                           1A3B     1A3B       2C         0
                text1113                           1DF5     1DF5       74         0
                text1112                           1AEF     1AEF       35         0
                text1111                           1890     1890        B         0
                text1110                           1A67     1A67       2C         0
                text1109                           19E4     19E4       2B         0
                text1108                           1533     1533      122         0
                text1107                            76F      76F       89         0
                text1106                           190B     190B       16         0
                text1105                           1AC0     1AC0       2F         0
                text1104                           1EDF     1EDF       77         0
                text1103                            D7B      D7B      285         0
                text1102                           1D85     1D85       70         0
                text1101                           1C69     1C69       4D         0
                text1100                           1138     1138       AA         0
                text1099                           143C     143C       F7         0
                text1098                            800      800       21         0
                text1097                             15       15      427         0
                text1096                            43C      43C      333         0
                text1095                           12A3     12A3       CC         0
                text1094                            821      821      16D         0
                text1093                            B44      B44      237         0
                maintext                           136F     136F       CD         0
                inittext                           18BA     18BA       13         0
                clrtext                             7F8      7F8        8         0
                cinit                              196A     196A       27         0
                idataBANK1                         189B     189B        C         0

        CLASS   STRCODE        

        CLASS   ENTRY          

        CLASS   STRING         
                strings                            1000     1000       E2         0

        CLASS   BANK0          
                cstackBANK0                          20       20       50         1

        CLASS   BANK1          
                cstackBANK1                          E7       E7        1         1
                dataBANK1                            DB       DB        C         1
                bssBANK1                             A0       A0       3B         1

        CLASS   BANK2          

        CLASS   BANK3          
                bssBANK3                            190      190       30         1

        CLASS   RAM            

        CLASS   ABS1           
                abs_s1                               7E       7E        2         1

        CLASS   COMMON         
                cstackCOMMON                         72       72        B         1
                bssCOMMON                            7D       7D        1         1
                bitbssCOMMON                        380       70        D         1

        CLASS   SFR0           

        CLASS   SFR1           

        CLASS   SFR2           

        CLASS   SFR3           

        CLASS   CONFIG         
                config                             2007     2007        1         0

        CLASS   IDLOC          

        CLASS   EEDATA         



SEGMENTS        Name                           Load    Length   Top    Selector   Space  Class     Delta

                reset_vec                      000000  000003  000003         0       0  CODE        2
                intentry                       000004  0007FC  000800         8       0  CODE        2
                cstackBANK0                    000020  000050  000070        20       1  BANK0       1
                bitbssCOMMON                   000070  00000E  00007E        70       1  COMMON      1
                bssBANK1                       0000A0  000048  0000E8        A0       1  BANK1       1
                bssBANK3                       000190  000030  0001C0       190       1  BANK3       1
                text1098                       000800  000021  000821      1000       0  CODE        2
                text1094                       000821  00016D  00098E      1042       0  CODE        2
                text1115                       00098E  0001B6  000B44      131C       0  CODE        2
                text1093                       000B44  000237  000D7B      1688       0  CODE        2
                text1103                       000D7B  000285  001000      1AF6       0  CODE        2
                strings                        001000  0000E2  0010E2      2000       0  STRING      2
                text1127                       0010E8  000050  001138      21D0       0  CODE        2
                text1100                       001138  0000AA  0011E2      2270       0  CODE        2
                text1138                       0011E2  0000C1  0012A3      23C4       0  CODE        2
                text1095                       0012A3  0000CC  00136F      2546       0  CODE        2
                maintext                       00136F  0000CD  00143C      26DE       0  CODE        2
                text1099                       00143C  0000F7  001533      2878       0  CODE        2
                text1108                       001533  000122  001655      2A66       0  CODE        2
                text1118                       001655  0001AB  001800      2CAA       0  CODE        2
                text1111                       001890  00000B  00189B      3120       0  CODE        2
                idataBANK1                     00189B  00000C  0018A7      3136       0  CODE        2
                text1120                       0018A7  000013  0018BA      314E       0  CODE        2
                inittext                       0018BA  000013  0018CD      3174       0  CODE        2
                text1131                       0018CD  000014  0018E1      319A       0  CODE        2
                text1121                       0018E1  000014  0018F5      31C2       0  CODE        2
                text1122                       0018F5  000016  00190B      31EA       0  CODE        2
                text1106                       00190B  000016  001921      3216       0  CODE        2
                text1129                       001921  000017  001938      3242       0  CODE        2
                text1130                       001938  000019  001951      3270       0  CODE        2
                text1119                       001951  000019  00196A      32A2       0  CODE        2
                cinit                          00196A  000027  001991      32D4       0  CODE        2
                text1135                       001991  000029  0019BA      3322       0  CODE        2
                text1134                       0019BA  00002A  0019E4      3374       0  CODE        2
                text1109                       0019E4  00002B  001A0F      33C8       0  CODE        2
                text1128                       001A0F  00002C  001A3B      341E       0  CODE        2
                text1114                       001A3B  00002C  001A67      3476       0  CODE        2
                text1110                       001A67  00002C  001A93      34CE       0  CODE        2
                text1132                       001A93  00002D  001AC0      3526       0  CODE        2
                text1105                       001AC0  00002F  001AEF      3580       0  CODE        2
                text1112                       001AEF  000035  001B24      35DE       0  CODE        2
                text1116                       001B24  000039  001B5D      3648       0  CODE        2
                text1123                       001B5D  00003B  001B98      36BA       0  CODE        2
                text1137                       001B98  000044  001BDC      3730       0  CODE        2
                text1126                       001BDC  000046  001C22      37B8       0  CODE        2
                text1133                       001C22  000047  001C69      3844       0  CODE        2
                text1101                       001C69  00004D  001CB6      38D2       0  CODE        2
                text1117                       001CB6  000067  001D1D      396C       0  CODE        2
                text1124                       001D1D  000068  001D85      3A3A       0  CODE        2
                text1102                       001D85  000070  001DF5      3B0A       0  CODE        2
                text1113                       001DF5  000074  001E69      3BEA       0  CODE        2
                text1125                       001E69  000076  001EDF      3CD2       0  CODE        2
                text1104                       001EDF  000077  001F56      3DBE       0  CODE        2
                text1136                       001F56  0000AA  002000      3EAC       0  CODE        2
                config                         002007  000001  002008      400E       0  CONFIG      2


UNUSED ADDRESS RANGES

        Name                Unused          Largest block    Delta
        BANK1            00E8-00EF              8           1
        BANK2            0110-016F             60           1
        BANK3            01C0-01EF             30           1
        CODE             0003-0003              1           2
                         10E2-10E7              6
                         1800-188F             90
        CONST            0003-0003              1           2
                         10E2-10E7              6
                         1800-188F             90
        EEDATA           2100-21FF            100           2
        ENTRY            0003-0003              1           2
                         10E2-10E7              6
                         1800-188F             90
        IDLOC            2000-2003              4           2
        RAM              00E8-00EF              8           1
                         0110-016F             60
                         01C0-01EF             30
        SFR0             0000-001F             20           1
        SFR1             0080-009F             20           1
        SFR2             0100-010F             10           1
        SFR3             0180-018F             10           1
        STRCODE          0003-0003              1           2
                         10E2-10E7              6
                         1800-188F             90
        STRING           0003-0003              1           2
                         10E2-10E7              6
                         1800-188F             90

                                  Symbol Table

??_ChargeMode               cstackBANK0  0057
??_FindVictim               cstackBANK0  006B
??_GoHome                   cstackBANK0  006B
??_Init_Follow_IR           cstackBANK0  0057
??_Menu                     cstackBANK0  0020
??_ReadButtons              cstackCOMMON 0072
??_RobotBattRead            cstackBANK0  0022
??_RobotDrive               cstackBANK0  002D
??_UpdateDisplay            cstackBANK0  0041
??___awdiv                  cstackBANK0  0024
??___awmod                  cstackBANK0  0024
??___lwdiv                  cstackBANK0  0024
??___lwmod                  cstackBANK0  002C
??___wmul                   cstackBANK0  0024
??_abs                      cstackBANK0  0028
??_adc_read                 cstackBANK0  0022
??_adc_read_channel         cstackBANK0  0026
??_calibrateIR              cstackBANK0  0057
??_init                     cstackBANK0  0023
??_init_adc                 cstackBANK0  0020
??_isdigit                  cstackBANK0  0020
??_isr1                     cstackCOMMON 0078
??_lcd_init                 cstackBANK0  0023
??_lcd_set_cursor           cstackBANK0  0023
??_lcd_write_control        cstackBANK0  0020
??_lcd_write_data           cstackBANK0  0020
??_lcd_write_string         cstackBANK0  0029
??_main                     cstackBANK0  006E
??_readAvgDistance          cstackBANK0  002E
??_readDistance             cstackBANK0  002A
??_robo_init                cstackBANK0  0022
??_robotFollow              cstackBANK0  0064
??_robotLoadSong            cstackBANK0  0022
??_robotMoveSpeed           cstackBANK0  005B
??_robotTurn                cstackBANK0  0024
??_robotTurnSpeed           cstackBANK0  005B
??_robot_read               cstackBANK0  0022
??_robot_turnArc            cstackBANK0  0062
??_robot_turnInPlace        cstackBANK0  0060
??_rotate                   cstackBANK0  0026
??_ser_getch                cstackBANK0  0020
??_ser_init                 cstackBANK0  0020
??_ser_isrx                 cstackBANK0  0020
??_ser_putch                cstackBANK0  0020
??_spi_transfer             cstackBANK0  0020
??_sprintf                  cstackBANK0  0033
??i1___lwmod                cstackCOMMON 0076
?_ChargeMode                cstackCOMMON 0072
?_FindVictim                cstackCOMMON 0072
?_GoHome                    cstackCOMMON 0072
?_Init_Follow_IR            cstackCOMMON 0072
?_Menu                      cstackCOMMON 0072
?_ReadButtons               cstackCOMMON 0072
?_RobotBattRead             cstackCOMMON 0072
?_RobotDrive                cstackBANK0  0029
?_UpdateDisplay             cstackCOMMON 0072
?___awdiv                   cstackBANK0  0020
?___awmod                   cstackBANK0  0020
?___lwdiv                   cstackBANK0  0020
?___lwmod                   cstackBANK0  0028
?___wmul                    cstackBANK0  0020
?_abs                       cstackBANK0  0026
?_adc_read                  cstackBANK0  0020
?_adc_read_channel          cstackCOMMON 0072
?_calibrateIR               cstackCOMMON 0072
?_init                      cstackCOMMON 0072
?_init_adc                  cstackCOMMON 0072
?_isdigit                   cstackCOMMON 0072
?_isr1                      cstackCOMMON 0072
?_lcd_init                  cstackCOMMON 0072
?_lcd_set_cursor            cstackCOMMON 0072
?_lcd_write_control         cstackCOMMON 0072
?_lcd_write_data            cstackCOMMON 0072
?_lcd_write_string          cstackBANK0  0027
?_main                      cstackCOMMON 0072
?_readAvgDistance           cstackCOMMON 0072
?_readDistance              cstackBANK0  0028
?_robo_init                 cstackCOMMON 0072
?_robotFollow               cstackBANK0  0060
?_robotLoadSong             cstackCOMMON 0072
?_robotMoveSpeed            cstackBANK0  0057
?_robotTurn                 cstackBANK0  0022
?_robotTurnSpeed            cstackBANK0  0057
?_robot_read                cstackCOMMON 0072
?_robot_turnArc             cstackBANK0  0060
?_robot_turnInPlace         cstackCOMMON 0072
?_rotate                    cstackBANK0  0023
?_ser_getch                 cstackCOMMON 0072
?_ser_init                  cstackCOMMON 0072
?_ser_isrx                  cstackCOMMON 0072
?_ser_putch                 cstackCOMMON 0072
?_spi_transfer              cstackCOMMON 0072
?_sprintf                   cstackBANK0  002E
?i1___lwmod                 cstackCOMMON 0072
AT25256A@CS0                (abs)        0038
AT25256A@CS1                (abs)        0039
Menu@BTN_input              cstackBANK0  0020
RobotBattRead@temp1         cstackBANK0  0024
RobotDrive@radius           cstackBANK0  002B
RobotDrive@radiushighByte   cstackBANK0  0031
RobotDrive@radiuslowByte    cstackBANK0  0030
RobotDrive@speed            cstackBANK0  0029
RobotDrive@speedhighByte    cstackBANK0  002F
RobotDrive@speedlowByte     cstackBANK0  002E
UpdateDisplay@F1260         bssBANK3     0190
UpdateDisplay@LCDOutput     cstackBANK0  0045
UpdateDisplay@tempDist      cstackBANK0  0055
_ADCON0                     (abs)        001F
_ADCON1                     (abs)        009F
_ADRESH                     (abs)        001E
_ADRESL                     (abs)        009E
_AngleHighByte              bssBANK1     00C0
_AngleLowByte               bssBANK1     00C1
_BRGH                       (abs)        04C2
_BattCharge                 bssBANK1     00A0
_BattState                  bssBANK1     00A2
_BumpSensors                bssBANK1     00C2
_CARRY                      (abs)        0018
_CHS0                       (abs)        00FB
_CHS1                       (abs)        00FC
_CHS2                       (abs)        00FD
_CREN                       (abs)        00C4
_CenterDebounceCount        bssBANK1     00C3
_CenterPressed              bitbssCOMMON 0380
_CenterReleased             bitbssCOMMON 0381
_ChargeMode                 text1101     1C69
_CliffSensors               bssBANK1     00C4
_Disp1                      bssBANK1     00A4
_Disp2                      bssBANK1     00A6
_DistHighByte               bssCOMMON    007D
_DistLowByte                bssBANK1     00C5
_DownDebounceCount          bssBANK1     00C6
_DownPressed                bitbssCOMMON 0382
_DownReleased               bitbssCOMMON 0383
_EEADR                      (abs)        010D
_EECON1                     (abs)        018C
_EECON2                     (abs)        018D
_EEDATA                     (abs)        010C
_FindVictim                 text1093     0B44
_FoundVictim                bssBANK1     00C7
_GIE                        (abs)        005F
_GO                         (abs)        00FA
_GoHome                     text1094     0821
_IRdistance                 bssBANK1     00A8
_Init_Follow_IR             text1098     0800
_LeftDebounceCount          bssBANK1     00C8
_LeftPressed                bitbssCOMMON 0384
_LeftReleased               bitbssCOMMON 0385
_Menu                       text1133     1C22
_OERR                       (abs)        00C1
_OPTION_REG                 (abs)        0081
_PEIE                       (abs)        005E
_PORTA                      (abs)        0005
_PORTD                      (abs)        0008
_PORTE                      (abs)        0009
_RB0                        (abs)        0030
_RB2                        (abs)        0032
_RB3                        (abs)        0033
_RB4                        (abs)        0034
_RB5                        (abs)        0035
_RB6                        (abs)        0036
_RC0                        (abs)        0038
_RC1                        (abs)        0039
_RC2                        (abs)        003A
_RCIE                       (abs)        0465
_RCIF                       (abs)        0065
_RCREG                      (abs)        001A
_RD                         (abs)        0C60
_RE0                        (abs)        0048
_RE1                        (abs)        0049
_RE2                        (abs)        004A
_ROBOTerror                 bssBANK1     00C9
_RTC_Counter                bssBANK1     00AA
_RTC_FLAG_1MS               bitbssCOMMON 0386
_RTC_FLAG_250MS             bitbssCOMMON 0387
_RTC_FLAG_500MS             bitbssCOMMON 0388
_RX9                        (abs)        00C6
_ReadButtons                text1138     11E2
_RightDebounceCount         bssBANK1     00CA
_RightPressed               bitbssCOMMON 0389
_RightReleased              bitbssCOMMON 038A
_RobotBattRead              text1107     076F
_RobotDrive                 text1116     1B24
_RobotPos                   bssBANK1     00CB
_SPBRG                      (abs)        0099
_SPEN                       (abs)        00C7
_SSPBUF                     (abs)        0013
_SSPCON                     (abs)        0014
_SSPIF                      (abs)        0063
_SSPSTAT                    (abs)        0094
_SYNC                       (abs)        04C4
_TMR0                       (abs)        0001
_TMR0IE                     (abs)        005D
_TMR0IF                     (abs)        005A
_TRISA                      (abs)        0085
_TRISB                      (abs)        0086
_TRISC                      (abs)        0087
_TRISD                      (abs)        0088
_TRISE                      (abs)        0089
_TX9                        (abs)        04C6
_TXEN                       (abs)        04C5
_TXIE                       (abs)        0464
_TXIF                       (abs)        0064
_TXREG                      (abs)        0019
_TotalDistTravelled         bssBANK1     00AC
_UpDebounceCount            bssBANK1     00CC
_UpPressed                  bitbssCOMMON 038B
_UpReleased                 bitbssCOMMON 038C
_UpdateDisplay              text1103     0D7B
_VictimSensor               bssBANK1     00CD
_VwallSensor                bssBANK1     00CE
_WR                         (abs)        0C61
_WREN                       (abs)        0C62
__Habs1                     abs1         0000
__Hbank0                    bank0        0000
__Hbank1                    bank1        0000
__Hbank2                    bank2        0000
__Hbank3                    bank3        0000
__HbitbssCOMMON             bitbssCOMMON 0000
__HbssBANK1                 bssBANK1     0000
__HbssBANK3                 bssBANK3     0000
__HbssCOMMON                bssCOMMON    0000
__Hcinit                    cinit        0000
__Hclrtext                  clrtext      0000
__Hcode                     code         0000
__Hcommon                   common       0000
__Hconfig                   config       2008
__HcstackBANK0              cstackBANK0  0000
__HcstackBANK1              cstackBANK1  0000
__HcstackCOMMON             cstackCOMMON 0000
__HdataBANK1                dataBANK1    0000
__Heeprom_data              eeprom_data  0000
__Hend_init                 end_init     0015
__Hfunctab                  functab      0000
__HidataBANK1               idataBANK1   0000
__Hidloc                    idloc        0000
__Hinit                     init         0012
__Hinittext                 inittext     0000
__Hintentry                 intentry     0012
__Hmaintext                 maintext     0000
__Hpowerup                  powerup      0000
__Hram                      ram          0000
__Hreset_vec                reset_vec    0003
__Hsfr0                     sfr0         0000
__Hsfr1                     sfr1         0000
__Hsfr2                     sfr2         0000
__Hsfr3                     sfr3         0000
__Hstrings                  strings      0000
__Htext                     text         0000
__Labs1                     abs1         0000
__Lbank0                    bank0        0000
__Lbank1                    bank1        0000
__Lbank2                    bank2        0000
__Lbank3                    bank3        0000
__LbitbssCOMMON             bitbssCOMMON 0000
__LbssBANK1                 bssBANK1     0000
__LbssBANK3                 bssBANK3     0000
__LbssCOMMON                bssCOMMON    0000
__Lcinit                    cinit        0000
__Lclrtext                  clrtext      0000
__Lcode                     code         0000
__Lcommon                   common       0000
__Lconfig                   config       2007
__LcstackBANK0              cstackBANK0  0000
__LcstackBANK1              cstackBANK1  0000
__LcstackCOMMON             cstackCOMMON 0000
__LdataBANK1                dataBANK1    0000
__Leeprom_data              eeprom_data  0000
__Lend_init                 end_init     0012
__Lfunctab                  functab      0000
__LidataBANK1               idataBANK1   0000
__Lidloc                    idloc        0000
__Linit                     init         0012
__Linittext                 inittext     0000
__Lintentry                 intentry     0004
__Lmaintext                 maintext     0000
__Lpowerup                  powerup      0000
__Lram                      ram          0000
__Lreset_vec                reset_vec    0000
__Lsfr0                     sfr0         0000
__Lsfr1                     sfr1         0000
__Lsfr2                     sfr2         0000
__Lsfr3                     sfr3         0000
__Lstrings                  strings      0000
__Ltext                     text         0000
__S0                        (abs)        2008
__S1                        (abs)        01C0
__S2                        (abs)        0000
___awdiv                    text1125     1E69
___awdiv@counter            cstackBANK0  0025
___awdiv@dividend           cstackBANK0  0022
___awdiv@divisor            cstackBANK0  0020
___awdiv@quotient           cstackBANK0  0027
___awdiv@sign               cstackBANK0  0026
___awmod                    text1124     1D1D
___awmod@counter            cstackBANK0  0025
___awmod@dividend           cstackBANK0  0022
___awmod@divisor            cstackBANK0  0020
___awmod@sign               cstackBANK0  0026
___lwdiv                    text1127     10E8
___lwdiv@counter            cstackBANK0  0027
___lwdiv@dividend           cstackBANK0  0022
___lwdiv@divisor            cstackBANK0  0020
___lwdiv@quotient           cstackBANK0  0025
___lwmod                    text1126     1BDC
___lwmod@counter            cstackBANK0  002D
___lwmod@dividend           cstackBANK0  002A
___lwmod@divisor            cstackBANK0  0028
___wmul                     text1128     1A0F
___wmul@multiplicand        cstackBANK0  0022
___wmul@multiplier          cstackBANK0  0020
___wmul@product             cstackBANK0  0024
__end_of_ChargeMode         text1101     1CB6
__end_of_FindVictim         text1093     0D7B
__end_of_GoHome             text1094     098E
__end_of_Init_Follow_IR     text1098     0821
__end_of_Menu               text1133     1C69
__end_of_ReadButtons        text1138     12A3
__end_of_RobotBattRead      text1107     07F8
__end_of_RobotDrive         text1116     1B5D
__end_of_UpdateDisplay      text1103     1000
__end_of___awdiv            text1125     1EDF
__end_of___awmod            text1124     1D85
__end_of___lwdiv            text1127     1138
__end_of___lwmod            text1126     1C22
__end_of___wmul             text1128     1A3B
__end_of_abs                text1112     1B24
__end_of_adc_read           text1135     19BA
__end_of_adc_read_channel   text1123     1B98
__end_of_calibrateIR        text1102     1DF5
__end_of_init               text1105     1AEF
__end_of_init_adc           text1122     190B
__end_of_isdigit            text1129     1938
__end_of_isr1               text1136     2000
__end_of_lcd_init           text1109     1A0F
__end_of_lcd_set_cursor     text1111     189B
__end_of_lcd_write_control  text1121     18F5
__end_of_lcd_write_data     text1120     18BA
__end_of_lcd_write_string   text1110     1A93
__end_of_main               maintext     143C
__end_of_readAvgDistance    text1104     1F56
__end_of_readDistance       text1106     1921
__end_of_robo_init          text1119     196A
__end_of_robotFollow        text1096     076F
__end_of_robotLoadSong      text1118     1800
__end_of_robotMoveSpeed     text1099     1533
__end_of_robotTurn          text1113     1E69
__end_of_robotTurnSpeed     text1100     11E2
__end_of_robot_read         text1108     1655
__end_of_robot_turnArc      text1097     043C
__end_of_robot_turnInPlace  text1095     136F
__end_of_rotate             text1117     1D1D
__end_of_ser_getch          text1114     1A67
__end_of_ser_init           text1134     19E4
__end_of_ser_isrx           text1130     1951
__end_of_ser_putch          text1132     1AC0
__end_of_spi_transfer       text1131     18E1
__end_of_sprintf            text1115     0B44
__end_ofi1___lwmod          text1137     1BDC
__pbitbssCOMMON             bitbssCOMMON 0380
__pbssBANK1                 bssBANK1     00A0
__pbssBANK3                 bssBANK3     0190
__pbssCOMMON                bssCOMMON    007D
__pcstackBANK0              cstackBANK0  0020
__pcstackBANK1              cstackBANK1  00E7
__pcstackCOMMON             cstackCOMMON 0072
__pdataBANK1                dataBANK1    00DB
__pidataBANK1               idataBANK1   189B
__pintentry                 intentry     0004
__pmaintext                 maintext     136F
__pstrings                  strings      1000
__ptext1093                 text1093     0B44
__ptext1094                 text1094     0821
__ptext1095                 text1095     12A3
__ptext1096                 text1096     043C
__ptext1097                 text1097     0015
__ptext1098                 text1098     0800
__ptext1099                 text1099     143C
__ptext1100                 text1100     1138
__ptext1101                 text1101     1C69
__ptext1102                 text1102     1D85
__ptext1103                 text1103     0D7B
__ptext1104                 text1104     1EDF
__ptext1105                 text1105     1AC0
__ptext1106                 text1106     190B
__ptext1107                 text1107     076F
__ptext1108                 text1108     1533
__ptext1109                 text1109     19E4
__ptext1110                 text1110     1A67
__ptext1111                 text1111     1890
__ptext1112                 text1112     1AEF
__ptext1113                 text1113     1DF5
__ptext1114                 text1114     1A3B
__ptext1115                 text1115     098E
__ptext1116                 text1116     1B24
__ptext1117                 text1117     1CB6
__ptext1118                 text1118     1655
__ptext1119                 text1119     1951
__ptext1120                 text1120     18A7
__ptext1121                 text1121     18E1
__ptext1122                 text1122     18F5
__ptext1123                 text1123     1B5D
__ptext1124                 text1124     1D1D
__ptext1125                 text1125     1E69
__ptext1126                 text1126     1BDC
__ptext1127                 text1127     10E8
__ptext1128                 text1128     1A0F
__ptext1129                 text1129     1921
__ptext1130                 text1130     1938
__ptext1131                 text1131     18CD
__ptext1132                 text1132     1A93
__ptext1133                 text1133     1C22
__ptext1134                 text1134     19BA
__ptext1135                 text1135     1991
__ptext1136                 text1136     1F56
__ptext1137                 text1137     1B98
__ptext1138                 text1138     11E2
__ptext1139                 text1139     0000
__size_of_ChargeMode        (abs)        0000
__size_of_FindVictim        (abs)        0000
__size_of_GoHome            (abs)        0000
__size_of_Init_Follow_IR    (abs)        0000
__size_of_Menu              (abs)        0000
__size_of_ReadButtons       (abs)        0000
__size_of_RobotBattRead     (abs)        0000
__size_of_RobotDrive        (abs)        0000
__size_of_UpdateDisplay     (abs)        0000
__size_of___awdiv           (abs)        0000
__size_of___awmod           (abs)        0000
__size_of___lwdiv           (abs)        0000
__size_of___lwmod           (abs)        0000
__size_of___wmul            (abs)        0000
__size_of_abs               (abs)        0000
__size_of_adc_read          (abs)        0000
__size_of_adc_read_channel  (abs)        0000
__size_of_calibrateIR       (abs)        0000
__size_of_init              (abs)        0000
__size_of_init_adc          (abs)        0000
__size_of_isdigit           (abs)        0000
__size_of_isr1              (abs)        0000
__size_of_lcd_init          (abs)        0000
__size_of_lcd_set_cursor    (abs)        0000
__size_of_lcd_write_control (abs)        0000
__size_of_lcd_write_data    (abs)        0000
__size_of_lcd_write_string  (abs)        0000
__size_of_main              (abs)        0000
__size_of_readAvgDistance   (abs)        0000
__size_of_readDistance      (abs)        0000
__size_of_robo_init         (abs)        0000
__size_of_robotFollow       (abs)        0000
__size_of_robotLoadSong     (abs)        0000
__size_of_robotMoveSpeed    (abs)        0000
__size_of_robotTurn         (abs)        0000
__size_of_robotTurnSpeed    (abs)        0000
__size_of_robot_read        (abs)        0000
__size_of_robot_turnArc     (abs)        0000
__size_of_robot_turnInPlace (abs)        0000
__size_of_rotate            (abs)        0000
__size_of_ser_getch         (abs)        0000
__size_of_ser_init          (abs)        0000
__size_of_ser_isrx          (abs)        0000
__size_of_ser_putch         (abs)        0000
__size_of_spi_transfer      (abs)        0000
__size_of_sprintf           (abs)        0000
__size_ofi1___lwmod         (abs)        0000
_abs                        text1112     1AEF
_adcVal                     bssBANK1     00AE
_adc_read                   text1135     1991
_adc_read_channel           text1123     1B5D
_angleTurned                bssBANK1     00B0
_buttonPressed              bssBANK1     00CF
_calibrateIR                text1102     1D85
_currentMenu                bssBANK1     00D0
_distTravelled              bssBANK1     00B2
_dist_high                  bssBANK1     00B4
_dist_low                   bssBANK1     00B6
_dpowers                    strings      1010
_exit                       init         0012
_followDir                  bssBANK1     00D1
_highByte                   bssBANK1     00D2
_init                       text1105     1AC0
_init_adc                   text1122     18F5
_isdigit                    text1129     1921
_isdigit$8696               cstackBANK0  0020
_isr1                       text1136     1F56
_lcd_init                   text1109     19E4
_lcd_set_cursor             text1111     1890
_lcd_write_control          text1121     18E1
_lcd_write_data             text1120     18A7
_lcd_write_string           text1110     1A67
_lowByte                    bssBANK1     00D3
_main                       maintext     136F
_menuStrings                dataBANK1    00DB
_pos                        bssBANK1     00B8
_readAvgDistance            text1104     1EDF
_readDistance               text1106     190B
_robo_init                  text1119     1951
_robotFollow                text1096     043C
_robotLoadSong              text1118     1655
_robotMoveSpeed             text1099     143C
_robotTurn                  text1113     1DF5
_robotTurnSpeed             text1100     1138
_robot_read                 text1108     1533
_robot_turnArc              text1097     0015
_robot_turnInPlace          text1095     12A3
_rotate                     text1117     1CB6
_rxfifo                     bssBANK3     01A0
_rxiptr                     bssBANK1     00D4
_rxoptr                     bssBANK1     00D5
_ser_getch                  text1114     1A3B
_ser_init                   text1134     19BA
_ser_isrx                   text1130     1938
_ser_putch                  text1132     1A93
_ser_tmp                    bssBANK1     00D6
_shortMenuStrings           dataBANK1    00E1
_spi_transfer               text1131     18CD
_sprintf                    text1115     098E
_total                      bssBANK1     00BA
_totalSteps                 bssBANK1     00BC
_trackingDist               bssBANK1     00BE
_turnhighByte               bssBANK1     00D7
_turnlowByte                bssBANK1     00D8
_txfifo                     bssBANK3     01B0
_txiptr                     bssBANK1     00D9
_txoptr                     bssBANK1     00DA
abs@v                       cstackBANK0  0026
adc_read@adc_value          cstackBANK0  0024
adc_read_channel@channel    cstackBANK0  0027
btemp                       (abs)        007E
clear_ram                   clrtext      07F8
end_of_initialization       cinit        198D
i1___lwmod                  text1137     1B98
i1___lwmod@counter          cstackCOMMON 0077
i1___lwmod@dividend         cstackCOMMON 0074
i1___lwmod@divisor          cstackCOMMON 0072
init_fetch                  inittext     18BA
init_ram                    inittext     18BE
interrupt_function          intentry     0004
intlevel0                   functab      0000
intlevel1                   functab      0000
intlevel2                   functab      0000
intlevel3                   functab      0000
intlevel4                   functab      0000
intlevel5                   functab      0000
isdigit@c                   cstackBANK0  0021
lcd_set_cursor@address      cstackBANK0  0023
lcd_write_control@databyte  cstackBANK0  0022
lcd_write_data@databyte     cstackBANK0  0022
lcd_write_string@s          cstackBANK0  0027
main@choice                 cstackBANK1  00E7
readAvgDistance@fullval     cstackBANK0  002E
readAvgDistance@i           cstackBANK0  0034
readAvgDistance@j           cstackBANK0  0030
readAvgDistance@tempIR      cstackBANK0  0032
readDistance@readVal        cstackBANK0  002C
reset_vec                   reset_vec    0000
robotFollow@AdcTarget       cstackBANK0  0062
robotFollow@hysterysis      cstackBANK0  006A
robotFollow@speed           cstackBANK0  0060
robotFollow@temp1           cstackBANK0  0068
robotMoveSpeed@distance     cstackBANK0  0057
robotMoveSpeed@speed        cstackBANK0  0059
robotMoveSpeed@temp1        cstackBANK0  005E
robotTurn@angle             cstackBANK0  0022
robotTurnSpeed@angle        cstackBANK0  0057
robotTurnSpeed@speed        cstackBANK0  0059
robotTurnSpeed@temp1        cstackBANK0  005E
robot_read@readType         cstackBANK0  0023
robot_turnArc@AdcTarget     cstackBANK0  0067
robot_turnArc@speed         cstackBANK0  0060
robot_turnArc@temp1         cstackBANK0  0069
robot_turnArc@turnTarget    cstackBANK0  0065
rotate@direction            cstackBANK0  0025
rotate@i                    cstackBANK0  0028
rotate@numsteps             cstackBANK0  0023
saved_w                     (abs)        007E
ser_getch@c                 cstackBANK0  0021
ser_putch@c                 cstackBANK0  0021
spi_transfer@data           cstackBANK0  0022
spi_transfer@temp           cstackBANK0  0021
sprintf@_val                cstackBANK0  0039
sprintf@ap                  cstackBANK0  0036
sprintf@c                   cstackBANK0  0040
sprintf@f                   cstackBANK0  002E
sprintf@flag                cstackBANK0  0038
sprintf@prec                cstackBANK0  0037
sprintf@sp                  cstackBANK0  003D
sprintf@width               cstackBANK0  003E
start                       init         0012
start_initialization        cinit        196A
wtemp0                      (abs)        007E
