HI-TECH Software C Compiler 

Linker command line:

--edf=C:\Program Files (x86)\HI-TECH Software\PICC\9.83\dat\en_msgs.txt -cs \
  -h+Assignment3_AldnoahZero.sym -z -Q16F877A -ol.obj \
  -MAssignment3_AldnoahZero.map -E1 -ACONST=00h-0FFhx32 -ACODE=00h-07FFhx4 \
  -ASTRCODE=00h-01FFFh -AENTRY=00h-0FFhx32 -ASTRING=00h-0FFhx32 \
  -ABANK0=020h-06Fh -ABANK1=0A0h-0EFh -ABANK2=0110h-016Fh \
  -ABANK3=0190h-01EFh -ARAM=020h-06Fh,0A0h-0EFh,0110h-016Fh,0190h-01EFh \
  -AABS1=020h-07Fh,0A0h-0EFh,0110h-016Fh,0190h-01EFh -ACOMMON=070h-07Fh \
  -ASFR0=00h-01Fh -ASFR1=080h-09Fh -ASFR2=0100h-010Fh -ASFR3=0180h-018Fh \
  -preset_vec=00h,intentry=04h,init,end_init -ppowerup=CODE -pfunctab=CODE \
  -ACONFIG=02007h-02007h -pconfig=CONFIG -DCONFIG=2 -AIDLOC=02000h-02003h \
  -pidloc=IDLOC -DIDLOC=2 -AEEDATA=00h-0FFh/02100h -peeprom_data=EEDATA \
  -DEEDATA=2 -DCODE=2 -DSTRCODE=2 -DSTRING=2 -DCONST=2 -DENTRY=2 -k \
  startup.obj Assignment3_AldnoahZero.obj 

Object code version is 3.10

Machine type is 16F877A



                Name                               Link     Load   Length Selector   Space Scale
startup.obj     end_init                             12       12        3        8       0
                reset_vec                             0        0        3        0       0
Assignment3_AldnoahZero.obj
                intentry                              4        4        E        8       0
                config                             2007     2007        1     400E       0
                text741                             DF2      DF2       27     1BE4       0
                text740                             53F      53F       7C        8       0
                text739                             E6A      E6A       2A     1CD4       0
                text738                             724      724       4E      CD2       0
                text737                             F73      F73       46     1EE6       0
                text736                             669      669       66      CD2       0
                text735                             7BF      7BF       41      CD2       0
                text734                             D3D      D3D       13     1A7A       0
                text733                             F41      F41       32     1E82       0
                text732                              15       15      1EB        8       0
                text731                             200      200      100        8       0
                text730                             D63      D63       14     1AC6       0
                text729                             D2A      D2A        9     1A54       0
                text728                             E94      E94       2A     1D28       0
                text727                             D77      D77       14     1AEE       0
                text726                             6CF      6CF       55      CD2       0
                text725                             3E5      3E5       B9        8       0
                text724                             300      300       E5        8       0
                text723                             E19      E19       28     1C32       0
                text722                             FB9      FB9       47     1F72       0
                text721                             DD4      DD4       1E     1BA8       0
                text720                             F13      F13       2E     1E26       0
                text719                             D8B      D8B       14     1B16       0
                text718                             DB8      DB8       1C     1B70       0
                text717                             D9F      D9F       19     1B3E       0
                text716                             5BB      5BB       45        8       0
                text715                             EE8      EE8       2B     1DD0       0
                text714                             772      772       4D      CD2       0
                text713                             E41      E41       29     1C82       0
                maintext                            49E      49E       A1        8       0
                cstackBANK0                          20       20       31       20       1
                cstackCOMMON                         70       70        E       70       1
                cstackBANK1                          E0       E0        A       A0       1
                inittext                            D50      D50       13     1AA0       0
                clrtext                             D22      D22        8     1A44       0
                dataBANK1                            D6       D6        A       A0       1
                bssBANK1                             A0       A0       36       A0       1
                dataBANK0                            6F       6F        1       20       1
                bssBANK0                             51       51       1C       20       1
                bitbssBANK0                         368       6D        F       20       1     8
                cinit                               EBE      EBE       2A     1D7C       0
                strings                             600      600       69      C00       0
                idataBANK1                          D33      D33        A     1A66       0
                idataBANK0                            3        3        1        0       0

TOTAL           Name                               Link     Load   Length     Space
        CLASS   CONST          

        CLASS   CODE           
                end_init                             12       12        3         0
                intentry                              4        4        E         0
                reset_vec                             0        0        3         0
                text741                             DF2      DF2       27         0
                text740                             53F      53F       7C         0
                text739                             E6A      E6A       2A         0
                text738                             724      724       4E         0
                text737                             F73      F73       46         0
                text736                             669      669       66         0
                text735                             7BF      7BF       41         0
                text734                             D3D      D3D       13         0
                text733                             F41      F41       32         0
                text732                              15       15      1EB         0
                text731                             200      200      100         0
                text730                             D63      D63       14         0
                text729                             D2A      D2A        9         0
                text728                             E94      E94       2A         0
                text727                             D77      D77       14         0
                text726                             6CF      6CF       55         0
                text725                             3E5      3E5       B9         0
                text724                             300      300       E5         0
                text723                             E19      E19       28         0
                text722                             FB9      FB9       47         0
                text721                             DD4      DD4       1E         0
                text720                             F13      F13       2E         0
                text719                             D8B      D8B       14         0
                text718                             DB8      DB8       1C         0
                text717                             D9F      D9F       19         0
                text716                             5BB      5BB       45         0
                text715                             EE8      EE8       2B         0
                text714                             772      772       4D         0
                text713                             E41      E41       29         0
                maintext                            49E      49E       A1         0
                inittext                            D50      D50       13         0
                clrtext                             D22      D22        8         0
                cinit                               EBE      EBE       2A         0
                idataBANK1                          D33      D33        A         0
                idataBANK0                            3        3        1         0

        CLASS   STRCODE        

        CLASS   ENTRY          

        CLASS   STRING         
                strings                             600      600       69         0

        CLASS   BANK0          
                cstackBANK0                          20       20       31         1
                dataBANK0                            6F       6F        1         1
                bssBANK0                             51       51       1C         1
                bitbssBANK0                         368       6D        F         1

        CLASS   BANK1          
                cstackBANK1                          E0       E0        A         1
                dataBANK1                            D6       D6        A         1
                bssBANK1                             A0       A0       36         1

        CLASS   BANK2          

        CLASS   BANK3          

        CLASS   RAM            

        CLASS   ABS1           
                abs_s1                               7E       7E        2         1

        CLASS   COMMON         
                cstackCOMMON                         70       70        E         1

        CLASS   SFR0           

        CLASS   SFR1           

        CLASS   SFR2           

        CLASS   SFR3           

        CLASS   CONFIG         
                config                             2007     2007        1         0

        CLASS   IDLOC          

        CLASS   EEDATA         



SEGMENTS        Name                           Load    Length   Top    Selector   Space  Class     Delta

                reset_vec                      000000  000004  000004         0       0  CODE        2
                intentry                       000004  0005FC  000600         8       0  CODE        2
                cstackBANK0                    000020  000050  000070        20       1  BANK0       1
                cstackCOMMON                   000070  00000E  00007E        70       1  COMMON      1
                bssBANK1                       0000A0  00004A  0000EA        A0       1  BANK1       1
                strings                        000600  000069  000669       C00       0  STRING      2
                text736                        000669  000197  000800       CD2       0  CODE        2
                clrtext                        000D22  000008  000D2A      1A44       0  CODE        2
                text729                        000D2A  000009  000D33      1A54       0  CODE        2
                idataBANK1                     000D33  00000A  000D3D      1A66       0  CODE        2
                text734                        000D3D  000013  000D50      1A7A       0  CODE        2
                inittext                       000D50  000013  000D63      1AA0       0  CODE        2
                text730                        000D63  000014  000D77      1AC6       0  CODE        2
                text727                        000D77  000014  000D8B      1AEE       0  CODE        2
                text719                        000D8B  000014  000D9F      1B16       0  CODE        2
                text717                        000D9F  000019  000DB8      1B3E       0  CODE        2
                text718                        000DB8  00001C  000DD4      1B70       0  CODE        2
                text721                        000DD4  00001E  000DF2      1BA8       0  CODE        2
                text741                        000DF2  000027  000E19      1BE4       0  CODE        2
                text723                        000E19  000028  000E41      1C32       0  CODE        2
                text713                        000E41  000029  000E6A      1C82       0  CODE        2
                text739                        000E6A  00002A  000E94      1CD4       0  CODE        2
                text728                        000E94  00002A  000EBE      1D28       0  CODE        2
                cinit                          000EBE  00002A  000EE8      1D7C       0  CODE        2
                text715                        000EE8  00002B  000F13      1DD0       0  CODE        2
                text720                        000F13  00002E  000F41      1E26       0  CODE        2
                text733                        000F41  000032  000F73      1E82       0  CODE        2
                text737                        000F73  000046  000FB9      1EE6       0  CODE        2
                text722                        000FB9  000047  001000      1F72       0  CODE        2
                config                         002007  000001  002008      400E       0  CONFIG      2


UNUSED ADDRESS RANGES

        Name                Unused          Largest block    Delta
        BANK1            00EA-00EF              6           1
        BANK2            0110-016F             60           1
        BANK3            0190-01EF             60           1
        CODE             0800-0D21            522           2
                         1000-1FFF            800
        CONST            0800-0D21            100           2
                         1000-1FFF            100
        EEDATA           2100-21FF            100           2
        ENTRY            0800-0D21            100           2
                         1000-1FFF            100
        IDLOC            2000-2003              4           2
        RAM              00EA-00EF              6           1
                         0110-016F             60
                         0190-01EF             60
        SFR0             0000-001F             20           1
        SFR1             0080-009F             20           1
        SFR2             0100-010F             10           1
        SFR3             0180-018F             10           1
        STRCODE          0800-0D21            522           2
                         1000-1FFF           1000
        STRING           0800-0D21            100           2
                         1000-1FFF            100

                                  Symbol Table

??_ADCconvert                 cstackBANK0  0020
??_Debounce                   cstackCOMMON 0070
??_Menu                       cstackBANK1  00E0
??_ReadButtons                cstackCOMMON 0071
??_UpdateDisplay              cstackBANK0  0037
??___awmod                    cstackCOMMON 0074
??___lwdiv                    cstackCOMMON 007A
??___lwmod                    cstackBANK0  0024
??___wmul                     cstackCOMMON 0074
??_adc_read                   cstackCOMMON 0072
??_adc_read_channel           cstackCOMMON 0076
??_calibrateIR                cstackBANK1  00E8
??_init                       cstackBANK1  00E3
??_init_adc                   cstackBANK1  00E0
??_isr1                       cstackBANK0  004C
??_lcd_init                   cstackBANK1  00E3
??_lcd_set_cursor             cstackCOMMON 0073
??_lcd_write_control          cstackBANK1  00E0
??_lcd_write_data             cstackCOMMON 0070
??_lcd_write_string           cstackCOMMON 0079
??_main                       cstackBANK1  00E8
??_readAvgDistance            cstackCOMMON 007E
??_readDistance               cstackCOMMON 007A
??_robo_init                  cstackBANK1  00E2
??_rotate                     cstackBANK1  00E4
??_ser_init                   cstackBANK1  00E0
??_ser_putch                  cstackBANK1  00E0
??_spi_transfer               cstackBANK1  00E0
??_sprintf                    cstackBANK0  002B
??i1_lcd_write_control        cstackCOMMON 0070
?_ADCconvert                  cstackCOMMON 0070
?_Debounce                    cstackCOMMON 0070
?_Menu                        cstackCOMMON 0070
?_ReadButtons                 cstackCOMMON 0070
?_UpdateDisplay               cstackCOMMON 0070
?___awmod                     cstackCOMMON 0070
?___lwdiv                     cstackCOMMON 0076
?___lwmod                     cstackBANK0  0020
?___wmul                      cstackCOMMON 0070
?_adc_read                    cstackCOMMON 0070
?_adc_read_channel            cstackCOMMON 0070
?_calibrateIR                 cstackCOMMON 0070
?_init                        cstackCOMMON 0070
?_init_adc                    cstackCOMMON 0070
?_isr1                        cstackCOMMON 0070
?_lcd_init                    cstackCOMMON 0070
?_lcd_set_cursor              cstackCOMMON 0070
?_lcd_write_control           cstackCOMMON 0070
?_lcd_write_data              cstackCOMMON 0070
?_lcd_write_string            cstackCOMMON 0077
?_main                        cstackCOMMON 0070
?_readAvgDistance             cstackCOMMON 0070
?_readDistance                cstackCOMMON 0078
?_robo_init                   cstackCOMMON 0070
?_rotate                      cstackBANK1  00E3
?_ser_init                    cstackCOMMON 0070
?_ser_putch                   cstackCOMMON 0070
?_spi_transfer                cstackCOMMON 0070
?_sprintf                     cstackBANK0  0026
?i1_lcd_write_control         cstackCOMMON 0070
AT25256A@CS0                  (abs)        0038
AT25256A@CS1                  (abs)        0039
Menu@input                    cstackBANK1  00E0
UpdateDisplay@F1222           bssBANK1     00A0
UpdateDisplay@adcOutput       cstackBANK0  003C
UpdateDisplay@serialInput     cstackCOMMON 0070
_ADCON0                       (abs)        001F
_ADCON1                       (abs)        009F
_ADCconvert                   text732      0015
_ADRESH                       (abs)        001E
_ADRESL                       (abs)        009E
_BRGH                         (abs)        04C2
_CARRY                        (abs)        0018
_CHS0                         (abs)        00FB
_CHS1                         (abs)        00FC
_CHS2                         (abs)        00FD
_CREN                         (abs)        00C4
_CenterDebounceCount          bssBANK0     005B
_CenterPressed                bitbssBANK0  0368
_CenterReleased               bitbssBANK0  0369
_Debounce                     text740      053F
_DownDebounceCount            bssBANK0     005C
_DownPressed                  bitbssBANK0  036A
_DownReleased                 bitbssBANK0  036B
_EEADR                        (abs)        010D
_EECON1                       (abs)        018C
_EECON2                       (abs)        018D
_EEDATA                       (abs)        010C
_GIE                          (abs)        005F
_GO                           (abs)        00FA
_LeftDebounceCount            bssBANK0     005D
_LeftPressed                  bitbssBANK0  036C
_LeftReleased                 bitbssBANK0  036D
_Menu                         text722      0FB9
_OERR                         (abs)        00C1
_OPTION_REG                   (abs)        0081
_PORTA                        (abs)        0005
_PORTC                        (abs)        0007
_PORTD                        (abs)        0008
_PORTE                        (abs)        0009
_RB0                          (abs)        0030
_RB2                          (abs)        0032
_RB3                          (abs)        0033
_RB4                          (abs)        0034
_RB5                          (abs)        0035
_RB6                          (abs)        0036
_RC0                          (abs)        0038
_RC1                          (abs)        0039
_RC2                          (abs)        003A
_RCIE                         (abs)        0465
_RCIF                         (abs)        0065
_RCREG                        (abs)        001A
_RD                           (abs)        0C60
_RE0                          (abs)        0048
_RE1                          (abs)        0049
_RE2                          (abs)        004A
_RTC_Counter                  bssBANK0     0051
_RTC_FLAG_10MS                bitbssBANK0  036E
_RTC_FLAG_1MS                 bitbssBANK0  036F
_RTC_FLAG_250MS               bitbssBANK0  0370
_RTC_FLAG_500MS               bitbssBANK0  0371
_RTC_FLAG_50MS                bitbssBANK0  0372
_RX9                          (abs)        00C6
_ReadButtons                  text733      0F41
_RightDebounceCount           bssBANK0     005E
_RightPressed                 bitbssBANK0  0373
_RightReleased                bitbssBANK0  0374
_SPBRG                        (abs)        0099
_SPEN                         (abs)        00C7
_SSPBUF                       (abs)        0013
_SSPCON                       (abs)        0014
_SSPIF                        (abs)        0063
_SSPSTAT                      (abs)        0094
_SYNC                         (abs)        04C4
_TMR0                         (abs)        0001
_TMR0IE                       (abs)        005D
_TMR0IF                       (abs)        005A
_TRISA                        (abs)        0085
_TRISB                        (abs)        0086
_TRISC                        (abs)        0087
_TRISD                        (abs)        0088
_TRISE                        (abs)        0089
_TX9                          (abs)        04C6
_TXEN                         (abs)        04C5
_TXIE                         (abs)        0464
_TXIF                         (abs)        0064
_TXREG                        (abs)        0019
_UpDebounceCount              bssBANK0     005F
_UpPressed                    bitbssBANK0  0375
_UpReleased                   bitbssBANK0  0376
_UpdateDisplay                text725      03E5
_WR                           (abs)        0C61
_WREN                         (abs)        0C62
__Habs1                       abs1         0000
__Hbank0                      bank0        0000
__Hbank1                      bank1        0000
__Hbank2                      bank2        0000
__Hbank3                      bank3        0000
__HbitbssBANK0                bitbssBANK0  0000
__HbssBANK0                   bssBANK0     0000
__HbssBANK1                   bssBANK1     0000
__Hcinit                      cinit        0000
__Hclrtext                    clrtext      0000
__Hcode                       code         0000
__Hcommon                     common       0000
__Hconfig                     config       2008
__HcstackBANK0                cstackBANK0  0000
__HcstackBANK1                cstackBANK1  0000
__HcstackCOMMON               cstackCOMMON 0000
__HdataBANK0                  dataBANK0    0000
__HdataBANK1                  dataBANK1    0000
__Heeprom_data                eeprom_data  0000
__Hend_init                   end_init     0015
__Hfunctab                    functab      0000
__HidataBANK0                 idataBANK0   0000
__HidataBANK1                 idataBANK1   0000
__Hidloc                      idloc        0000
__Hinit                       init         0012
__Hinittext                   inittext     0000
__Hintentry                   intentry     0012
__Hmaintext                   maintext     0000
__Hpowerup                    powerup      0000
__Hram                        ram          0000
__Hreset_vec                  reset_vec    0003
__Hsfr0                       sfr0         0000
__Hsfr1                       sfr1         0000
__Hsfr2                       sfr2         0000
__Hsfr3                       sfr3         0000
__Hstrings                    strings      0000
__Htext                       text         0000
__Labs1                       abs1         0000
__Lbank0                      bank0        0000
__Lbank1                      bank1        0000
__Lbank2                      bank2        0000
__Lbank3                      bank3        0000
__LbitbssBANK0                bitbssBANK0  0000
__LbssBANK0                   bssBANK0     0000
__LbssBANK1                   bssBANK1     0000
__Lcinit                      cinit        0000
__Lclrtext                    clrtext      0000
__Lcode                       code         0000
__Lcommon                     common       0000
__Lconfig                     config       2007
__LcstackBANK0                cstackBANK0  0000
__LcstackBANK1                cstackBANK1  0000
__LcstackCOMMON               cstackCOMMON 0000
__LdataBANK0                  dataBANK0    0000
__LdataBANK1                  dataBANK1    0000
__Leeprom_data                eeprom_data  0000
__Lend_init                   end_init     0012
__Lfunctab                    functab      0000
__LidataBANK0                 idataBANK0   0000
__LidataBANK1                 idataBANK1   0000
__Lidloc                      idloc        0000
__Linit                       init         0012
__Linittext                   inittext     0000
__Lintentry                   intentry     0004
__Lmaintext                   maintext     0000
__Lpowerup                    powerup      0000
__Lram                        ram          0000
__Lreset_vec                  reset_vec    0000
__Lsfr0                       sfr0         0000
__Lsfr1                       sfr1         0000
__Lsfr2                       sfr2         0000
__Lsfr3                       sfr3         0000
__Lstrings                    strings      0000
__Ltext                       text         0000
__S0                          (abs)        2008
__S1                          (abs)        00EA
__S2                          (abs)        0000
___awmod                      text736      0669
___awmod@counter              cstackCOMMON 0075
___awmod@dividend             cstackCOMMON 0072
___awmod@divisor              cstackCOMMON 0070
___awmod@sign                 cstackCOMMON 0076
___lwdiv                      text738      0724
___lwdiv@counter              cstackCOMMON 007D
___lwdiv@dividend             cstackCOMMON 0078
___lwdiv@divisor              cstackCOMMON 0076
___lwdiv@quotient             cstackCOMMON 007B
___lwmod                      text737      0F73
___lwmod@counter              cstackBANK0  0025
___lwmod@dividend             cstackBANK0  0022
___lwmod@divisor              cstackBANK0  0020
___wmul                       text739      0E6A
___wmul@multiplicand          cstackCOMMON 0072
___wmul@multiplier            cstackCOMMON 0070
___wmul@product               cstackCOMMON 0074
__end_of_ADCconvert           text732      0200
__end_of_Debounce             text740      05BB
__end_of_Menu                 text722      1000
__end_of_ReadButtons          text733      0F73
__end_of_UpdateDisplay        text725      049E
__end_of___awmod              text736      06CF
__end_of___lwdiv              text738      0772
__end_of___lwmod              text737      0FB9
__end_of___wmul               text739      0E94
__end_of_adc_read             text741      0E19
__end_of_adc_read_channel     text735      0800
__end_of_calibrateIR          text714      07BF
__end_of_init                 text713      0E6A
__end_of_init_adc             text719      0D9F
__end_of_isr1                 text724      03E5
__end_of_lcd_init             text715      0F13
__end_of_lcd_set_cursor       text729      0D33
__end_of_lcd_write_control    text718      0DD4
__end_of_lcd_write_data       text734      0D50
__end_of_lcd_write_string     text728      0EBE
__end_of_main                 maintext     053F
__end_of_readAvgDistance      text726      0724
__end_of_readDistance         text727      0D8B
__end_of_robo_init            text717      0DB8
__end_of_rotate               text716      0600
__end_of_ser_init             text723      0E41
__end_of_ser_putch            text720      0F41
__end_of_spi_transfer         text721      0DF2
__end_of_sprintf              text731      0300
__end_ofi1_lcd_write_control  text730      0D77
__pbitbssBANK0                bitbssBANK0  0368
__pbssBANK0                   bssBANK0     0051
__pbssBANK1                   bssBANK1     00A0
__pcstackBANK0                cstackBANK0  0020
__pcstackBANK1                cstackBANK1  00E0
__pcstackCOMMON               cstackCOMMON 0070
__pdataBANK0                  dataBANK0    006F
__pdataBANK1                  dataBANK1    00D6
__pidataBANK0                 idataBANK0   0003
__pidataBANK1                 idataBANK1   0D33
__pintentry                   intentry     0004
__pmaintext                   maintext     049E
__pstrings                    strings      0600
__ptext713                    text713      0E41
__ptext714                    text714      0772
__ptext715                    text715      0EE8
__ptext716                    text716      05BB
__ptext717                    text717      0D9F
__ptext718                    text718      0DB8
__ptext719                    text719      0D8B
__ptext720                    text720      0F13
__ptext721                    text721      0DD4
__ptext722                    text722      0FB9
__ptext723                    text723      0E19
__ptext724                    text724      0300
__ptext725                    text725      03E5
__ptext726                    text726      06CF
__ptext727                    text727      0D77
__ptext728                    text728      0E94
__ptext729                    text729      0D2A
__ptext730                    text730      0D63
__ptext731                    text731      0200
__ptext732                    text732      0015
__ptext733                    text733      0F41
__ptext734                    text734      0D3D
__ptext735                    text735      07BF
__ptext736                    text736      0669
__ptext737                    text737      0F73
__ptext738                    text738      0724
__ptext739                    text739      0E6A
__ptext740                    text740      053F
__ptext741                    text741      0DF2
__ptext742                    text742      0000
__size_of_ADCconvert          (abs)        0000
__size_of_Debounce            (abs)        0000
__size_of_Menu                (abs)        0000
__size_of_ReadButtons         (abs)        0000
__size_of_UpdateDisplay       (abs)        0000
__size_of___awmod             (abs)        0000
__size_of___lwdiv             (abs)        0000
__size_of___lwmod             (abs)        0000
__size_of___wmul              (abs)        0000
__size_of_adc_read            (abs)        0000
__size_of_adc_read_channel    (abs)        0000
__size_of_calibrateIR         (abs)        0000
__size_of_init                (abs)        0000
__size_of_init_adc            (abs)        0000
__size_of_isr1                (abs)        0000
__size_of_lcd_init            (abs)        0000
__size_of_lcd_set_cursor      (abs)        0000
__size_of_lcd_write_control   (abs)        0000
__size_of_lcd_write_data      (abs)        0000
__size_of_lcd_write_string    (abs)        0000
__size_of_main                (abs)        0000
__size_of_readAvgDistance     (abs)        0000
__size_of_readDistance        (abs)        0000
__size_of_robo_init           (abs)        0000
__size_of_rotate              (abs)        0000
__size_of_ser_init            (abs)        0000
__size_of_ser_putch           (abs)        0000
__size_of_spi_transfer        (abs)        0000
__size_of_sprintf             (abs)        0000
__size_ofi1_lcd_write_control (abs)        0000
_adcVal                       bssBANK0     0053
_adc_read                     text741      0DF2
_adc_read_channel             text735      07BF
_buttonPressed                bssBANK0     0060
_calibrateIR                  text714      0772
_currentMenu                  bssBANK0     0061
_current_direction            bssBANK0     0062
_current_step                 dataBANK0    006F
_dist_high                    bssBANK0     0055
_dist_low                     bssBANK1     00D0
_distance                     bssBANK1     00D2
_dpowers                      strings      0610
_exit                         init         0012
_highByte                     bssBANK0     0063
_init                         text713      0E41
_init_adc                     text719      0D8B
_isr1                         text724      0300
_lcd_init                     text715      0EE8
_lcd_set_cursor               text729      0D2A
_lcd_write_control            text718      0DB8
_lcd_write_data               text734      0D3D
_lcd_write_string             text728      0E94
_lowByte                      bssBANK0     0064
_main                         maintext     049E
_menuStrings                  dataBANK1    00D6
_pos                          bssBANK0     0057
_readAvgDistance              text726      06CF
_readDistance                 text727      0D77
_robo_init                    text717      0D9F
_rotate                       text716      05BB
_rxfifo                       bssBANK1     00B0
_rxiptr                       bssBANK0     0065
_rxoptr                       bssBANK0     0066
_ser_init                     text723      0E19
_ser_putch                    text720      0F13
_ser_tmp                      bssBANK0     0067
_serialInput                  bssBANK0     0068
_shortMenuStrings             dataBANK1    00DB
_spi_transfer                 text721      0DD4
_sprintf                      text731      0200
_total                        bssBANK0     0059
_totalSteps                   bssBANK1     00D4
_turnhighByte                 bssBANK0     0069
_turnlowByte                  bssBANK0     006A
_txfifo                       bssBANK1     00C0
_txiptr                       bssBANK0     006B
_txoptr                       bssBANK0     006C
adc_read@adc_value            cstackCOMMON 0074
adc_read_channel@channel      cstackCOMMON 0077
btemp                         (abs)        007E
clear_ram                     clrtext      0D22
end_of_initialization         cinit        0EE4
i1_lcd_write_control          text730      0D63
i1lcd_write_control@databyte  cstackCOMMON 0072
init_fetch                    inittext     0D50
init_ram                      inittext     0D54
interrupt_function            intentry     0004
intlevel0                     functab      0000
intlevel1                     functab      0000
intlevel2                     functab      0000
intlevel3                     functab      0000
intlevel4                     functab      0000
intlevel5                     functab      0000
lcd_set_cursor@address        cstackCOMMON 0073
lcd_write_control@databyte    cstackBANK1  00E2
lcd_write_data@databyte       cstackCOMMON 0072
lcd_write_string@s            cstackCOMMON 0077
main@choice                   cstackBANK1  00E9
readAvgDistance@fullval       cstackBANK0  0022
readAvgDistance@i             cstackBANK0  0024
readDistance@fullval          cstackCOMMON 007C
reset_vec                     reset_vec    0000
rotate@direction              cstackBANK1  00E3
rotate@i                      cstackBANK1  00E7
rotate@steps                  cstackBANK1  00E6
saved_w                       (abs)        007E
ser_putch@c                   cstackBANK1  00E1
spi_transfer@data             cstackBANK1  00E2
spi_transfer@temp             cstackBANK1  00E1
sprintf@_val                  cstackBANK0  0031
sprintf@ap                    cstackBANK0  002E
sprintf@c                     cstackBANK0  0036
sprintf@f                     cstackBANK0  0026
sprintf@flag                  cstackBANK0  002F
sprintf@prec                  cstackBANK0  0030
sprintf@sp                    cstackBANK0  0035
start                         init         0012
start_initialization          cinit        0EBE
wtemp0                        (abs)        007E
