HI-TECH Software C Compiler 

Linker command line:

--edf=C:\Program Files\HI-TECH Software\PICC\9.83\dat\en_msgs.txt -cs \
  -h+Assignment3_AldnoahZero.sym -z -Q16F877A -ol.obj \
  -MAssignment3_AldnoahZero.map -E1 -ACONST=00h-0FFhx32 -ACODE=00h-07FFhx4 \
  -ASTRCODE=00h-01FFFh -AENTRY=00h-0FFhx32 -ASTRING=00h-0FFhx32 \
  -ABANK0=020h-06Fh -ABANK1=0A0h-0EFh -ABANK2=0110h-016Fh \
  -ABANK3=0190h-01EFh -ARAM=020h-06Fh,0A0h-0EFh,0110h-016Fh,0190h-01EFh \
  -AABS1=020h-07Fh,0A0h-0EFh,0110h-016Fh,0190h-01EFh -ACOMMON=070h-07Fh \
  -ASFR0=00h-01Fh -ASFR1=080h-09Fh -ASFR2=0100h-010Fh -ASFR3=0180h-018Fh \
  -preset_vec=00h,intentry=04h,init,end_init -ppowerup=CODE -pfunctab=CODE \
  -ACONFIG=02007h-02007h -pconfig=CONFIG -DCONFIG=2 -AIDLOC=02000h-02003h \
  -pidloc=IDLOC -DIDLOC=2 -AEEDATA=00h-0FFh/02100h -peeprom_data=EEDATA \
  -DEEDATA=2 -DCODE=2 -DSTRCODE=2 -DSTRING=2 -DCONST=2 -DENTRY=2 -k \
  startup.obj Assignment3_AldnoahZero.obj 

Object code version is 3.10

Machine type is 16F877A



                Name                               Link     Load   Length Selector   Space Scale
startup.obj     end_init                             12       12        3        8       0
                reset_vec                             0        0        3        0       0
Assignment3_AldnoahZero.obj
                intentry                              4        4        E        8       0
                config                             2007     2007        1     400E       0
                text551                             6D4      6D4       27        8       0
                text550                             45D      45D       7C        8       0
                text549                             545      545       4E        8       0
                text548                             593      593       44        8       0
                text547                             5D7      5D7       41        8       0
                text546                             7C6      7C6       13      E3E       0
                text545                             64F      64F       32        8       0
                text544                             277      277       FE        8       0
                text543                             7B2      7B2       14      E3E       0
                text542                             7D9      7D9        9      E3E       0
                text541                             758      758       1A      E3E       0
                text540                             79E      79E       14      E3E       0
                text539                             4D9      4D9       6C        8       0
                text538                              15       15      262        8       0
                text537                             375      375       E8        8       0
                text536                             6AC      6AC       28        8       0
                text535                             78A      78A       14      E3E       0
                text534                             73C      73C       1C      E3E       0
                text533                             681      681       2B        8       0
                text532                             772      772       18      E3E       0
                maintext                            618      618       37        8       0
                cstackBANK0                          20       20       39       20       1
                cstackCOMMON                         70       70        E       70       1
                cstackBANK1                          E0       E0        3       A0       1
                clrtext                             7E2      7E2        8      E3E       0
                bssBANK1                             A0       A0       40       A0       1
                dataBANK0                            69       69        1       20       1
                bssBANK0                             5B       5B        E       20       1
                bitbssBANK0                         2C8       59        F       20       1     8
                cinit                               71F      71F       1D      E3E       0
                strings                             700      700       1F      E00       0
                idataBANK0                          7EA      7EA        1      E3E       0

TOTAL           Name                               Link     Load   Length     Space
        CLASS   CONST          

        CLASS   CODE           
                end_init                             12       12        3         0
                intentry                              4        4        E         0
                reset_vec                             0        0        3         0
                text551                             6D4      6D4       27         0
                text550                             45D      45D       7C         0
                text549                             545      545       4E         0
                text548                             593      593       44         0
                text547                             5D7      5D7       41         0
                text546                             7C6      7C6       13         0
                text545                             64F      64F       32         0
                text544                             277      277       FE         0
                text543                             7B2      7B2       14         0
                text542                             7D9      7D9        9         0
                text541                             758      758       1A         0
                text540                             79E      79E       14         0
                text539                             4D9      4D9       6C         0
                text538                              15       15      262         0
                text537                             375      375       E8         0
                text536                             6AC      6AC       28         0
                text535                             78A      78A       14         0
                text534                             73C      73C       1C         0
                text533                             681      681       2B         0
                text532                             772      772       18         0
                maintext                            618      618       37         0
                clrtext                             7E2      7E2        8         0
                cinit                               71F      71F       1D         0
                idataBANK0                          7EA      7EA        1         0

        CLASS   STRCODE        

        CLASS   ENTRY          

        CLASS   STRING         
                strings                             700      700       1F         0

        CLASS   BANK0          
                cstackBANK0                          20       20       39         1
                dataBANK0                            69       69        1         1
                bssBANK0                             5B       5B        E         1
                bitbssBANK0                         2C8       59        F         1

        CLASS   BANK1          
                cstackBANK1                          E0       E0        3         1
                bssBANK1                             A0       A0       40         1

        CLASS   BANK2          

        CLASS   BANK3          

        CLASS   RAM            

        CLASS   ABS1           
                abs_s1                               7E       7E        2         1

        CLASS   COMMON         
                cstackCOMMON                         70       70        E         1

        CLASS   SFR0           

        CLASS   SFR1           

        CLASS   SFR2           

        CLASS   SFR3           

        CLASS   CONFIG         
                config                             2007     2007        1         0

        CLASS   IDLOC          

        CLASS   EEDATA         



SEGMENTS        Name                           Load    Length   Top    Selector   Space  Class     Delta

                reset_vec                      000000  000003  000003         0       0  CODE        2
                intentry                       000004  0006F7  0006FB         8       0  CODE        2
                cstackBANK0                    000020  00004A  00006A        20       1  BANK0       1
                cstackCOMMON                   000070  00000E  00007E        70       1  COMMON      1
                bssBANK1                       0000A0  000043  0000E3        A0       1  BANK1       1
                strings                        000700  00001F  00071F       E00       0  STRING      2
                cinit                          00071F  0000CC  0007EB       E3E       0  CODE        2
                config                         002007  000001  002008      400E       0  CONFIG      2


UNUSED ADDRESS RANGES

        Name                Unused          Largest block    Delta
        BANK0            006A-006F              6           1
        BANK1            00E3-00EF              D           1
        BANK2            0110-016F             60           1
        BANK3            0190-01EF             60           1
        CODE             0003-0003              1           2
                         06FB-06FF              5
                         07EB-1FFF            800
        CONST            0003-0003              1           2
                         06FB-06FF              5
                         07EB-1FFF            100
        EEDATA           2100-21FF            100           2
        ENTRY            0003-0003              1           2
                         06FB-06FF              5
                         07EB-1FFF            100
        IDLOC            2000-2003              4           2
        RAM              006A-006F              6           1
                         00E3-00EF              D
                         0110-016F             60
                         0190-01EF             60
        SFR0             0000-001F             20           1
        SFR1             0080-009F             20           1
        SFR2             0100-010F             10           1
        SFR3             0180-018F             10           1
        STRCODE          0003-0003              1           2
                         06FB-06FF              5
                         07EB-1FFF           1815
        STRING           0003-0003              1           2
                         06FB-06FF              5
                         07EB-1FFF            100

                                  Symbol Table

??_ADCconvert                 cstackBANK0  003E
??_Debounce                   cstackCOMMON 0070
??_ReadButtons                cstackCOMMON 0071
??___lwdiv                    cstackCOMMON 0074
??___lwmod                    cstackCOMMON 007C
??_adc_read                   cstackCOMMON 0072
??_adc_read_channel           cstackCOMMON 0076
??_init                       cstackBANK1  00E3
??_init_adc                   cstackBANK1  00E0
??_isr1                       cstackBANK0  0054
??_lcd_init                   cstackBANK1  00E3
??_lcd_set_cursor             cstackCOMMON 0073
??_lcd_write_control          cstackBANK1  00E0
??_lcd_write_data             cstackCOMMON 0070
??_lcd_write_string           cstackCOMMON 0073
??_main                       cstackBANK1  00E3
??_readAvgDistance            cstackBANK0  0022
??_readDistance               cstackCOMMON 007A
??_ser_init                   cstackBANK1  00E0
??_sprintf                    cstackBANK0  0025
??i1_lcd_write_control        cstackCOMMON 0070
?_ADCconvert                  cstackBANK0  003C
?_Debounce                    cstackCOMMON 0070
?_ReadButtons                 cstackCOMMON 0070
?___lwdiv                     cstackCOMMON 0070
?___lwmod                     cstackCOMMON 0078
?_adc_read                    cstackCOMMON 0070
?_adc_read_channel            cstackCOMMON 0070
?_init                        cstackCOMMON 0070
?_init_adc                    cstackCOMMON 0070
?_isr1                        cstackCOMMON 0070
?_lcd_init                    cstackCOMMON 0070
?_lcd_set_cursor              cstackCOMMON 0070
?_lcd_write_control           cstackCOMMON 0070
?_lcd_write_data              cstackCOMMON 0070
?_lcd_write_string            cstackCOMMON 0070
?_main                        cstackCOMMON 0070
?_readAvgDistance             cstackBANK0  0020
?_readDistance                cstackCOMMON 0078
?_ser_init                    cstackCOMMON 0070
?_sprintf                     cstackBANK0  0020
?i1_lcd_write_control         cstackCOMMON 0070
ADCconvert@F1190              bssBANK1     00A0
ADCconvert@adcOutput          cstackBANK0  0042
ADCconvert@adcVal             cstackBANK0  003C
ADCconvert@distance           cstackBANK0  0052
_ADCON0                       (abs)        001F
_ADCON1                       (abs)        009F
_ADCconvert                   text538      0015
_ADRESH                       (abs)        001E
_ADRESL                       (abs)        009E
_BRGH                         (abs)        04C2
_CARRY                        (abs)        0018
_CHS0                         (abs)        00FB
_CHS1                         (abs)        00FC
_CHS2                         (abs)        00FD
_CREN                         (abs)        00C4
_CenterDebounceCount          bssBANK0     005D
_CenterPressed                bitbssBANK0  02C8
_CenterReleased               bitbssBANK0  02C9
_Debounce                     text550      045D
_DownDebounceCount            bssBANK0     005E
_DownPressed                  bitbssBANK0  02CA
_DownReleased                 bitbssBANK0  02CB
_EEADR                        (abs)        010D
_EECON1                       (abs)        018C
_EECON2                       (abs)        018D
_EEDATA                       (abs)        010C
_GIE                          (abs)        005F
_GO                           (abs)        00FA
_LeftDebounceCount            bssBANK0     005F
_LeftPressed                  bitbssBANK0  02CC
_LeftReleased                 bitbssBANK0  02CD
_OERR                         (abs)        00C1
_OPTION_REG                   (abs)        0081
_PORTA                        (abs)        0005
_PORTC                        (abs)        0007
_PORTD                        (abs)        0008
_PORTE                        (abs)        0009
_RB0                          (abs)        0030
_RB1                          (abs)        0031
_RB2                          (abs)        0032
_RB3                          (abs)        0033
_RB4                          (abs)        0034
_RB5                          (abs)        0035
_RB6                          (abs)        0036
_RCIE                         (abs)        0465
_RCIF                         (abs)        0065
_RCREG                        (abs)        001A
_RD                           (abs)        0C60
_RE0                          (abs)        0048
_RE1                          (abs)        0049
_RE2                          (abs)        004A
_RTC_Counter                  bssBANK0     005B
_RTC_FLAG_10MS                bitbssBANK0  02CE
_RTC_FLAG_1MS                 bitbssBANK0  02CF
_RTC_FLAG_250MS               bitbssBANK0  02D0
_RTC_FLAG_500MS               bitbssBANK0  02D1
_RTC_FLAG_50MS                bitbssBANK0  02D2
_RX9                          (abs)        00C6
_ReadButtons                  text545      064F
_RightDebounceCount           bssBANK0     0060
_RightPressed                 bitbssBANK0  02D3
_RightReleased                bitbssBANK0  02D4
_SPBRG                        (abs)        0099
_SPEN                         (abs)        00C7
_SYNC                         (abs)        04C4
_TMR0                         (abs)        0001
_TMR0IE                       (abs)        005D
_TMR0IF                       (abs)        005A
_TRISA                        (abs)        0085
_TRISB                        (abs)        0086
_TRISC                        (abs)        0087
_TRISD                        (abs)        0088
_TRISE                        (abs)        0089
_TX9                          (abs)        04C6
_TXEN                         (abs)        04C5
_TXIE                         (abs)        0464
_TXIF                         (abs)        0064
_TXREG                        (abs)        0019
_UpDebounceCount              bssBANK0     0061
_UpPressed                    bitbssBANK0  02D5
_UpReleased                   bitbssBANK0  02D6
_WR                           (abs)        0C61
_WREN                         (abs)        0C62
__Habs1                       abs1         0000
__Hbank0                      bank0        0000
__Hbank1                      bank1        0000
__Hbank2                      bank2        0000
__Hbank3                      bank3        0000
__HbitbssBANK0                bitbssBANK0  0000
__HbssBANK0                   bssBANK0     0000
__HbssBANK1                   bssBANK1     0000
__Hcinit                      cinit        0000
__Hclrtext                    clrtext      0000
__Hcode                       code         0000
__Hcommon                     common       0000
__Hconfig                     config       2008
__HcstackBANK0                cstackBANK0  0000
__HcstackBANK1                cstackBANK1  0000
__HcstackCOMMON               cstackCOMMON 0000
__HdataBANK0                  dataBANK0    0000
__Heeprom_data                eeprom_data  0000
__Hend_init                   end_init     0015
__Hfunctab                    functab      0000
__HidataBANK0                 idataBANK0   0000
__Hidloc                      idloc        0000
__Hinit                       init         0012
__Hintentry                   intentry     0012
__Hmaintext                   maintext     0000
__Hpowerup                    powerup      0000
__Hram                        ram          0000
__Hreset_vec                  reset_vec    0003
__Hsfr0                       sfr0         0000
__Hsfr1                       sfr1         0000
__Hsfr2                       sfr2         0000
__Hsfr3                       sfr3         0000
__Hstrings                    strings      0000
__Htext                       text         0000
__Labs1                       abs1         0000
__Lbank0                      bank0        0000
__Lbank1                      bank1        0000
__Lbank2                      bank2        0000
__Lbank3                      bank3        0000
__LbitbssBANK0                bitbssBANK0  0000
__LbssBANK0                   bssBANK0     0000
__LbssBANK1                   bssBANK1     0000
__Lcinit                      cinit        0000
__Lclrtext                    clrtext      0000
__Lcode                       code         0000
__Lcommon                     common       0000
__Lconfig                     config       2007
__LcstackBANK0                cstackBANK0  0000
__LcstackBANK1                cstackBANK1  0000
__LcstackCOMMON               cstackCOMMON 0000
__LdataBANK0                  dataBANK0    0000
__Leeprom_data                eeprom_data  0000
__Lend_init                   end_init     0012
__Lfunctab                    functab      0000
__LidataBANK0                 idataBANK0   0000
__Lidloc                      idloc        0000
__Linit                       init         0012
__Lintentry                   intentry     0004
__Lmaintext                   maintext     0000
__Lpowerup                    powerup      0000
__Lram                        ram          0000
__Lreset_vec                  reset_vec    0000
__Lsfr0                       sfr0         0000
__Lsfr1                       sfr1         0000
__Lsfr2                       sfr2         0000
__Lsfr3                       sfr3         0000
__Lstrings                    strings      0000
__Ltext                       text         0000
__S0                          (abs)        2008
__S1                          (abs)        00E3
__S2                          (abs)        0000
___lwdiv                      text549      0545
___lwdiv@counter              cstackCOMMON 0077
___lwdiv@dividend             cstackCOMMON 0072
___lwdiv@divisor              cstackCOMMON 0070
___lwdiv@quotient             cstackCOMMON 0075
___lwmod                      text548      0593
___lwmod@counter              cstackCOMMON 007D
___lwmod@dividend             cstackCOMMON 007A
___lwmod@divisor              cstackCOMMON 0078
__end_of_ADCconvert           text538      0277
__end_of_Debounce             text550      04D9
__end_of_ReadButtons          text545      0681
__end_of___lwdiv              text549      0593
__end_of___lwmod              text548      05D7
__end_of_adc_read             text551      06FB
__end_of_adc_read_channel     text547      0618
__end_of_init                 text532      078A
__end_of_init_adc             text535      079E
__end_of_isr1                 text537      045D
__end_of_lcd_init             text533      06AC
__end_of_lcd_set_cursor       text542      07E2
__end_of_lcd_write_control    text534      0758
__end_of_lcd_write_data       text546      07D9
__end_of_lcd_write_string     text541      0772
__end_of_main                 maintext     064F
__end_of_readAvgDistance      text539      0545
__end_of_readDistance         text540      07B2
__end_of_ser_init             text536      06D4
__end_of_sprintf              text544      0375
__end_ofi1_lcd_write_control  text543      07C6
__pbitbssBANK0                bitbssBANK0  02C8
__pbssBANK0                   bssBANK0     005B
__pbssBANK1                   bssBANK1     00A0
__pcstackBANK0                cstackBANK0  0020
__pcstackBANK1                cstackBANK1  00E0
__pcstackCOMMON               cstackCOMMON 0070
__pdataBANK0                  dataBANK0    0069
__pidataBANK0                 idataBANK0   07EA
__pintentry                   intentry     0004
__pmaintext                   maintext     0618
__pstrings                    strings      0700
__ptext532                    text532      0772
__ptext533                    text533      0681
__ptext534                    text534      073C
__ptext535                    text535      078A
__ptext536                    text536      06AC
__ptext537                    text537      0375
__ptext538                    text538      0015
__ptext539                    text539      04D9
__ptext540                    text540      079E
__ptext541                    text541      0758
__ptext542                    text542      07D9
__ptext543                    text543      07B2
__ptext544                    text544      0277
__ptext545                    text545      064F
__ptext546                    text546      07C6
__ptext547                    text547      05D7
__ptext548                    text548      0593
__ptext549                    text549      0545
__ptext550                    text550      045D
__ptext551                    text551      06D4
__ptext552                    text552      0000
__size_of_ADCconvert          (abs)        0000
__size_of_Debounce            (abs)        0000
__size_of_ReadButtons         (abs)        0000
__size_of___lwdiv             (abs)        0000
__size_of___lwmod             (abs)        0000
__size_of_adc_read            (abs)        0000
__size_of_adc_read_channel    (abs)        0000
__size_of_init                (abs)        0000
__size_of_init_adc            (abs)        0000
__size_of_isr1                (abs)        0000
__size_of_lcd_init            (abs)        0000
__size_of_lcd_set_cursor      (abs)        0000
__size_of_lcd_write_control   (abs)        0000
__size_of_lcd_write_data      (abs)        0000
__size_of_lcd_write_string    (abs)        0000
__size_of_main                (abs)        0000
__size_of_readAvgDistance     (abs)        0000
__size_of_readDistance        (abs)        0000
__size_of_ser_init            (abs)        0000
__size_of_sprintf             (abs)        0000
__size_ofi1_lcd_write_control (abs)        0000
_adc_read                     text551      06D4
_adc_read_channel             text547      05D7
_buttonPressed                bssBANK0     0062
_current_direction            bssBANK0     0063
_current_step                 dataBANK0    0069
_dpowers                      strings      0706
_exit                         init         0012
_init                         text532      0772
_init_adc                     text535      078A
_isr1                         text537      0375
_lcd_init                     text533      0681
_lcd_set_cursor               text542      07D9
_lcd_write_control            text534      073C
_lcd_write_data               text546      07C6
_lcd_write_string             text541      0758
_main                         maintext     0618
_readAvgDistance              text539      04D9
_readDistance                 text540      079E
_rxfifo                       bssBANK1     00B0
_rxiptr                       bssBANK0     0064
_rxoptr                       bssBANK0     0065
_ser_init                     text536      06AC
_ser_tmp                      bssBANK0     0066
_sprintf                      text544      0277
_txfifo                       bssBANK1     00C0
_txiptr                       bssBANK0     0067
_txoptr                       bssBANK0     0068
adc_read@adc_value            cstackCOMMON 0074
adc_read_channel@channel      cstackCOMMON 0077
btemp                         (abs)        007E
clear_ram                     clrtext      07E2
end_of_initialization         cinit        0738
i1_lcd_write_control          text543      07B2
i1lcd_write_control@databyte  cstackCOMMON 0072
interrupt_function            intentry     0004
intlevel0                     functab      0000
intlevel1                     functab      0000
intlevel2                     functab      0000
intlevel3                     functab      0000
intlevel4                     functab      0000
intlevel5                     functab      0000
lcd_set_cursor@address        cstackCOMMON 0073
lcd_write_control@databyte    cstackBANK1  00E2
lcd_write_data@databyte       cstackCOMMON 0072
lcd_write_string@s            cstackCOMMON 0074
readAvgDistance@F1184         bssBANK1     00D0
readAvgDistance@adcOutput     cstackBANK0  0026
readAvgDistance@averageval    cstackBANK0  0036
readAvgDistance@fullval       cstackBANK0  0038
readAvgDistance@i             cstackBANK0  003A
readDistance@fullval          cstackCOMMON 007C
reset_vec                     reset_vec    0000
saved_w                       (abs)        007E
sprintf@_val                  cstackBANK0  002B
sprintf@ap                    cstackBANK0  0028
sprintf@c                     cstackBANK0  0030
sprintf@f                     cstackBANK0  0020
sprintf@flag                  cstackBANK0  0029
sprintf@prec                  cstackBANK0  002A
sprintf@sp                    cstackBANK0  002F
start                         init         0012
start_initialization          cinit        071F
wtemp0                        (abs)        007E
