

HI-TECH Software PIC LITE Macro Assembler V9.83 build 10920 
                                                                                               Fri May 22 19:43:40 2015

HI-TECH Software Omniscient Code Generator (Lite mode) build 10920
     1  0000                     opt subtitle "HI-TECH Software Omniscient Code Generator (Lite mode) build 10920"
     2                           
     3                           opt pagewidth 120
     4                           
     5                           	opt lm
     6                           
     7                           	processor	16F877A
     8                           clrc	macro
     9                           	bcf	3,0
    10  0000                     	endm
    11                           clrz	macro
    12                           	bcf	3,2
    13  0000                     	endm
    14                           setc	macro
    15                           	bsf	3,0
    16  0000                     	endm
    17                           setz	macro
    18                           	bsf	3,2
    19  0000                     	endm
    20                           skipc	macro
    21                           	btfss	3,0
    22  0000                     	endm
    23                           skipz	macro
    24                           	btfss	3,2
    25  0000                     	endm
    26                           skipnc	macro
    27                           	btfsc	3,0
    28  0000                     	endm
    29                           skipnz	macro
    30                           	btfsc	3,2
    31  0000                     	endm
    32  0000                     indf	equ	0
    33  0000                     indf0	equ	0
    34  0002                     pc	equ	2
    35  0002                     pcl	equ	2
    36  0003                     status	equ	3
    37  0004                     fsr	equ	4
    38  0004                     fsr0	equ	4
    39  0001                     c	equ	1
    40  0000                     z	equ	0
    41  000A                     pclath	equ	10
    42                           # 52 "E:\Aldnoah.Zero\Assignment3\Main.c"
    43                           	psect config,class=CONFIG,delta=2 ;#
    44                           # 52 "E:\Aldnoah.Zero\Assignment3\Main.c"
    45  2007  FF32               	dw 0xFFFE & 0xFFFB & 0xFFFF & 0xFFBF & 0xFFF7 & 0xFFFF & 0xFF7F & 0xFFFF ;#
    46                           	FNCALL	_main,_init
    47                           	FNCALL	_main,_robotLoadSong
    48                           	FNCALL	_main,_robot_read
    49                           	FNCALL	_main,_readAvgDistance
    50                           	FNCALL	_main,_UpdateDisplay
    51                           	FNCALL	_main,_Menu
    52                           	FNCALL	_main,_calibrateIR
    53                           	FNCALL	_main,_Init_Follow_IR
    54                           	FNCALL	_main,_GoHome
    55                           	FNCALL	_main,_FindVictim
    56                           	FNCALL	_main,_ChargeMode
    57                           	FNCALL	_FindVictim,_readAvgDistance
    58                           	FNCALL	_FindVictim,_robotFollow
    59                           	FNCALL	_FindVictim,_RobotDrive
    60                           	FNCALL	_FindVictim,_robotTurnSpeed
    61                           	FNCALL	_FindVictim,_ser_putch
    62                           	FNCALL	_FindVictim,_robotMoveSpeed
    63                           	FNCALL	_FindVictim,_robot_turnInPlace
    64                           	FNCALL	_FindVictim,_robot_turnArc
    65                           	FNCALL	_GoHome,_robotTurnSpeed
    66                           	FNCALL	_GoHome,_robot_turnArc
    67                           	FNCALL	_GoHome,_readAvgDistance
    68                           	FNCALL	_GoHome,_robotFollow
    69                           	FNCALL	_GoHome,_ser_putch
    70                           	FNCALL	_GoHome,_robot_turnInPlace
    71                           	FNCALL	_GoHome,_robotMoveSpeed
    72                           	FNCALL	_robot_turnInPlace,_robotTurnSpeed
    73                           	FNCALL	_robot_turnInPlace,_ser_putch
    74                           	FNCALL	_robot_turnInPlace,_RobotDrive
    75                           	FNCALL	_robotFollow,_RobotDrive
    76                           	FNCALL	_robotFollow,_ser_putch
    77                           	FNCALL	_robotFollow,_readAvgDistance
    78                           	FNCALL	_robotFollow,_rotate
    79                           	FNCALL	_robotFollow,_robot_read
    80                           	FNCALL	_robotFollow,_robotTurnSpeed
    81                           	FNCALL	_robotFollow,_robotMoveSpeed
    82                           	FNCALL	_robotFollow,_UpdateDisplay
    83                           	FNCALL	_Init_Follow_IR,_calibrateIR
    84                           	FNCALL	_Init_Follow_IR,_rotate
    85                           	FNCALL	_robotMoveSpeed,_RobotDrive
    86                           	FNCALL	_robotMoveSpeed,_robot_read
    87                           	FNCALL	_robotMoveSpeed,_UpdateDisplay
    88                           	FNCALL	_robotMoveSpeed,_abs
    89                           	FNCALL	_robot_turnArc,_RobotDrive
    90                           	FNCALL	_robot_turnArc,_rotate
    91                           	FNCALL	_robot_turnArc,_readAvgDistance
    92                           	FNCALL	_robot_turnArc,_robot_read
    93                           	FNCALL	_robot_turnArc,_UpdateDisplay
    94                           	FNCALL	_robot_turnArc,___awdiv
    95                           	FNCALL	_robot_turnArc,_abs
    96                           	FNCALL	_robotTurnSpeed,_robotTurn
    97                           	FNCALL	_robotTurnSpeed,_robot_read
    98                           	FNCALL	_robotTurnSpeed,_UpdateDisplay
    99                           	FNCALL	_robotTurnSpeed,_abs
   100                           	FNCALL	_ChargeMode,_ser_putch
   101                           	FNCALL	_ChargeMode,_RobotBattRead
   102                           	FNCALL	_ChargeMode,_UpdateDisplay
   103                           	FNCALL	_calibrateIR,_rotate
   104                           	FNCALL	_calibrateIR,_UpdateDisplay
   105                           	FNCALL	_UpdateDisplay,_lcd_write_control
   106                           	FNCALL	_UpdateDisplay,_sprintf
   107                           	FNCALL	_UpdateDisplay,_lcd_set_cursor
   108                           	FNCALL	_UpdateDisplay,_lcd_write_string
   109                           	FNCALL	_UpdateDisplay,___awmod
   110                           	FNCALL	_UpdateDisplay,___awdiv
   111                           	FNCALL	_readAvgDistance,_readDistance
   112                           	FNCALL	_readAvgDistance,___lwdiv
   113                           	FNCALL	_init,_ser_init
   114                           	FNCALL	_init,_init_adc
   115                           	FNCALL	_init,_lcd_init
   116                           	FNCALL	_init,_robo_init
   117                           	FNCALL	_readDistance,_adc_read_channel
   118                           	FNCALL	_RobotBattRead,_ser_putch
   119                           	FNCALL	_RobotBattRead,_ser_getch
   120                           	FNCALL	_robot_read,_ser_putch
   121                           	FNCALL	_robot_read,_ser_getch
   122                           	FNCALL	_lcd_init,_lcd_write_control
   123                           	FNCALL	_lcd_write_string,_lcd_write_data
   124                           	FNCALL	_lcd_set_cursor,_lcd_write_control
   125                           	FNCALL	_abs,___wmul
   126                           	FNCALL	_robotTurn,_ser_putch
   127                           	FNCALL	_ser_getch,_ser_isrx
   128                           	FNCALL	_sprintf,_isdigit
   129                           	FNCALL	_sprintf,___wmul
   130                           	FNCALL	_sprintf,___lwdiv
   131                           	FNCALL	_sprintf,___lwmod
   132                           	FNCALL	_RobotDrive,_ser_putch
   133                           	FNCALL	_rotate,_spi_transfer
   134                           	FNCALL	_robotLoadSong,_ser_putch
   135                           	FNCALL	_robo_init,_ser_putch
   136                           	FNCALL	_adc_read_channel,_adc_read
   137                           	FNROOT	_main
   138                           	FNCALL	_isr1,i1___lwmod
   139                           	FNCALL	_isr1,_ReadButtons
   140                           	FNCALL	intlevel1,_isr1
   141                           	global	intlevel1
   142                           	FNROOT	intlevel1
   143                           	global	_menuStrings
   144                           	global	_shortMenuStrings
   145                           psect	idataBANK1,class=CODE,space=0,delta=2
   146                           global __pidataBANK1
   147  0803                     __pidataBANK1:
   148                           	file	"E:\Aldnoah.Zero\Assignment3\HMI.c"
   149                           	line	49
   150                           
   151                           ;initializer for _menuStrings
   152  0803  3474               	retlw	(STR_1-__stringbase)&0ffh
   153  0804  346B               	retlw	(STR_2-__stringbase)&0ffh
   154  0805  3486               	retlw	(STR_3-__stringbase)&0ffh
   155  0806  348F               	retlw	(STR_4-__stringbase)&0ffh
   156  0807  347D               	retlw	(STR_5-__stringbase)&0ffh
   157  0808  3462               	retlw	(STR_6-__stringbase)&0ffh
   158                           	line	50
   159                           
   160                           ;initializer for _shortMenuStrings
   161  0809  34B8               	retlw	(STR_7-__stringbase)&0ffh
   162  080A  34BC               	retlw	(STR_8-__stringbase)&0ffh
   163  080B  34A4               	retlw	(STR_9-__stringbase)&0ffh
   164  080C  34B0               	retlw	(STR_10-__stringbase)&0ffh
   165  080D  34C0               	retlw	(STR_11-__stringbase)&0ffh
   166  080E  34B4               	retlw	(STR_12-__stringbase)&0ffh
   167                           	global	_dpowers
   168                           psect	strings,class=STRING,delta=2
   169                           global __pstrings
   170  1000                     __pstrings:
   171                           ;	global	stringdir,stringtab,__stringbase
   172  1000                     stringtab:
   173                           ;	String table - string pointers are 1 byte each
   174  1000  1BFF               	btfsc	(btemp+1),7
   175  1001  280A               	ljmp	stringcode
   176  1002  1383               	bcf	status,7
   177  1003  187F               	btfsc	(btemp+1),0
   178  1004  1783               	bsf	status,7
   179  1005  0800               	movf	indf,w
   180  1006  0A84               	incf fsr
   181  1007  1903               skipnz
   182  1008  0AFF               incf btemp+1
   183  1009  0008               	return
   184  100A                     stringcode:stringdir:
      + 100A                     stringdir:	
   185  100A  3010               movlw high(stringdir)
   186  100B  008A               movwf pclath
   187  100C  0804               movf fsr,w
   188  100D  0A84               incf fsr
   189  100E  0782               	addwf pc
   190  100F                     __stringbase:
   191  100F  3400               	retlw	0
   192                           psect	strings
   193                           	file	"C:\Program Files\HI-TECH Software\PICC\9.83\lib\doprnt.c"
   194                           	line	350
   195  1010                     _dpowers:
   196  1010  3401               	retlw	01h
   197  1011  3400               	retlw	0
   198                           
   199  1012  340A               	retlw	0Ah
   200  1013  3400               	retlw	0
   201                           
   202  1014  3464               	retlw	064h
   203  1015  3400               	retlw	0
   204                           
   205  1016  34E8               	retlw	0E8h
   206  1017  3403               	retlw	03h
   207                           
   208  1018  3410               	retlw	010h
   209  1019  3427               	retlw	027h
   210                           
   211                           	global	_dpowers
   212                           	global	UpdateDisplay@F1260
   213                           	global	_rxfifo
   214                           	global	_txfifo
   215                           	global	_DistHighByte
   216                           	global	_CenterPressed
   217                           	global	_CenterReleased
   218                           	global	_DownPressed
   219                           	global	_DownReleased
   220                           	global	_LeftPressed
   221                           	global	_LeftReleased
   222                           	global	_RTC_FLAG_1MS
   223                           	global	_RTC_FLAG_250MS
   224                           	global	_RTC_FLAG_500MS
   225                           	global	_RightPressed
   226                           	global	_RightReleased
   227                           	global	_UpPressed
   228                           	global	_UpReleased
   229                           	global	_BattCharge
   230                           	global	_BattState
   231                           	global	_Disp1
   232                           	global	_Disp2
   233                           	global	_IRdistance
   234                           	global	_RTC_Counter
   235                           	global	_TotalDistTravelled
   236                           	global	_adcVal
   237                           	global	_angleTurned
   238                           	global	_distTravelled
   239                           	global	_dist_high
   240                           	global	_dist_low
   241                           	global	_pos
   242                           	global	_total
   243                           	global	_totalSteps
   244                           	global	_trackingDist
   245                           	global	_AngleHighByte
   246                           	global	_AngleLowByte
   247                           	global	_BumpSensors
   248                           	global	_CenterDebounceCount
   249                           	global	_CliffSensors
   250                           	global	_DistLowByte
   251                           	global	_DownDebounceCount
   252                           	global	_FoundVictim
   253                           	global	_LeftDebounceCount
   254                           	global	_ROBOTerror
   255                           	global	_RightDebounceCount
   256                           	global	_RobotPos
   257                           	global	_UpDebounceCount
   258                           	global	_VictimSensor
   259                           	global	_VwallSensor
   260                           	global	_buttonPressed
   261                           	global	_currentMenu
   262                           	global	_followDir
   263                           	global	_highByte
   264                           	global	_lowByte
   265                           	global	_rxiptr
   266                           	global	_rxoptr
   267                           	global	_ser_tmp
   268                           	global	_turnhighByte
   269                           	global	_turnlowByte
   270                           	global	_txiptr
   271                           	global	_txoptr
   272                           	global	_ADCON0
   273  001F                     _ADCON0	set	31
   274                           	global	_ADRESH
   275  001E                     _ADRESH	set	30
   276                           	global	_PORTA
   277  0005                     _PORTA	set	5
   278                           	global	_PORTD
   279  0008                     _PORTD	set	8
   280                           	global	_PORTE
   281  0009                     _PORTE	set	9
   282                           	global	_RCREG
   283  001A                     _RCREG	set	26
   284                           	global	_SSPBUF
   285  0013                     _SSPBUF	set	19
   286                           	global	_SSPCON
   287  0014                     _SSPCON	set	20
   288                           	global	_TMR0
   289  0001                     _TMR0	set	1
   290                           	global	_TXREG
   291  0019                     _TXREG	set	25
   292                           	global	AT25256A@CS0
   293  0038                     AT25256A@CS0	set	56
   294                           	global	AT25256A@CS1
   295  0039                     AT25256A@CS1	set	57
   296                           	global	_CARRY
   297  0018                     _CARRY	set	24
   298                           	global	_CHS0
   299  00FB                     _CHS0	set	251
   300                           	global	_CHS1
   301  00FC                     _CHS1	set	252
   302                           	global	_CHS2
   303  00FD                     _CHS2	set	253
   304                           	global	_CREN
   305  00C4                     _CREN	set	196
   306                           	global	_GIE
   307  005F                     _GIE	set	95
   308                           	global	_GO
   309  00FA                     _GO	set	250
   310                           	global	_OERR
   311  00C1                     _OERR	set	193
   312                           	global	_PEIE
   313  005E                     _PEIE	set	94
   314                           	global	_RB0
   315  0030                     _RB0	set	48
   316                           	global	_RB2
   317  0032                     _RB2	set	50
   318                           	global	_RB3
   319  0033                     _RB3	set	51
   320                           	global	_RB4
   321  0034                     _RB4	set	52
   322                           	global	_RB5
   323  0035                     _RB5	set	53
   324                           	global	_RB6
   325  0036                     _RB6	set	54
   326                           	global	_RC0
   327  0038                     _RC0	set	56
   328                           	global	_RC1
   329  0039                     _RC1	set	57
   330                           	global	_RC2
   331  003A                     _RC2	set	58
   332                           	global	_RCIF
   333  0065                     _RCIF	set	101
   334                           	global	_RE0
   335  0048                     _RE0	set	72
   336                           	global	_RE1
   337  0049                     _RE1	set	73
   338                           	global	_RE2
   339  004A                     _RE2	set	74
   340                           	global	_RX9
   341  00C6                     _RX9	set	198
   342                           	global	_SPEN
   343  00C7                     _SPEN	set	199
   344                           	global	_SSPIF
   345  0063                     _SSPIF	set	99
   346                           	global	_TMR0IE
   347  005D                     _TMR0IE	set	93
   348                           	global	_TMR0IF
   349  005A                     _TMR0IF	set	90
   350                           	global	_TXIF
   351  0064                     _TXIF	set	100
   352                           	global	_ADCON1
   353  009F                     _ADCON1	set	159
   354                           	global	_ADRESL
   355  009E                     _ADRESL	set	158
   356                           	global	_OPTION_REG
   357  0081                     _OPTION_REG	set	129
   358                           	global	_SPBRG
   359  0099                     _SPBRG	set	153
   360                           	global	_SSPSTAT
   361  0094                     _SSPSTAT	set	148
   362                           	global	_TRISA
   363  0085                     _TRISA	set	133
   364                           	global	_TRISB
   365  0086                     _TRISB	set	134
   366                           	global	_TRISC
   367  0087                     _TRISC	set	135
   368                           	global	_TRISD
   369  0088                     _TRISD	set	136
   370                           	global	_TRISE
   371  0089                     _TRISE	set	137
   372                           	global	_BRGH
   373  04C2                     _BRGH	set	1218
   374                           	global	_RCIE
   375  0465                     _RCIE	set	1125
   376                           	global	_SYNC
   377  04C4                     _SYNC	set	1220
   378                           	global	_TX9
   379  04C6                     _TX9	set	1222
   380                           	global	_TXEN
   381  04C5                     _TXEN	set	1221
   382                           	global	_TXIE
   383  0464                     _TXIE	set	1124
   384                           	global	_EEADR
   385  010D                     _EEADR	set	269
   386                           	global	_EEDATA
   387  010C                     _EEDATA	set	268
   388                           	global	_EECON1
   389  018C                     _EECON1	set	396
   390                           	global	_EECON2
   391  018D                     _EECON2	set	397
   392                           	global	_RD
   393  0C60                     _RD	set	3168
   394                           	global	_WR
   395  0C61                     _WR	set	3169
   396                           	global	_WREN
   397  0C62                     _WREN	set	3170
   398                           	
   399  101A                     STR_18:	
   400  101A  3420               	retlw	32	;' '
   401  101B  3443               	retlw	67	;'C'
   402  101C  3468               	retlw	104	;'h'
   403  101D  3461               	retlw	97	;'a'
   404  101E  3472               	retlw	114	;'r'
   405  101F  3467               	retlw	103	;'g'
   406  1020  3469               	retlw	105	;'i'
   407  1021  346E               	retlw	110	;'n'
   408  1022  3467               	retlw	103	;'g'
   409  1023  3420               	retlw	32	;' '
   410  1024  344D               	retlw	77	;'M'
   411  1025  346F               	retlw	111	;'o'
   412  1026  3464               	retlw	100	;'d'
   413  1027  3465               	retlw	101	;'e'
   414  1028  3420               	retlw	32	;' '
   415  1029  3400               	retlw	0
   416                           psect	strings
   417                           	
   418  102A                     STR_27:	
   419  102A  3449               	retlw	73	;'I'
   420  102B  3452               	retlw	82	;'R'
   421  102C  343A               	retlw	58	;':'
   422  102D  3425               	retlw	37	;'%'
   423  102E  3433               	retlw	51	;'3'
   424  102F  3464               	retlw	100	;'d'
   425  1030  3463               	retlw	99	;'c'
   426  1031  346D               	retlw	109	;'m'
   427  1032  3420               	retlw	32	;' '
   428  1033  3443               	retlw	67	;'C'
   429  1034  3450               	retlw	80	;'P'
   430  1035  343A               	retlw	58	;':'
   431  1036  3425               	retlw	37	;'%'
   432  1037  3433               	retlw	51	;'3'
   433  1038  3464               	retlw	100	;'d'
   434  1039  3400               	retlw	0
   435                           psect	strings
   436                           	
   437  103A                     STR_14:	
   438  103A  345A               	retlw	90	;'Z'
   439  103B  3465               	retlw	101	;'e'
   440  103C  3472               	retlw	114	;'r'
   441  103D  346F               	retlw	111	;'o'
   442  103E  3420               	retlw	32	;' '
   443  103F  3453               	retlw	83	;'S'
   444  1040  3474               	retlw	116	;'t'
   445  1041  3465               	retlw	101	;'e'
   446  1042  3470               	retlw	112	;'p'
   447  1043  345F               	retlw	95	;'_'
   448  1044  344D               	retlw	77	;'M'
   449  1045  346F               	retlw	111	;'o'
   450  1046  3474               	retlw	116	;'t'
   451  1047  346F               	retlw	111	;'o'
   452  1048  3472               	retlw	114	;'r'
   453  1049  3400               	retlw	0
   454                           psect	strings
   455                           	
   456  104A                     STR_13:	
   457  104A  3449               	retlw	73	;'I'
   458  104B  3452               	retlw	82	;'R'
   459  104C  343A               	retlw	58	;':'
   460  104D  3425               	retlw	37	;'%'
   461  104E  3433               	retlw	51	;'3'
   462  104F  3464               	retlw	100	;'d'
   463  1050  3463               	retlw	99	;'c'
   464  1051  346D               	retlw	109	;'m'
   465  1052  3420               	retlw	32	;' '
   466  1053  3444               	retlw	68	;'D'
   467  1054  343A               	retlw	58	;':'
   468  1055  3425               	retlw	37	;'%'
   469  1056  3433               	retlw	51	;'3'
   470  1057  3464               	retlw	100	;'d'
   471  1058  3400               	retlw	0
   472                           psect	strings
   473                           	
   474  1059                     STR_28:	
   475  1059  3444               	retlw	68	;'D'
   476  105A  343A               	retlw	58	;':'
   477  105B  3425               	retlw	37	;'%'
   478  105C  3434               	retlw	52	;'4'
   479  105D  3464               	retlw	100	;'d'
   480  105E  3463               	retlw	99	;'c'
   481  105F  346D               	retlw	109	;'m'
   482  1060  3420               	retlw	32	;' '
   483  1061  3441               	retlw	65	;'A'
   484  1062  3454               	retlw	84	;'T'
   485  1063  343A               	retlw	58	;':'
   486  1064  3425               	retlw	37	;'%'
   487  1065  3433               	retlw	51	;'3'
   488  1066  3464               	retlw	100	;'d'
   489  1067  3400               	retlw	0
   490                           psect	strings
   491                           	
   492  1068                     STR_26:	
   493  1068  3420               	retlw	32	;' '
   494  1069  3420               	retlw	32	;' '
   495  106A  3445               	retlw	69	;'E'
   496  106B  3458               	retlw	88	;'X'
   497  106C  3449               	retlw	73	;'I'
   498  106D  3454               	retlw	84	;'T'
   499  106E  3420               	retlw	32	;' '
   500  106F  3420               	retlw	32	;' '
   501  1070  3400               	retlw	0
   502                           psect	strings
   503                           	
   504  1071                     STR_6:	
   505  1071  3420               	retlw	32	;' '
   506  1072  3443               	retlw	67	;'C'
   507  1073  3468               	retlw	104	;'h'
   508  1074  3461               	retlw	97	;'a'
   509  1075  3472               	retlw	114	;'r'
   510  1076  3467               	retlw	103	;'g'
   511  1077  3465               	retlw	101	;'e'
   512  1078  3420               	retlw	32	;' '
   513  1079  3400               	retlw	0
   514                           psect	strings
   515                           	
   516  107A                     STR_2:	
   517  107A  3453               	retlw	83	;'S'
   518  107B  3463               	retlw	99	;'c'
   519  107C  3461               	retlw	97	;'a'
   520  107D  346E               	retlw	110	;'n'
   521  107E  345F               	retlw	95	;'_'
   522  107F  3433               	retlw	51	;'3'
   523  1080  3436               	retlw	54	;'6'
   524  1081  3430               	retlw	48	;'0'
   525  1082  3400               	retlw	0
   526                           psect	strings
   527                           	
   528  1083                     STR_1:	
   529  1083  3443               	retlw	67	;'C'
   530  1084  3461               	retlw	97	;'a'
   531  1085  346C               	retlw	108	;'l'
   532  1086  3469               	retlw	105	;'i'
   533  1087  3462               	retlw	98	;'b'
   534  1088  345F               	retlw	95	;'_'
   535  1089  3449               	retlw	73	;'I'
   536  108A  3452               	retlw	82	;'R'
   537  108B  3400               	retlw	0
   538                           psect	strings
   539                           	
   540  108C                     STR_5:	
   541  108C  3446               	retlw	70	;'F'
   542  108D  346C               	retlw	108	;'l'
   543  108E  3477               	retlw	119	;'w'
   544  108F  345F               	retlw	95	;'_'
   545  1090  3457               	retlw	87	;'W'
   546  1091  3461               	retlw	97	;'a'
   547  1092  346C               	retlw	108	;'l'
   548  1093  346C               	retlw	108	;'l'
   549  1094  3400               	retlw	0
   550                           psect	strings
   551                           	
   552  1095                     STR_3:	
   553  1095  3444               	retlw	68	;'D'
   554  1096  3472               	retlw	114	;'r'
   555  1097  3469               	retlw	105	;'i'
   556  1098  3476               	retlw	118	;'v'
   557  1099  3465               	retlw	101	;'e'
   558  109A  345F               	retlw	95	;'_'
   559  109B  3432               	retlw	50	;'2'
   560  109C  346D               	retlw	109	;'m'
   561  109D  3400               	retlw	0
   562                           psect	strings
   563                           	
   564  109E                     STR_4:	
   565  109E  3444               	retlw	68	;'D'
   566  109F  3472               	retlw	114	;'r'
   567  10A0  3469               	retlw	105	;'i'
   568  10A1  3476               	retlw	118	;'v'
   569  10A2  3465               	retlw	101	;'e'
   570  10A3  345F               	retlw	95	;'_'
   571  10A4  344C               	retlw	76	;'L'
   572  10A5  3400               	retlw	0
   573                           psect	strings
   574                           	
   575  10A6                     STR_16:	
   576  10A6  3443               	retlw	67	;'C'
   577  10A7  344F               	retlw	79	;'O'
   578  10A8  344E               	retlw	78	;'N'
   579  10A9  3446               	retlw	70	;'F'
   580  10AA  3449               	retlw	73	;'I'
   581  10AB  3452               	retlw	82	;'R'
   582  10AC  344D               	retlw	77	;'M'
   583  10AD  3400               	retlw	0
   584                           psect	strings
   585                           	
   586  10AE                     STR_19:	
   587  10AE  3425               	retlw	37	;'%'
   588  10AF  3464               	retlw	100	;'d'
   589  10B0  346D               	retlw	109	;'m'
   590  10B1  3441               	retlw	65	;'A'
   591  10B2  3400               	retlw	0
   592                           psect	strings
   593                           	
   594  10B3                     STR_9:	
   595  10B3  3444               	retlw	68	;'D'
   596  10B4  3472               	retlw	114	;'r'
   597  10B5  3432               	retlw	50	;'2'
   598  10B6  3400               	retlw	0
   599                           psect	strings
   600                           	
   601  10B7                     STR_15:	
   602  10B7  343C               	retlw	60	;'<'
   603  10B8  343C               	retlw	60	;'<'
   604  10B9  343C               	retlw	60	;'<'
   605  10BA  3400               	retlw	0
   606                           psect	strings
   607                           	
   608  10BB                     STR_17:	
   609  10BB  343E               	retlw	62	;'>'
   610  10BC  343E               	retlw	62	;'>'
   611  10BD  343E               	retlw	62	;'>'
   612  10BE  3400               	retlw	0
   613                           psect	strings
   614                           	
   615  10BF                     STR_10:	
   616  10BF  3444               	retlw	68	;'D'
   617  10C0  3472               	retlw	114	;'r'
   618  10C1  344C               	retlw	76	;'L'
   619  10C2  3400               	retlw	0
   620                           psect	strings
   621                           	
   622  10C3                     STR_12:	
   623  10C3  3443               	retlw	67	;'C'
   624  10C4  3468               	retlw	104	;'h'
   625  10C5  3467               	retlw	103	;'g'
   626  10C6  3400               	retlw	0
   627                           psect	strings
   628                           	
   629  10C7                     STR_7:	
   630  10C7  3443               	retlw	67	;'C'
   631  10C8  3461               	retlw	97	;'a'
   632  10C9  346C               	retlw	108	;'l'
   633  10CA  3400               	retlw	0
   634                           psect	strings
   635                           	
   636  10CB                     STR_8:	
   637  10CB  3453               	retlw	83	;'S'
   638  10CC  3463               	retlw	99	;'c'
   639  10CD  346E               	retlw	110	;'n'
   640  10CE  3400               	retlw	0
   641                           psect	strings
   642                           	
   643  10CF                     STR_11:	
   644  10CF  3446               	retlw	70	;'F'
   645  10D0  346C               	retlw	108	;'l'
   646  10D1  3477               	retlw	119	;'w'
   647  10D2  3400               	retlw	0
   648                           psect	strings
   649                           	
   650  10D3                     STR_22:	
   651  10D3  3446               	retlw	70	;'F'
   652  10D4  3443               	retlw	67	;'C'
   653  10D5  3400               	retlw	0
   654                           psect	strings
   655                           	
   656  10D6                     STR_20:	
   657  10D6  344E               	retlw	78	;'N'
   658  10D7  3443               	retlw	67	;'C'
   659  10D8  3400               	retlw	0
   660                           psect	strings
   661                           	
   662  10D9                     STR_21:	
   663  10D9  3452               	retlw	82	;'R'
   664  10DA  3443               	retlw	67	;'C'
   665  10DB  3400               	retlw	0
   666                           psect	strings
   667                           	
   668  10DC                     STR_23:	
   669  10DC  3454               	retlw	84	;'T'
   670  10DD  3443               	retlw	67	;'C'
   671  10DE  3400               	retlw	0
   672                           psect	strings
   673                           	
   674  10DF                     STR_24:	
   675  10DF  3457               	retlw	87	;'W'
   676  10E0  3461               	retlw	97	;'a'
   677  10E1  3400               	retlw	0
   678                           psect	strings
   679  10D3                     STR_25	equ	STR_22+0
   680                           	file	"Assignment3_AldnoahZero.as"
   681                           	line	#
   682                           psect cinit,class=CODE,delta=2
   683                           global start_initialization
   684  1AD2                     start_initialization:
   685                           
   686                           psect	bitbssCOMMON,class=COMMON,bit,space=1
   687                           global __pbitbssCOMMON
   688  0380                     __pbitbssCOMMON:
   689  0380                     _CenterPressed:
   690  0380                            ds      1
   691                           
   692  0381                     _CenterReleased:
   693  0381                            ds      1
   694                           
   695  0382                     _DownPressed:
   696  0382                            ds      1
   697                           
   698  0383                     _DownReleased:
   699  0383                            ds      1
   700                           
   701  0384                     _LeftPressed:
   702  0384                            ds      1
   703                           
   704  0385                     _LeftReleased:
   705  0385                            ds      1
   706                           
   707  0386                     _RTC_FLAG_1MS:
   708  0386                            ds      1
   709                           
   710  0387                     _RTC_FLAG_250MS:
   711  0387                            ds      1
   712                           
   713  0388                     _RTC_FLAG_500MS:
   714  0388                            ds      1
   715                           
   716  0389                     _RightPressed:
   717  0389                            ds      1
   718                           
   719  038A                     _RightReleased:
   720  038A                            ds      1
   721                           
   722  038B                     _UpPressed:
   723  038B                            ds      1
   724                           
   725  038C                     _UpReleased:
   726  038C                            ds      1
   727                           
   728                           psect	bssCOMMON,class=COMMON,space=1
   729                           global __pbssCOMMON
   730  007D                     __pbssCOMMON:
   731  007D                     _DistHighByte:
   732  007D                            ds      1
   733                           
   734                           psect	bssBANK1,class=BANK1,space=1
   735                           global __pbssBANK1
   736  00A0                     __pbssBANK1:
   737  00A0                     _BattCharge:
   738  00A0                            ds      2
   739                           
   740  00A2                     _BattState:
   741  00A2                            ds      2
   742                           
   743  00A4                     _Disp1:
   744  00A4                            ds      2
   745                           
   746  00A6                     _Disp2:
   747  00A6                            ds      2
   748                           
   749  00A8                     _IRdistance:
   750  00A8                            ds      2
   751                           
   752  00AA                     _RTC_Counter:
   753  00AA                            ds      2
   754                           
   755  00AC                     _TotalDistTravelled:
   756  00AC                            ds      2
   757                           
   758  00AE                     _adcVal:
   759  00AE                            ds      2
   760                           
   761  00B0                     _angleTurned:
   762  00B0                            ds      2
   763                           
   764  00B2                     _distTravelled:
   765  00B2                            ds      2
   766                           
   767  00B4                     _dist_high:
   768  00B4                            ds      2
   769                           
   770  00B6                     _dist_low:
   771  00B6                            ds      2
   772                           
   773  00B8                     _pos:
   774  00B8                            ds      2
   775                           
   776  00BA                     _total:
   777  00BA                            ds      2
   778                           
   779  00BC                     _totalSteps:
   780  00BC                            ds      2
   781                           
   782  00BE                     _trackingDist:
   783  00BE                            ds      2
   784                           
   785  00C0                     _AngleHighByte:
   786  00C0                            ds      1
   787                           
   788  00C1                     _AngleLowByte:
   789  00C1                            ds      1
   790                           
   791  00C2                     _BumpSensors:
   792  00C2                            ds      1
   793                           
   794  00C3                     _CenterDebounceCount:
   795  00C3                            ds      1
   796                           
   797  00C4                     _CliffSensors:
   798  00C4                            ds      1
   799                           
   800  00C5                     _DistLowByte:
   801  00C5                            ds      1
   802                           
   803  00C6                     _DownDebounceCount:
   804  00C6                            ds      1
   805                           
   806  00C7                     _FoundVictim:
   807  00C7                            ds      1
   808                           
   809  00C8                     _LeftDebounceCount:
   810  00C8                            ds      1
   811                           
   812  00C9                     _ROBOTerror:
   813  00C9                            ds      1
   814                           
   815  00CA                     _RightDebounceCount:
   816  00CA                            ds      1
   817                           
   818  00CB                     _RobotPos:
   819  00CB                            ds      1
   820                           
   821  00CC                     _UpDebounceCount:
   822  00CC                            ds      1
   823                           
   824  00CD                     _VictimSensor:
   825  00CD                            ds      1
   826                           
   827  00CE                     _VwallSensor:
   828  00CE                            ds      1
   829                           
   830  00CF                     _buttonPressed:
   831  00CF                            ds      1
   832                           
   833  00D0                     _currentMenu:
   834  00D0                            ds      1
   835                           
   836  00D1                     _followDir:
   837  00D1                            ds      1
   838                           
   839  00D2                     _highByte:
   840  00D2                            ds      1
   841                           
   842  00D3                     _lowByte:
   843  00D3                            ds      1
   844                           
   845  00D4                     _rxiptr:
   846  00D4                            ds      1
   847                           
   848  00D5                     _rxoptr:
   849  00D5                            ds      1
   850                           
   851  00D6                     _ser_tmp:
   852  00D6                            ds      1
   853                           
   854  00D7                     _turnhighByte:
   855  00D7                            ds      1
   856                           
   857  00D8                     _turnlowByte:
   858  00D8                            ds      1
   859                           
   860  00D9                     _txiptr:
   861  00D9                            ds      1
   862                           
   863  00DA                     _txoptr:
   864  00DA                            ds      1
   865                           
   866                           psect	dataBANK1,class=BANK1,space=1
   867                           global __pdataBANK1
   868  00DB                     __pdataBANK1:
   869                           	file	"E:\Aldnoah.Zero\Assignment3\HMI.c"
   870                           	line	49
   871  00DB                     _menuStrings:
   872  00DB                            ds      6
   873                           
   874                           psect	dataBANK1
   875                           	file	"E:\Aldnoah.Zero\Assignment3\HMI.c"
   876                           	line	50
   877  00E1                     _shortMenuStrings:
   878  00E1                            ds      6
   879                           
   880                           psect	bssBANK3,class=BANK3,space=1
   881                           global __pbssBANK3
   882  0190                     __pbssBANK3:
   883  0190                     UpdateDisplay@F1260:
   884  0190                            ds      16
   885                           
   886  01A0                     _rxfifo:
   887  01A0                            ds      16
   888                           
   889  01B0                     _txfifo:
   890  01B0                            ds      16
   891                           
   892                           psect clrtext,class=CODE,delta=2
   893                           global clear_ram
   894                           ;	Called with FSR containing the base address, and
   895                           ;	W with the last address+1
   896  19EE                     clear_ram:
   897  19EE  0064               	clrwdt			;clear the watchdog before getting into this loop
   898  19EF                     clrloop:
   899  19EF  0180               	clrf	indf		;clear RAM location pointed to by FSR
   900  19F0  0A84               	incf	fsr,f		;increment pointer
   901  19F1  0604               	xorwf	fsr,w		;XOR with final address
   902  19F2  1903               	btfsc	status,2	;have we reached the end yet?
   903  19F3  3400               	retlw	0		;all done for this memory range, return
   904  19F4  0604               	xorwf	fsr,w		;XOR again to restore value
   905  19F5  29EF               	goto	clrloop		;do the next byte
   906                           
   907                           ; Clear objects allocated to BITCOMMON
   908                           psect cinit,class=CODE,delta=2
   909  1AD2  01F0               	clrf	((__pbitbssCOMMON/8)+0)&07Fh
   910  1AD3  01F1               	clrf	((__pbitbssCOMMON/8)+1)&07Fh
   911                           ; Clear objects allocated to COMMON
   912                           psect cinit,class=CODE,delta=2
   913  1AD4  01FD               	clrf	((__pbssCOMMON)+0)&07Fh
   914                           ; Clear objects allocated to BANK1
   915                           psect cinit,class=CODE,delta=2
   916  1AD5  1383               	bcf	status, 7	;select IRP bank0
   917  1AD6  30A0               	movlw	low(__pbssBANK1)
   918  1AD7  0084               	movwf	fsr
   919  1AD8  30DB               	movlw	low((__pbssBANK1)+03Bh)
   920  1AD9  160A  158A  21EE   	fcall	clear_ram
              160A  158A         
   921                           ; Clear objects allocated to BANK3
   922                           psect cinit,class=CODE,delta=2
   923  1ADE  1783               	bsf	status, 7	;select IRP bank2
   924  1ADF  3090               	movlw	low(__pbssBANK3)
   925  1AE0  0084               	movwf	fsr
   926  1AE1  30C0               	movlw	low((__pbssBANK3)+030h)
   927  1AE2  160A  158A  21EE   	fcall	clear_ram
              160A  158A         
   928                           global btemp
   929                           psect inittext,class=CODE,delta=2
   930                           global init_fetch,btemp
   931                           ;	Called with low address in FSR and high address in W
   932  10E2                     init_fetch:
   933  10E2  087E               	movf btemp,w
   934  10E3  008A               	movwf pclath
   935  10E4  087F               	movf btemp+1,w
   936  10E5  0082               	movwf pc
   937                           global init_ram
   938                           ;Called with:
   939                           ;	high address of idata address in btemp 
   940                           ;	low address of idata address in btemp+1 
   941                           ;	low address of data in FSR
   942                           ;	high address + 1 of data in btemp-1
   943  10E6                     init_ram:
   944  10E6  160A  118A  20E2   	fcall init_fetch
              160A  118A         
   945  10EB  0080               	movwf indf,f
   946  10EC  0A84               	incf fsr,f
   947  10ED  0804               	movf fsr,w
   948  10EE  067D               	xorwf btemp-1,w
   949  10EF  1903               	btfsc status,2
   950  10F0  3400               	retlw 0
   951  10F1  0AFF               	incf btemp+1,f
   952  10F2  1903               	btfsc status,2
   953  10F3  0AFE               	incf btemp,f
   954  10F4  28E6               	goto init_ram
   955                           ; Initialize objects allocated to BANK1
   956                           psect cinit,class=CODE,delta=2
   957                           global init_ram, __pidataBANK1
   958  1AE7  1383               	bcf	status, 7	;select IRP bank0
   959  1AE8  30E7               	movlw low(__pdataBANK1+12)
   960  1AE9  00FD               	movwf btemp-1,f
   961  1AEA  3008               	movlw high(__pidataBANK1)
   962  1AEB  00FE               	movwf btemp,f
   963  1AEC  3003               	movlw low(__pidataBANK1)
   964  1AED  00FF               	movwf btemp+1,f
   965  1AEE  30DB               	movlw low(__pdataBANK1)
   966  1AEF  0084               	movwf fsr,f
   967  1AF0  160A  118A  20E6   	fcall init_ram
              160A  158A         
   968                           psect cinit,class=CODE,delta=2
   969                           global end_of_initialization
   970                           
   971                           ;End of C runtime variable initialization code
   972                           
   973  1AF5                     end_of_initialization:
   974  1AF5  0183               clrf status
   975  1AF6  160A  118A  2C54   ljmp _main	;jump to C main() function
   976                           psect	cstackBANK1,class=BANK1,space=1
   977                           global __pcstackBANK1
   978  00E7                     __pcstackBANK1:
   979                           	global	main@choice
   980  00E7                     main@choice:	; 1 bytes @ 0x0
   981  00E7                     	ds	1
   982                           psect	cstackCOMMON,class=COMMON,space=1
   983                           global __pcstackCOMMON
   984  0072                     __pcstackCOMMON:
   985                           	global	??_ReadButtons
   986  0072                     ??_ReadButtons:	; 0 bytes @ 0x0
   987                           	global	?_ser_init
   988  0072                     ?_ser_init:	; 0 bytes @ 0x0
   989                           	global	?_robo_init
   990  0072                     ?_robo_init:	; 0 bytes @ 0x0
   991                           	global	?_robotLoadSong
   992  0072                     ?_robotLoadSong:	; 0 bytes @ 0x0
   993                           	global	?_robot_read
   994  0072                     ?_robot_read:	; 0 bytes @ 0x0
   995                           	global	?_readAvgDistance
   996  0072                     ?_readAvgDistance:	; 0 bytes @ 0x0
   997                           	global	?_UpdateDisplay
   998  0072                     ?_UpdateDisplay:	; 0 bytes @ 0x0
   999                           	global	?_calibrateIR
  1000  0072                     ?_calibrateIR:	; 0 bytes @ 0x0
  1001                           	global	?_Init_Follow_IR
  1002  0072                     ?_Init_Follow_IR:	; 0 bytes @ 0x0
  1003                           	global	?_GoHome
  1004  0072                     ?_GoHome:	; 0 bytes @ 0x0
  1005                           	global	?_FindVictim
  1006  0072                     ?_FindVictim:	; 0 bytes @ 0x0
  1007                           	global	?_ChargeMode
  1008  0072                     ?_ChargeMode:	; 0 bytes @ 0x0
  1009                           	global	?_ser_putch
  1010  0072                     ?_ser_putch:	; 0 bytes @ 0x0
  1011                           	global	?_robot_turnInPlace
  1012  0072                     ?_robot_turnInPlace:	; 0 bytes @ 0x0
  1013                           	global	?_RobotBattRead
  1014  0072                     ?_RobotBattRead:	; 0 bytes @ 0x0
  1015                           	global	?_isdigit
  1016  0072                     ?_isdigit:	; 1 bit 
  1017                           	global	?_init_adc
  1018  0072                     ?_init_adc:	; 0 bytes @ 0x0
  1019                           	global	?_lcd_write_control
  1020  0072                     ?_lcd_write_control:	; 0 bytes @ 0x0
  1021                           	global	?_lcd_write_data
  1022  0072                     ?_lcd_write_data:	; 0 bytes @ 0x0
  1023                           	global	?_lcd_set_cursor
  1024  0072                     ?_lcd_set_cursor:	; 0 bytes @ 0x0
  1025                           	global	?_lcd_init
  1026  0072                     ?_lcd_init:	; 0 bytes @ 0x0
  1027                           	global	?_isr1
  1028  0072                     ?_isr1:	; 0 bytes @ 0x0
  1029                           	global	?_init
  1030  0072                     ?_init:	; 0 bytes @ 0x0
  1031                           	global	?_main
  1032  0072                     ?_main:	; 0 bytes @ 0x0
  1033                           	global	?_ser_isrx
  1034  0072                     ?_ser_isrx:	; 1 bit 
  1035                           	global	?_ReadButtons
  1036  0072                     ?_ReadButtons:	; 1 bytes @ 0x0
  1037                           	global	?_Menu
  1038  0072                     ?_Menu:	; 1 bytes @ 0x0
  1039                           	global	?_ser_getch
  1040  0072                     ?_ser_getch:	; 1 bytes @ 0x0
  1041                           	global	?_adc_read_channel
  1042  0072                     ?_adc_read_channel:	; 1 bytes @ 0x0
  1043                           	global	?_spi_transfer
  1044  0072                     ?_spi_transfer:	; 1 bytes @ 0x0
  1045                           	global	?i1___lwmod
  1046  0072                     ?i1___lwmod:	; 2 bytes @ 0x0
  1047                           	global	i1___lwmod@divisor
  1048  0072                     i1___lwmod@divisor:	; 2 bytes @ 0x0
  1049  0072                     	ds	2
  1050                           	global	i1___lwmod@dividend
  1051  0074                     i1___lwmod@dividend:	; 2 bytes @ 0x2
  1052  0074                     	ds	2
  1053                           	global	??i1___lwmod
  1054  0076                     ??i1___lwmod:	; 0 bytes @ 0x4
  1055  0076                     	ds	1
  1056                           	global	i1___lwmod@counter
  1057  0077                     i1___lwmod@counter:	; 1 bytes @ 0x5
  1058  0077                     	ds	1
  1059                           	global	??_isr1
  1060  0078                     ??_isr1:	; 0 bytes @ 0x6
  1061  0078                     	ds	5
  1062                           psect	cstackBANK0,class=BANK0,space=1
  1063                           global __pcstackBANK0
  1064  0020                     __pcstackBANK0:
  1065                           	global	??_ser_init
  1066  0020                     ??_ser_init:	; 0 bytes @ 0x0
  1067                           	global	??_Menu
  1068  0020                     ??_Menu:	; 0 bytes @ 0x0
  1069                           	global	??_ser_putch
  1070  0020                     ??_ser_putch:	; 0 bytes @ 0x0
  1071                           	global	??_ser_getch
  1072  0020                     ??_ser_getch:	; 0 bytes @ 0x0
  1073                           	global	??_isdigit
  1074  0020                     ??_isdigit:	; 0 bytes @ 0x0
  1075                           	global	??_init_adc
  1076  0020                     ??_init_adc:	; 0 bytes @ 0x0
  1077                           	global	??_lcd_write_control
  1078  0020                     ??_lcd_write_control:	; 0 bytes @ 0x0
  1079                           	global	??_lcd_write_data
  1080  0020                     ??_lcd_write_data:	; 0 bytes @ 0x0
  1081                           	global	??_spi_transfer
  1082  0020                     ??_spi_transfer:	; 0 bytes @ 0x0
  1083                           	global	??_ser_isrx
  1084  0020                     ??_ser_isrx:	; 0 bytes @ 0x0
  1085                           	global	?_adc_read
  1086  0020                     ?_adc_read:	; 2 bytes @ 0x0
  1087                           	global	?___wmul
  1088  0020                     ?___wmul:	; 2 bytes @ 0x0
  1089                           	global	?___lwdiv
  1090  0020                     ?___lwdiv:	; 2 bytes @ 0x0
  1091                           	global	?___awdiv
  1092  0020                     ?___awdiv:	; 2 bytes @ 0x0
  1093                           	global	?___awmod
  1094  0020                     ?___awmod:	; 2 bytes @ 0x0
  1095                           	global	Menu@BTN_input
  1096  0020                     Menu@BTN_input:	; 1 bytes @ 0x0
  1097                           	global	_isdigit$8696
  1098  0020                     _isdigit$8696:	; 1 bytes @ 0x0
  1099                           	global	___wmul@multiplier
  1100  0020                     ___wmul@multiplier:	; 2 bytes @ 0x0
  1101                           	global	___lwdiv@divisor
  1102  0020                     ___lwdiv@divisor:	; 2 bytes @ 0x0
  1103                           	global	___awdiv@divisor
  1104  0020                     ___awdiv@divisor:	; 2 bytes @ 0x0
  1105                           	global	___awmod@divisor
  1106  0020                     ___awmod@divisor:	; 2 bytes @ 0x0
  1107  0020                     	ds	1
  1108                           	global	spi_transfer@temp
  1109  0021                     spi_transfer@temp:	; 1 bytes @ 0x1
  1110                           	global	ser_getch@c
  1111  0021                     ser_getch@c:	; 1 bytes @ 0x1
  1112                           	global	ser_putch@c
  1113  0021                     ser_putch@c:	; 1 bytes @ 0x1
  1114                           	global	isdigit@c
  1115  0021                     isdigit@c:	; 1 bytes @ 0x1
  1116  0021                     	ds	1
  1117                           	global	??_adc_read
  1118  0022                     ??_adc_read:	; 0 bytes @ 0x2
  1119                           	global	??_robo_init
  1120  0022                     ??_robo_init:	; 0 bytes @ 0x2
  1121                           	global	??_robotLoadSong
  1122  0022                     ??_robotLoadSong:	; 0 bytes @ 0x2
  1123                           	global	??_robot_read
  1124  0022                     ??_robot_read:	; 0 bytes @ 0x2
  1125                           	global	??_RobotBattRead
  1126  0022                     ??_RobotBattRead:	; 0 bytes @ 0x2
  1127                           	global	?_robotTurn
  1128  0022                     ?_robotTurn:	; 0 bytes @ 0x2
  1129                           	global	lcd_write_control@databyte
  1130  0022                     lcd_write_control@databyte:	; 1 bytes @ 0x2
  1131                           	global	lcd_write_data@databyte
  1132  0022                     lcd_write_data@databyte:	; 1 bytes @ 0x2
  1133                           	global	spi_transfer@data
  1134  0022                     spi_transfer@data:	; 1 bytes @ 0x2
  1135                           	global	robotTurn@angle
  1136  0022                     robotTurn@angle:	; 2 bytes @ 0x2
  1137                           	global	___wmul@multiplicand
  1138  0022                     ___wmul@multiplicand:	; 2 bytes @ 0x2
  1139                           	global	___lwdiv@dividend
  1140  0022                     ___lwdiv@dividend:	; 2 bytes @ 0x2
  1141                           	global	___awdiv@dividend
  1142  0022                     ___awdiv@dividend:	; 2 bytes @ 0x2
  1143                           	global	___awmod@dividend
  1144  0022                     ___awmod@dividend:	; 2 bytes @ 0x2
  1145  0022                     	ds	1
  1146                           	global	?_rotate
  1147  0023                     ?_rotate:	; 0 bytes @ 0x3
  1148                           	global	??_lcd_set_cursor
  1149  0023                     ??_lcd_set_cursor:	; 0 bytes @ 0x3
  1150                           	global	??_lcd_init
  1151  0023                     ??_lcd_init:	; 0 bytes @ 0x3
  1152                           	global	??_init
  1153  0023                     ??_init:	; 0 bytes @ 0x3
  1154                           	global	lcd_set_cursor@address
  1155  0023                     lcd_set_cursor@address:	; 1 bytes @ 0x3
  1156                           	global	robot_read@readType
  1157  0023                     robot_read@readType:	; 1 bytes @ 0x3
  1158                           	global	rotate@numsteps
  1159  0023                     rotate@numsteps:	; 2 bytes @ 0x3
  1160  0023                     	ds	1
  1161                           	global	??_robotTurn
  1162  0024                     ??_robotTurn:	; 0 bytes @ 0x4
  1163                           	global	??___wmul
  1164  0024                     ??___wmul:	; 0 bytes @ 0x4
  1165                           	global	??___lwdiv
  1166  0024                     ??___lwdiv:	; 0 bytes @ 0x4
  1167                           	global	??___awdiv
  1168  0024                     ??___awdiv:	; 0 bytes @ 0x4
  1169                           	global	??___awmod
  1170  0024                     ??___awmod:	; 0 bytes @ 0x4
  1171                           	global	adc_read@adc_value
  1172  0024                     adc_read@adc_value:	; 2 bytes @ 0x4
  1173                           	global	RobotBattRead@temp1
  1174  0024                     RobotBattRead@temp1:	; 2 bytes @ 0x4
  1175                           	global	___wmul@product
  1176  0024                     ___wmul@product:	; 2 bytes @ 0x4
  1177  0024                     	ds	1
  1178                           	global	rotate@direction
  1179  0025                     rotate@direction:	; 1 bytes @ 0x5
  1180                           	global	___awdiv@counter
  1181  0025                     ___awdiv@counter:	; 1 bytes @ 0x5
  1182                           	global	___awmod@counter
  1183  0025                     ___awmod@counter:	; 1 bytes @ 0x5
  1184                           	global	___lwdiv@quotient
  1185  0025                     ___lwdiv@quotient:	; 2 bytes @ 0x5
  1186  0025                     	ds	1
  1187                           	global	??_rotate
  1188  0026                     ??_rotate:	; 0 bytes @ 0x6
  1189                           	global	??_adc_read_channel
  1190  0026                     ??_adc_read_channel:	; 0 bytes @ 0x6
  1191                           	global	?_abs
  1192  0026                     ?_abs:	; 2 bytes @ 0x6
  1193                           	global	___awdiv@sign
  1194  0026                     ___awdiv@sign:	; 1 bytes @ 0x6
  1195                           	global	___awmod@sign
  1196  0026                     ___awmod@sign:	; 1 bytes @ 0x6
  1197                           	global	abs@v
  1198  0026                     abs@v:	; 2 bytes @ 0x6
  1199  0026                     	ds	1
  1200                           	global	?_lcd_write_string
  1201  0027                     ?_lcd_write_string:	; 0 bytes @ 0x7
  1202                           	global	adc_read_channel@channel
  1203  0027                     adc_read_channel@channel:	; 1 bytes @ 0x7
  1204                           	global	___lwdiv@counter
  1205  0027                     ___lwdiv@counter:	; 1 bytes @ 0x7
  1206                           	global	lcd_write_string@s
  1207  0027                     lcd_write_string@s:	; 2 bytes @ 0x7
  1208                           	global	___awdiv@quotient
  1209  0027                     ___awdiv@quotient:	; 2 bytes @ 0x7
  1210  0027                     	ds	1
  1211                           	global	??_abs
  1212  0028                     ??_abs:	; 0 bytes @ 0x8
  1213                           	global	?_readDistance
  1214  0028                     ?_readDistance:	; 2 bytes @ 0x8
  1215                           	global	?___lwmod
  1216  0028                     ?___lwmod:	; 2 bytes @ 0x8
  1217                           	global	rotate@i
  1218  0028                     rotate@i:	; 2 bytes @ 0x8
  1219                           	global	___lwmod@divisor
  1220  0028                     ___lwmod@divisor:	; 2 bytes @ 0x8
  1221  0028                     	ds	1
  1222                           	global	?_RobotDrive
  1223  0029                     ?_RobotDrive:	; 0 bytes @ 0x9
  1224                           	global	??_lcd_write_string
  1225  0029                     ??_lcd_write_string:	; 0 bytes @ 0x9
  1226                           	global	RobotDrive@speed
  1227  0029                     RobotDrive@speed:	; 2 bytes @ 0x9
  1228  0029                     	ds	1
  1229                           	global	??_readDistance
  1230  002A                     ??_readDistance:	; 0 bytes @ 0xA
  1231                           	global	___lwmod@dividend
  1232  002A                     ___lwmod@dividend:	; 2 bytes @ 0xA
  1233  002A                     	ds	1
  1234                           	global	RobotDrive@radius
  1235  002B                     RobotDrive@radius:	; 2 bytes @ 0xB
  1236  002B                     	ds	1
  1237                           	global	??___lwmod
  1238  002C                     ??___lwmod:	; 0 bytes @ 0xC
  1239                           	global	readDistance@readVal
  1240  002C                     readDistance@readVal:	; 2 bytes @ 0xC
  1241  002C                     	ds	1
  1242                           	global	??_RobotDrive
  1243  002D                     ??_RobotDrive:	; 0 bytes @ 0xD
  1244                           	global	___lwmod@counter
  1245  002D                     ___lwmod@counter:	; 1 bytes @ 0xD
  1246  002D                     	ds	1
  1247                           	global	??_readAvgDistance
  1248  002E                     ??_readAvgDistance:	; 0 bytes @ 0xE
  1249                           	global	?_sprintf
  1250  002E                     ?_sprintf:	; 2 bytes @ 0xE
  1251                           	global	RobotDrive@speedlowByte
  1252  002E                     RobotDrive@speedlowByte:	; 1 bytes @ 0xE
  1253                           	global	sprintf@f
  1254  002E                     sprintf@f:	; 1 bytes @ 0xE
  1255                           	global	readAvgDistance@fullval
  1256  002E                     readAvgDistance@fullval:	; 2 bytes @ 0xE
  1257  002E                     	ds	1
  1258                           	global	RobotDrive@speedhighByte
  1259  002F                     RobotDrive@speedhighByte:	; 1 bytes @ 0xF
  1260  002F                     	ds	1
  1261                           	global	RobotDrive@radiuslowByte
  1262  0030                     RobotDrive@radiuslowByte:	; 1 bytes @ 0x10
  1263                           	global	readAvgDistance@j
  1264  0030                     readAvgDistance@j:	; 2 bytes @ 0x10
  1265  0030                     	ds	1
  1266                           	global	RobotDrive@radiushighByte
  1267  0031                     RobotDrive@radiushighByte:	; 1 bytes @ 0x11
  1268  0031                     	ds	1
  1269                           	global	readAvgDistance@tempIR
  1270  0032                     readAvgDistance@tempIR:	; 2 bytes @ 0x12
  1271  0032                     	ds	1
  1272                           	global	??_sprintf
  1273  0033                     ??_sprintf:	; 0 bytes @ 0x13
  1274  0033                     	ds	1
  1275                           	global	readAvgDistance@i
  1276  0034                     readAvgDistance@i:	; 2 bytes @ 0x14
  1277  0034                     	ds	2
  1278                           	global	sprintf@ap
  1279  0036                     sprintf@ap:	; 1 bytes @ 0x16
  1280  0036                     	ds	1
  1281                           	global	sprintf@prec
  1282  0037                     sprintf@prec:	; 1 bytes @ 0x17
  1283  0037                     	ds	1
  1284                           	global	sprintf@flag
  1285  0038                     sprintf@flag:	; 1 bytes @ 0x18
  1286  0038                     	ds	1
  1287                           	global	sprintf@_val
  1288  0039                     sprintf@_val:	; 4 bytes @ 0x19
  1289  0039                     	ds	4
  1290                           	global	sprintf@sp
  1291  003D                     sprintf@sp:	; 1 bytes @ 0x1D
  1292  003D                     	ds	1
  1293                           	global	sprintf@width
  1294  003E                     sprintf@width:	; 2 bytes @ 0x1E
  1295  003E                     	ds	2
  1296                           	global	sprintf@c
  1297  0040                     sprintf@c:	; 1 bytes @ 0x20
  1298  0040                     	ds	1
  1299                           	global	??_UpdateDisplay
  1300  0041                     ??_UpdateDisplay:	; 0 bytes @ 0x21
  1301  0041                     	ds	4
  1302                           	global	UpdateDisplay@LCDOutput
  1303  0045                     UpdateDisplay@LCDOutput:	; 16 bytes @ 0x25
  1304  0045                     	ds	16
  1305                           	global	UpdateDisplay@tempDist
  1306  0055                     UpdateDisplay@tempDist:	; 2 bytes @ 0x35
  1307  0055                     	ds	2
  1308                           	global	??_calibrateIR
  1309  0057                     ??_calibrateIR:	; 0 bytes @ 0x37
  1310                           	global	??_Init_Follow_IR
  1311  0057                     ??_Init_Follow_IR:	; 0 bytes @ 0x37
  1312                           	global	??_ChargeMode
  1313  0057                     ??_ChargeMode:	; 0 bytes @ 0x37
  1314                           	global	?_robotTurnSpeed
  1315  0057                     ?_robotTurnSpeed:	; 0 bytes @ 0x37
  1316                           	global	?_robot_turnArc
  1317  0057                     ?_robot_turnArc:	; 0 bytes @ 0x37
  1318                           	global	?_robotMoveSpeed
  1319  0057                     ?_robotMoveSpeed:	; 0 bytes @ 0x37
  1320                           	global	robot_turnArc@speed
  1321  0057                     robot_turnArc@speed:	; 2 bytes @ 0x37
  1322                           	global	robotMoveSpeed@distance
  1323  0057                     robotMoveSpeed@distance:	; 2 bytes @ 0x37
  1324                           	global	robotTurnSpeed@angle
  1325  0057                     robotTurnSpeed@angle:	; 2 bytes @ 0x37
  1326  0057                     	ds	2
  1327                           	global	??_robot_turnArc
  1328  0059                     ??_robot_turnArc:	; 0 bytes @ 0x39
  1329                           	global	robotMoveSpeed@speed
  1330  0059                     robotMoveSpeed@speed:	; 2 bytes @ 0x39
  1331                           	global	robotTurnSpeed@speed
  1332  0059                     robotTurnSpeed@speed:	; 2 bytes @ 0x39
  1333  0059                     	ds	2
  1334                           	global	??_robotTurnSpeed
  1335  005B                     ??_robotTurnSpeed:	; 0 bytes @ 0x3B
  1336                           	global	??_robotMoveSpeed
  1337  005B                     ??_robotMoveSpeed:	; 0 bytes @ 0x3B
  1338  005B                     	ds	1
  1339                           	global	robot_turnArc@turnTarget
  1340  005C                     robot_turnArc@turnTarget:	; 2 bytes @ 0x3C
  1341  005C                     	ds	2
  1342                           	global	robot_turnArc@AdcTarget
  1343  005E                     robot_turnArc@AdcTarget:	; 2 bytes @ 0x3E
  1344                           	global	robotMoveSpeed@temp1
  1345  005E                     robotMoveSpeed@temp1:	; 2 bytes @ 0x3E
  1346                           	global	robotTurnSpeed@temp1
  1347  005E                     robotTurnSpeed@temp1:	; 2 bytes @ 0x3E
  1348  005E                     	ds	2
  1349                           	global	?_robotFollow
  1350  0060                     ?_robotFollow:	; 0 bytes @ 0x40
  1351                           	global	??_robot_turnInPlace
  1352  0060                     ??_robot_turnInPlace:	; 0 bytes @ 0x40
  1353                           	global	robotFollow@speed
  1354  0060                     robotFollow@speed:	; 2 bytes @ 0x40
  1355                           	global	robot_turnArc@temp1
  1356  0060                     robot_turnArc@temp1:	; 2 bytes @ 0x40
  1357  0060                     	ds	2
  1358                           	global	robotFollow@AdcTarget
  1359  0062                     robotFollow@AdcTarget:	; 2 bytes @ 0x42
  1360  0062                     	ds	2
  1361                           	global	??_robotFollow
  1362  0064                     ??_robotFollow:	; 0 bytes @ 0x44
  1363  0064                     	ds	4
  1364                           	global	robotFollow@temp1
  1365  0068                     robotFollow@temp1:	; 2 bytes @ 0x48
  1366  0068                     	ds	2
  1367                           	global	robotFollow@hysterysis
  1368  006A                     robotFollow@hysterysis:	; 1 bytes @ 0x4A
  1369  006A                     	ds	1
  1370                           	global	??_GoHome
  1371  006B                     ??_GoHome:	; 0 bytes @ 0x4B
  1372                           	global	??_FindVictim
  1373  006B                     ??_FindVictim:	; 0 bytes @ 0x4B
  1374  006B                     	ds	3
  1375                           	global	??_main
  1376  006E                     ??_main:	; 0 bytes @ 0x4E
  1377  006E                     	ds	2
  1378 ;;Data sizes: Strings 200, constant 10, data 12, bss 108, persistent 0 stack 0
  1379 ;;Auto spaces:   Size  Autos    Used
  1380 ;; COMMON          14     11      14
  1381 ;; BANK0           80     80      80
  1382 ;; BANK1           80      1      72
  1383 ;; BANK3           96      0      48
  1384 ;; BANK2           96      0       0
  1385                           
  1386 ;;
  1387 ;; Pointer list with targets:
  1388                           
  1389 ;; ?i1___lwmod	unsigned int  size(1) Largest target is 0
  1390 ;;
  1391 ;; ?___wmul	unsigned int  size(1) Largest target is 0
  1392 ;;
  1393 ;; ?_abs	int  size(1) Largest target is 0
  1394 ;;
  1395 ;; ?___awdiv	int  size(1) Largest target is 0
  1396 ;;
  1397 ;; ?___awmod	int  size(1) Largest target is 0
  1398 ;;
  1399 ;; ?_readDistance	unsigned int  size(1) Largest target is 0
  1400 ;;
  1401 ;; ?___lwdiv	unsigned int  size(1) Largest target is 0
  1402 ;;
  1403 ;; ?___lwmod	unsigned int  size(1) Largest target is 0
  1404 ;;
  1405 ;; ?_adc_read	unsigned int  size(1) Largest target is 0
  1406 ;;
  1407 ;; sprintf@f	PTR const unsigned char  size(1) Largest target is 16
  1408 ;;		 -> STR_28(CODE[15]), STR_27(CODE[16]), STR_19(CODE[5]), STR_13(CODE[15]), 
  1409 ;;
  1410 ;; sprintf@sp	PTR unsigned char  size(1) Largest target is 16
  1411 ;;		 -> UpdateDisplay@LCDOutput(BANK0[16]), 
  1412 ;;
  1413 ;; ?_sprintf	int  size(1) Largest target is 0
  1414 ;;
  1415 ;; sprintf@ap	PTR void [1] size(1) Largest target is 2
  1416 ;;		 -> ?_sprintf(BANK0[2]), 
  1417 ;;
  1418 ;; S8331$_cp	PTR const unsigned char  size(1) Largest target is 0
  1419 ;;
  1420 ;; _val._str._cp	PTR const unsigned char  size(1) Largest target is 0
  1421 ;;
  1422 ;; shortMenuStrings	PTR const unsigned char [6] size(1) Largest target is 4
  1423 ;;		 -> STR_12(CODE[4]), STR_11(CODE[4]), STR_10(CODE[4]), STR_9(CODE[4]), 
  1424 ;;		 -> STR_8(CODE[4]), STR_7(CODE[4]), 
  1425 ;;
  1426 ;; menuStrings	PTR const unsigned char [6] size(1) Largest target is 9
  1427 ;;		 -> STR_6(CODE[9]), STR_5(CODE[9]), STR_4(CODE[8]), STR_3(CODE[9]), 
  1428 ;;		 -> STR_2(CODE[9]), STR_1(CODE[9]), 
  1429 ;;
  1430 ;; lcd_write_string@s	PTR unsigned char  size(2) Largest target is 16
  1431 ;;		 -> STR_26(CODE[9]), STR_25(CODE[3]), STR_24(CODE[3]), STR_23(CODE[3]), 
  1432 ;;		 -> STR_22(CODE[3]), STR_21(CODE[3]), STR_20(CODE[3]), STR_18(CODE[16]), 
  1433 ;;		 -> STR_17(CODE[4]), STR_16(CODE[8]), STR_15(CODE[4]), STR_14(CODE[16]), 
  1434 ;;		 -> UpdateDisplay@LCDOutput(BANK0[16]), STR_12(CODE[4]), STR_11(CODE[4]), STR_10(CODE[4]), 
  1435 ;;		 -> STR_9(CODE[4]), STR_8(CODE[4]), STR_7(CODE[4]), STR_6(CODE[9]), 
  1436 ;;		 -> STR_5(CODE[9]), STR_4(CODE[8]), STR_3(CODE[9]), STR_2(CODE[9]), 
  1437 ;;		 -> STR_1(CODE[9]), 
  1438 ;;
  1439                           
  1440                           
  1441 ;;
  1442 ;; Critical Paths under _main in COMMON
  1443 ;;
  1444 ;;   None.
  1445 ;;
  1446 ;; Critical Paths under _isr1 in COMMON
  1447 ;;
  1448 ;;   _isr1->i1___lwmod
  1449 ;;
  1450 ;; Critical Paths under _main in BANK0
  1451 ;;
  1452 ;;   _main->_FindVictim
  1453 ;;   _FindVictim->_robotFollow
  1454 ;;   _GoHome->_robotFollow
  1455 ;;   _robot_turnInPlace->_robotTurnSpeed
  1456 ;;   _robotFollow->_robotTurnSpeed
  1457 ;;   _robotFollow->_robotMoveSpeed
  1458 ;;   _robotMoveSpeed->_UpdateDisplay
  1459 ;;   _robot_turnArc->_UpdateDisplay
  1460 ;;   _robotTurnSpeed->_UpdateDisplay
  1461 ;;   _ChargeMode->_UpdateDisplay
  1462 ;;   _calibrateIR->_UpdateDisplay
  1463 ;;   _UpdateDisplay->_sprintf
  1464 ;;   _readAvgDistance->_readDistance
  1465 ;;   _readDistance->_adc_read_channel
  1466 ;;   _RobotBattRead->_ser_putch
  1467 ;;   _RobotBattRead->_ser_getch
  1468 ;;   _robot_read->_ser_putch
  1469 ;;   _robot_read->_ser_getch
  1470 ;;   _lcd_init->_lcd_write_control
  1471 ;;   _lcd_write_string->___awmod
  1472 ;;   _lcd_set_cursor->_lcd_write_control
  1473 ;;   _abs->___wmul
  1474 ;;   _robotTurn->_ser_putch
  1475 ;;   _sprintf->___lwmod
  1476 ;;   _RobotDrive->___awdiv
  1477 ;;   _rotate->_spi_transfer
  1478 ;;   _robotLoadSong->_ser_putch
  1479 ;;   _robo_init->_ser_putch
  1480 ;;   _adc_read_channel->_adc_read
  1481 ;;   ___lwmod->___lwdiv
  1482 ;;
  1483 ;; Critical Paths under _isr1 in BANK0
  1484 ;;
  1485 ;;   None.
  1486 ;;
  1487 ;; Critical Paths under _main in BANK1
  1488 ;;
  1489 ;;   None.
  1490 ;;
  1491 ;; Critical Paths under _isr1 in BANK1
  1492 ;;
  1493 ;;   None.
  1494 ;;
  1495 ;; Critical Paths under _main in BANK3
  1496 ;;
  1497 ;;   None.
  1498 ;;
  1499 ;; Critical Paths under _isr1 in BANK3
  1500 ;;
  1501 ;;   None.
  1502 ;;
  1503 ;; Critical Paths under _main in BANK2
  1504 ;;
  1505 ;;   None.
  1506 ;;
  1507 ;; Critical Paths under _isr1 in BANK2
  1508 ;;
  1509 ;;   None.
  1510                           
  1511 ;;
  1512 ;;Main: autosize = 0, tempsize = 2, incstack = 0, save=0
  1513 ;;
  1514                           
  1515 ;;
  1516 ;;Call Graph Tables:
  1517 ;;
  1518 ;; ---------------------------------------------------------------------------------
  1519 ;; (Depth) Function   	        Calls       Base Space   Used Autos Params    Refs
  1520 ;; ---------------------------------------------------------------------------------
  1521 ;; (0) _main                                                 3     3      0   53066
  1522 ;;                                             78 BANK0      2     2      0
  1523 ;;                                              0 BANK1      1     1      0
  1524 ;;                               _init
  1525 ;;                      _robotLoadSong
  1526 ;;                         _robot_read
  1527 ;;                    _readAvgDistance
  1528 ;;                      _UpdateDisplay
  1529 ;;                               _Menu
  1530 ;;                        _calibrateIR
  1531 ;;                     _Init_Follow_IR
  1532 ;;                             _GoHome
  1533 ;;                         _FindVictim
  1534 ;;                         _ChargeMode
  1535 ;; ---------------------------------------------------------------------------------
  1536 ;; (1) _FindVictim                                           3     3      0   21755
  1537 ;;                                             75 BANK0      3     3      0
  1538 ;;                    _readAvgDistance
  1539 ;;                        _robotFollow
  1540 ;;                         _RobotDrive
  1541 ;;                     _robotTurnSpeed
  1542 ;;                          _ser_putch
  1543 ;;                     _robotMoveSpeed
  1544 ;;                  _robot_turnInPlace
  1545 ;;                      _robot_turnArc
  1546 ;; ---------------------------------------------------------------------------------
  1547 ;; (1) _GoHome                                               1     1      0   21553
  1548 ;;                                             75 BANK0      1     1      0
  1549 ;;                     _robotTurnSpeed
  1550 ;;                      _robot_turnArc
  1551 ;;                    _readAvgDistance
  1552 ;;                        _robotFollow
  1553 ;;                          _ser_putch
  1554 ;;                  _robot_turnInPlace
  1555 ;;                     _robotMoveSpeed
  1556 ;; ---------------------------------------------------------------------------------
  1557 ;; (2) _robot_turnInPlace                                    1     1      0    2823
  1558 ;;                                             64 BANK0      1     1      0
  1559 ;;                     _robotTurnSpeed
  1560 ;;                          _ser_putch
  1561 ;;                         _RobotDrive
  1562 ;; ---------------------------------------------------------------------------------
  1563 ;; (2) _robotFollow                                         11     7      4    8865
  1564 ;;                                             64 BANK0     11     7      4
  1565 ;;                         _RobotDrive
  1566 ;;                          _ser_putch
  1567 ;;                    _readAvgDistance
  1568 ;;                             _rotate
  1569 ;;                         _robot_read
  1570 ;;                     _robotTurnSpeed
  1571 ;;                     _robotMoveSpeed
  1572 ;;                      _UpdateDisplay
  1573 ;; ---------------------------------------------------------------------------------
  1574 ;; (1) _Init_Follow_IR                                       3     3      0    2412
  1575 ;;                                             55 BANK0      3     3      0
  1576 ;;                        _calibrateIR
  1577 ;;                             _rotate
  1578 ;; ---------------------------------------------------------------------------------
  1579 ;; (2) _robotMoveSpeed                                       9     5      4    2756
  1580 ;;                                             55 BANK0      9     5      4
  1581 ;;                         _RobotDrive
  1582 ;;                         _robot_read
  1583 ;;                      _UpdateDisplay
  1584 ;;                                _abs
  1585 ;; ---------------------------------------------------------------------------------
  1586 ;; (2) _robot_turnArc                                       11     9      2    4117
  1587 ;;                                             55 BANK0     11     9      2
  1588 ;;                         _RobotDrive
  1589 ;;                             _rotate
  1590 ;;                    _readAvgDistance
  1591 ;;                         _robot_read
  1592 ;;                      _UpdateDisplay
  1593 ;;                            ___awdiv
  1594 ;;                                _abs
  1595 ;; ---------------------------------------------------------------------------------
  1596 ;; (3) _robotTurnSpeed                                       9     5      4    2599
  1597 ;;                                             55 BANK0      9     5      4
  1598 ;;                          _robotTurn
  1599 ;;                         _robot_read
  1600 ;;                      _UpdateDisplay
  1601 ;;                                _abs
  1602 ;; ---------------------------------------------------------------------------------
  1603 ;; (1) _ChargeMode                                           1     1      0    2287
  1604 ;;                                             55 BANK0      1     1      0
  1605 ;;                          _ser_putch
  1606 ;;                      _RobotBattRead
  1607 ;;                      _UpdateDisplay
  1608 ;; ---------------------------------------------------------------------------------
  1609 ;; (2) _calibrateIR                                          0     0      0    2292
  1610 ;;                             _rotate
  1611 ;;                      _UpdateDisplay
  1612 ;; ---------------------------------------------------------------------------------
  1613 ;; (2) _UpdateDisplay                                       22    22      0    2172
  1614 ;;                                             33 BANK0     22    22      0
  1615 ;;                  _lcd_write_control
  1616 ;;                            _sprintf
  1617 ;;                     _lcd_set_cursor
  1618 ;;                   _lcd_write_string
  1619 ;;                            ___awmod
  1620 ;;                            ___awdiv
  1621 ;; ---------------------------------------------------------------------------------
  1622 ;; (3) _readAvgDistance                                      8     8      0     371
  1623 ;;                                             14 BANK0      8     8      0
  1624 ;;                       _readDistance
  1625 ;;                            ___lwdiv
  1626 ;; ---------------------------------------------------------------------------------
  1627 ;; (1) _init                                                 1     1      0      44
  1628 ;;                                              3 BANK0      1     1      0
  1629 ;;                           _ser_init
  1630 ;;                           _init_adc
  1631 ;;                           _lcd_init
  1632 ;;                          _robo_init
  1633 ;; ---------------------------------------------------------------------------------
  1634 ;; (4) _readDistance                                         6     4      2      69
  1635 ;;                                              8 BANK0      6     4      2
  1636 ;;                   _adc_read_channel
  1637 ;; ---------------------------------------------------------------------------------
  1638 ;; (2) _RobotBattRead                                        4     4      0      93
  1639 ;;                                              2 BANK0      4     4      0
  1640 ;;                          _ser_putch
  1641 ;;                          _ser_getch
  1642 ;; ---------------------------------------------------------------------------------
  1643 ;; (3) _robot_read                                           2     2      0     111
  1644 ;;                                              2 BANK0      2     2      0
  1645 ;;                          _ser_putch
  1646 ;;                          _ser_getch
  1647 ;; ---------------------------------------------------------------------------------
  1648 ;; (2) _lcd_init                                             0     0      0      22
  1649 ;;                  _lcd_write_control
  1650 ;; ---------------------------------------------------------------------------------
  1651 ;; (3) _lcd_write_string                                     2     0      2      67
  1652 ;;                                              7 BANK0      2     0      2
  1653 ;;                     _lcd_write_data
  1654 ;;                            ___awmod (ARG)
  1655 ;; ---------------------------------------------------------------------------------
  1656 ;; (3) _lcd_set_cursor                                       1     1      0      45
  1657 ;;                                              3 BANK0      1     1      0
  1658 ;;                  _lcd_write_control
  1659 ;; ---------------------------------------------------------------------------------
  1660 ;; (3) _abs                                                  4     2      2     158
  1661 ;;                                              6 BANK0      4     2      2
  1662 ;;                             ___wmul
  1663 ;; ---------------------------------------------------------------------------------
  1664 ;; (4) _robotTurn                                            2     0      2      66
  1665 ;;                                              2 BANK0      2     0      2
  1666 ;;                          _ser_putch
  1667 ;; ---------------------------------------------------------------------------------
  1668 ;; (3) _ser_getch                                            2     2      0      23
  1669 ;;                                              0 BANK0      2     2      0
  1670 ;;                           _ser_isrx
  1671 ;; ---------------------------------------------------------------------------------
  1672 ;; (3) _sprintf                                             19    14      5    1230
  1673 ;;                                             14 BANK0     19    14      5
  1674 ;;                            _isdigit
  1675 ;;                             ___wmul
  1676 ;;                            ___lwdiv
  1677 ;;                            ___lwmod
  1678 ;; ---------------------------------------------------------------------------------
  1679 ;; (3) _RobotDrive                                           9     5      4     202
  1680 ;;                                              9 BANK0      9     5      4
  1681 ;;                          _ser_putch
  1682 ;;                            ___awdiv (ARG)
  1683 ;; ---------------------------------------------------------------------------------
  1684 ;; (3) _rotate                                               7     4      3     120
  1685 ;;                                              3 BANK0      7     4      3
  1686 ;;                       _spi_transfer
  1687 ;; ---------------------------------------------------------------------------------
  1688 ;; (1) _robotLoadSong                                        0     0      0      22
  1689 ;;                          _ser_putch
  1690 ;; ---------------------------------------------------------------------------------
  1691 ;; (2) _robo_init                                            0     0      0      22
  1692 ;;                          _ser_putch
  1693 ;; ---------------------------------------------------------------------------------
  1694 ;; (4) _lcd_write_data                                       3     3      0      22
  1695 ;;                                              0 BANK0      3     3      0
  1696 ;; ---------------------------------------------------------------------------------
  1697 ;; (4) _lcd_write_control                                    3     3      0      22
  1698 ;;                                              0 BANK0      3     3      0
  1699 ;; ---------------------------------------------------------------------------------
  1700 ;; (2) _init_adc                                             1     1      0       0
  1701 ;;                                              0 BANK0      1     1      0
  1702 ;; ---------------------------------------------------------------------------------
  1703 ;; (5) _adc_read_channel                                     2     2      0      46
  1704 ;;                                              6 BANK0      2     2      0
  1705 ;;                           _adc_read
  1706 ;; ---------------------------------------------------------------------------------
  1707 ;; (3) ___awmod                                              7     3      4     296
  1708 ;;                                              0 BANK0      7     3      4
  1709 ;; ---------------------------------------------------------------------------------
  1710 ;; (3) ___awdiv                                              9     5      4     300
  1711 ;;                                              0 BANK0      9     5      4
  1712 ;; ---------------------------------------------------------------------------------
  1713 ;; (4) ___lwmod                                              6     2      4     159
  1714 ;;                                              8 BANK0      6     2      4
  1715 ;;                            ___lwdiv (ARG)
  1716 ;; ---------------------------------------------------------------------------------
  1717 ;; (4) ___lwdiv                                              8     4      4     162
  1718 ;;                                              0 BANK0      8     4      4
  1719 ;; ---------------------------------------------------------------------------------
  1720 ;; (4) ___wmul                                               6     2      4      92
  1721 ;;                                              0 BANK0      6     2      4
  1722 ;; ---------------------------------------------------------------------------------
  1723 ;; (4) _isdigit                                              2     2      0      68
  1724 ;;                                              0 BANK0      2     2      0
  1725 ;; ---------------------------------------------------------------------------------
  1726 ;; (4) _ser_isrx                                             0     0      0       0
  1727 ;; ---------------------------------------------------------------------------------
  1728 ;; (4) _spi_transfer                                         3     3      0      30
  1729 ;;                                              0 BANK0      3     3      0
  1730 ;; ---------------------------------------------------------------------------------
  1731 ;; (3) _ser_putch                                            2     2      0      22
  1732 ;;                                              0 BANK0      2     2      0
  1733 ;; ---------------------------------------------------------------------------------
  1734 ;; (1) _Menu                                                 1     1      0      22
  1735 ;;                                              0 BANK0      1     1      0
  1736 ;; ---------------------------------------------------------------------------------
  1737 ;; (2) _ser_init                                             1     1      0       0
  1738 ;;                                              0 BANK0      1     1      0
  1739 ;; ---------------------------------------------------------------------------------
  1740 ;; (6) _adc_read                                             6     4      2      24
  1741 ;;                                              0 BANK0      6     4      2
  1742 ;; ---------------------------------------------------------------------------------
  1743 ;; Estimated maximum stack depth 6
  1744 ;; ---------------------------------------------------------------------------------
  1745 ;; (Depth) Function   	        Calls       Base Space   Used Autos Params    Refs
  1746 ;; ---------------------------------------------------------------------------------
  1747 ;; (7) _isr1                                                 5     5      0     521
  1748 ;;                                              6 COMMON     5     5      0
  1749 ;;                          i1___lwmod
  1750 ;;                        _ReadButtons
  1751 ;; ---------------------------------------------------------------------------------
  1752 ;; (8) i1___lwmod                                            6     2      4     521
  1753 ;;                                              0 COMMON     6     2      4
  1754 ;; ---------------------------------------------------------------------------------
  1755 ;; (8) _ReadButtons                                          1     1      0       0
  1756 ;;                                              0 COMMON     1     1      0
  1757 ;; ---------------------------------------------------------------------------------
  1758 ;; Estimated maximum stack depth 8
  1759 ;; ---------------------------------------------------------------------------------
  1760                           
  1761 ;; Call Graph Graphs:
  1762                           
  1763 ;; _main (ROOT)
  1764 ;;   _init
  1765 ;;     _ser_init
  1766 ;;     _init_adc
  1767 ;;     _lcd_init
  1768 ;;       _lcd_write_control
  1769 ;;     _robo_init
  1770 ;;       _ser_putch
  1771 ;;   _robotLoadSong
  1772 ;;     _ser_putch
  1773 ;;   _robot_read
  1774 ;;     _ser_putch
  1775 ;;     _ser_getch
  1776 ;;       _ser_isrx
  1777 ;;   _readAvgDistance
  1778 ;;     _readDistance
  1779 ;;       _adc_read_channel
  1780 ;;         _adc_read
  1781 ;;     ___lwdiv
  1782 ;;   _UpdateDisplay
  1783 ;;     _lcd_write_control
  1784 ;;     _sprintf
  1785 ;;       _isdigit
  1786 ;;       ___wmul
  1787 ;;       ___lwdiv
  1788 ;;       ___lwmod
  1789 ;;         ___lwdiv (ARG)
  1790 ;;     _lcd_set_cursor
  1791 ;;       _lcd_write_control
  1792 ;;     _lcd_write_string
  1793 ;;       _lcd_write_data
  1794 ;;       ___awmod (ARG)
  1795 ;;     ___awmod
  1796 ;;     ___awdiv
  1797 ;;   _Menu
  1798 ;;   _calibrateIR
  1799 ;;     _rotate
  1800 ;;       _spi_transfer
  1801 ;;     _UpdateDisplay
  1802 ;;       _lcd_write_control
  1803 ;;       _sprintf
  1804 ;;         _isdigit
  1805 ;;         ___wmul
  1806 ;;         ___lwdiv
  1807 ;;         ___lwmod
  1808 ;;           ___lwdiv (ARG)
  1809 ;;       _lcd_set_cursor
  1810 ;;         _lcd_write_control
  1811 ;;       _lcd_write_string
  1812 ;;         _lcd_write_data
  1813 ;;         ___awmod (ARG)
  1814 ;;       ___awmod
  1815 ;;       ___awdiv
  1816 ;;   _Init_Follow_IR
  1817 ;;     _calibrateIR
  1818 ;;       _rotate
  1819 ;;         _spi_transfer
  1820 ;;       _UpdateDisplay
  1821 ;;         _lcd_write_control
  1822 ;;         _sprintf
  1823 ;;           _isdigit
  1824 ;;           ___wmul
  1825 ;;           ___lwdiv
  1826 ;;           ___lwmod
  1827 ;;             ___lwdiv (ARG)
  1828 ;;         _lcd_set_cursor
  1829 ;;           _lcd_write_control
  1830 ;;         _lcd_write_string
  1831 ;;           _lcd_write_data
  1832 ;;           ___awmod (ARG)
  1833 ;;         ___awmod
  1834 ;;         ___awdiv
  1835 ;;     _rotate
  1836 ;;       _spi_transfer
  1837 ;;   _GoHome
  1838 ;;     _robotTurnSpeed
  1839 ;;       _robotTurn
  1840 ;;         _ser_putch
  1841 ;;       _robot_read
  1842 ;;         _ser_putch
  1843 ;;         _ser_getch
  1844 ;;           _ser_isrx
  1845 ;;       _UpdateDisplay
  1846 ;;         _lcd_write_control
  1847 ;;         _sprintf
  1848 ;;           _isdigit
  1849 ;;           ___wmul
  1850 ;;           ___lwdiv
  1851 ;;           ___lwmod
  1852 ;;             ___lwdiv (ARG)
  1853 ;;         _lcd_set_cursor
  1854 ;;           _lcd_write_control
  1855 ;;         _lcd_write_string
  1856 ;;           _lcd_write_data
  1857 ;;           ___awmod (ARG)
  1858 ;;         ___awmod
  1859 ;;         ___awdiv
  1860 ;;       _abs
  1861 ;;         ___wmul
  1862 ;;     _robot_turnArc
  1863 ;;       _RobotDrive
  1864 ;;         _ser_putch
  1865 ;;         ___awdiv (ARG)
  1866 ;;       _rotate
  1867 ;;         _spi_transfer
  1868 ;;       _readAvgDistance
  1869 ;;         _readDistance
  1870 ;;           _adc_read_channel
  1871 ;;             _adc_read
  1872 ;;         ___lwdiv
  1873 ;;       _robot_read
  1874 ;;         _ser_putch
  1875 ;;         _ser_getch
  1876 ;;           _ser_isrx
  1877 ;;       _UpdateDisplay
  1878 ;;         _lcd_write_control
  1879 ;;         _sprintf
  1880 ;;           _isdigit
  1881 ;;           ___wmul
  1882 ;;           ___lwdiv
  1883 ;;           ___lwmod
  1884 ;;             ___lwdiv (ARG)
  1885 ;;         _lcd_set_cursor
  1886 ;;           _lcd_write_control
  1887 ;;         _lcd_write_string
  1888 ;;           _lcd_write_data
  1889 ;;           ___awmod (ARG)
  1890 ;;         ___awmod
  1891 ;;         ___awdiv
  1892 ;;       ___awdiv
  1893 ;;       _abs
  1894 ;;         ___wmul
  1895 ;;     _readAvgDistance
  1896 ;;       _readDistance
  1897 ;;         _adc_read_channel
  1898 ;;           _adc_read
  1899 ;;       ___lwdiv
  1900 ;;     _robotFollow
  1901 ;;       _RobotDrive
  1902 ;;         _ser_putch
  1903 ;;         ___awdiv (ARG)
  1904 ;;       _ser_putch
  1905 ;;       _readAvgDistance
  1906 ;;         _readDistance
  1907 ;;           _adc_read_channel
  1908 ;;             _adc_read
  1909 ;;         ___lwdiv
  1910 ;;       _rotate
  1911 ;;         _spi_transfer
  1912 ;;       _robot_read
  1913 ;;         _ser_putch
  1914 ;;         _ser_getch
  1915 ;;           _ser_isrx
  1916 ;;       _robotTurnSpeed
  1917 ;;         _robotTurn
  1918 ;;           _ser_putch
  1919 ;;         _robot_read
  1920 ;;           _ser_putch
  1921 ;;           _ser_getch
  1922 ;;             _ser_isrx
  1923 ;;         _UpdateDisplay
  1924 ;;           _lcd_write_control
  1925 ;;           _sprintf
  1926 ;;             _isdigit
  1927 ;;             ___wmul
  1928 ;;             ___lwdiv
  1929 ;;             ___lwmod
  1930 ;;               ___lwdiv (ARG)
  1931 ;;           _lcd_set_cursor
  1932 ;;             _lcd_write_control
  1933 ;;           _lcd_write_string
  1934 ;;             _lcd_write_data
  1935 ;;             ___awmod (ARG)
  1936 ;;           ___awmod
  1937 ;;           ___awdiv
  1938 ;;         _abs
  1939 ;;           ___wmul
  1940 ;;       _robotMoveSpeed
  1941 ;;         _RobotDrive
  1942 ;;           _ser_putch
  1943 ;;           ___awdiv (ARG)
  1944 ;;         _robot_read
  1945 ;;           _ser_putch
  1946 ;;           _ser_getch
  1947 ;;             _ser_isrx
  1948 ;;         _UpdateDisplay
  1949 ;;           _lcd_write_control
  1950 ;;           _sprintf
  1951 ;;             _isdigit
  1952 ;;             ___wmul
  1953 ;;             ___lwdiv
  1954 ;;             ___lwmod
  1955 ;;               ___lwdiv (ARG)
  1956 ;;           _lcd_set_cursor
  1957 ;;             _lcd_write_control
  1958 ;;           _lcd_write_string
  1959 ;;             _lcd_write_data
  1960 ;;             ___awmod (ARG)
  1961 ;;           ___awmod
  1962 ;;           ___awdiv
  1963 ;;         _abs
  1964 ;;           ___wmul
  1965 ;;       _UpdateDisplay
  1966 ;;         _lcd_write_control
  1967 ;;         _sprintf
  1968 ;;           _isdigit
  1969 ;;           ___wmul
  1970 ;;           ___lwdiv
  1971 ;;           ___lwmod
  1972 ;;             ___lwdiv (ARG)
  1973 ;;         _lcd_set_cursor
  1974 ;;           _lcd_write_control
  1975 ;;         _lcd_write_string
  1976 ;;           _lcd_write_data
  1977 ;;           ___awmod (ARG)
  1978 ;;         ___awmod
  1979 ;;         ___awdiv
  1980 ;;     _ser_putch
  1981 ;;     _robot_turnInPlace
  1982 ;;       _robotTurnSpeed
  1983 ;;         _robotTurn
  1984 ;;           _ser_putch
  1985 ;;         _robot_read
  1986 ;;           _ser_putch
  1987 ;;           _ser_getch
  1988 ;;             _ser_isrx
  1989 ;;         _UpdateDisplay
  1990 ;;           _lcd_write_control
  1991 ;;           _sprintf
  1992 ;;             _isdigit
  1993 ;;             ___wmul
  1994 ;;             ___lwdiv
  1995 ;;             ___lwmod
  1996 ;;               ___lwdiv (ARG)
  1997 ;;           _lcd_set_cursor
  1998 ;;             _lcd_write_control
  1999 ;;           _lcd_write_string
  2000 ;;             _lcd_write_data
  2001 ;;             ___awmod (ARG)
  2002 ;;           ___awmod
  2003 ;;           ___awdiv
  2004 ;;         _abs
  2005 ;;           ___wmul
  2006 ;;       _ser_putch
  2007 ;;       _RobotDrive
  2008 ;;         _ser_putch
  2009 ;;         ___awdiv (ARG)
  2010 ;;     _robotMoveSpeed
  2011 ;;       _RobotDrive
  2012 ;;         _ser_putch
  2013 ;;         ___awdiv (ARG)
  2014 ;;       _robot_read
  2015 ;;         _ser_putch
  2016 ;;         _ser_getch
  2017 ;;           _ser_isrx
  2018 ;;       _UpdateDisplay
  2019 ;;         _lcd_write_control
  2020 ;;         _sprintf
  2021 ;;           _isdigit
  2022 ;;           ___wmul
  2023 ;;           ___lwdiv
  2024 ;;           ___lwmod
  2025 ;;             ___lwdiv (ARG)
  2026 ;;         _lcd_set_cursor
  2027 ;;           _lcd_write_control
  2028 ;;         _lcd_write_string
  2029 ;;           _lcd_write_data
  2030 ;;           ___awmod (ARG)
  2031 ;;         ___awmod
  2032 ;;         ___awdiv
  2033 ;;       _abs
  2034 ;;         ___wmul
  2035 ;;   _FindVictim
  2036 ;;     _readAvgDistance
  2037 ;;       _readDistance
  2038 ;;         _adc_read_channel
  2039 ;;           _adc_read
  2040 ;;       ___lwdiv
  2041 ;;     _robotFollow
  2042 ;;       _RobotDrive
  2043 ;;         _ser_putch
  2044 ;;         ___awdiv (ARG)
  2045 ;;       _ser_putch
  2046 ;;       _readAvgDistance
  2047 ;;         _readDistance
  2048 ;;           _adc_read_channel
  2049 ;;             _adc_read
  2050 ;;         ___lwdiv
  2051 ;;       _rotate
  2052 ;;         _spi_transfer
  2053 ;;       _robot_read
  2054 ;;         _ser_putch
  2055 ;;         _ser_getch
  2056 ;;           _ser_isrx
  2057 ;;       _robotTurnSpeed
  2058 ;;         _robotTurn
  2059 ;;           _ser_putch
  2060 ;;         _robot_read
  2061 ;;           _ser_putch
  2062 ;;           _ser_getch
  2063 ;;             _ser_isrx
  2064 ;;         _UpdateDisplay
  2065 ;;           _lcd_write_control
  2066 ;;           _sprintf
  2067 ;;             _isdigit
  2068 ;;             ___wmul
  2069 ;;             ___lwdiv
  2070 ;;             ___lwmod
  2071 ;;               ___lwdiv (ARG)
  2072 ;;           _lcd_set_cursor
  2073 ;;             _lcd_write_control
  2074 ;;           _lcd_write_string
  2075 ;;             _lcd_write_data
  2076 ;;             ___awmod (ARG)
  2077 ;;           ___awmod
  2078 ;;           ___awdiv
  2079 ;;         _abs
  2080 ;;           ___wmul
  2081 ;;       _robotMoveSpeed
  2082 ;;         _RobotDrive
  2083 ;;           _ser_putch
  2084 ;;           ___awdiv (ARG)
  2085 ;;         _robot_read
  2086 ;;           _ser_putch
  2087 ;;           _ser_getch
  2088 ;;             _ser_isrx
  2089 ;;         _UpdateDisplay
  2090 ;;           _lcd_write_control
  2091 ;;           _sprintf
  2092 ;;             _isdigit
  2093 ;;             ___wmul
  2094 ;;             ___lwdiv
  2095 ;;             ___lwmod
  2096 ;;               ___lwdiv (ARG)
  2097 ;;           _lcd_set_cursor
  2098 ;;             _lcd_write_control
  2099 ;;           _lcd_write_string
  2100 ;;             _lcd_write_data
  2101 ;;             ___awmod (ARG)
  2102 ;;           ___awmod
  2103 ;;           ___awdiv
  2104 ;;         _abs
  2105 ;;           ___wmul
  2106 ;;       _UpdateDisplay
  2107 ;;         _lcd_write_control
  2108 ;;         _sprintf
  2109 ;;           _isdigit
  2110 ;;           ___wmul
  2111 ;;           ___lwdiv
  2112 ;;           ___lwmod
  2113 ;;             ___lwdiv (ARG)
  2114 ;;         _lcd_set_cursor
  2115 ;;           _lcd_write_control
  2116 ;;         _lcd_write_string
  2117 ;;           _lcd_write_data
  2118 ;;           ___awmod (ARG)
  2119 ;;         ___awmod
  2120 ;;         ___awdiv
  2121 ;;     _RobotDrive
  2122 ;;       _ser_putch
  2123 ;;       ___awdiv (ARG)
  2124 ;;     _robotTurnSpeed
  2125 ;;       _robotTurn
  2126 ;;         _ser_putch
  2127 ;;       _robot_read
  2128 ;;         _ser_putch
  2129 ;;         _ser_getch
  2130 ;;           _ser_isrx
  2131 ;;       _UpdateDisplay
  2132 ;;         _lcd_write_control
  2133 ;;         _sprintf
  2134 ;;           _isdigit
  2135 ;;           ___wmul
  2136 ;;           ___lwdiv
  2137 ;;           ___lwmod
  2138 ;;             ___lwdiv (ARG)
  2139 ;;         _lcd_set_cursor
  2140 ;;           _lcd_write_control
  2141 ;;         _lcd_write_string
  2142 ;;           _lcd_write_data
  2143 ;;           ___awmod (ARG)
  2144 ;;         ___awmod
  2145 ;;         ___awdiv
  2146 ;;       _abs
  2147 ;;         ___wmul
  2148 ;;     _ser_putch
  2149 ;;     _robotMoveSpeed
  2150 ;;       _RobotDrive
  2151 ;;         _ser_putch
  2152 ;;         ___awdiv (ARG)
  2153 ;;       _robot_read
  2154 ;;         _ser_putch
  2155 ;;         _ser_getch
  2156 ;;           _ser_isrx
  2157 ;;       _UpdateDisplay
  2158 ;;         _lcd_write_control
  2159 ;;         _sprintf
  2160 ;;           _isdigit
  2161 ;;           ___wmul
  2162 ;;           ___lwdiv
  2163 ;;           ___lwmod
  2164 ;;             ___lwdiv (ARG)
  2165 ;;         _lcd_set_cursor
  2166 ;;           _lcd_write_control
  2167 ;;         _lcd_write_string
  2168 ;;           _lcd_write_data
  2169 ;;           ___awmod (ARG)
  2170 ;;         ___awmod
  2171 ;;         ___awdiv
  2172 ;;       _abs
  2173 ;;         ___wmul
  2174 ;;     _robot_turnInPlace
  2175 ;;       _robotTurnSpeed
  2176 ;;         _robotTurn
  2177 ;;           _ser_putch
  2178 ;;         _robot_read
  2179 ;;           _ser_putch
  2180 ;;           _ser_getch
  2181 ;;             _ser_isrx
  2182 ;;         _UpdateDisplay
  2183 ;;           _lcd_write_control
  2184 ;;           _sprintf
  2185 ;;             _isdigit
  2186 ;;             ___wmul
  2187 ;;             ___lwdiv
  2188 ;;             ___lwmod
  2189 ;;               ___lwdiv (ARG)
  2190 ;;           _lcd_set_cursor
  2191 ;;             _lcd_write_control
  2192 ;;           _lcd_write_string
  2193 ;;             _lcd_write_data
  2194 ;;             ___awmod (ARG)
  2195 ;;           ___awmod
  2196 ;;           ___awdiv
  2197 ;;         _abs
  2198 ;;           ___wmul
  2199 ;;       _ser_putch
  2200 ;;       _RobotDrive
  2201 ;;         _ser_putch
  2202 ;;         ___awdiv (ARG)
  2203 ;;     _robot_turnArc
  2204 ;;       _RobotDrive
  2205 ;;         _ser_putch
  2206 ;;         ___awdiv (ARG)
  2207 ;;       _rotate
  2208 ;;         _spi_transfer
  2209 ;;       _readAvgDistance
  2210 ;;         _readDistance
  2211 ;;           _adc_read_channel
  2212 ;;             _adc_read
  2213 ;;         ___lwdiv
  2214 ;;       _robot_read
  2215 ;;         _ser_putch
  2216 ;;         _ser_getch
  2217 ;;           _ser_isrx
  2218 ;;       _UpdateDisplay
  2219 ;;         _lcd_write_control
  2220 ;;         _sprintf
  2221 ;;           _isdigit
  2222 ;;           ___wmul
  2223 ;;           ___lwdiv
  2224 ;;           ___lwmod
  2225 ;;             ___lwdiv (ARG)
  2226 ;;         _lcd_set_cursor
  2227 ;;           _lcd_write_control
  2228 ;;         _lcd_write_string
  2229 ;;           _lcd_write_data
  2230 ;;           ___awmod (ARG)
  2231 ;;         ___awmod
  2232 ;;         ___awdiv
  2233 ;;       ___awdiv
  2234 ;;       _abs
  2235 ;;         ___wmul
  2236 ;;   _ChargeMode
  2237 ;;     _ser_putch
  2238 ;;     _RobotBattRead
  2239 ;;       _ser_putch
  2240 ;;       _ser_getch
  2241 ;;         _ser_isrx
  2242 ;;     _UpdateDisplay
  2243 ;;       _lcd_write_control
  2244 ;;       _sprintf
  2245 ;;         _isdigit
  2246 ;;         ___wmul
  2247 ;;         ___lwdiv
  2248 ;;         ___lwmod
  2249 ;;           ___lwdiv (ARG)
  2250 ;;       _lcd_set_cursor
  2251 ;;         _lcd_write_control
  2252 ;;       _lcd_write_string
  2253 ;;         _lcd_write_data
  2254 ;;         ___awmod (ARG)
  2255 ;;       ___awmod
  2256 ;;       ___awdiv
  2257 ;;
  2258 ;; _isr1 (ROOT)
  2259 ;;   i1___lwmod
  2260 ;;   _ReadButtons
  2261 ;;
  2262                           
  2263 ;; Address spaces:
  2264                           
  2265 ;;Name               Size   Autos  Total    Cost      Usage
  2266 ;;BANK3               60      0      30       9       50.0%
  2267 ;;BITBANK3            60      0       0       8        0.0%
  2268 ;;SFR3                 0      0       0       4        0.0%
  2269 ;;BITSFR3              0      0       0       4        0.0%
  2270 ;;BANK2               60      0       0      11        0.0%
  2271 ;;BITBANK2            60      0       0      10        0.0%
  2272 ;;SFR2                 0      0       0       5        0.0%
  2273 ;;BITSFR2              0      0       0       5        0.0%
  2274 ;;SFR1                 0      0       0       2        0.0%
  2275 ;;BITSFR1              0      0       0       2        0.0%
  2276 ;;BANK1               50      1      48       7       90.0%
  2277 ;;BITBANK1            50      0       0       6        0.0%
  2278 ;;CODE                 0      0       0       0        0.0%
  2279 ;;DATA                 0      0      E0      12        0.0%
  2280 ;;ABS                  0      0      D6       3        0.0%
  2281 ;;NULL                 0      0       0       0        0.0%
  2282 ;;STACK                0      0       A       2        0.0%
  2283 ;;BANK0               50     50      50       5      100.0%
  2284 ;;BITBANK0            50      0       0       4        0.0%
  2285 ;;SFR0                 0      0       0       1        0.0%
  2286 ;;BITSFR0              0      0       0       1        0.0%
  2287 ;;COMMON               E      B       E       1      100.0%
  2288 ;;BITCOMMON            E      0       2       0       14.3%
  2289 ;;EEDATA             100      0       0       0        0.0%
  2290                           
  2291                           	global	_main
  2292                           psect	maintext,global,class=CODE,delta=2
  2293                           global __pmaintext
  2294  1454                     __pmaintext:
  2295                           
  2296 ;; *************** function _main *****************
  2297 ;; Defined at:
  2298 ;;		line 172 in file "E:\Aldnoah.Zero\Assignment3\Main.c"
  2299 ;; Parameters:    Size  Location     Type
  2300 ;;		None
  2301 ;; Auto vars:     Size  Location     Type
  2302 ;;  choice          1    0[BANK1 ] unsigned char 
  2303 ;; Return value:  Size  Location     Type
  2304 ;;		None               void
  2305 ;; Registers used:
  2306 ;;		wreg, fsr0l, fsr0h, status,2, status,0, btemp+1, pclath, cstack
  2307 ;; Tracked objects:
  2308 ;;		On entry : 17F/0
  2309 ;;		On exit  : 0/0
  2310 ;;		Unchanged: 0/0
  2311 ;; Data sizes:     COMMON   BANK0   BANK1   BANK3   BANK2
  2312 ;;      Params:         0       0       0       0       0
  2313 ;;      Locals:         0       0       1       0       0
  2314 ;;      Temps:          0       2       0       0       0
  2315 ;;      Totals:         0       2       1       0       0
  2316 ;;Total ram usage:        3 bytes
  2317 ;; Hardware stack levels required when called:    8
  2318 ;; This function calls:
  2319 ;;		_init
  2320 ;;		_robotLoadSong
  2321 ;;		_robot_read
  2322 ;;		_readAvgDistance
  2323 ;;		_UpdateDisplay
  2324 ;;		_Menu
  2325 ;;		_calibrateIR
  2326 ;;		_Init_Follow_IR
  2327 ;;		_GoHome
  2328 ;;		_FindVictim
  2329 ;;		_ChargeMode
  2330 ;; This function is called by:
  2331 ;;		Startup code after reset
  2332 ;; This function uses a non-reentrant model
  2333 ;;
  2334                           psect	maintext
  2335                           	file	"E:\Aldnoah.Zero\Assignment3\Main.c"
  2336                           	line	172
  2337                           	global	__size_of_main
  2338  00CC                     	__size_of_main	equ	__end_of_main-_main
  2339                           	
  2340  1454                     _main:	
  2341                           	opt	stack 0
  2342                           ; Regs used in _main: [wreg-fsr0h+status,2+status,0+btemp+1+pclath+cstack]
  2343                           	line	173
  2344                           	
  2345  1454                     l12327:	
  2346                           ;Main.c: 173: unsigned char choice = 255;
  2347  1454  30FF               	movlw	(0FFh)
  2348  1455  1283               	bcf	status, 5	;RP0=0, select bank0
  2349  1456  1303               	bcf	status, 6	;RP1=0, select bank0
  2350  1457  00EE               	movwf	(??_main+0)+0
  2351  1458  086E               	movf	(??_main+0)+0,w
  2352  1459  1683               	bsf	status, 5	;RP0=1, select bank1
  2353  145A  1303               	bcf	status, 6	;RP1=0, select bank1
  2354  145B  00E7               	movwf	(main@choice)^080h
  2355                           	line	174
  2356                           	
  2357  145C                     l12329:	
  2358                           ;Main.c: 174: followDir = 0;
  2359  145C  01D1               	clrf	(_followDir)^080h
  2360                           	line	175
  2361                           	
  2362  145D                     l12331:	
  2363                           ;Main.c: 175: RobotPos = 0;
  2364  145D  01CB               	clrf	(_RobotPos)^080h
  2365                           	line	176
  2366                           	
  2367  145E                     l12333:	
  2368                           ;Main.c: 176: currentMenu = 0;
  2369  145E  01D0               	clrf	(_currentMenu)^080h	;volatile
  2370                           	line	178
  2371                           	
  2372  145F                     l12335:	
  2373                           ;Main.c: 178: init();
  2374  145F  160A  158A  2428   	fcall	_init
              160A  118A         
  2375                           	line	179
  2376                           	
  2377  1464                     l12337:	
  2378                           ;Main.c: 179: robotLoadSong();
  2379  1464  120A  158A  200F   	fcall	_robotLoadSong
              160A  118A         
  2380  1469  2C6A               	goto	l12339
  2381                           	line	181
  2382                           ;Main.c: 181: while(1)
  2383                           	
  2384  146A                     l2294:	
  2385                           	line	183
  2386                           	
  2387  146A                     l12339:	
  2388                           ;Main.c: 182: {
  2389                           ;Main.c: 183: if (RTC_FLAG_250MS == 1)
  2390  146A  1FF0               	btfss	(_RTC_FLAG_250MS/8),(_RTC_FLAG_250MS)&7
  2391  146B  2C6D               	goto	u5691
  2392  146C  2C6E               	goto	u5690
  2393  146D                     u5691:
  2394  146D  2C91               	goto	l12351
  2395  146E                     u5690:
  2396                           	line	185
  2397                           	
  2398  146E                     l12341:	
  2399                           ;Main.c: 184: {
  2400                           ;Main.c: 185: RTC_FLAG_250MS = 0;
  2401  146E  13F0               	bcf	(_RTC_FLAG_250MS/8),(_RTC_FLAG_250MS)&7
  2402                           	line	186
  2403                           	
  2404  146F                     l12343:	
  2405                           ;Main.c: 186: robot_read(2);
  2406  146F  3002               	movlw	(02h)
  2407  1470  160A  118A  26DE   	fcall	_robot_read
              160A  118A         
  2408                           	line	187
  2409                           	
  2410  1475                     l12345:	
  2411                           ;Main.c: 187: readAvgDistance();
  2412  1475  160A  118A  2145   	fcall	_readAvgDistance
              160A  118A         
  2413                           	line	188
  2414                           	
  2415  147A                     l12347:	
  2416                           ;Main.c: 188: Disp2 = RobotPos;
  2417  147A  1683               	bsf	status, 5	;RP0=1, select bank1
  2418  147B  1303               	bcf	status, 6	;RP1=0, select bank1
  2419  147C  084B               	movf	(_RobotPos)^080h,w
  2420  147D  1283               	bcf	status, 5	;RP0=0, select bank0
  2421  147E  1303               	bcf	status, 6	;RP1=0, select bank0
  2422  147F  00EE               	movwf	(??_main+0)+0
  2423  1480  01EF               	clrf	(??_main+0)+0+1
  2424  1481  086E               	movf	0+(??_main+0)+0,w
  2425  1482  1683               	bsf	status, 5	;RP0=1, select bank1
  2426  1483  1303               	bcf	status, 6	;RP1=0, select bank1
  2427  1484  00A6               	movwf	(_Disp2)^080h
  2428  1485  1283               	bcf	status, 5	;RP0=0, select bank0
  2429  1486  1303               	bcf	status, 6	;RP1=0, select bank0
  2430  1487  086F               	movf	1+(??_main+0)+0,w
  2431  1488  1683               	bsf	status, 5	;RP0=1, select bank1
  2432  1489  1303               	bcf	status, 6	;RP1=0, select bank1
  2433  148A  00A7               	movwf	(_Disp2+1)^080h
  2434                           	line	189
  2435                           	
  2436  148B                     l12349:	
  2437                           ;Main.c: 189: UpdateDisplay();
  2438  148B  120A  158A  257B   	fcall	_UpdateDisplay
              160A  118A         
  2439  1490  2C91               	goto	l12351
  2440                           	line	190
  2441                           	
  2442  1491                     l2295:	
  2443                           	line	191
  2444                           	
  2445  1491                     l12351:	
  2446                           ;Main.c: 190: }
  2447                           ;Main.c: 191: if (buttonPressed)
  2448  1491  1683               	bsf	status, 5	;RP0=1, select bank1
  2449  1492  1303               	bcf	status, 6	;RP1=0, select bank1
  2450  1493  084F               	movf	(_buttonPressed)^080h,w	;volatile
  2451  1494  1D03               	skipz
  2452  1495  2C97               	goto	u5700
  2453  1496  2CFD               	goto	l12383
  2454  1497                     u5700:
  2455                           	line	194
  2456                           	
  2457  1497                     l12353:	
  2458                           ;Main.c: 193: {
  2459                           ;Main.c: 194: choice = Menu(buttonPressed);
  2460  1497  084F               	movf	(_buttonPressed)^080h,w	;volatile
  2461  1498  120A  118A  27B6   	fcall	_Menu
              160A  118A         
  2462  149D  1283               	bcf	status, 5	;RP0=0, select bank0
  2463  149E  1303               	bcf	status, 6	;RP1=0, select bank0
  2464  149F  00EE               	movwf	(??_main+0)+0
  2465  14A0  086E               	movf	(??_main+0)+0,w
  2466  14A1  1683               	bsf	status, 5	;RP0=1, select bank1
  2467  14A2  1303               	bcf	status, 6	;RP1=0, select bank1
  2468  14A3  00E7               	movwf	(main@choice)^080h
  2469                           	line	195
  2470                           	
  2471  14A4                     l12355:	
  2472                           ;Main.c: 195: buttonPressed = 0;
  2473  14A4  01CF               	clrf	(_buttonPressed)^080h	;volatile
  2474  14A5  2CFD               	goto	l12383
  2475                           	line	196
  2476                           	
  2477  14A6                     l2296:	
  2478                           	line	200
  2479                           ;Main.c: 196: }
  2480                           ;Main.c: 200: switch (choice)
  2481  14A6  2CFD               	goto	l12383
  2482                           	line	202
  2483                           ;Main.c: 201: {
  2484                           ;Main.c: 202: case 0:
  2485                           	
  2486  14A7                     l2298:	
  2487                           	line	203
  2488                           	
  2489  14A7                     l12357:	
  2490                           ;Main.c: 203: calibrateIR();
  2491  14A7  160A  158A  26A6   	fcall	_calibrateIR
              160A  118A         
  2492                           	line	204
  2493                           ;Main.c: 204: break;
  2494  14AC  2D13               	goto	l12385
  2495                           	line	205
  2496                           ;Main.c: 205: case 1:
  2497                           	
  2498  14AD                     l2300:	
  2499                           	line	206
  2500                           	
  2501  14AD                     l12359:	
  2502                           ;Main.c: 206: RobotPos = 16;
  2503  14AD  3010               	movlw	(010h)
  2504  14AE  1283               	bcf	status, 5	;RP0=0, select bank0
  2505  14AF  1303               	bcf	status, 6	;RP1=0, select bank0
  2506  14B0  00EE               	movwf	(??_main+0)+0
  2507  14B1  086E               	movf	(??_main+0)+0,w
  2508  14B2  1683               	bsf	status, 5	;RP0=1, select bank1
  2509  14B3  1303               	bcf	status, 6	;RP1=0, select bank1
  2510  14B4  00CB               	movwf	(_RobotPos)^080h
  2511                           	line	207
  2512                           	
  2513  14B5                     l12361:	
  2514                           ;Main.c: 207: Init_Follow_IR();
  2515  14B5  160A  158A  22B1   	fcall	_Init_Follow_IR
              160A  118A         
  2516                           	line	208
  2517                           	
  2518  14BA                     l12363:	
  2519                           ;Main.c: 208: GoHome();
  2520  14BA  120A  158A  2064   	fcall	_GoHome
              160A  118A         
  2521                           	line	209
  2522                           ;Main.c: 209: break;
  2523  14BF  2D13               	goto	l12385
  2524                           	line	210
  2525                           ;Main.c: 210: case 2:
  2526                           	
  2527  14C0                     l2301:	
  2528                           	line	211
  2529                           	
  2530  14C0                     l12365:	
  2531                           ;Main.c: 211: RobotPos = 6;
  2532  14C0  3006               	movlw	(06h)
  2533  14C1  1283               	bcf	status, 5	;RP0=0, select bank0
  2534  14C2  1303               	bcf	status, 6	;RP1=0, select bank0
  2535  14C3  00EE               	movwf	(??_main+0)+0
  2536  14C4  086E               	movf	(??_main+0)+0,w
  2537  14C5  1683               	bsf	status, 5	;RP0=1, select bank1
  2538  14C6  1303               	bcf	status, 6	;RP1=0, select bank1
  2539  14C7  00CB               	movwf	(_RobotPos)^080h
  2540                           	line	213
  2541                           ;Main.c: 213: break;
  2542  14C8  2D13               	goto	l12385
  2543                           	line	214
  2544                           ;Main.c: 214: case 3:
  2545                           	
  2546  14C9                     l2302:	
  2547                           	line	216
  2548                           	
  2549  14C9                     l12367:	
  2550                           ;Main.c: 216: RobotPos = 12;
  2551  14C9  300C               	movlw	(0Ch)
  2552  14CA  1283               	bcf	status, 5	;RP0=0, select bank0
  2553  14CB  1303               	bcf	status, 6	;RP1=0, select bank0
  2554  14CC  00EE               	movwf	(??_main+0)+0
  2555  14CD  086E               	movf	(??_main+0)+0,w
  2556  14CE  1683               	bsf	status, 5	;RP0=1, select bank1
  2557  14CF  1303               	bcf	status, 6	;RP1=0, select bank1
  2558  14D0  00CB               	movwf	(_RobotPos)^080h
  2559                           	line	217
  2560                           ;Main.c: 217: break;
  2561  14D1  2D13               	goto	l12385
  2562                           	line	218
  2563                           ;Main.c: 218: case 4:
  2564                           	
  2565  14D2                     l2303:	
  2566                           	line	219
  2567                           ;Main.c: 219: FoundVictim = 0;
  2568  14D2  01C7               	clrf	(_FoundVictim)^080h
  2569                           	line	220
  2570                           	
  2571  14D3                     l12369:	
  2572                           ;Main.c: 220: Init_Follow_IR();
  2573  14D3  160A  158A  22B1   	fcall	_Init_Follow_IR
              160A  118A         
  2574                           	line	221
  2575                           	
  2576  14D8                     l12371:	
  2577                           ;Main.c: 221: currentMenu = 3;
  2578  14D8  3003               	movlw	(03h)
  2579  14D9  1283               	bcf	status, 5	;RP0=0, select bank0
  2580  14DA  1303               	bcf	status, 6	;RP1=0, select bank0
  2581  14DB  00EE               	movwf	(??_main+0)+0
  2582  14DC  086E               	movf	(??_main+0)+0,w
  2583  14DD  1683               	bsf	status, 5	;RP0=1, select bank1
  2584  14DE  1303               	bcf	status, 6	;RP1=0, select bank1
  2585  14DF  00D0               	movwf	(_currentMenu)^080h	;volatile
  2586                           	line	222
  2587                           	
  2588  14E0                     l12373:	
  2589                           ;Main.c: 222: FindVictim();
  2590  14E0  120A  158A  2398   	fcall	_FindVictim
              160A  118A         
  2591                           	line	223
  2592                           ;Main.c: 223: if (FoundVictim)
  2593  14E5  1683               	bsf	status, 5	;RP0=1, select bank1
  2594  14E6  1303               	bcf	status, 6	;RP1=0, select bank1
  2595  14E7  0847               	movf	(_FoundVictim)^080h,w
  2596  14E8  1D03               	skipz
  2597  14E9  2CEB               	goto	u5710
  2598  14EA  2CF1               	goto	l12377
  2599  14EB                     u5710:
  2600                           	line	224
  2601                           	
  2602  14EB                     l12375:	
  2603                           ;Main.c: 224: GoHome();
  2604  14EB  120A  158A  2064   	fcall	_GoHome
              160A  118A         
  2605  14F0  2CF1               	goto	l12377
  2606                           	
  2607  14F1                     l2304:	
  2608                           	line	225
  2609                           	
  2610  14F1                     l12377:	
  2611                           ;Main.c: 225: ROBOTerror = 0;
  2612  14F1  1683               	bsf	status, 5	;RP0=1, select bank1
  2613  14F2  1303               	bcf	status, 6	;RP1=0, select bank1
  2614  14F3  01C9               	clrf	(_ROBOTerror)^080h
  2615                           	line	226
  2616                           ;Main.c: 226: break;
  2617  14F4  2D13               	goto	l12385
  2618                           	line	228
  2619                           ;Main.c: 228: case 5:
  2620                           	
  2621  14F5                     l2305:	
  2622                           	line	229
  2623                           	
  2624  14F5                     l12379:	
  2625                           ;Main.c: 229: ChargeMode();
  2626  14F5  160A  158A  258A   	fcall	_ChargeMode
              160A  118A         
  2627                           	line	230
  2628                           ;Main.c: 230: break;
  2629  14FA  2D13               	goto	l12385
  2630                           	line	231
  2631                           ;Main.c: 231: default:
  2632                           	
  2633  14FB                     l2306:	
  2634                           	line	233
  2635                           ;Main.c: 233: break;
  2636  14FB  2D13               	goto	l12385
  2637                           	line	234
  2638                           	
  2639  14FC                     l12381:	
  2640                           ;Main.c: 234: }
  2641  14FC  2D13               	goto	l12385
  2642                           	line	200
  2643                           	
  2644  14FD                     l2297:	
  2645                           	
  2646  14FD                     l12383:	
  2647  14FD  1683               	bsf	status, 5	;RP0=1, select bank1
  2648  14FE  1303               	bcf	status, 6	;RP1=0, select bank1
  2649  14FF  0867               	movf	(main@choice)^080h,w
  2650                           	; Switch size 1, requested type "space"
  2651                           ; Number of cases is 6, Range of values is 0 to 5
  2652                           ; switch strategies available:
  2653                           ; Name         Instructions Cycles
  2654                           ; simple_byte           19    10 (average)
  2655                           ; direct_byte           26     8 (fixed)
  2656                           ; jumptable            260     6 (fixed)
  2657                           ; rangetable            10     6 (fixed)
  2658                           ; spacedrange           18     9 (fixed)
  2659                           ; locatedrange           6     3 (fixed)
  2660                           ;	Chosen strategy is simple_byte
  2661                           
  2662                           	opt asmopt_off
  2663  1500  3A00               	xorlw	0^0	; case 0
  2664  1501  1903               	skipnz
  2665  1502  2CA7               	goto	l12357
  2666  1503  3A01               	xorlw	1^0	; case 1
  2667  1504  1903               	skipnz
  2668  1505  2CAD               	goto	l12359
  2669  1506  3A03               	xorlw	2^1	; case 2
  2670  1507  1903               	skipnz
  2671  1508  2CC0               	goto	l12365
  2672  1509  3A01               	xorlw	3^2	; case 3
  2673  150A  1903               	skipnz
  2674  150B  2CC9               	goto	l12367
  2675  150C  3A07               	xorlw	4^3	; case 4
  2676  150D  1903               	skipnz
  2677  150E  2CD2               	goto	l2303
  2678  150F  3A01               	xorlw	5^4	; case 5
  2679  1510  1903               	skipnz
  2680  1511  2CF5               	goto	l12379
  2681  1512  2D13               	goto	l12385
  2682                           	opt asmopt_on
  2683                           
  2684                           	line	234
  2685                           	
  2686  1513                     l2299:	
  2687                           	line	235
  2688                           	
  2689  1513                     l12385:	
  2690                           ;Main.c: 235: choice = 255;
  2691  1513  30FF               	movlw	(0FFh)
  2692  1514  1283               	bcf	status, 5	;RP0=0, select bank0
  2693  1515  1303               	bcf	status, 6	;RP1=0, select bank0
  2694  1516  00EE               	movwf	(??_main+0)+0
  2695  1517  086E               	movf	(??_main+0)+0,w
  2696  1518  1683               	bsf	status, 5	;RP0=1, select bank1
  2697  1519  1303               	bcf	status, 6	;RP1=0, select bank1
  2698  151A  00E7               	movwf	(main@choice)^080h
  2699  151B  2C6A               	goto	l12339
  2700                           	line	236
  2701                           	
  2702  151C                     l2307:	
  2703                           	line	181
  2704  151C  2C6A               	goto	l12339
  2705                           	
  2706  151D                     l2308:	
  2707                           	line	237
  2708                           	
  2709  151D                     l2309:	
  2710                           	global	start
  2711  151D  120A  118A  2812   	ljmp	start
  2712                           	opt stack 0
  2713                           GLOBAL	__end_of_main
  2714  1520                     	__end_of_main:
  2715 ;; =============== function _main ends ============
  2716                           
  2717                           	signat	_main,88
  2718                           	global	_FindVictim
  2719                           psect	text1093,local,class=CODE,delta=2
  2720                           global __ptext1093
  2721  0B98                     __ptext1093:
  2722                           
  2723 ;; *************** function _FindVictim *****************
  2724 ;; Defined at:
  2725 ;;		line 320 in file "E:\Aldnoah.Zero\Assignment3\Main.c"
  2726 ;; Parameters:    Size  Location     Type
  2727 ;;		None
  2728 ;; Auto vars:     Size  Location     Type
  2729 ;;		None
  2730 ;; Return value:  Size  Location     Type
  2731 ;;		None               void
  2732 ;; Registers used:
  2733 ;;		wreg, fsr0l, fsr0h, status,2, status,0, btemp+1, pclath, cstack
  2734 ;; Tracked objects:
  2735 ;;		On entry : 0/0
  2736 ;;		On exit  : 0/0
  2737 ;;		Unchanged: 0/0
  2738 ;; Data sizes:     COMMON   BANK0   BANK1   BANK3   BANK2
  2739 ;;      Params:         0       0       0       0       0
  2740 ;;      Locals:         0       0       0       0       0
  2741 ;;      Temps:          0       3       0       0       0
  2742 ;;      Totals:         0       3       0       0       0
  2743 ;;Total ram usage:        3 bytes
  2744 ;; Hardware stack levels used:    1
  2745 ;; Hardware stack levels required when called:    7
  2746 ;; This function calls:
  2747 ;;		_readAvgDistance
  2748 ;;		_robotFollow
  2749 ;;		_RobotDrive
  2750 ;;		_robotTurnSpeed
  2751 ;;		_ser_putch
  2752 ;;		_robotMoveSpeed
  2753 ;;		_robot_turnInPlace
  2754 ;;		_robot_turnArc
  2755 ;; This function is called by:
  2756 ;;		_main
  2757 ;; This function uses a non-reentrant model
  2758 ;;
  2759                           psect	text1093
  2760                           	file	"E:\Aldnoah.Zero\Assignment3\Main.c"
  2761                           	line	320
  2762                           	global	__size_of_FindVictim
  2763  01E3                     	__size_of_FindVictim	equ	__end_of_FindVictim-_FindVictim
  2764                           	
  2765  0B98                     _FindVictim:	
  2766                           	opt	stack 0
  2767                           ; Regs used in _FindVictim: [wreg-fsr0h+status,2+status,0+btemp+1+pclath+cstack]
  2768                           	line	321
  2769                           	
  2770  0B98                     l12253:	
  2771                           ;Main.c: 321: while (ROBOTerror != 9)
  2772  0B98  2D71               	goto	l12325
  2773                           	
  2774  0B99                     l2343:	
  2775                           	line	324
  2776                           ;Main.c: 322: {
  2777                           ;Main.c: 324: switch (ROBOTerror)
  2778  0B99  2D54               	goto	l12323
  2779                           	line	326
  2780                           ;Main.c: 325: {
  2781                           ;Main.c: 326: case 0:
  2782                           	
  2783  0B9A                     l2345:	
  2784                           	line	328
  2785                           	
  2786  0B9A                     l12255:	
  2787                           ;Main.c: 328: readAvgDistance();
  2788  0B9A  160A  118A  2145   	fcall	_readAvgDistance
              120A  158A         
  2789                           	line	329
  2790                           ;Main.c: 329: robotFollow(200, adcVal);
  2791  0B9F  30C8               	movlw	low(0C8h)
  2792  0BA0  1283               	bcf	status, 5	;RP0=0, select bank0
  2793  0BA1  1303               	bcf	status, 6	;RP1=0, select bank0
  2794  0BA2  00E0               	movwf	(?_robotFollow)
  2795  0BA3  3000               	movlw	high(0C8h)
  2796  0BA4  00E1               	movwf	((?_robotFollow))+1
  2797  0BA5  1683               	bsf	status, 5	;RP0=1, select bank1
  2798  0BA6  1303               	bcf	status, 6	;RP1=0, select bank1
  2799  0BA7  082F               	movf	(_adcVal+1)^080h,w	;volatile
  2800  0BA8  1283               	bcf	status, 5	;RP0=0, select bank0
  2801  0BA9  1303               	bcf	status, 6	;RP1=0, select bank0
  2802  0BAA  01E3               	clrf	1+(?_robotFollow)+02h
  2803  0BAB  07E3               	addwf	1+(?_robotFollow)+02h
  2804  0BAC  1683               	bsf	status, 5	;RP0=1, select bank1
  2805  0BAD  1303               	bcf	status, 6	;RP1=0, select bank1
  2806  0BAE  082E               	movf	(_adcVal)^080h,w	;volatile
  2807  0BAF  1283               	bcf	status, 5	;RP0=0, select bank0
  2808  0BB0  1303               	bcf	status, 6	;RP1=0, select bank0
  2809  0BB1  01E2               	clrf	0+(?_robotFollow)+02h
  2810  0BB2  07E2               	addwf	0+(?_robotFollow)+02h
  2811                           
  2812  0BB3  120A  118A  2489   	fcall	_robotFollow
              120A  158A         
  2813                           	line	330
  2814                           ;Main.c: 330: break;
  2815  0BB8  2D71               	goto	l12325
  2816                           	line	331
  2817                           ;Main.c: 331: case 1:
  2818                           	
  2819  0BB9                     l2347:	
  2820                           	line	332
  2821                           	
  2822  0BB9                     l12257:	
  2823                           ;Main.c: 332: if (RobotPos == 10)
  2824  0BB9  1683               	bsf	status, 5	;RP0=1, select bank1
  2825  0BBA  1303               	bcf	status, 6	;RP1=0, select bank1
  2826  0BBB  084B               	movf	(_RobotPos)^080h,w
  2827  0BBC  3A0A               	xorlw	0Ah
  2828  0BBD  1D03               	skipz
  2829  0BBE  2BC0               	goto	u5671
  2830  0BBF  2BC1               	goto	u5670
  2831  0BC0                     u5671:
  2832  0BC0  2C09               	goto	l12269
  2833  0BC1                     u5670:
  2834                           	line	334
  2835                           	
  2836  0BC1                     l12259:	
  2837                           ;Main.c: 333: {
  2838                           ;Main.c: 334: RobotDrive(-200, 0x7FFF);
  2839  0BC1  3038               	movlw	low(-200)
  2840  0BC2  1283               	bcf	status, 5	;RP0=0, select bank0
  2841  0BC3  1303               	bcf	status, 6	;RP1=0, select bank0
  2842  0BC4  00A9               	movwf	(?_RobotDrive)
  2843  0BC5  30FF               	movlw	high(-200)
  2844  0BC6  00AA               	movwf	((?_RobotDrive))+1
  2845  0BC7  30FF               	movlw	low(07FFFh)
  2846  0BC8  00AB               	movwf	0+(?_RobotDrive)+02h
  2847  0BC9  307F               	movlw	high(07FFFh)
  2848  0BCA  00AC               	movwf	(0+(?_RobotDrive)+02h)+1
  2849  0BCB  160A  158A  248C   	fcall	_RobotDrive
              120A  158A         
  2850                           	line	335
  2851                           	
  2852  0BD0                     l12261:	
  2853                           ;Main.c: 335: _delay((unsigned long)((200)*(20000000/4000.0)));
  2854                           	opt asmopt_off
  2855  0BD0  3006               movlw  6
  2856  0BD1  1283               	bcf	status, 5	;RP0=0, select bank0
  2857  0BD2  1303               	bcf	status, 6	;RP1=0, select bank0
  2858  0BD3  00ED               movwf	((??_FindVictim+0)+0+2),f
  2859  0BD4  3013               movlw	19
  2860  0BD5  00EC               movwf	((??_FindVictim+0)+0+1),f
  2861  0BD6  30B1               	movlw	177
  2862  0BD7  00EB               movwf	((??_FindVictim+0)+0),f
  2863  0BD8                     u5727:
  2864  0BD8  0BEB               	decfsz	((??_FindVictim+0)+0),f
  2865  0BD9  2BD8               	goto	u5727
  2866  0BDA  0BEC               	decfsz	((??_FindVictim+0)+0+1),f
  2867  0BDB  2BD8               	goto	u5727
  2868  0BDC  0BED               	decfsz	((??_FindVictim+0)+0+2),f
  2869  0BDD  2BD8               	goto	u5727
  2870  0BDE  2BDF               	nop2
  2871                           opt asmopt_on
  2872                           
  2873                           	line	336
  2874                           	
  2875  0BDF                     l12263:	
  2876                           ;Main.c: 336: RobotPos++;
  2877  0BDF  3001               	movlw	(01h)
  2878  0BE0  1283               	bcf	status, 5	;RP0=0, select bank0
  2879  0BE1  1303               	bcf	status, 6	;RP1=0, select bank0
  2880  0BE2  00EB               	movwf	(??_FindVictim+0)+0
  2881  0BE3  086B               	movf	(??_FindVictim+0)+0,w
  2882  0BE4  1683               	bsf	status, 5	;RP0=1, select bank1
  2883  0BE5  1303               	bcf	status, 6	;RP1=0, select bank1
  2884  0BE6  07CB               	addwf	(_RobotPos)^080h,f
  2885                           	line	337
  2886                           	
  2887  0BE7                     l12265:	
  2888                           ;Main.c: 337: ROBOTerror = 0;
  2889  0BE7  01C9               	clrf	(_ROBOTerror)^080h
  2890                           	line	338
  2891                           	
  2892  0BE8                     l12267:	
  2893                           ;Main.c: 338: robotTurnSpeed((-(angleTurned - 75)),400);
  2894  0BE8  0830               	movf	(_angleTurned)^080h,w
  2895  0BE9  3EB5               	addlw	low(-75)
  2896  0BEA  1283               	bcf	status, 5	;RP0=0, select bank0
  2897  0BEB  1303               	bcf	status, 6	;RP1=0, select bank0
  2898  0BEC  00EB               	movwf	(??_FindVictim+0)+0
  2899  0BED  1683               	bsf	status, 5	;RP0=1, select bank1
  2900  0BEE  1303               	bcf	status, 6	;RP1=0, select bank1
  2901  0BEF  0831               	movf	(_angleTurned+1)^080h,w
  2902  0BF0  1803               	skipnc
  2903  0BF1  3E01               	addlw	1
  2904  0BF2  3EFF               	addlw	high(-75)
  2905  0BF3  1283               	bcf	status, 5	;RP0=0, select bank0
  2906  0BF4  1303               	bcf	status, 6	;RP1=0, select bank0
  2907  0BF5  00EC               	movwf	1+(??_FindVictim+0)+0
  2908  0BF6  09EB               	comf	(??_FindVictim+0)+0,f
  2909  0BF7  09EC               	comf	(??_FindVictim+0)+1,f
  2910  0BF8  0AEB               	incf	(??_FindVictim+0)+0,f
  2911  0BF9  1903               	skipnz
  2912  0BFA  0AEC               	incf	(??_FindVictim+0)+1,f
  2913  0BFB  086B               	movf	0+(??_FindVictim+0)+0,w
  2914  0BFC  00D7               	movwf	(?_robotTurnSpeed)
  2915  0BFD  086C               	movf	1+(??_FindVictim+0)+0,w
  2916  0BFE  00D8               	movwf	(?_robotTurnSpeed+1)
  2917  0BFF  3090               	movlw	low(0190h)
  2918  0C00  00D9               	movwf	0+(?_robotTurnSpeed)+02h
  2919  0C01  3001               	movlw	high(0190h)
  2920  0C02  00DA               	movwf	(0+(?_robotTurnSpeed)+02h)+1
  2921  0C03  160A  118A  2245   	fcall	_robotTurnSpeed
              120A  158A         
  2922                           	line	339
  2923                           ;Main.c: 339: }
  2924  0C08  2D71               	goto	l12325
  2925                           	line	340
  2926                           	
  2927  0C09                     l2348:	
  2928                           	line	341
  2929                           	
  2930  0C09                     l12269:	
  2931                           ;Main.c: 340: else
  2932                           ;Main.c: 341: ROBOTerror = 9;
  2933  0C09  3009               	movlw	(09h)
  2934  0C0A  1283               	bcf	status, 5	;RP0=0, select bank0
  2935  0C0B  1303               	bcf	status, 6	;RP1=0, select bank0
  2936  0C0C  00EB               	movwf	(??_FindVictim+0)+0
  2937  0C0D  086B               	movf	(??_FindVictim+0)+0,w
  2938  0C0E  1683               	bsf	status, 5	;RP0=1, select bank1
  2939  0C0F  1303               	bcf	status, 6	;RP1=0, select bank1
  2940  0C10  00C9               	movwf	(_ROBOTerror)^080h
  2941  0C11  2D71               	goto	l12325
  2942                           	
  2943  0C12                     l2349:	
  2944                           	line	342
  2945                           ;Main.c: 342: break;
  2946  0C12  2D71               	goto	l12325
  2947                           	line	343
  2948                           ;Main.c: 343: case 2:
  2949                           	
  2950  0C13                     l2350:	
  2951                           	line	344
  2952                           	
  2953  0C13                     l12271:	
  2954                           ;Main.c: 344: ser_putch(141);
  2955  0C13  308D               	movlw	(08Dh)
  2956  0C14  160A  158A  23FB   	fcall	_ser_putch
              120A  158A         
  2957                           	line	345
  2958                           ;Main.c: 345: ser_putch(0);
  2959  0C19  3000               	movlw	(0)
  2960  0C1A  160A  158A  23FB   	fcall	_ser_putch
              120A  158A         
  2961                           	line	346
  2962                           	
  2963  0C1F                     l12273:	
  2964                           ;Main.c: 346: robotTurnSpeed((180),400);
  2965  0C1F  30B4               	movlw	low(0B4h)
  2966  0C20  1283               	bcf	status, 5	;RP0=0, select bank0
  2967  0C21  1303               	bcf	status, 6	;RP1=0, select bank0
  2968  0C22  00D7               	movwf	(?_robotTurnSpeed)
  2969  0C23  3000               	movlw	high(0B4h)
  2970  0C24  00D8               	movwf	((?_robotTurnSpeed))+1
  2971  0C25  3090               	movlw	low(0190h)
  2972  0C26  00D9               	movwf	0+(?_robotTurnSpeed)+02h
  2973  0C27  3001               	movlw	high(0190h)
  2974  0C28  00DA               	movwf	(0+(?_robotTurnSpeed)+02h)+1
  2975  0C29  160A  118A  2245   	fcall	_robotTurnSpeed
              120A  158A         
  2976                           	line	347
  2977                           	
  2978  0C2E                     l12275:	
  2979                           ;Main.c: 347: ROBOTerror = 0;
  2980  0C2E  1683               	bsf	status, 5	;RP0=1, select bank1
  2981  0C2F  1303               	bcf	status, 6	;RP1=0, select bank1
  2982  0C30  01C9               	clrf	(_ROBOTerror)^080h
  2983                           	line	348
  2984                           ;Main.c: 348: break;
  2985  0C31  2D71               	goto	l12325
  2986                           	line	349
  2987                           ;Main.c: 349: case 3:
  2988                           	
  2989  0C32                     l2351:	
  2990                           	line	350
  2991                           	
  2992  0C32                     l12277:	
  2993                           ;Main.c: 350: RobotPos++;
  2994  0C32  3001               	movlw	(01h)
  2995  0C33  1283               	bcf	status, 5	;RP0=0, select bank0
  2996  0C34  1303               	bcf	status, 6	;RP1=0, select bank0
  2997  0C35  00EB               	movwf	(??_FindVictim+0)+0
  2998  0C36  086B               	movf	(??_FindVictim+0)+0,w
  2999  0C37  1683               	bsf	status, 5	;RP0=1, select bank1
  3000  0C38  1303               	bcf	status, 6	;RP1=0, select bank1
  3001  0C39  07CB               	addwf	(_RobotPos)^080h,f
  3002                           	line	351
  3003                           	
  3004  0C3A                     l12279:	
  3005                           ;Main.c: 351: ROBOTerror = 0;
  3006  0C3A  01C9               	clrf	(_ROBOTerror)^080h
  3007                           	line	353
  3008                           	
  3009  0C3B                     l12281:	
  3010                           ;Main.c: 353: _delay((unsigned long)((1000)*(20000000/4000.0)));
  3011                           	opt asmopt_off
  3012  0C3B  301A               movlw  26
  3013  0C3C  1283               	bcf	status, 5	;RP0=0, select bank0
  3014  0C3D  1303               	bcf	status, 6	;RP1=0, select bank0
  3015  0C3E  00ED               movwf	((??_FindVictim+0)+0+2),f
  3016  0C3F  305E               movlw	94
  3017  0C40  00EC               movwf	((??_FindVictim+0)+0+1),f
  3018  0C41  3086               	movlw	134
  3019  0C42  00EB               movwf	((??_FindVictim+0)+0),f
  3020  0C43                     u5737:
  3021  0C43  0BEB               	decfsz	((??_FindVictim+0)+0),f
  3022  0C44  2C43               	goto	u5737
  3023  0C45  0BEC               	decfsz	((??_FindVictim+0)+0+1),f
  3024  0C46  2C43               	goto	u5737
  3025  0C47  0BED               	decfsz	((??_FindVictim+0)+0+2),f
  3026  0C48  2C43               	goto	u5737
  3027  0C49  0064               	clrwdt
  3028                           opt asmopt_on
  3029                           
  3030                           	line	354
  3031                           	
  3032  0C4A                     l12283:	
  3033                           ;Main.c: 354: robotMoveSpeed(-200,-200);
  3034  0C4A  3038               	movlw	low(-200)
  3035  0C4B  1283               	bcf	status, 5	;RP0=0, select bank0
  3036  0C4C  1303               	bcf	status, 6	;RP1=0, select bank0
  3037  0C4D  00D7               	movwf	(?_robotMoveSpeed)
  3038  0C4E  30FF               	movlw	high(-200)
  3039  0C4F  00D8               	movwf	((?_robotMoveSpeed))+1
  3040  0C50  3038               	movlw	low(-200)
  3041  0C51  00D9               	movwf	0+(?_robotMoveSpeed)+02h
  3042  0C52  30FF               	movlw	high(-200)
  3043  0C53  00DA               	movwf	(0+(?_robotMoveSpeed)+02h)+1
  3044  0C54  160A  118A  25ED   	fcall	_robotMoveSpeed
              120A  158A         
  3045                           	line	355
  3046                           	
  3047  0C59                     l12285:	
  3048                           ;Main.c: 355: robotTurnSpeed((-angleTurned-10),400);
  3049  0C59  1683               	bsf	status, 5	;RP0=1, select bank1
  3050  0C5A  1303               	bcf	status, 6	;RP1=0, select bank1
  3051  0C5B  0830               	movf	(_angleTurned)^080h,w
  3052  0C5C  3E0A               	addlw	low(0Ah)
  3053  0C5D  1283               	bcf	status, 5	;RP0=0, select bank0
  3054  0C5E  1303               	bcf	status, 6	;RP1=0, select bank0
  3055  0C5F  00EB               	movwf	(??_FindVictim+0)+0
  3056  0C60  1683               	bsf	status, 5	;RP0=1, select bank1
  3057  0C61  1303               	bcf	status, 6	;RP1=0, select bank1
  3058  0C62  0831               	movf	(_angleTurned+1)^080h,w
  3059  0C63  1803               	skipnc
  3060  0C64  3E01               	addlw	1
  3061  0C65  3E00               	addlw	high(0Ah)
  3062  0C66  1283               	bcf	status, 5	;RP0=0, select bank0
  3063  0C67  1303               	bcf	status, 6	;RP1=0, select bank0
  3064  0C68  00EC               	movwf	1+(??_FindVictim+0)+0
  3065  0C69  09EB               	comf	(??_FindVictim+0)+0,f
  3066  0C6A  09EC               	comf	(??_FindVictim+0)+1,f
  3067  0C6B  0AEB               	incf	(??_FindVictim+0)+0,f
  3068  0C6C  1903               	skipnz
  3069  0C6D  0AEC               	incf	(??_FindVictim+0)+1,f
  3070  0C6E  086B               	movf	0+(??_FindVictim+0)+0,w
  3071  0C6F  00D7               	movwf	(?_robotTurnSpeed)
  3072  0C70  086C               	movf	1+(??_FindVictim+0)+0,w
  3073  0C71  00D8               	movwf	(?_robotTurnSpeed+1)
  3074  0C72  3090               	movlw	low(0190h)
  3075  0C73  00D9               	movwf	0+(?_robotTurnSpeed)+02h
  3076  0C74  3001               	movlw	high(0190h)
  3077  0C75  00DA               	movwf	(0+(?_robotTurnSpeed)+02h)+1
  3078  0C76  160A  118A  2245   	fcall	_robotTurnSpeed
              120A  158A         
  3079                           	line	356
  3080                           	
  3081  0C7B                     l12287:	
  3082                           ;Main.c: 356: robotMoveSpeed(250,200);
  3083  0C7B  30FA               	movlw	low(0FAh)
  3084  0C7C  1283               	bcf	status, 5	;RP0=0, select bank0
  3085  0C7D  1303               	bcf	status, 6	;RP1=0, select bank0
  3086  0C7E  00D7               	movwf	(?_robotMoveSpeed)
  3087  0C7F  3000               	movlw	high(0FAh)
  3088  0C80  00D8               	movwf	((?_robotMoveSpeed))+1
  3089  0C81  30C8               	movlw	low(0C8h)
  3090  0C82  00D9               	movwf	0+(?_robotMoveSpeed)+02h
  3091  0C83  3000               	movlw	high(0C8h)
  3092  0C84  00DA               	movwf	(0+(?_robotMoveSpeed)+02h)+1
  3093  0C85  160A  118A  25ED   	fcall	_robotMoveSpeed
              120A  158A         
  3094                           	line	357
  3095                           	
  3096  0C8A                     l12289:	
  3097                           ;Main.c: 357: readAvgDistance();
  3098  0C8A  160A  118A  2145   	fcall	_readAvgDistance
              120A  158A         
  3099                           	line	358
  3100                           	
  3101  0C8F                     l12291:	
  3102                           ;Main.c: 358: robotFollow(200, adcVal - 10);
  3103  0C8F  30C8               	movlw	low(0C8h)
  3104  0C90  1283               	bcf	status, 5	;RP0=0, select bank0
  3105  0C91  1303               	bcf	status, 6	;RP1=0, select bank0
  3106  0C92  00E0               	movwf	(?_robotFollow)
  3107  0C93  3000               	movlw	high(0C8h)
  3108  0C94  00E1               	movwf	((?_robotFollow))+1
  3109  0C95  1683               	bsf	status, 5	;RP0=1, select bank1
  3110  0C96  1303               	bcf	status, 6	;RP1=0, select bank1
  3111  0C97  082E               	movf	(_adcVal)^080h,w	;volatile
  3112  0C98  3EF6               	addlw	low(-10)
  3113  0C99  1283               	bcf	status, 5	;RP0=0, select bank0
  3114  0C9A  1303               	bcf	status, 6	;RP1=0, select bank0
  3115  0C9B  00E2               	movwf	0+(?_robotFollow)+02h
  3116  0C9C  1683               	bsf	status, 5	;RP0=1, select bank1
  3117  0C9D  1303               	bcf	status, 6	;RP1=0, select bank1
  3118  0C9E  082F               	movf	(_adcVal+1)^080h,w	;volatile
  3119  0C9F  1803               	skipnc
  3120  0CA0  3E01               	addlw	1
  3121  0CA1  3EFF               	addlw	high(-10)
  3122  0CA2  1283               	bcf	status, 5	;RP0=0, select bank0
  3123  0CA3  1303               	bcf	status, 6	;RP1=0, select bank0
  3124  0CA4  00E3               	movwf	1+0+(?_robotFollow)+02h
  3125  0CA5  120A  118A  2489   	fcall	_robotFollow
              120A  158A         
  3126                           	line	359
  3127                           ;Main.c: 359: break;
  3128  0CAA  2D71               	goto	l12325
  3129                           	line	360
  3130                           ;Main.c: 360: case 4:
  3131                           	
  3132  0CAB                     l2352:	
  3133                           	line	361
  3134                           	
  3135  0CAB                     l12293:	
  3136                           ;Main.c: 361: ser_putch(141);
  3137  0CAB  308D               	movlw	(08Dh)
  3138  0CAC  160A  158A  23FB   	fcall	_ser_putch
              120A  158A         
  3139                           	line	362
  3140                           ;Main.c: 362: ser_putch(1);
  3141  0CB1  3001               	movlw	(01h)
  3142  0CB2  160A  158A  23FB   	fcall	_ser_putch
              120A  158A         
  3143                           	line	363
  3144                           	
  3145  0CB7                     l12295:	
  3146                           ;Main.c: 363: RobotPos++;
  3147  0CB7  3001               	movlw	(01h)
  3148  0CB8  1283               	bcf	status, 5	;RP0=0, select bank0
  3149  0CB9  1303               	bcf	status, 6	;RP1=0, select bank0
  3150  0CBA  00EB               	movwf	(??_FindVictim+0)+0
  3151  0CBB  086B               	movf	(??_FindVictim+0)+0,w
  3152  0CBC  1683               	bsf	status, 5	;RP0=1, select bank1
  3153  0CBD  1303               	bcf	status, 6	;RP1=0, select bank1
  3154  0CBE  07CB               	addwf	(_RobotPos)^080h,f
  3155                           	line	364
  3156                           	
  3157  0CBF                     l12297:	
  3158                           ;Main.c: 364: FoundVictim = 1;
  3159  0CBF  01C7               	clrf	(_FoundVictim)^080h
  3160  0CC0  1403               	bsf	status,0
  3161  0CC1  0DC7               	rlf	(_FoundVictim)^080h,f
  3162                           	line	365
  3163                           	
  3164  0CC2                     l12299:	
  3165                           ;Main.c: 365: ROBOTerror = 9;
  3166  0CC2  3009               	movlw	(09h)
  3167  0CC3  1283               	bcf	status, 5	;RP0=0, select bank0
  3168  0CC4  1303               	bcf	status, 6	;RP1=0, select bank0
  3169  0CC5  00EB               	movwf	(??_FindVictim+0)+0
  3170  0CC6  086B               	movf	(??_FindVictim+0)+0,w
  3171  0CC7  1683               	bsf	status, 5	;RP0=1, select bank1
  3172  0CC8  1303               	bcf	status, 6	;RP1=0, select bank1
  3173  0CC9  00C9               	movwf	(_ROBOTerror)^080h
  3174                           	line	366
  3175                           ;Main.c: 366: break;
  3176  0CCA  2D71               	goto	l12325
  3177                           	line	367
  3178                           ;Main.c: 367: case 9:
  3179                           	
  3180  0CCB                     l2353:	
  3181                           	line	368
  3182                           	
  3183  0CCB                     l12301:	
  3184                           ;Main.c: 368: ROBOTerror = 9;
  3185  0CCB  3009               	movlw	(09h)
  3186  0CCC  1283               	bcf	status, 5	;RP0=0, select bank0
  3187  0CCD  1303               	bcf	status, 6	;RP1=0, select bank0
  3188  0CCE  00EB               	movwf	(??_FindVictim+0)+0
  3189  0CCF  086B               	movf	(??_FindVictim+0)+0,w
  3190  0CD0  1683               	bsf	status, 5	;RP0=1, select bank1
  3191  0CD1  1303               	bcf	status, 6	;RP1=0, select bank1
  3192  0CD2  00C9               	movwf	(_ROBOTerror)^080h
  3193                           	line	369
  3194                           ;Main.c: 369: break;
  3195  0CD3  2D71               	goto	l12325
  3196                           	line	370
  3197                           ;Main.c: 370: case 10:
  3198                           	
  3199  0CD4                     l2354:	
  3200                           	line	371
  3201                           	
  3202  0CD4                     l12303:	
  3203                           ;Main.c: 371: RobotPos++;
  3204  0CD4  3001               	movlw	(01h)
  3205  0CD5  1283               	bcf	status, 5	;RP0=0, select bank0
  3206  0CD6  1303               	bcf	status, 6	;RP1=0, select bank0
  3207  0CD7  00EB               	movwf	(??_FindVictim+0)+0
  3208  0CD8  086B               	movf	(??_FindVictim+0)+0,w
  3209  0CD9  1683               	bsf	status, 5	;RP0=1, select bank1
  3210  0CDA  1303               	bcf	status, 6	;RP1=0, select bank1
  3211  0CDB  07CB               	addwf	(_RobotPos)^080h,f
  3212                           	line	372
  3213                           	
  3214  0CDC                     l12305:	
  3215                           ;Main.c: 372: robot_turnInPlace();
  3216  0CDC  160A  118A  2520   	fcall	_robot_turnInPlace
              120A  158A         
  3217                           	line	373
  3218                           	
  3219  0CE1                     l12307:	
  3220                           ;Main.c: 373: readAvgDistance();
  3221  0CE1  160A  118A  2145   	fcall	_readAvgDistance
              120A  158A         
  3222                           	line	374
  3223                           	
  3224  0CE6                     l12309:	
  3225                           ;Main.c: 374: robotFollow(200, adcVal - 10);
  3226  0CE6  30C8               	movlw	low(0C8h)
  3227  0CE7  1283               	bcf	status, 5	;RP0=0, select bank0
  3228  0CE8  1303               	bcf	status, 6	;RP1=0, select bank0
  3229  0CE9  00E0               	movwf	(?_robotFollow)
  3230  0CEA  3000               	movlw	high(0C8h)
  3231  0CEB  00E1               	movwf	((?_robotFollow))+1
  3232  0CEC  1683               	bsf	status, 5	;RP0=1, select bank1
  3233  0CED  1303               	bcf	status, 6	;RP1=0, select bank1
  3234  0CEE  082E               	movf	(_adcVal)^080h,w	;volatile
  3235  0CEF  3EF6               	addlw	low(-10)
  3236  0CF0  1283               	bcf	status, 5	;RP0=0, select bank0
  3237  0CF1  1303               	bcf	status, 6	;RP1=0, select bank0
  3238  0CF2  00E2               	movwf	0+(?_robotFollow)+02h
  3239  0CF3  1683               	bsf	status, 5	;RP0=1, select bank1
  3240  0CF4  1303               	bcf	status, 6	;RP1=0, select bank1
  3241  0CF5  082F               	movf	(_adcVal+1)^080h,w	;volatile
  3242  0CF6  1803               	skipnc
  3243  0CF7  3E01               	addlw	1
  3244  0CF8  3EFF               	addlw	high(-10)
  3245  0CF9  1283               	bcf	status, 5	;RP0=0, select bank0
  3246  0CFA  1303               	bcf	status, 6	;RP1=0, select bank0
  3247  0CFB  00E3               	movwf	1+0+(?_robotFollow)+02h
  3248  0CFC  120A  118A  2489   	fcall	_robotFollow
              120A  158A         
  3249                           	line	375
  3250                           ;Main.c: 375: break;
  3251  0D01  2D71               	goto	l12325
  3252                           	line	376
  3253                           ;Main.c: 376: case 11:
  3254                           	
  3255  0D02                     l2355:	
  3256                           	line	377
  3257                           	
  3258  0D02                     l12311:	
  3259                           ;Main.c: 377: RobotPos++;
  3260  0D02  3001               	movlw	(01h)
  3261  0D03  1283               	bcf	status, 5	;RP0=0, select bank0
  3262  0D04  1303               	bcf	status, 6	;RP1=0, select bank0
  3263  0D05  00EB               	movwf	(??_FindVictim+0)+0
  3264  0D06  086B               	movf	(??_FindVictim+0)+0,w
  3265  0D07  1683               	bsf	status, 5	;RP0=1, select bank1
  3266  0D08  1303               	bcf	status, 6	;RP1=0, select bank1
  3267  0D09  07CB               	addwf	(_RobotPos)^080h,f
  3268                           	line	378
  3269                           	
  3270  0D0A                     l12313:	
  3271                           ;Main.c: 378: robot_turnArc(200);
  3272  0D0A  30C8               	movlw	low(0C8h)
  3273  0D0B  1283               	bcf	status, 5	;RP0=0, select bank0
  3274  0D0C  1303               	bcf	status, 6	;RP1=0, select bank0
  3275  0D0D  00D7               	movwf	(?_robot_turnArc)
  3276  0D0E  3000               	movlw	high(0C8h)
  3277  0D0F  00D8               	movwf	((?_robot_turnArc))+1
  3278  0D10  120A  118A  2015   	fcall	_robot_turnArc
              120A  158A         
  3279                           	line	379
  3280                           	
  3281  0D15                     l12315:	
  3282                           ;Main.c: 379: readAvgDistance();
  3283  0D15  160A  118A  2145   	fcall	_readAvgDistance
              120A  158A         
  3284                           	line	380
  3285                           	
  3286  0D1A                     l12317:	
  3287                           ;Main.c: 380: robotFollow(200, adcVal);
  3288  0D1A  30C8               	movlw	low(0C8h)
  3289  0D1B  1283               	bcf	status, 5	;RP0=0, select bank0
  3290  0D1C  1303               	bcf	status, 6	;RP1=0, select bank0
  3291  0D1D  00E0               	movwf	(?_robotFollow)
  3292  0D1E  3000               	movlw	high(0C8h)
  3293  0D1F  00E1               	movwf	((?_robotFollow))+1
  3294  0D20  1683               	bsf	status, 5	;RP0=1, select bank1
  3295  0D21  1303               	bcf	status, 6	;RP1=0, select bank1
  3296  0D22  082F               	movf	(_adcVal+1)^080h,w	;volatile
  3297  0D23  1283               	bcf	status, 5	;RP0=0, select bank0
  3298  0D24  1303               	bcf	status, 6	;RP1=0, select bank0
  3299  0D25  01E3               	clrf	1+(?_robotFollow)+02h
  3300  0D26  07E3               	addwf	1+(?_robotFollow)+02h
  3301  0D27  1683               	bsf	status, 5	;RP0=1, select bank1
  3302  0D28  1303               	bcf	status, 6	;RP1=0, select bank1
  3303  0D29  082E               	movf	(_adcVal)^080h,w	;volatile
  3304  0D2A  1283               	bcf	status, 5	;RP0=0, select bank0
  3305  0D2B  1303               	bcf	status, 6	;RP1=0, select bank0
  3306  0D2C  01E2               	clrf	0+(?_robotFollow)+02h
  3307  0D2D  07E2               	addwf	0+(?_robotFollow)+02h
  3308                           
  3309  0D2E  120A  118A  2489   	fcall	_robotFollow
              120A  158A         
  3310                           	line	382
  3311                           ;Main.c: 382: break;
  3312  0D33  2D71               	goto	l12325
  3313                           	line	383
  3314                           ;Main.c: 383: default:
  3315                           	
  3316  0D34                     l2356:	
  3317                           	line	384
  3318                           	
  3319  0D34                     l12319:	
  3320                           ;Main.c: 384: readAvgDistance();
  3321  0D34  160A  118A  2145   	fcall	_readAvgDistance
              120A  158A         
  3322                           	line	385
  3323                           ;Main.c: 385: robotFollow(200, adcVal);
  3324  0D39  30C8               	movlw	low(0C8h)
  3325  0D3A  1283               	bcf	status, 5	;RP0=0, select bank0
  3326  0D3B  1303               	bcf	status, 6	;RP1=0, select bank0
  3327  0D3C  00E0               	movwf	(?_robotFollow)
  3328  0D3D  3000               	movlw	high(0C8h)
  3329  0D3E  00E1               	movwf	((?_robotFollow))+1
  3330  0D3F  1683               	bsf	status, 5	;RP0=1, select bank1
  3331  0D40  1303               	bcf	status, 6	;RP1=0, select bank1
  3332  0D41  082F               	movf	(_adcVal+1)^080h,w	;volatile
  3333  0D42  1283               	bcf	status, 5	;RP0=0, select bank0
  3334  0D43  1303               	bcf	status, 6	;RP1=0, select bank0
  3335  0D44  01E3               	clrf	1+(?_robotFollow)+02h
  3336  0D45  07E3               	addwf	1+(?_robotFollow)+02h
  3337  0D46  1683               	bsf	status, 5	;RP0=1, select bank1
  3338  0D47  1303               	bcf	status, 6	;RP1=0, select bank1
  3339  0D48  082E               	movf	(_adcVal)^080h,w	;volatile
  3340  0D49  1283               	bcf	status, 5	;RP0=0, select bank0
  3341  0D4A  1303               	bcf	status, 6	;RP1=0, select bank0
  3342  0D4B  01E2               	clrf	0+(?_robotFollow)+02h
  3343  0D4C  07E2               	addwf	0+(?_robotFollow)+02h
  3344                           
  3345  0D4D  120A  118A  2489   	fcall	_robotFollow
              120A  158A         
  3346                           	line	386
  3347                           ;Main.c: 386: break;
  3348  0D52  2D71               	goto	l12325
  3349                           	line	388
  3350                           	
  3351  0D53                     l12321:	
  3352                           ;Main.c: 388: }
  3353  0D53  2D71               	goto	l12325
  3354                           	line	324
  3355                           	
  3356  0D54                     l2344:	
  3357                           	
  3358  0D54                     l12323:	
  3359  0D54  1683               	bsf	status, 5	;RP0=1, select bank1
  3360  0D55  1303               	bcf	status, 6	;RP1=0, select bank1
  3361  0D56  0849               	movf	(_ROBOTerror)^080h,w
  3362                           	; Switch size 1, requested type "space"
  3363                           ; Number of cases is 8, Range of values is 0 to 11
  3364                           ; switch strategies available:
  3365                           ; Name         Instructions Cycles
  3366                           ; simple_byte           25    13 (average)
  3367                           ; direct_byte           44     8 (fixed)
  3368                           ; jumptable            260     6 (fixed)
  3369                           ; rangetable            16     6 (fixed)
  3370                           ; spacedrange           30     9 (fixed)
  3371                           ; locatedrange          12     3 (fixed)
  3372                           ;	Chosen strategy is simple_byte
  3373                           
  3374                           	opt asmopt_off
  3375  0D57  3A00               	xorlw	0^0	; case 0
  3376  0D58  1903               	skipnz
  3377  0D59  2B9A               	goto	l12255
  3378  0D5A  3A01               	xorlw	1^0	; case 1
  3379  0D5B  1903               	skipnz
  3380  0D5C  2BB9               	goto	l12257
  3381  0D5D  3A03               	xorlw	2^1	; case 2
  3382  0D5E  1903               	skipnz
  3383  0D5F  2C13               	goto	l12271
  3384  0D60  3A01               	xorlw	3^2	; case 3
  3385  0D61  1903               	skipnz
  3386  0D62  2C32               	goto	l12277
  3387  0D63  3A07               	xorlw	4^3	; case 4
  3388  0D64  1903               	skipnz
  3389  0D65  2CAB               	goto	l12293
  3390  0D66  3A0D               	xorlw	9^4	; case 9
  3391  0D67  1903               	skipnz
  3392  0D68  2CCB               	goto	l12301
  3393  0D69  3A03               	xorlw	10^9	; case 10
  3394  0D6A  1903               	skipnz
  3395  0D6B  2CD4               	goto	l12303
  3396  0D6C  3A01               	xorlw	11^10	; case 11
  3397  0D6D  1903               	skipnz
  3398  0D6E  2D02               	goto	l12311
  3399  0D6F  2D34               	goto	l12319
  3400                           	opt asmopt_on
  3401                           
  3402                           	line	388
  3403                           	
  3404  0D70                     l2346:	
  3405  0D70  2D71               	goto	l12325
  3406                           	line	389
  3407                           	
  3408  0D71                     l2342:	
  3409                           	line	321
  3410                           	
  3411  0D71                     l12325:	
  3412  0D71  1683               	bsf	status, 5	;RP0=1, select bank1
  3413  0D72  1303               	bcf	status, 6	;RP1=0, select bank1
  3414  0D73  0849               	movf	(_ROBOTerror)^080h,w
  3415  0D74  3A09               	xorlw	09h
  3416  0D75  1D03               	skipz
  3417  0D76  2D78               	goto	u5681
  3418  0D77  2D79               	goto	u5680
  3419  0D78                     u5681:
  3420  0D78  2D54               	goto	l12323
  3421  0D79                     u5680:
  3422  0D79  2D7A               	goto	l2358
  3423                           	
  3424  0D7A                     l2357:	
  3425                           	line	390
  3426                           	
  3427  0D7A                     l2358:	
  3428  0D7A  0008               	return
  3429                           	opt stack 0
  3430                           GLOBAL	__end_of_FindVictim
  3431  0D7B                     	__end_of_FindVictim:
  3432 ;; =============== function _FindVictim ends ============
  3433                           
  3434                           	signat	_FindVictim,88
  3435                           	global	_GoHome
  3436                           psect	text1094,local,class=CODE,delta=2
  3437                           global __ptext1094
  3438  0864                     __ptext1094:
  3439                           
  3440 ;; *************** function _GoHome *****************
  3441 ;; Defined at:
  3442 ;;		line 247 in file "E:\Aldnoah.Zero\Assignment3\Main.c"
  3443 ;; Parameters:    Size  Location     Type
  3444 ;;		None
  3445 ;; Auto vars:     Size  Location     Type
  3446 ;;		None
  3447 ;; Return value:  Size  Location     Type
  3448 ;;		None               void
  3449 ;; Registers used:
  3450 ;;		wreg, fsr0l, fsr0h, status,2, status,0, btemp+1, pclath, cstack
  3451 ;; Tracked objects:
  3452 ;;		On entry : 0/0
  3453 ;;		On exit  : 0/0
  3454 ;;		Unchanged: 0/0
  3455 ;; Data sizes:     COMMON   BANK0   BANK1   BANK3   BANK2
  3456 ;;      Params:         0       0       0       0       0
  3457 ;;      Locals:         0       0       0       0       0
  3458 ;;      Temps:          0       1       0       0       0
  3459 ;;      Totals:         0       1       0       0       0
  3460 ;;Total ram usage:        1 bytes
  3461 ;; Hardware stack levels used:    1
  3462 ;; Hardware stack levels required when called:    7
  3463 ;; This function calls:
  3464 ;;		_robotTurnSpeed
  3465 ;;		_robot_turnArc
  3466 ;;		_readAvgDistance
  3467 ;;		_robotFollow
  3468 ;;		_ser_putch
  3469 ;;		_robot_turnInPlace
  3470 ;;		_robotMoveSpeed
  3471 ;; This function is called by:
  3472 ;;		_main
  3473 ;; This function uses a non-reentrant model
  3474 ;;
  3475                           psect	text1094
  3476                           	file	"E:\Aldnoah.Zero\Assignment3\Main.c"
  3477                           	line	247
  3478                           	global	__size_of_GoHome
  3479  017E                     	__size_of_GoHome	equ	__end_of_GoHome-_GoHome
  3480                           	
  3481  0864                     _GoHome:	
  3482                           	opt	stack 0
  3483                           ; Regs used in _GoHome: [wreg-fsr0h+status,2+status,0+btemp+1+pclath+cstack]
  3484                           	line	248
  3485                           	
  3486  0864                     l12191:	
  3487                           ;Main.c: 248: switch (RobotPos)
  3488  0864  2891               	goto	l12199
  3489                           	line	250
  3490                           ;Main.c: 249: {
  3491                           ;Main.c: 250: case 7:
  3492                           	
  3493  0865                     l2316:	
  3494                           	line	251
  3495                           	
  3496  0865                     l12193:	
  3497                           ;Main.c: 251: robotTurnSpeed(175,400);
  3498  0865  30AF               	movlw	low(0AFh)
  3499  0866  1283               	bcf	status, 5	;RP0=0, select bank0
  3500  0867  1303               	bcf	status, 6	;RP1=0, select bank0
  3501  0868  00D7               	movwf	(?_robotTurnSpeed)
  3502  0869  3000               	movlw	high(0AFh)
  3503  086A  00D8               	movwf	((?_robotTurnSpeed))+1
  3504  086B  3090               	movlw	low(0190h)
  3505  086C  00D9               	movwf	0+(?_robotTurnSpeed)+02h
  3506  086D  3001               	movlw	high(0190h)
  3507  086E  00DA               	movwf	(0+(?_robotTurnSpeed)+02h)+1
  3508  086F  160A  118A  2245   	fcall	_robotTurnSpeed
              120A  158A         
  3509                           	line	252
  3510                           ;Main.c: 252: break;
  3511  0874  29D8               	goto	l12251
  3512                           	line	253
  3513                           ;Main.c: 253: case 15:
  3514                           	
  3515  0875                     l2318:	
  3516                           	line	254
  3517                           	
  3518  0875                     l12195:	
  3519                           ;Main.c: 254: robotTurnSpeed(175,400);
  3520  0875  30AF               	movlw	low(0AFh)
  3521  0876  1283               	bcf	status, 5	;RP0=0, select bank0
  3522  0877  1303               	bcf	status, 6	;RP1=0, select bank0
  3523  0878  00D7               	movwf	(?_robotTurnSpeed)
  3524  0879  3000               	movlw	high(0AFh)
  3525  087A  00D8               	movwf	((?_robotTurnSpeed))+1
  3526  087B  3090               	movlw	low(0190h)
  3527  087C  00D9               	movwf	0+(?_robotTurnSpeed)+02h
  3528  087D  3001               	movlw	high(0190h)
  3529  087E  00DA               	movwf	(0+(?_robotTurnSpeed)+02h)+1
  3530  087F  160A  118A  2245   	fcall	_robotTurnSpeed
              120A  158A         
  3531                           	line	255
  3532                           ;Main.c: 255: robot_turnArc(200);
  3533  0884  30C8               	movlw	low(0C8h)
  3534  0885  1283               	bcf	status, 5	;RP0=0, select bank0
  3535  0886  1303               	bcf	status, 6	;RP1=0, select bank0
  3536  0887  00D7               	movwf	(?_robot_turnArc)
  3537  0888  3000               	movlw	high(0C8h)
  3538  0889  00D8               	movwf	((?_robot_turnArc))+1
  3539  088A  120A  118A  2015   	fcall	_robot_turnArc
              120A  158A         
  3540                           	line	256
  3541                           ;Main.c: 256: break;
  3542  088F  29D8               	goto	l12251
  3543                           	line	257
  3544                           	
  3545  0890                     l12197:	
  3546                           ;Main.c: 257: }
  3547  0890  29D8               	goto	l12251
  3548                           	line	248
  3549                           	
  3550  0891                     l2315:	
  3551                           	
  3552  0891                     l12199:	
  3553  0891  1683               	bsf	status, 5	;RP0=1, select bank1
  3554  0892  1303               	bcf	status, 6	;RP1=0, select bank1
  3555  0893  084B               	movf	(_RobotPos)^080h,w
  3556                           	; Switch size 1, requested type "space"
  3557                           ; Number of cases is 2, Range of values is 7 to 15
  3558                           ; switch strategies available:
  3559                           ; Name         Instructions Cycles
  3560                           ; simple_byte            7     4 (average)
  3561                           ; direct_byte           38    11 (fixed)
  3562                           ; jumptable            263     9 (fixed)
  3563                           ;	Chosen strategy is simple_byte
  3564                           
  3565                           	opt asmopt_off
  3566  0894  3A07               	xorlw	7^0	; case 7
  3567  0895  1903               	skipnz
  3568  0896  2865               	goto	l12193
  3569  0897  3A08               	xorlw	15^7	; case 15
  3570  0898  1903               	skipnz
  3571  0899  2875               	goto	l12195
  3572  089A  29D8               	goto	l12251
  3573                           	opt asmopt_on
  3574                           
  3575                           	line	257
  3576                           	
  3577  089B                     l2317:	
  3578                           	line	258
  3579                           ;Main.c: 258: while (ROBOTerror != 9)
  3580  089B  29D8               	goto	l12251
  3581                           	
  3582  089C                     l2320:	
  3583                           	line	260
  3584                           ;Main.c: 259: {
  3585                           ;Main.c: 260: switch (ROBOTerror)
  3586  089C  29BB               	goto	l12249
  3587                           	line	262
  3588                           ;Main.c: 261: {
  3589                           ;Main.c: 262: case 0:
  3590                           	
  3591  089D                     l2322:	
  3592                           	line	263
  3593                           	
  3594  089D                     l12201:	
  3595                           ;Main.c: 263: readAvgDistance();
  3596  089D  160A  118A  2145   	fcall	_readAvgDistance
              120A  158A         
  3597                           	line	264
  3598                           ;Main.c: 264: robotFollow(200, adcVal);
  3599  08A2  30C8               	movlw	low(0C8h)
  3600  08A3  1283               	bcf	status, 5	;RP0=0, select bank0
  3601  08A4  1303               	bcf	status, 6	;RP1=0, select bank0
  3602  08A5  00E0               	movwf	(?_robotFollow)
  3603  08A6  3000               	movlw	high(0C8h)
  3604  08A7  00E1               	movwf	((?_robotFollow))+1
  3605  08A8  1683               	bsf	status, 5	;RP0=1, select bank1
  3606  08A9  1303               	bcf	status, 6	;RP1=0, select bank1
  3607  08AA  082F               	movf	(_adcVal+1)^080h,w	;volatile
  3608  08AB  1283               	bcf	status, 5	;RP0=0, select bank0
  3609  08AC  1303               	bcf	status, 6	;RP1=0, select bank0
  3610  08AD  01E3               	clrf	1+(?_robotFollow)+02h
  3611  08AE  07E3               	addwf	1+(?_robotFollow)+02h
  3612  08AF  1683               	bsf	status, 5	;RP0=1, select bank1
  3613  08B0  1303               	bcf	status, 6	;RP1=0, select bank1
  3614  08B1  082E               	movf	(_adcVal)^080h,w	;volatile
  3615  08B2  1283               	bcf	status, 5	;RP0=0, select bank0
  3616  08B3  1303               	bcf	status, 6	;RP1=0, select bank0
  3617  08B4  01E2               	clrf	0+(?_robotFollow)+02h
  3618  08B5  07E2               	addwf	0+(?_robotFollow)+02h
  3619                           
  3620  08B6  120A  118A  2489   	fcall	_robotFollow
              120A  158A         
  3621                           	line	265
  3622                           ;Main.c: 265: break;
  3623  08BB  29D8               	goto	l12251
  3624                           	line	266
  3625                           ;Main.c: 266: case 1:
  3626                           	
  3627  08BC                     l2324:	
  3628                           	line	268
  3629                           	
  3630  08BC                     l12203:	
  3631                           ;Main.c: 268: ROBOTerror = 9;
  3632  08BC  3009               	movlw	(09h)
  3633  08BD  1283               	bcf	status, 5	;RP0=0, select bank0
  3634  08BE  1303               	bcf	status, 6	;RP1=0, select bank0
  3635  08BF  00EB               	movwf	(??_GoHome+0)+0
  3636  08C0  086B               	movf	(??_GoHome+0)+0,w
  3637  08C1  1683               	bsf	status, 5	;RP0=1, select bank1
  3638  08C2  1303               	bcf	status, 6	;RP1=0, select bank1
  3639  08C3  00C9               	movwf	(_ROBOTerror)^080h
  3640                           	line	269
  3641                           ;Main.c: 269: break;
  3642  08C4  29D8               	goto	l12251
  3643                           	line	270
  3644                           ;Main.c: 270: case 2:
  3645                           	
  3646  08C5                     l2325:	
  3647                           	line	271
  3648                           	
  3649  08C5                     l12205:	
  3650                           ;Main.c: 271: ser_putch(141);
  3651  08C5  308D               	movlw	(08Dh)
  3652  08C6  160A  158A  23FB   	fcall	_ser_putch
              120A  158A         
  3653                           	line	272
  3654                           ;Main.c: 272: ser_putch(0);
  3655  08CB  3000               	movlw	(0)
  3656  08CC  160A  158A  23FB   	fcall	_ser_putch
              120A  158A         
  3657                           	line	273
  3658                           	
  3659  08D1                     l12207:	
  3660                           ;Main.c: 273: ROBOTerror = 9;
  3661  08D1  3009               	movlw	(09h)
  3662  08D2  1283               	bcf	status, 5	;RP0=0, select bank0
  3663  08D3  1303               	bcf	status, 6	;RP1=0, select bank0
  3664  08D4  00EB               	movwf	(??_GoHome+0)+0
  3665  08D5  086B               	movf	(??_GoHome+0)+0,w
  3666  08D6  1683               	bsf	status, 5	;RP0=1, select bank1
  3667  08D7  1303               	bcf	status, 6	;RP1=0, select bank1
  3668  08D8  00C9               	movwf	(_ROBOTerror)^080h
  3669                           	line	274
  3670                           ;Main.c: 274: break;
  3671  08D9  29D8               	goto	l12251
  3672                           	line	275
  3673                           ;Main.c: 275: case 3:
  3674                           	
  3675  08DA                     l2326:	
  3676                           	line	276
  3677                           	
  3678  08DA                     l12209:	
  3679                           ;Main.c: 276: ROBOTerror = 9;
  3680  08DA  3009               	movlw	(09h)
  3681  08DB  1283               	bcf	status, 5	;RP0=0, select bank0
  3682  08DC  1303               	bcf	status, 6	;RP1=0, select bank0
  3683  08DD  00EB               	movwf	(??_GoHome+0)+0
  3684  08DE  086B               	movf	(??_GoHome+0)+0,w
  3685  08DF  1683               	bsf	status, 5	;RP0=1, select bank1
  3686  08E0  1303               	bcf	status, 6	;RP1=0, select bank1
  3687  08E1  00C9               	movwf	(_ROBOTerror)^080h
  3688                           	line	277
  3689                           ;Main.c: 277: break;
  3690  08E2  29D8               	goto	l12251
  3691                           	line	278
  3692                           ;Main.c: 278: case 4:
  3693                           	
  3694  08E3                     l2327:	
  3695                           	line	279
  3696                           ;Main.c: 279: ROBOTerror = 0;
  3697  08E3  01C9               	clrf	(_ROBOTerror)^080h
  3698                           	line	280
  3699                           ;Main.c: 280: break;
  3700  08E4  29D8               	goto	l12251
  3701                           	line	281
  3702                           ;Main.c: 281: case 9:
  3703                           	
  3704  08E5                     l2328:	
  3705                           	line	282
  3706                           ;Main.c: 282: break;
  3707  08E5  29D8               	goto	l12251
  3708                           	line	283
  3709                           ;Main.c: 283: case 10:
  3710                           	
  3711  08E6                     l2329:	
  3712                           	line	284
  3713                           	
  3714  08E6                     l12211:	
  3715                           ;Main.c: 284: RobotPos++;
  3716  08E6  3001               	movlw	(01h)
  3717  08E7  1283               	bcf	status, 5	;RP0=0, select bank0
  3718  08E8  1303               	bcf	status, 6	;RP1=0, select bank0
  3719  08E9  00EB               	movwf	(??_GoHome+0)+0
  3720  08EA  086B               	movf	(??_GoHome+0)+0,w
  3721  08EB  1683               	bsf	status, 5	;RP0=1, select bank1
  3722  08EC  1303               	bcf	status, 6	;RP1=0, select bank1
  3723  08ED  07CB               	addwf	(_RobotPos)^080h,f
  3724                           	line	285
  3725                           	
  3726  08EE                     l12213:	
  3727                           ;Main.c: 285: if (followDir == 1)
  3728  08EE  0851               	movf	(_followDir)^080h,w
  3729  08EF  3A01               	xorlw	01h
  3730  08F0  1D03               	skipz
  3731  08F1  28F3               	goto	u5601
  3732  08F2  28F4               	goto	u5600
  3733  08F3                     u5601:
  3734  08F3  2900               	goto	l12217
  3735  08F4                     u5600:
  3736                           	line	286
  3737                           	
  3738  08F4                     l12215:	
  3739                           ;Main.c: 286: robot_turnArc(200);
  3740  08F4  30C8               	movlw	low(0C8h)
  3741  08F5  1283               	bcf	status, 5	;RP0=0, select bank0
  3742  08F6  1303               	bcf	status, 6	;RP1=0, select bank0
  3743  08F7  00D7               	movwf	(?_robot_turnArc)
  3744  08F8  3000               	movlw	high(0C8h)
  3745  08F9  00D8               	movwf	((?_robot_turnArc))+1
  3746  08FA  120A  118A  2015   	fcall	_robot_turnArc
              120A  158A         
  3747  08FF  2900               	goto	l12217
  3748                           	
  3749  0900                     l2330:	
  3750                           	line	287
  3751                           	
  3752  0900                     l12217:	
  3753                           ;Main.c: 287: if (followDir == 0)
  3754  0900  1683               	bsf	status, 5	;RP0=1, select bank1
  3755  0901  1303               	bcf	status, 6	;RP1=0, select bank1
  3756  0902  08D1               	movf	(_followDir)^080h,f
  3757  0903  1D03               	skipz
  3758  0904  2906               	goto	u5611
  3759  0905  2907               	goto	u5610
  3760  0906                     u5611:
  3761  0906  290D               	goto	l12221
  3762  0907                     u5610:
  3763                           	line	288
  3764                           	
  3765  0907                     l12219:	
  3766                           ;Main.c: 288: robot_turnInPlace();
  3767  0907  160A  118A  2520   	fcall	_robot_turnInPlace
              120A  158A         
  3768  090C  290D               	goto	l12221
  3769                           	
  3770  090D                     l2331:	
  3771                           	line	289
  3772                           	
  3773  090D                     l12221:	
  3774                           ;Main.c: 289: if (RobotPos == 17)
  3775  090D  1683               	bsf	status, 5	;RP0=1, select bank1
  3776  090E  1303               	bcf	status, 6	;RP1=0, select bank1
  3777  090F  084B               	movf	(_RobotPos)^080h,w
  3778  0910  3A11               	xorlw	011h
  3779  0911  1D03               	skipz
  3780  0912  2914               	goto	u5621
  3781  0913  2915               	goto	u5620
  3782  0914                     u5621:
  3783  0914  291C               	goto	l12225
  3784  0915                     u5620:
  3785                           	line	291
  3786                           	
  3787  0915                     l12223:	
  3788                           ;Main.c: 290: {
  3789                           ;Main.c: 291: trackingDist = TotalDistTravelled;
  3790  0915  082D               	movf	(_TotalDistTravelled+1)^080h,w
  3791  0916  01BF               	clrf	(_trackingDist+1)^080h
  3792  0917  07BF               	addwf	(_trackingDist+1)^080h
  3793  0918  082C               	movf	(_TotalDistTravelled)^080h,w
  3794  0919  01BE               	clrf	(_trackingDist)^080h
  3795  091A  07BE               	addwf	(_trackingDist)^080h
  3796                           
  3797  091B  291C               	goto	l12225
  3798                           	line	292
  3799                           	
  3800  091C                     l2332:	
  3801                           	line	293
  3802                           	
  3803  091C                     l12225:	
  3804                           ;Main.c: 292: }
  3805                           ;Main.c: 293: readAvgDistance();
  3806  091C  160A  118A  2145   	fcall	_readAvgDistance
              120A  158A         
  3807                           	line	294
  3808                           	
  3809  0921                     l12227:	
  3810                           ;Main.c: 294: robotFollow(200, adcVal - 10);
  3811  0921  30C8               	movlw	low(0C8h)
  3812  0922  1283               	bcf	status, 5	;RP0=0, select bank0
  3813  0923  1303               	bcf	status, 6	;RP1=0, select bank0
  3814  0924  00E0               	movwf	(?_robotFollow)
  3815  0925  3000               	movlw	high(0C8h)
  3816  0926  00E1               	movwf	((?_robotFollow))+1
  3817  0927  1683               	bsf	status, 5	;RP0=1, select bank1
  3818  0928  1303               	bcf	status, 6	;RP1=0, select bank1
  3819  0929  082E               	movf	(_adcVal)^080h,w	;volatile
  3820  092A  3EF6               	addlw	low(-10)
  3821  092B  1283               	bcf	status, 5	;RP0=0, select bank0
  3822  092C  1303               	bcf	status, 6	;RP1=0, select bank0
  3823  092D  00E2               	movwf	0+(?_robotFollow)+02h
  3824  092E  1683               	bsf	status, 5	;RP0=1, select bank1
  3825  092F  1303               	bcf	status, 6	;RP1=0, select bank1
  3826  0930  082F               	movf	(_adcVal+1)^080h,w	;volatile
  3827  0931  1803               	skipnc
  3828  0932  3E01               	addlw	1
  3829  0933  3EFF               	addlw	high(-10)
  3830  0934  1283               	bcf	status, 5	;RP0=0, select bank0
  3831  0935  1303               	bcf	status, 6	;RP1=0, select bank0
  3832  0936  00E3               	movwf	1+0+(?_robotFollow)+02h
  3833  0937  120A  118A  2489   	fcall	_robotFollow
              120A  158A         
  3834                           	line	295
  3835                           ;Main.c: 295: break;
  3836  093C  29D8               	goto	l12251
  3837                           	line	296
  3838                           ;Main.c: 296: case 11:
  3839                           	
  3840  093D                     l2333:	
  3841                           	line	297
  3842                           	
  3843  093D                     l12229:	
  3844                           ;Main.c: 297: RobotPos++;
  3845  093D  3001               	movlw	(01h)
  3846  093E  1283               	bcf	status, 5	;RP0=0, select bank0
  3847  093F  1303               	bcf	status, 6	;RP1=0, select bank0
  3848  0940  00EB               	movwf	(??_GoHome+0)+0
  3849  0941  086B               	movf	(??_GoHome+0)+0,w
  3850  0942  1683               	bsf	status, 5	;RP0=1, select bank1
  3851  0943  1303               	bcf	status, 6	;RP1=0, select bank1
  3852  0944  07CB               	addwf	(_RobotPos)^080h,f
  3853                           	line	298
  3854                           	
  3855  0945                     l12231:	
  3856                           ;Main.c: 298: if (RobotPos == 19)
  3857  0945  084B               	movf	(_RobotPos)^080h,w
  3858  0946  3A13               	xorlw	013h
  3859  0947  1D03               	skipz
  3860  0948  294A               	goto	u5631
  3861  0949  294B               	goto	u5630
  3862  094A                     u5631:
  3863  094A  295E               	goto	l12237
  3864  094B                     u5630:
  3865                           	line	300
  3866                           	
  3867  094B                     l12233:	
  3868                           ;Main.c: 299: {
  3869                           ;Main.c: 300: robotMoveSpeed(500, 200);
  3870  094B  30F4               	movlw	low(01F4h)
  3871  094C  1283               	bcf	status, 5	;RP0=0, select bank0
  3872  094D  1303               	bcf	status, 6	;RP1=0, select bank0
  3873  094E  00D7               	movwf	(?_robotMoveSpeed)
  3874  094F  3001               	movlw	high(01F4h)
  3875  0950  00D8               	movwf	((?_robotMoveSpeed))+1
  3876  0951  30C8               	movlw	low(0C8h)
  3877  0952  00D9               	movwf	0+(?_robotMoveSpeed)+02h
  3878  0953  3000               	movlw	high(0C8h)
  3879  0954  00DA               	movwf	(0+(?_robotMoveSpeed)+02h)+1
  3880  0955  160A  118A  25ED   	fcall	_robotMoveSpeed
              120A  158A         
  3881                           	line	301
  3882                           	
  3883  095A                     l12235:	
  3884                           ;Main.c: 301: ROBOTerror = 0;
  3885  095A  1683               	bsf	status, 5	;RP0=1, select bank1
  3886  095B  1303               	bcf	status, 6	;RP1=0, select bank1
  3887  095C  01C9               	clrf	(_ROBOTerror)^080h
  3888                           	line	302
  3889                           ;Main.c: 302: break;
  3890  095D  29D8               	goto	l12251
  3891                           	line	303
  3892                           	
  3893  095E                     l2334:	
  3894                           	line	304
  3895                           	
  3896  095E                     l12237:	
  3897                           ;Main.c: 303: }
  3898                           ;Main.c: 304: if (followDir == 1)
  3899  095E  0851               	movf	(_followDir)^080h,w
  3900  095F  3A01               	xorlw	01h
  3901  0960  1D03               	skipz
  3902  0961  2963               	goto	u5641
  3903  0962  2964               	goto	u5640
  3904  0963                     u5641:
  3905  0963  296A               	goto	l12241
  3906  0964                     u5640:
  3907                           	line	305
  3908                           	
  3909  0964                     l12239:	
  3910                           ;Main.c: 305: robot_turnInPlace();
  3911  0964  160A  118A  2520   	fcall	_robot_turnInPlace
              120A  158A         
  3912  0969  296A               	goto	l12241
  3913                           	
  3914  096A                     l2335:	
  3915                           	line	306
  3916                           	
  3917  096A                     l12241:	
  3918                           ;Main.c: 306: if (followDir == 0)
  3919  096A  1683               	bsf	status, 5	;RP0=1, select bank1
  3920  096B  1303               	bcf	status, 6	;RP1=0, select bank1
  3921  096C  08D1               	movf	(_followDir)^080h,f
  3922  096D  1D03               	skipz
  3923  096E  2970               	goto	u5651
  3924  096F  2971               	goto	u5650
  3925  0970                     u5651:
  3926  0970  297C               	goto	l2336
  3927  0971                     u5650:
  3928                           	line	307
  3929                           	
  3930  0971                     l12243:	
  3931                           ;Main.c: 307: robot_turnArc(200);
  3932  0971  30C8               	movlw	low(0C8h)
  3933  0972  1283               	bcf	status, 5	;RP0=0, select bank0
  3934  0973  1303               	bcf	status, 6	;RP1=0, select bank0
  3935  0974  00D7               	movwf	(?_robot_turnArc)
  3936  0975  3000               	movlw	high(0C8h)
  3937  0976  00D8               	movwf	((?_robot_turnArc))+1
  3938  0977  120A  118A  2015   	fcall	_robot_turnArc
              120A  158A         
  3939                           	
  3940  097C                     l2336:	
  3941                           	line	308
  3942                           ;Main.c: 308: readAvgDistance();
  3943  097C  160A  118A  2145   	fcall	_readAvgDistance
              120A  158A         
  3944                           	line	309
  3945                           ;Main.c: 309: robotFollow(200, adcVal);
  3946  0981  30C8               	movlw	low(0C8h)
  3947  0982  1283               	bcf	status, 5	;RP0=0, select bank0
  3948  0983  1303               	bcf	status, 6	;RP1=0, select bank0
  3949  0984  00E0               	movwf	(?_robotFollow)
  3950  0985  3000               	movlw	high(0C8h)
  3951  0986  00E1               	movwf	((?_robotFollow))+1
  3952  0987  1683               	bsf	status, 5	;RP0=1, select bank1
  3953  0988  1303               	bcf	status, 6	;RP1=0, select bank1
  3954  0989  082F               	movf	(_adcVal+1)^080h,w	;volatile
  3955  098A  1283               	bcf	status, 5	;RP0=0, select bank0
  3956  098B  1303               	bcf	status, 6	;RP1=0, select bank0
  3957  098C  01E3               	clrf	1+(?_robotFollow)+02h
  3958  098D  07E3               	addwf	1+(?_robotFollow)+02h
  3959  098E  1683               	bsf	status, 5	;RP0=1, select bank1
  3960  098F  1303               	bcf	status, 6	;RP1=0, select bank1
  3961  0990  082E               	movf	(_adcVal)^080h,w	;volatile
  3962  0991  1283               	bcf	status, 5	;RP0=0, select bank0
  3963  0992  1303               	bcf	status, 6	;RP1=0, select bank0
  3964  0993  01E2               	clrf	0+(?_robotFollow)+02h
  3965  0994  07E2               	addwf	0+(?_robotFollow)+02h
  3966                           
  3967  0995  120A  118A  2489   	fcall	_robotFollow
              120A  158A         
  3968                           	line	310
  3969                           ;Main.c: 310: break;
  3970  099A  29D8               	goto	l12251
  3971                           	line	311
  3972                           ;Main.c: 311: default:
  3973                           	
  3974  099B                     l2337:	
  3975                           	line	312
  3976                           	
  3977  099B                     l12245:	
  3978                           ;Main.c: 312: readAvgDistance();
  3979  099B  160A  118A  2145   	fcall	_readAvgDistance
              120A  158A         
  3980                           	line	313
  3981                           ;Main.c: 313: robotFollow(200, adcVal);
  3982  09A0  30C8               	movlw	low(0C8h)
  3983  09A1  1283               	bcf	status, 5	;RP0=0, select bank0
  3984  09A2  1303               	bcf	status, 6	;RP1=0, select bank0
  3985  09A3  00E0               	movwf	(?_robotFollow)
  3986  09A4  3000               	movlw	high(0C8h)
  3987  09A5  00E1               	movwf	((?_robotFollow))+1
  3988  09A6  1683               	bsf	status, 5	;RP0=1, select bank1
  3989  09A7  1303               	bcf	status, 6	;RP1=0, select bank1
  3990  09A8  082F               	movf	(_adcVal+1)^080h,w	;volatile
  3991  09A9  1283               	bcf	status, 5	;RP0=0, select bank0
  3992  09AA  1303               	bcf	status, 6	;RP1=0, select bank0
  3993  09AB  01E3               	clrf	1+(?_robotFollow)+02h
  3994  09AC  07E3               	addwf	1+(?_robotFollow)+02h
  3995  09AD  1683               	bsf	status, 5	;RP0=1, select bank1
  3996  09AE  1303               	bcf	status, 6	;RP1=0, select bank1
  3997  09AF  082E               	movf	(_adcVal)^080h,w	;volatile
  3998  09B0  1283               	bcf	status, 5	;RP0=0, select bank0
  3999  09B1  1303               	bcf	status, 6	;RP1=0, select bank0
  4000  09B2  01E2               	clrf	0+(?_robotFollow)+02h
  4001  09B3  07E2               	addwf	0+(?_robotFollow)+02h
  4002                           
  4003  09B4  120A  118A  2489   	fcall	_robotFollow
              120A  158A         
  4004                           	line	314
  4005                           ;Main.c: 314: break;
  4006  09B9  29D8               	goto	l12251
  4007                           	line	315
  4008                           	
  4009  09BA                     l12247:	
  4010                           ;Main.c: 315: }
  4011  09BA  29D8               	goto	l12251
  4012                           	line	260
  4013                           	
  4014  09BB                     l2321:	
  4015                           	
  4016  09BB                     l12249:	
  4017  09BB  1683               	bsf	status, 5	;RP0=1, select bank1
  4018  09BC  1303               	bcf	status, 6	;RP1=0, select bank1
  4019  09BD  0849               	movf	(_ROBOTerror)^080h,w
  4020                           	; Switch size 1, requested type "space"
  4021                           ; Number of cases is 8, Range of values is 0 to 11
  4022                           ; switch strategies available:
  4023                           ; Name         Instructions Cycles
  4024                           ; simple_byte           25    13 (average)
  4025                           ; direct_byte           44     8 (fixed)
  4026                           ; jumptable            260     6 (fixed)
  4027                           ; rangetable            16     6 (fixed)
  4028                           ; spacedrange           30     9 (fixed)
  4029                           ; locatedrange          12     3 (fixed)
  4030                           ;	Chosen strategy is simple_byte
  4031                           
  4032                           	opt asmopt_off
  4033  09BE  3A00               	xorlw	0^0	; case 0
  4034  09BF  1903               	skipnz
  4035  09C0  289D               	goto	l12201
  4036  09C1  3A01               	xorlw	1^0	; case 1
  4037  09C2  1903               	skipnz
  4038  09C3  28BC               	goto	l12203
  4039  09C4  3A03               	xorlw	2^1	; case 2
  4040  09C5  1903               	skipnz
  4041  09C6  28C5               	goto	l12205
  4042  09C7  3A01               	xorlw	3^2	; case 3
  4043  09C8  1903               	skipnz
  4044  09C9  28DA               	goto	l12209
  4045  09CA  3A07               	xorlw	4^3	; case 4
  4046  09CB  1903               	skipnz
  4047  09CC  28E3               	goto	l2327
  4048  09CD  3A0D               	xorlw	9^4	; case 9
  4049  09CE  1903               	skipnz
  4050  09CF  29D8               	goto	l12251
  4051  09D0  3A03               	xorlw	10^9	; case 10
  4052  09D1  1903               	skipnz
  4053  09D2  28E6               	goto	l12211
  4054  09D3  3A01               	xorlw	11^10	; case 11
  4055  09D4  1903               	skipnz
  4056  09D5  293D               	goto	l12229
  4057  09D6  299B               	goto	l12245
  4058                           	opt asmopt_on
  4059                           
  4060                           	line	315
  4061                           	
  4062  09D7                     l2323:	
  4063  09D7  29D8               	goto	l12251
  4064                           	line	316
  4065                           	
  4066  09D8                     l2319:	
  4067                           	line	258
  4068                           	
  4069  09D8                     l12251:	
  4070  09D8  1683               	bsf	status, 5	;RP0=1, select bank1
  4071  09D9  1303               	bcf	status, 6	;RP1=0, select bank1
  4072  09DA  0849               	movf	(_ROBOTerror)^080h,w
  4073  09DB  3A09               	xorlw	09h
  4074  09DC  1D03               	skipz
  4075  09DD  29DF               	goto	u5661
  4076  09DE  29E0               	goto	u5660
  4077  09DF                     u5661:
  4078  09DF  29BB               	goto	l12249
  4079  09E0                     u5660:
  4080  09E0  29E1               	goto	l2339
  4081                           	
  4082  09E1                     l2338:	
  4083                           	line	317
  4084                           	
  4085  09E1                     l2339:	
  4086  09E1  0008               	return
  4087                           	opt stack 0
  4088                           GLOBAL	__end_of_GoHome
  4089  09E2                     	__end_of_GoHome:
  4090 ;; =============== function _GoHome ends ============
  4091                           
  4092                           	signat	_GoHome,88
  4093                           	global	_robot_turnInPlace
  4094                           psect	text1095,local,class=CODE,delta=2
  4095                           global __ptext1095
  4096  1520                     __ptext1095:
  4097                           
  4098 ;; *************** function _robot_turnInPlace *****************
  4099 ;; Defined at:
  4100 ;;		line 296 in file "E:\Aldnoah.Zero\Assignment3\robot.c"
  4101 ;; Parameters:    Size  Location     Type
  4102 ;;		None
  4103 ;; Auto vars:     Size  Location     Type
  4104 ;;		None
  4105 ;; Return value:  Size  Location     Type
  4106 ;;		None               void
  4107 ;; Registers used:
  4108 ;;		wreg, fsr0l, fsr0h, status,2, status,0, btemp+1, pclath, cstack
  4109 ;; Tracked objects:
  4110 ;;		On entry : 0/0
  4111 ;;		On exit  : 0/0
  4112 ;;		Unchanged: 0/0
  4113 ;; Data sizes:     COMMON   BANK0   BANK1   BANK3   BANK2
  4114 ;;      Params:         0       0       0       0       0
  4115 ;;      Locals:         0       0       0       0       0
  4116 ;;      Temps:          0       1       0       0       0
  4117 ;;      Totals:         0       1       0       0       0
  4118 ;;Total ram usage:        1 bytes
  4119 ;; Hardware stack levels used:    1
  4120 ;; Hardware stack levels required when called:    6
  4121 ;; This function calls:
  4122 ;;		_robotTurnSpeed
  4123 ;;		_ser_putch
  4124 ;;		_RobotDrive
  4125 ;; This function is called by:
  4126 ;;		_GoHome
  4127 ;;		_FindVictim
  4128 ;; This function uses a non-reentrant model
  4129 ;;
  4130                           psect	text1095
  4131                           	file	"E:\Aldnoah.Zero\Assignment3\robot.c"
  4132                           	line	296
  4133                           	global	__size_of_robot_turnInPlace
  4134  00CD                     	__size_of_robot_turnInPlace	equ	__end_of_robot_turnInPlace-_robot_turnInPlace
  4135                           	
  4136  1520                     _robot_turnInPlace:	
  4137                           	opt	stack 0
  4138                           ; Regs used in _robot_turnInPlace: [wreg-fsr0h+status,2+status,0+btemp+1+pclath+cstack]
  4139                           	line	297
  4140                           	
  4141  1520                     l12157:	
  4142                           ;robot.c: 297: switch (RobotPos)
  4143  1520  2DD6               	goto	l12189
  4144                           	line	299
  4145                           ;robot.c: 298: {
  4146                           ;robot.c: 299: case 8:
  4147                           	
  4148  1521                     l6263:	
  4149                           	line	300
  4150                           	
  4151  1521                     l12159:	
  4152                           ;robot.c: 300: robotTurnSpeed(160,400);
  4153  1521  30A0               	movlw	low(0A0h)
  4154  1522  1283               	bcf	status, 5	;RP0=0, select bank0
  4155  1523  1303               	bcf	status, 6	;RP1=0, select bank0
  4156  1524  00D7               	movwf	(?_robotTurnSpeed)
  4157  1525  3000               	movlw	high(0A0h)
  4158  1526  00D8               	movwf	((?_robotTurnSpeed))+1
  4159  1527  3090               	movlw	low(0190h)
  4160  1528  00D9               	movwf	0+(?_robotTurnSpeed)+02h
  4161  1529  3001               	movlw	high(0190h)
  4162  152A  00DA               	movwf	(0+(?_robotTurnSpeed)+02h)+1
  4163  152B  160A  118A  2245   	fcall	_robotTurnSpeed
              160A  118A         
  4164                           	line	301
  4165                           	
  4166  1530                     l12161:	
  4167                           ;robot.c: 301: RobotPos++;
  4168  1530  3001               	movlw	(01h)
  4169  1531  1283               	bcf	status, 5	;RP0=0, select bank0
  4170  1532  1303               	bcf	status, 6	;RP1=0, select bank0
  4171  1533  00E0               	movwf	(??_robot_turnInPlace+0)+0
  4172  1534  0860               	movf	(??_robot_turnInPlace+0)+0,w
  4173  1535  1683               	bsf	status, 5	;RP0=1, select bank1
  4174  1536  1303               	bcf	status, 6	;RP1=0, select bank1
  4175  1537  07CB               	addwf	(_RobotPos)^080h,f
  4176                           	line	302
  4177                           ;robot.c: 302: break;
  4178  1538  2DEC               	goto	l6273
  4179                           	line	303
  4180                           ;robot.c: 303: case 12:
  4181                           	
  4182  1539                     l6265:	
  4183                           	line	304
  4184                           	
  4185  1539                     l12163:	
  4186                           ;robot.c: 304: robotTurnSpeed(70,400);
  4187  1539  3046               	movlw	low(046h)
  4188  153A  1283               	bcf	status, 5	;RP0=0, select bank0
  4189  153B  1303               	bcf	status, 6	;RP1=0, select bank0
  4190  153C  00D7               	movwf	(?_robotTurnSpeed)
  4191  153D  3000               	movlw	high(046h)
  4192  153E  00D8               	movwf	((?_robotTurnSpeed))+1
  4193  153F  3090               	movlw	low(0190h)
  4194  1540  00D9               	movwf	0+(?_robotTurnSpeed)+02h
  4195  1541  3001               	movlw	high(0190h)
  4196  1542  00DA               	movwf	(0+(?_robotTurnSpeed)+02h)+1
  4197  1543  160A  118A  2245   	fcall	_robotTurnSpeed
              160A  118A         
  4198                           	line	305
  4199                           ;robot.c: 305: break;
  4200  1548  2DEC               	goto	l6273
  4201                           	line	306
  4202                           ;robot.c: 306: case 15:
  4203                           	
  4204  1549                     l6266:	
  4205                           	line	307
  4206                           	
  4207  1549                     l12165:	
  4208                           ;robot.c: 307: robotTurnSpeed(160,400);
  4209  1549  30A0               	movlw	low(0A0h)
  4210  154A  1283               	bcf	status, 5	;RP0=0, select bank0
  4211  154B  1303               	bcf	status, 6	;RP1=0, select bank0
  4212  154C  00D7               	movwf	(?_robotTurnSpeed)
  4213  154D  3000               	movlw	high(0A0h)
  4214  154E  00D8               	movwf	((?_robotTurnSpeed))+1
  4215  154F  3090               	movlw	low(0190h)
  4216  1550  00D9               	movwf	0+(?_robotTurnSpeed)+02h
  4217  1551  3001               	movlw	high(0190h)
  4218  1552  00DA               	movwf	(0+(?_robotTurnSpeed)+02h)+1
  4219  1553  160A  118A  2245   	fcall	_robotTurnSpeed
              160A  118A         
  4220                           	line	308
  4221                           	
  4222  1558                     l12167:	
  4223                           ;robot.c: 308: RobotPos++;
  4224  1558  3001               	movlw	(01h)
  4225  1559  1283               	bcf	status, 5	;RP0=0, select bank0
  4226  155A  1303               	bcf	status, 6	;RP1=0, select bank0
  4227  155B  00E0               	movwf	(??_robot_turnInPlace+0)+0
  4228  155C  0860               	movf	(??_robot_turnInPlace+0)+0,w
  4229  155D  1683               	bsf	status, 5	;RP0=1, select bank1
  4230  155E  1303               	bcf	status, 6	;RP1=0, select bank1
  4231  155F  07CB               	addwf	(_RobotPos)^080h,f
  4232                           	line	309
  4233                           ;robot.c: 309: break;
  4234  1560  2DEC               	goto	l6273
  4235                           	line	310
  4236                           ;robot.c: 310: case 16:
  4237                           	
  4238  1561                     l6267:	
  4239                           	line	311
  4240                           	
  4241  1561                     l12169:	
  4242                           ;robot.c: 311: robotTurnSpeed(70,400);
  4243  1561  3046               	movlw	low(046h)
  4244  1562  1283               	bcf	status, 5	;RP0=0, select bank0
  4245  1563  1303               	bcf	status, 6	;RP1=0, select bank0
  4246  1564  00D7               	movwf	(?_robotTurnSpeed)
  4247  1565  3000               	movlw	high(046h)
  4248  1566  00D8               	movwf	((?_robotTurnSpeed))+1
  4249  1567  3090               	movlw	low(0190h)
  4250  1568  00D9               	movwf	0+(?_robotTurnSpeed)+02h
  4251  1569  3001               	movlw	high(0190h)
  4252  156A  00DA               	movwf	(0+(?_robotTurnSpeed)+02h)+1
  4253  156B  160A  118A  2245   	fcall	_robotTurnSpeed
              160A  118A         
  4254                           	line	312
  4255                           ;robot.c: 312: break;
  4256  1570  2DEC               	goto	l6273
  4257                           	line	313
  4258                           ;robot.c: 313: case 17:
  4259                           	
  4260  1571                     l6268:	
  4261                           	line	314
  4262                           	
  4263  1571                     l12171:	
  4264                           ;robot.c: 314: robotTurnSpeed(80,400);
  4265  1571  3050               	movlw	low(050h)
  4266  1572  1283               	bcf	status, 5	;RP0=0, select bank0
  4267  1573  1303               	bcf	status, 6	;RP1=0, select bank0
  4268  1574  00D7               	movwf	(?_robotTurnSpeed)
  4269  1575  3000               	movlw	high(050h)
  4270  1576  00D8               	movwf	((?_robotTurnSpeed))+1
  4271  1577  3090               	movlw	low(0190h)
  4272  1578  00D9               	movwf	0+(?_robotTurnSpeed)+02h
  4273  1579  3001               	movlw	high(0190h)
  4274  157A  00DA               	movwf	(0+(?_robotTurnSpeed)+02h)+1
  4275  157B  160A  118A  2245   	fcall	_robotTurnSpeed
              160A  118A         
  4276                           	line	315
  4277                           ;robot.c: 315: break;
  4278  1580  2DEC               	goto	l6273
  4279                           	line	316
  4280                           ;robot.c: 316: case 21:
  4281                           	
  4282  1581                     l6269:	
  4283                           	line	318
  4284                           	
  4285  1581                     l12173:	
  4286                           ;robot.c: 318: ser_putch(141);
  4287  1581  308D               	movlw	(08Dh)
  4288  1582  160A  158A  23FB   	fcall	_ser_putch
              160A  118A         
  4289                           	line	319
  4290                           ;robot.c: 319: ser_putch(1);
  4291  1587  3001               	movlw	(01h)
  4292  1588  160A  158A  23FB   	fcall	_ser_putch
              160A  118A         
  4293                           	line	320
  4294                           	
  4295  158D                     l12175:	
  4296                           ;robot.c: 320: ROBOTerror = 9;
  4297  158D  3009               	movlw	(09h)
  4298  158E  1283               	bcf	status, 5	;RP0=0, select bank0
  4299  158F  1303               	bcf	status, 6	;RP1=0, select bank0
  4300  1590  00E0               	movwf	(??_robot_turnInPlace+0)+0
  4301  1591  0860               	movf	(??_robot_turnInPlace+0)+0,w
  4302  1592  1683               	bsf	status, 5	;RP0=1, select bank1
  4303  1593  1303               	bcf	status, 6	;RP1=0, select bank1
  4304  1594  00C9               	movwf	(_ROBOTerror)^080h
  4305                           	line	321
  4306                           	
  4307  1595                     l12177:	
  4308                           ;robot.c: 321: RobotDrive(0, 0x7FFF);
  4309  1595  3000               	movlw	low(0)
  4310  1596  1283               	bcf	status, 5	;RP0=0, select bank0
  4311  1597  1303               	bcf	status, 6	;RP1=0, select bank0
  4312  1598  00A9               	movwf	(?_RobotDrive)
  4313  1599  3000               	movlw	high(0)
  4314  159A  00AA               	movwf	((?_RobotDrive))+1
  4315  159B  30FF               	movlw	low(07FFFh)
  4316  159C  00AB               	movwf	0+(?_RobotDrive)+02h
  4317  159D  307F               	movlw	high(07FFFh)
  4318  159E  00AC               	movwf	(0+(?_RobotDrive)+02h)+1
  4319  159F  160A  158A  248C   	fcall	_RobotDrive
              160A  118A         
  4320                           	line	322
  4321                           ;robot.c: 322: break;
  4322  15A4  2DEC               	goto	l6273
  4323                           	line	323
  4324                           ;robot.c: 323: default:
  4325                           	
  4326  15A5                     l6270:	
  4327                           	line	324
  4328                           	
  4329  15A5                     l12179:	
  4330                           ;robot.c: 324: if (followDir == 1)
  4331  15A5  1683               	bsf	status, 5	;RP0=1, select bank1
  4332  15A6  1303               	bcf	status, 6	;RP1=0, select bank1
  4333  15A7  0851               	movf	(_followDir)^080h,w
  4334  15A8  3A01               	xorlw	01h
  4335  15A9  1D03               	skipz
  4336  15AA  2DAC               	goto	u5581
  4337  15AB  2DAD               	goto	u5580
  4338  15AC                     u5581:
  4339  15AC  2DBD               	goto	l12183
  4340  15AD                     u5580:
  4341                           	line	325
  4342                           	
  4343  15AD                     l12181:	
  4344                           ;robot.c: 325: robotTurnSpeed(-80,400);
  4345  15AD  30B0               	movlw	low(-80)
  4346  15AE  1283               	bcf	status, 5	;RP0=0, select bank0
  4347  15AF  1303               	bcf	status, 6	;RP1=0, select bank0
  4348  15B0  00D7               	movwf	(?_robotTurnSpeed)
  4349  15B1  30FF               	movlw	high(-80)
  4350  15B2  00D8               	movwf	((?_robotTurnSpeed))+1
  4351  15B3  3090               	movlw	low(0190h)
  4352  15B4  00D9               	movwf	0+(?_robotTurnSpeed)+02h
  4353  15B5  3001               	movlw	high(0190h)
  4354  15B6  00DA               	movwf	(0+(?_robotTurnSpeed)+02h)+1
  4355  15B7  160A  118A  2245   	fcall	_robotTurnSpeed
              160A  118A         
  4356  15BC  2DBD               	goto	l12183
  4357                           	
  4358  15BD                     l6271:	
  4359                           	line	326
  4360                           	
  4361  15BD                     l12183:	
  4362                           ;robot.c: 326: if (followDir == 0)
  4363  15BD  1683               	bsf	status, 5	;RP0=1, select bank1
  4364  15BE  1303               	bcf	status, 6	;RP1=0, select bank1
  4365  15BF  08D1               	movf	(_followDir)^080h,f
  4366  15C0  1D03               	skipz
  4367  15C1  2DC3               	goto	u5591
  4368  15C2  2DC4               	goto	u5590
  4369  15C3                     u5591:
  4370  15C3  2DEC               	goto	l6273
  4371  15C4                     u5590:
  4372                           	line	327
  4373                           	
  4374  15C4                     l12185:	
  4375                           ;robot.c: 327: robotTurnSpeed(80,400);
  4376  15C4  3050               	movlw	low(050h)
  4377  15C5  1283               	bcf	status, 5	;RP0=0, select bank0
  4378  15C6  1303               	bcf	status, 6	;RP1=0, select bank0
  4379  15C7  00D7               	movwf	(?_robotTurnSpeed)
  4380  15C8  3000               	movlw	high(050h)
  4381  15C9  00D8               	movwf	((?_robotTurnSpeed))+1
  4382  15CA  3090               	movlw	low(0190h)
  4383  15CB  00D9               	movwf	0+(?_robotTurnSpeed)+02h
  4384  15CC  3001               	movlw	high(0190h)
  4385  15CD  00DA               	movwf	(0+(?_robotTurnSpeed)+02h)+1
  4386  15CE  160A  118A  2245   	fcall	_robotTurnSpeed
              160A  118A         
  4387  15D3  2DEC               	goto	l6273
  4388                           	
  4389  15D4                     l6272:	
  4390                           	line	329
  4391                           ;robot.c: 329: break;
  4392  15D4  2DEC               	goto	l6273
  4393                           	line	330
  4394                           	
  4395  15D5                     l12187:	
  4396                           ;robot.c: 330: }
  4397  15D5  2DEC               	goto	l6273
  4398                           	line	297
  4399                           	
  4400  15D6                     l6262:	
  4401                           	
  4402  15D6                     l12189:	
  4403  15D6  1683               	bsf	status, 5	;RP0=1, select bank1
  4404  15D7  1303               	bcf	status, 6	;RP1=0, select bank1
  4405  15D8  084B               	movf	(_RobotPos)^080h,w
  4406                           	; Switch size 1, requested type "space"
  4407                           ; Number of cases is 6, Range of values is 8 to 21
  4408                           ; switch strategies available:
  4409                           ; Name         Instructions Cycles
  4410                           ; simple_byte           19    10 (average)
  4411                           ; direct_byte           53    11 (fixed)
  4412                           ; jumptable            263     9 (fixed)
  4413                           ;	Chosen strategy is simple_byte
  4414                           
  4415                           	opt asmopt_off
  4416  15D9  3A08               	xorlw	8^0	; case 8
  4417  15DA  1903               	skipnz
  4418  15DB  2D21               	goto	l12159
  4419  15DC  3A04               	xorlw	12^8	; case 12
  4420  15DD  1903               	skipnz
  4421  15DE  2D39               	goto	l12163
  4422  15DF  3A03               	xorlw	15^12	; case 15
  4423  15E0  1903               	skipnz
  4424  15E1  2D49               	goto	l12165
  4425  15E2  3A1F               	xorlw	16^15	; case 16
  4426  15E3  1903               	skipnz
  4427  15E4  2D61               	goto	l12169
  4428  15E5  3A01               	xorlw	17^16	; case 17
  4429  15E6  1903               	skipnz
  4430  15E7  2D71               	goto	l12171
  4431  15E8  3A04               	xorlw	21^17	; case 21
  4432  15E9  1903               	skipnz
  4433  15EA  2D81               	goto	l12173
  4434  15EB  2DA5               	goto	l12179
  4435                           	opt asmopt_on
  4436                           
  4437                           	line	330
  4438                           	
  4439  15EC                     l6264:	
  4440                           	line	331
  4441                           	
  4442  15EC                     l6273:	
  4443  15EC  0008               	return
  4444                           	opt stack 0
  4445                           GLOBAL	__end_of_robot_turnInPlace
  4446  15ED                     	__end_of_robot_turnInPlace:
  4447 ;; =============== function _robot_turnInPlace ends ============
  4448                           
  4449                           	signat	_robot_turnInPlace,88
  4450                           	global	_robotFollow
  4451                           psect	text1096,local,class=CODE,delta=2
  4452                           global __ptext1096
  4453  0489                     __ptext1096:
  4454                           
  4455 ;; *************** function _robotFollow *****************
  4456 ;; Defined at:
  4457 ;;		line 186 in file "E:\Aldnoah.Zero\Assignment3\robot.c"
  4458 ;; Parameters:    Size  Location     Type
  4459 ;;  speed           2   64[BANK0 ] int 
  4460 ;;  AdcTarget       2   66[BANK0 ] int 
  4461 ;; Auto vars:     Size  Location     Type
  4462 ;;  temp1           2   72[BANK0 ] int 
  4463 ;;  hysterysis      1   74[BANK0 ] unsigned char 
  4464 ;; Return value:  Size  Location     Type
  4465 ;;		None               void
  4466 ;; Registers used:
  4467 ;;		wreg, fsr0l, fsr0h, status,2, status,0, btemp+1, pclath, cstack
  4468 ;; Tracked objects:
  4469 ;;		On entry : 0/0
  4470 ;;		On exit  : 0/0
  4471 ;;		Unchanged: 0/0
  4472 ;; Data sizes:     COMMON   BANK0   BANK1   BANK3   BANK2
  4473 ;;      Params:         0       4       0       0       0
  4474 ;;      Locals:         0       3       0       0       0
  4475 ;;      Temps:          0       4       0       0       0
  4476 ;;      Totals:         0      11       0       0       0
  4477 ;;Total ram usage:       11 bytes
  4478 ;; Hardware stack levels used:    1
  4479 ;; Hardware stack levels required when called:    6
  4480 ;; This function calls:
  4481 ;;		_RobotDrive
  4482 ;;		_ser_putch
  4483 ;;		_readAvgDistance
  4484 ;;		_rotate
  4485 ;;		_robot_read
  4486 ;;		_robotTurnSpeed
  4487 ;;		_robotMoveSpeed
  4488 ;;		_UpdateDisplay
  4489 ;; This function is called by:
  4490 ;;		_GoHome
  4491 ;;		_FindVictim
  4492 ;; This function uses a non-reentrant model
  4493 ;;
  4494                           psect	text1096
  4495                           	file	"E:\Aldnoah.Zero\Assignment3\robot.c"
  4496                           	line	186
  4497                           	global	__size_of_robotFollow
  4498  032D                     	__size_of_robotFollow	equ	__end_of_robotFollow-_robotFollow
  4499                           	
  4500  0489                     _robotFollow:	
  4501                           	opt	stack 0
  4502                           ; Regs used in _robotFollow: [wreg-fsr0h+status,2+status,0+btemp+1+pclath+cstack]
  4503                           	line	187
  4504                           	
  4505  0489                     l12033:	
  4506                           ;robot.c: 187: distTravelled = 0;
  4507  0489  1683               	bsf	status, 5	;RP0=1, select bank1
  4508  048A  1303               	bcf	status, 6	;RP1=0, select bank1
  4509  048B  01B2               	clrf	(_distTravelled)^080h
  4510  048C  01B3               	clrf	(_distTravelled+1)^080h
  4511                           	line	189
  4512                           	
  4513  048D                     l12035:	
  4514                           ;robot.c: 188: int temp1;
  4515                           ;robot.c: 189: unsigned char hysterysis = 20;
  4516  048D  3014               	movlw	(014h)
  4517  048E  1283               	bcf	status, 5	;RP0=0, select bank0
  4518  048F  1303               	bcf	status, 6	;RP1=0, select bank0
  4519  0490  00E4               	movwf	(??_robotFollow+0)+0
  4520  0491  0864               	movf	(??_robotFollow+0)+0,w
  4521  0492  00EA               	movwf	(robotFollow@hysterysis)
  4522                           	line	190
  4523                           	
  4524  0493                     l12037:	
  4525                           ;robot.c: 190: RobotDrive(speed, 0x7FFF);
  4526  0493  0861               	movf	(robotFollow@speed+1),w
  4527  0494  01AA               	clrf	(?_RobotDrive+1)
  4528  0495  07AA               	addwf	(?_RobotDrive+1)
  4529  0496  0860               	movf	(robotFollow@speed),w
  4530  0497  01A9               	clrf	(?_RobotDrive)
  4531  0498  07A9               	addwf	(?_RobotDrive)
  4532                           
  4533  0499  30FF               	movlw	low(07FFFh)
  4534  049A  00AB               	movwf	0+(?_RobotDrive)+02h
  4535  049B  307F               	movlw	high(07FFFh)
  4536  049C  00AC               	movwf	(0+(?_RobotDrive)+02h)+1
  4537  049D  160A  158A  248C   	fcall	_RobotDrive
              120A  118A         
  4538                           	line	191
  4539                           	
  4540  04A2                     l12039:	
  4541                           ;robot.c: 191: ROBOTerror = 0;
  4542  04A2  1683               	bsf	status, 5	;RP0=1, select bank1
  4543  04A3  1303               	bcf	status, 6	;RP1=0, select bank1
  4544  04A4  01C9               	clrf	(_ROBOTerror)^080h
  4545  04A5  2CA6               	goto	l12041
  4546                           	line	194
  4547                           ;robot.c: 194: while (1)
  4548                           	
  4549  04A6                     l6232:	
  4550                           	line	196
  4551                           	
  4552  04A6                     l12041:	
  4553                           ;robot.c: 195: {
  4554                           ;robot.c: 196: if ((AdcTarget + 100) <= hysterysis)
  4555  04A6  1283               	bcf	status, 5	;RP0=0, select bank0
  4556  04A7  1303               	bcf	status, 6	;RP1=0, select bank0
  4557  04A8  0862               	movf	(robotFollow@AdcTarget),w
  4558  04A9  3E64               	addlw	low(064h)
  4559  04AA  00E4               	movwf	(??_robotFollow+0)+0
  4560  04AB  0863               	movf	(robotFollow@AdcTarget+1),w
  4561  04AC  1803               	skipnc
  4562  04AD  3E01               	addlw	1
  4563  04AE  3E00               	addlw	high(064h)
  4564  04AF  00E5               	movwf	1+(??_robotFollow+0)+0
  4565  04B0  0865               	movf	1+(??_robotFollow+0)+0,w
  4566  04B1  3A80               	xorlw	80h
  4567  04B2  3C80               	sublw	080h
  4568  04B3  1D03               	skipz
  4569  04B4  2CB7               	goto	u5375
  4570  04B5  0864               	movf	0+(??_robotFollow+0)+0,w
  4571  04B6  026A               	subwf	(robotFollow@hysterysis),w
  4572  04B7                     u5375:
  4573                           
  4574  04B7  1C03               	skipc
  4575  04B8  2CBA               	goto	u5371
  4576  04B9  2CBB               	goto	u5370
  4577  04BA                     u5371:
  4578  04BA  2CC8               	goto	l12045
  4579  04BB                     u5370:
  4580                           	line	198
  4581                           	
  4582  04BB                     l12043:	
  4583                           ;robot.c: 197: {
  4584                           ;robot.c: 198: ser_putch(141);
  4585  04BB  308D               	movlw	(08Dh)
  4586  04BC  160A  158A  23FB   	fcall	_ser_putch
              120A  118A         
  4587                           	line	199
  4588                           ;robot.c: 199: ser_putch(0);
  4589  04C1  3000               	movlw	(0)
  4590  04C2  160A  158A  23FB   	fcall	_ser_putch
              120A  118A         
  4591  04C7  2CC8               	goto	l12045
  4592                           	line	200
  4593                           	
  4594  04C8                     l6233:	
  4595                           	line	201
  4596                           	
  4597  04C8                     l12045:	
  4598                           ;robot.c: 200: }
  4599                           ;robot.c: 201: if (AdcTarget > 100)
  4600  04C8  1283               	bcf	status, 5	;RP0=0, select bank0
  4601  04C9  1303               	bcf	status, 6	;RP1=0, select bank0
  4602  04CA  0863               	movf	(robotFollow@AdcTarget+1),w
  4603  04CB  3A80               	xorlw	80h
  4604  04CC  00FF               	movwf	btemp+1
  4605  04CD  3080               	movlw	(high(065h))^80h
  4606  04CE  027F               	subwf	btemp+1,w
  4607  04CF  1D03               	skipz
  4608  04D0  2CD3               	goto	u5385
  4609  04D1  3065               	movlw	low(065h)
  4610  04D2  0262               	subwf	(robotFollow@AdcTarget),w
  4611  04D3                     u5385:
  4612                           
  4613  04D3  1C03               	skipc
  4614  04D4  2CD6               	goto	u5381
  4615  04D5  2CD7               	goto	u5380
  4616  04D6                     u5381:
  4617  04D6  2CE0               	goto	l12049
  4618  04D7                     u5380:
  4619                           	line	202
  4620                           	
  4621  04D7                     l12047:	
  4622                           ;robot.c: 202: AdcTarget--;
  4623  04D7  30FF               	movlw	low(-1)
  4624  04D8  1283               	bcf	status, 5	;RP0=0, select bank0
  4625  04D9  1303               	bcf	status, 6	;RP1=0, select bank0
  4626  04DA  07E2               	addwf	(robotFollow@AdcTarget),f
  4627  04DB  1803               	skipnc
  4628  04DC  0AE3               	incf	(robotFollow@AdcTarget+1),f
  4629  04DD  30FF               	movlw	high(-1)
  4630  04DE  07E3               	addwf	(robotFollow@AdcTarget+1),f
  4631  04DF  2CE0               	goto	l12049
  4632                           	
  4633  04E0                     l6234:	
  4634                           	line	203
  4635                           	
  4636  04E0                     l12049:	
  4637                           ;robot.c: 203: if (AdcTarget < 100)
  4638  04E0  1283               	bcf	status, 5	;RP0=0, select bank0
  4639  04E1  1303               	bcf	status, 6	;RP1=0, select bank0
  4640  04E2  0863               	movf	(robotFollow@AdcTarget+1),w
  4641  04E3  3A80               	xorlw	80h
  4642  04E4  00FF               	movwf	btemp+1
  4643  04E5  3080               	movlw	(high(064h))^80h
  4644  04E6  027F               	subwf	btemp+1,w
  4645  04E7  1D03               	skipz
  4646  04E8  2CEB               	goto	u5395
  4647  04E9  3064               	movlw	low(064h)
  4648  04EA  0262               	subwf	(robotFollow@AdcTarget),w
  4649  04EB                     u5395:
  4650                           
  4651  04EB  1803               	skipnc
  4652  04EC  2CEE               	goto	u5391
  4653  04ED  2CEF               	goto	u5390
  4654  04EE                     u5391:
  4655  04EE  2CF8               	goto	l12053
  4656  04EF                     u5390:
  4657                           	line	204
  4658                           	
  4659  04EF                     l12051:	
  4660                           ;robot.c: 204: AdcTarget++;
  4661  04EF  3001               	movlw	low(01h)
  4662  04F0  1283               	bcf	status, 5	;RP0=0, select bank0
  4663  04F1  1303               	bcf	status, 6	;RP1=0, select bank0
  4664  04F2  07E2               	addwf	(robotFollow@AdcTarget),f
  4665  04F3  1803               	skipnc
  4666  04F4  0AE3               	incf	(robotFollow@AdcTarget+1),f
  4667  04F5  3000               	movlw	high(01h)
  4668  04F6  07E3               	addwf	(robotFollow@AdcTarget+1),f
  4669  04F7  2CF8               	goto	l12053
  4670                           	
  4671  04F8                     l6235:	
  4672                           	line	205
  4673                           	
  4674  04F8                     l12053:	
  4675                           ;robot.c: 205: readAvgDistance();
  4676  04F8  160A  118A  2145   	fcall	_readAvgDistance
              120A  118A         
  4677                           	line	206
  4678                           	
  4679  04FD                     l12055:	
  4680                           ;robot.c: 206: if (adcVal > (AdcTarget) && adcVal < (AdcTarget + hysterysis))
  4681  04FD  1683               	bsf	status, 5	;RP0=1, select bank1
  4682  04FE  1303               	bcf	status, 6	;RP1=0, select bank1
  4683  04FF  082F               	movf	(_adcVal+1)^080h,w	;volatile
  4684  0500  1283               	bcf	status, 5	;RP0=0, select bank0
  4685  0501  1303               	bcf	status, 6	;RP1=0, select bank0
  4686  0502  0263               	subwf	(robotFollow@AdcTarget+1),w
  4687  0503  1D03               	skipz
  4688  0504  2D0B               	goto	u5405
  4689  0505  1683               	bsf	status, 5	;RP0=1, select bank1
  4690  0506  1303               	bcf	status, 6	;RP1=0, select bank1
  4691  0507  082E               	movf	(_adcVal)^080h,w	;volatile
  4692  0508  1283               	bcf	status, 5	;RP0=0, select bank0
  4693  0509  1303               	bcf	status, 6	;RP1=0, select bank0
  4694  050A  0262               	subwf	(robotFollow@AdcTarget),w
  4695  050B                     u5405:
  4696  050B  1803               	skipnc
  4697  050C  2D0E               	goto	u5401
  4698  050D  2D0F               	goto	u5400
  4699  050E                     u5401:
  4700  050E  2D58               	goto	l12067
  4701  050F                     u5400:
  4702                           	
  4703  050F                     l12057:	
  4704  050F  086A               	movf	(robotFollow@hysterysis),w
  4705  0510  0762               	addwf	(robotFollow@AdcTarget),w
  4706  0511  00E4               	movwf	(??_robotFollow+0)+0
  4707  0512  0863               	movf	(robotFollow@AdcTarget+1),w
  4708  0513  1803               	skipnc
  4709  0514  0A63               	incf	(robotFollow@AdcTarget+1),w
  4710  0515  00E5               	movwf	((??_robotFollow+0)+0)+1
  4711  0516  0865               	movf	1+(??_robotFollow+0)+0,w
  4712  0517  1683               	bsf	status, 5	;RP0=1, select bank1
  4713  0518  1303               	bcf	status, 6	;RP1=0, select bank1
  4714  0519  022F               	subwf	(_adcVal+1)^080h,w	;volatile
  4715  051A  1D03               	skipz
  4716  051B  2D22               	goto	u5415
  4717  051C  1283               	bcf	status, 5	;RP0=0, select bank0
  4718  051D  1303               	bcf	status, 6	;RP1=0, select bank0
  4719  051E  0864               	movf	0+(??_robotFollow+0)+0,w
  4720  051F  1683               	bsf	status, 5	;RP0=1, select bank1
  4721  0520  1303               	bcf	status, 6	;RP1=0, select bank1
  4722  0521  022E               	subwf	(_adcVal)^080h,w	;volatile
  4723  0522                     u5415:
  4724  0522  1803               	skipnc
  4725  0523  2D25               	goto	u5411
  4726  0524  2D26               	goto	u5410
  4727  0525                     u5411:
  4728  0525  2D58               	goto	l12067
  4729  0526                     u5410:
  4730                           	line	208
  4731                           	
  4732  0526                     l12059:	
  4733                           ;robot.c: 207: {
  4734                           ;robot.c: 208: if (followDir == 1)
  4735  0526  0851               	movf	(_followDir)^080h,w
  4736  0527  3A01               	xorlw	01h
  4737  0528  1D03               	skipz
  4738  0529  2D2B               	goto	u5421
  4739  052A  2D2C               	goto	u5420
  4740  052B                     u5421:
  4741  052B  2D3E               	goto	l12063
  4742  052C                     u5420:
  4743                           	line	209
  4744                           	
  4745  052C                     l12061:	
  4746                           ;robot.c: 209: RobotDrive(speed, -1700);
  4747  052C  1283               	bcf	status, 5	;RP0=0, select bank0
  4748  052D  1303               	bcf	status, 6	;RP1=0, select bank0
  4749  052E  0861               	movf	(robotFollow@speed+1),w
  4750  052F  01AA               	clrf	(?_RobotDrive+1)
  4751  0530  07AA               	addwf	(?_RobotDrive+1)
  4752  0531  0860               	movf	(robotFollow@speed),w
  4753  0532  01A9               	clrf	(?_RobotDrive)
  4754  0533  07A9               	addwf	(?_RobotDrive)
  4755                           
  4756  0534  305C               	movlw	low(-1700)
  4757  0535  00AB               	movwf	0+(?_RobotDrive)+02h
  4758  0536  30F9               	movlw	high(-1700)
  4759  0537  00AC               	movwf	(0+(?_RobotDrive)+02h)+1
  4760  0538  160A  158A  248C   	fcall	_RobotDrive
              120A  118A         
  4761  053D  2D3E               	goto	l12063
  4762                           	
  4763  053E                     l6237:	
  4764                           	line	210
  4765                           	
  4766  053E                     l12063:	
  4767                           ;robot.c: 210: if (followDir == 0)
  4768  053E  1683               	bsf	status, 5	;RP0=1, select bank1
  4769  053F  1303               	bcf	status, 6	;RP1=0, select bank1
  4770  0540  08D1               	movf	(_followDir)^080h,f
  4771  0541  1D03               	skipz
  4772  0542  2D44               	goto	u5431
  4773  0543  2D45               	goto	u5430
  4774  0544                     u5431:
  4775  0544  2E77               	goto	l6239
  4776  0545                     u5430:
  4777                           	line	211
  4778                           	
  4779  0545                     l12065:	
  4780                           ;robot.c: 211: RobotDrive(speed, 1700);
  4781  0545  1283               	bcf	status, 5	;RP0=0, select bank0
  4782  0546  1303               	bcf	status, 6	;RP1=0, select bank0
  4783  0547  0861               	movf	(robotFollow@speed+1),w
  4784  0548  01AA               	clrf	(?_RobotDrive+1)
  4785  0549  07AA               	addwf	(?_RobotDrive+1)
  4786  054A  0860               	movf	(robotFollow@speed),w
  4787  054B  01A9               	clrf	(?_RobotDrive)
  4788  054C  07A9               	addwf	(?_RobotDrive)
  4789                           
  4790  054D  30A4               	movlw	low(06A4h)
  4791  054E  00AB               	movwf	0+(?_RobotDrive)+02h
  4792  054F  3006               	movlw	high(06A4h)
  4793  0550  00AC               	movwf	(0+(?_RobotDrive)+02h)+1
  4794  0551  160A  158A  248C   	fcall	_RobotDrive
              120A  118A         
  4795  0556  2E77               	goto	l6239
  4796                           	
  4797  0557                     l6238:	
  4798                           	line	213
  4799                           ;robot.c: 213: }
  4800  0557  2E77               	goto	l6239
  4801                           	line	214
  4802                           	
  4803  0558                     l6236:	
  4804                           	
  4805  0558                     l12067:	
  4806                           ;robot.c: 214: else if (adcVal < (AdcTarget) && adcVal > (AdcTarget - hysterysis))
  4807  0558  1283               	bcf	status, 5	;RP0=0, select bank0
  4808  0559  1303               	bcf	status, 6	;RP1=0, select bank0
  4809  055A  0863               	movf	(robotFollow@AdcTarget+1),w
  4810  055B  1683               	bsf	status, 5	;RP0=1, select bank1
  4811  055C  1303               	bcf	status, 6	;RP1=0, select bank1
  4812  055D  022F               	subwf	(_adcVal+1)^080h,w	;volatile
  4813  055E  1D03               	skipz
  4814  055F  2D66               	goto	u5445
  4815  0560  1283               	bcf	status, 5	;RP0=0, select bank0
  4816  0561  1303               	bcf	status, 6	;RP1=0, select bank0
  4817  0562  0862               	movf	(robotFollow@AdcTarget),w
  4818  0563  1683               	bsf	status, 5	;RP0=1, select bank1
  4819  0564  1303               	bcf	status, 6	;RP1=0, select bank1
  4820  0565  022E               	subwf	(_adcVal)^080h,w	;volatile
  4821  0566                     u5445:
  4822  0566  1803               	skipnc
  4823  0567  2D69               	goto	u5441
  4824  0568  2D6A               	goto	u5440
  4825  0569                     u5441:
  4826  0569  2DC2               	goto	l12079
  4827  056A                     u5440:
  4828                           	
  4829  056A                     l12069:	
  4830  056A  1283               	bcf	status, 5	;RP0=0, select bank0
  4831  056B  1303               	bcf	status, 6	;RP1=0, select bank0
  4832  056C  086A               	movf	(robotFollow@hysterysis),w
  4833  056D  00E4               	movwf	(??_robotFollow+0)+0
  4834  056E  01E5               	clrf	(??_robotFollow+0)+0+1
  4835  056F  09E4               	comf	(??_robotFollow+0)+0,f
  4836  0570  09E5               	comf	(??_robotFollow+0)+1,f
  4837  0571  0AE4               	incf	(??_robotFollow+0)+0,f
  4838  0572  1903               	skipnz
  4839  0573  0AE5               	incf	(??_robotFollow+0)+1,f
  4840  0574  0862               	movf	(robotFollow@AdcTarget),w
  4841  0575  0764               	addwf	0+(??_robotFollow+0)+0,w
  4842  0576  00E6               	movwf	(??_robotFollow+2)+0
  4843  0577  0863               	movf	(robotFollow@AdcTarget+1),w
  4844  0578  1803               	skipnc
  4845  0579  0A63               	incf	(robotFollow@AdcTarget+1),w
  4846  057A  0765               	addwf	1+(??_robotFollow+0)+0,w
  4847  057B  00E7               	movwf	1+(??_robotFollow+2)+0
  4848  057C  1683               	bsf	status, 5	;RP0=1, select bank1
  4849  057D  1303               	bcf	status, 6	;RP1=0, select bank1
  4850  057E  082F               	movf	(_adcVal+1)^080h,w	;volatile
  4851  057F  1283               	bcf	status, 5	;RP0=0, select bank0
  4852  0580  1303               	bcf	status, 6	;RP1=0, select bank0
  4853  0581  0267               	subwf	1+(??_robotFollow+2)+0,w
  4854  0582  1D03               	skipz
  4855  0583  2D8A               	goto	u5455
  4856  0584  1683               	bsf	status, 5	;RP0=1, select bank1
  4857  0585  1303               	bcf	status, 6	;RP1=0, select bank1
  4858  0586  082E               	movf	(_adcVal)^080h,w	;volatile
  4859  0587  1283               	bcf	status, 5	;RP0=0, select bank0
  4860  0588  1303               	bcf	status, 6	;RP1=0, select bank0
  4861  0589  0266               	subwf	0+(??_robotFollow+2)+0,w
  4862  058A                     u5455:
  4863  058A  1803               	skipnc
  4864  058B  2D8D               	goto	u5451
  4865  058C  2D8E               	goto	u5450
  4866  058D                     u5451:
  4867  058D  2DC2               	goto	l12079
  4868  058E                     u5450:
  4869                           	line	216
  4870                           	
  4871  058E                     l12071:	
  4872                           ;robot.c: 215: {
  4873                           ;robot.c: 216: if (followDir == 1)
  4874  058E  1683               	bsf	status, 5	;RP0=1, select bank1
  4875  058F  1303               	bcf	status, 6	;RP1=0, select bank1
  4876  0590  0851               	movf	(_followDir)^080h,w
  4877  0591  3A01               	xorlw	01h
  4878  0592  1D03               	skipz
  4879  0593  2D95               	goto	u5461
  4880  0594  2D96               	goto	u5460
  4881  0595                     u5461:
  4882  0595  2DA8               	goto	l12075
  4883  0596                     u5460:
  4884                           	line	217
  4885                           	
  4886  0596                     l12073:	
  4887                           ;robot.c: 217: RobotDrive(speed, 1700);
  4888  0596  1283               	bcf	status, 5	;RP0=0, select bank0
  4889  0597  1303               	bcf	status, 6	;RP1=0, select bank0
  4890  0598  0861               	movf	(robotFollow@speed+1),w
  4891  0599  01AA               	clrf	(?_RobotDrive+1)
  4892  059A  07AA               	addwf	(?_RobotDrive+1)
  4893  059B  0860               	movf	(robotFollow@speed),w
  4894  059C  01A9               	clrf	(?_RobotDrive)
  4895  059D  07A9               	addwf	(?_RobotDrive)
  4896                           
  4897  059E  30A4               	movlw	low(06A4h)
  4898  059F  00AB               	movwf	0+(?_RobotDrive)+02h
  4899  05A0  3006               	movlw	high(06A4h)
  4900  05A1  00AC               	movwf	(0+(?_RobotDrive)+02h)+1
  4901  05A2  160A  158A  248C   	fcall	_RobotDrive
              120A  118A         
  4902  05A7  2DA8               	goto	l12075
  4903                           	
  4904  05A8                     l6241:	
  4905                           	line	218
  4906                           	
  4907  05A8                     l12075:	
  4908                           ;robot.c: 218: if (followDir == 0)
  4909  05A8  1683               	bsf	status, 5	;RP0=1, select bank1
  4910  05A9  1303               	bcf	status, 6	;RP1=0, select bank1
  4911  05AA  08D1               	movf	(_followDir)^080h,f
  4912  05AB  1D03               	skipz
  4913  05AC  2DAE               	goto	u5471
  4914  05AD  2DAF               	goto	u5470
  4915  05AE                     u5471:
  4916  05AE  2E77               	goto	l6239
  4917  05AF                     u5470:
  4918                           	line	219
  4919                           	
  4920  05AF                     l12077:	
  4921                           ;robot.c: 219: RobotDrive(speed, -1700);
  4922  05AF  1283               	bcf	status, 5	;RP0=0, select bank0
  4923  05B0  1303               	bcf	status, 6	;RP1=0, select bank0
  4924  05B1  0861               	movf	(robotFollow@speed+1),w
  4925  05B2  01AA               	clrf	(?_RobotDrive+1)
  4926  05B3  07AA               	addwf	(?_RobotDrive+1)
  4927  05B4  0860               	movf	(robotFollow@speed),w
  4928  05B5  01A9               	clrf	(?_RobotDrive)
  4929  05B6  07A9               	addwf	(?_RobotDrive)
  4930                           
  4931  05B7  305C               	movlw	low(-1700)
  4932  05B8  00AB               	movwf	0+(?_RobotDrive)+02h
  4933  05B9  30F9               	movlw	high(-1700)
  4934  05BA  00AC               	movwf	(0+(?_RobotDrive)+02h)+1
  4935  05BB  160A  158A  248C   	fcall	_RobotDrive
              120A  118A         
  4936  05C0  2E77               	goto	l6239
  4937                           	
  4938  05C1                     l6242:	
  4939                           	line	220
  4940                           ;robot.c: 220: }
  4941  05C1  2E77               	goto	l6239
  4942                           	line	221
  4943                           	
  4944  05C2                     l6240:	
  4945                           	
  4946  05C2                     l12079:	
  4947                           ;robot.c: 221: else if (adcVal <= (AdcTarget - hysterysis) || adcVal >= (AdcTarget + hys
                                 terysis))
  4948  05C2  1283               	bcf	status, 5	;RP0=0, select bank0
  4949  05C3  1303               	bcf	status, 6	;RP1=0, select bank0
  4950  05C4  086A               	movf	(robotFollow@hysterysis),w
  4951  05C5  00E4               	movwf	(??_robotFollow+0)+0
  4952  05C6  01E5               	clrf	(??_robotFollow+0)+0+1
  4953  05C7  09E4               	comf	(??_robotFollow+0)+0,f
  4954  05C8  09E5               	comf	(??_robotFollow+0)+1,f
  4955  05C9  0AE4               	incf	(??_robotFollow+0)+0,f
  4956  05CA  1903               	skipnz
  4957  05CB  0AE5               	incf	(??_robotFollow+0)+1,f
  4958  05CC  0862               	movf	(robotFollow@AdcTarget),w
  4959  05CD  0764               	addwf	0+(??_robotFollow+0)+0,w
  4960  05CE  00E6               	movwf	(??_robotFollow+2)+0
  4961  05CF  0863               	movf	(robotFollow@AdcTarget+1),w
  4962  05D0  1803               	skipnc
  4963  05D1  0A63               	incf	(robotFollow@AdcTarget+1),w
  4964  05D2  0765               	addwf	1+(??_robotFollow+0)+0,w
  4965  05D3  00E7               	movwf	1+(??_robotFollow+2)+0
  4966  05D4  1683               	bsf	status, 5	;RP0=1, select bank1
  4967  05D5  1303               	bcf	status, 6	;RP1=0, select bank1
  4968  05D6  082F               	movf	(_adcVal+1)^080h,w	;volatile
  4969  05D7  1283               	bcf	status, 5	;RP0=0, select bank0
  4970  05D8  1303               	bcf	status, 6	;RP1=0, select bank0
  4971  05D9  0267               	subwf	1+(??_robotFollow+2)+0,w
  4972  05DA  1D03               	skipz
  4973  05DB  2DE2               	goto	u5485
  4974  05DC  1683               	bsf	status, 5	;RP0=1, select bank1
  4975  05DD  1303               	bcf	status, 6	;RP1=0, select bank1
  4976  05DE  082E               	movf	(_adcVal)^080h,w	;volatile
  4977  05DF  1283               	bcf	status, 5	;RP0=0, select bank0
  4978  05E0  1303               	bcf	status, 6	;RP1=0, select bank0
  4979  05E1  0266               	subwf	0+(??_robotFollow+2)+0,w
  4980  05E2                     u5485:
  4981  05E2  1803               	skipnc
  4982  05E3  2DE5               	goto	u5481
  4983  05E4  2DE6               	goto	u5480
  4984  05E5                     u5481:
  4985  05E5  2DFE               	goto	l12083
  4986  05E6                     u5480:
  4987                           	
  4988  05E6                     l12081:	
  4989  05E6  086A               	movf	(robotFollow@hysterysis),w
  4990  05E7  0762               	addwf	(robotFollow@AdcTarget),w
  4991  05E8  00E4               	movwf	(??_robotFollow+0)+0
  4992  05E9  0863               	movf	(robotFollow@AdcTarget+1),w
  4993  05EA  1803               	skipnc
  4994  05EB  0A63               	incf	(robotFollow@AdcTarget+1),w
  4995  05EC  00E5               	movwf	((??_robotFollow+0)+0)+1
  4996  05ED  0865               	movf	1+(??_robotFollow+0)+0,w
  4997  05EE  1683               	bsf	status, 5	;RP0=1, select bank1
  4998  05EF  1303               	bcf	status, 6	;RP1=0, select bank1
  4999  05F0  022F               	subwf	(_adcVal+1)^080h,w	;volatile
  5000  05F1  1D03               	skipz
  5001  05F2  2DF9               	goto	u5495
  5002  05F3  1283               	bcf	status, 5	;RP0=0, select bank0
  5003  05F4  1303               	bcf	status, 6	;RP1=0, select bank0
  5004  05F5  0864               	movf	0+(??_robotFollow+0)+0,w
  5005  05F6  1683               	bsf	status, 5	;RP0=1, select bank1
  5006  05F7  1303               	bcf	status, 6	;RP1=0, select bank1
  5007  05F8  022E               	subwf	(_adcVal)^080h,w	;volatile
  5008  05F9                     u5495:
  5009  05F9  1C03               	skipc
  5010  05FA  2DFC               	goto	u5491
  5011  05FB  2DFD               	goto	u5490
  5012  05FC                     u5491:
  5013  05FC  2E64               	goto	l12105
  5014  05FD                     u5490:
  5015  05FD  2DFE               	goto	l12083
  5016                           	
  5017  05FE                     l6246:	
  5018                           	line	223
  5019                           	
  5020  05FE                     l12083:	
  5021                           ;robot.c: 222: {
  5022                           ;robot.c: 223: if (followDir == 0)
  5023  05FE  1683               	bsf	status, 5	;RP0=1, select bank1
  5024  05FF  1303               	bcf	status, 6	;RP1=0, select bank1
  5025  0600  08D1               	movf	(_followDir)^080h,f
  5026  0601  1D03               	skipz
  5027  0602  2E04               	goto	u5501
  5028  0603  2E05               	goto	u5500
  5029  0604                     u5501:
  5030  0604  2E25               	goto	l12091
  5031  0605                     u5500:
  5032                           	line	225
  5033                           	
  5034  0605                     l12085:	
  5035                           ;robot.c: 224: {
  5036                           ;robot.c: 225: rotate(10,1);
  5037  0605  300A               	movlw	low(0Ah)
  5038  0606  1283               	bcf	status, 5	;RP0=0, select bank0
  5039  0607  1303               	bcf	status, 6	;RP1=0, select bank0
  5040  0608  00A3               	movwf	(?_rotate)
  5041  0609  3000               	movlw	high(0Ah)
  5042  060A  00A4               	movwf	((?_rotate))+1
  5043  060B  01A5               	clrf	0+(?_rotate)+02h
  5044  060C  1403               	bsf	status,0
  5045  060D  0DA5               	rlf	0+(?_rotate)+02h,f
  5046  060E  160A  158A  25D7   	fcall	_rotate
              120A  118A         
  5047                           	line	226
  5048                           	
  5049  0613                     l12087:	
  5050                           ;robot.c: 226: readAvgDistance();
  5051  0613  160A  118A  2145   	fcall	_readAvgDistance
              120A  118A         
  5052                           	line	227
  5053                           	
  5054  0618                     l12089:	
  5055                           ;robot.c: 227: rotate(10,0);
  5056  0618  300A               	movlw	low(0Ah)
  5057  0619  1283               	bcf	status, 5	;RP0=0, select bank0
  5058  061A  1303               	bcf	status, 6	;RP1=0, select bank0
  5059  061B  00A3               	movwf	(?_rotate)
  5060  061C  3000               	movlw	high(0Ah)
  5061  061D  00A4               	movwf	((?_rotate))+1
  5062  061E  01A5               	clrf	0+(?_rotate)+02h
  5063  061F  160A  158A  25D7   	fcall	_rotate
              120A  118A         
  5064                           	line	228
  5065                           ;robot.c: 228: }
  5066  0624  2E45               	goto	l12097
  5067                           	line	229
  5068                           	
  5069  0625                     l6247:	
  5070                           	line	231
  5071                           	
  5072  0625                     l12091:	
  5073                           ;robot.c: 229: else
  5074                           ;robot.c: 230: {
  5075                           ;robot.c: 231: rotate(10,0);
  5076  0625  300A               	movlw	low(0Ah)
  5077  0626  1283               	bcf	status, 5	;RP0=0, select bank0
  5078  0627  1303               	bcf	status, 6	;RP1=0, select bank0
  5079  0628  00A3               	movwf	(?_rotate)
  5080  0629  3000               	movlw	high(0Ah)
  5081  062A  00A4               	movwf	((?_rotate))+1
  5082  062B  01A5               	clrf	0+(?_rotate)+02h
  5083  062C  160A  158A  25D7   	fcall	_rotate
              120A  118A         
  5084                           	line	232
  5085                           	
  5086  0631                     l12093:	
  5087                           ;robot.c: 232: readAvgDistance();
  5088  0631  160A  118A  2145   	fcall	_readAvgDistance
              120A  118A         
  5089                           	line	233
  5090                           	
  5091  0636                     l12095:	
  5092                           ;robot.c: 233: rotate(10,1);
  5093  0636  300A               	movlw	low(0Ah)
  5094  0637  1283               	bcf	status, 5	;RP0=0, select bank0
  5095  0638  1303               	bcf	status, 6	;RP1=0, select bank0
  5096  0639  00A3               	movwf	(?_rotate)
  5097  063A  3000               	movlw	high(0Ah)
  5098  063B  00A4               	movwf	((?_rotate))+1
  5099  063C  01A5               	clrf	0+(?_rotate)+02h
  5100  063D  1403               	bsf	status,0
  5101  063E  0DA5               	rlf	0+(?_rotate)+02h,f
  5102  063F  160A  158A  25D7   	fcall	_rotate
              120A  118A         
  5103  0644  2E45               	goto	l12097
  5104                           	line	234
  5105                           	
  5106  0645                     l6248:	
  5107                           	line	235
  5108                           	
  5109  0645                     l12097:	
  5110                           ;robot.c: 234: }
  5111                           ;robot.c: 235: if (adcVal < 50)
  5112  0645  3000               	movlw	high(032h)
  5113  0646  1683               	bsf	status, 5	;RP0=1, select bank1
  5114  0647  1303               	bcf	status, 6	;RP1=0, select bank1
  5115  0648  022F               	subwf	(_adcVal+1)^080h,w	;volatile
  5116  0649  3032               	movlw	low(032h)
  5117  064A  1903               	skipnz
  5118  064B  022E               	subwf	(_adcVal)^080h,w	;volatile
  5119  064C  1803               	skipnc
  5120  064D  2E4F               	goto	u5511
  5121  064E  2E50               	goto	u5510
  5122  064F                     u5511:
  5123  064F  2E59               	goto	l12101
  5124  0650                     u5510:
  5125                           	line	236
  5126                           	
  5127  0650                     l12099:	
  5128                           ;robot.c: 236: ROBOTerror = 11;
  5129  0650  300B               	movlw	(0Bh)
  5130  0651  1283               	bcf	status, 5	;RP0=0, select bank0
  5131  0652  1303               	bcf	status, 6	;RP1=0, select bank0
  5132  0653  00E4               	movwf	(??_robotFollow+0)+0
  5133  0654  0864               	movf	(??_robotFollow+0)+0,w
  5134  0655  1683               	bsf	status, 5	;RP0=1, select bank1
  5135  0656  1303               	bcf	status, 6	;RP1=0, select bank1
  5136  0657  00C9               	movwf	(_ROBOTerror)^080h
  5137  0658  2F9F               	goto	l12153
  5138                           	line	237
  5139                           	
  5140  0659                     l6249:	
  5141                           	line	238
  5142                           	
  5143  0659                     l12101:	
  5144                           ;robot.c: 237: else
  5145                           ;robot.c: 238: ROBOTerror = 10;
  5146  0659  300A               	movlw	(0Ah)
  5147  065A  1283               	bcf	status, 5	;RP0=0, select bank0
  5148  065B  1303               	bcf	status, 6	;RP1=0, select bank0
  5149  065C  00E4               	movwf	(??_robotFollow+0)+0
  5150  065D  0864               	movf	(??_robotFollow+0)+0,w
  5151  065E  1683               	bsf	status, 5	;RP0=1, select bank1
  5152  065F  1303               	bcf	status, 6	;RP1=0, select bank1
  5153  0660  00C9               	movwf	(_ROBOTerror)^080h
  5154  0661  2F9F               	goto	l12153
  5155                           	
  5156  0662                     l6250:	
  5157                           	line	240
  5158                           ;robot.c: 240: break;
  5159  0662  2F9F               	goto	l12153
  5160                           	line	241
  5161                           	
  5162  0663                     l12103:	
  5163                           ;robot.c: 241: }
  5164  0663  2E77               	goto	l6239
  5165                           	line	242
  5166                           	
  5167  0664                     l6244:	
  5168                           	line	244
  5169                           	
  5170  0664                     l12105:	
  5171                           ;robot.c: 242: else
  5172                           ;robot.c: 243: {
  5173                           ;robot.c: 244: RobotDrive(speed, 0x7FFF);
  5174  0664  1283               	bcf	status, 5	;RP0=0, select bank0
  5175  0665  1303               	bcf	status, 6	;RP1=0, select bank0
  5176  0666  0861               	movf	(robotFollow@speed+1),w
  5177  0667  01AA               	clrf	(?_RobotDrive+1)
  5178  0668  07AA               	addwf	(?_RobotDrive+1)
  5179  0669  0860               	movf	(robotFollow@speed),w
  5180  066A  01A9               	clrf	(?_RobotDrive)
  5181  066B  07A9               	addwf	(?_RobotDrive)
  5182                           
  5183  066C  30FF               	movlw	low(07FFFh)
  5184  066D  00AB               	movwf	0+(?_RobotDrive)+02h
  5185  066E  307F               	movlw	high(07FFFh)
  5186  066F  00AC               	movwf	(0+(?_RobotDrive)+02h)+1
  5187  0670  160A  158A  248C   	fcall	_RobotDrive
              120A  118A         
  5188  0675  2E77               	goto	l6239
  5189                           	line	245
  5190                           	
  5191  0676                     l6252:	
  5192  0676  2E77               	goto	l6239
  5193                           	
  5194  0677                     l6243:	
  5195                           	
  5196  0677                     l6239:	
  5197                           	line	246
  5198                           ;robot.c: 245: }
  5199                           ;robot.c: 246: robot_read(0);
  5200  0677  3000               	movlw	(0)
  5201  0678  160A  118A  26DE   	fcall	_robot_read
              120A  118A         
  5202                           	line	247
  5203                           	
  5204  067D                     l12107:	
  5205                           ;robot.c: 247: if (BumpSensors)
  5206  067D  1683               	bsf	status, 5	;RP0=1, select bank1
  5207  067E  1303               	bcf	status, 6	;RP1=0, select bank1
  5208  067F  0842               	movf	(_BumpSensors)^080h,w	;volatile
  5209  0680  1D03               	skipz
  5210  0681  2E83               	goto	u5520
  5211  0682  2E98               	goto	l12113
  5212  0683                     u5520:
  5213                           	line	249
  5214                           	
  5215  0683                     l12109:	
  5216                           ;robot.c: 248: {
  5217                           ;robot.c: 249: RobotDrive(0, 0x7FFF);
  5218  0683  3000               	movlw	low(0)
  5219  0684  1283               	bcf	status, 5	;RP0=0, select bank0
  5220  0685  1303               	bcf	status, 6	;RP1=0, select bank0
  5221  0686  00A9               	movwf	(?_RobotDrive)
  5222  0687  3000               	movlw	high(0)
  5223  0688  00AA               	movwf	((?_RobotDrive))+1
  5224  0689  30FF               	movlw	low(07FFFh)
  5225  068A  00AB               	movwf	0+(?_RobotDrive)+02h
  5226  068B  307F               	movlw	high(07FFFh)
  5227  068C  00AC               	movwf	(0+(?_RobotDrive)+02h)+1
  5228  068D  160A  158A  248C   	fcall	_RobotDrive
              120A  118A         
  5229                           	line	250
  5230                           	
  5231  0692                     l12111:	
  5232                           ;robot.c: 250: ROBOTerror = 1;
  5233  0692  1683               	bsf	status, 5	;RP0=1, select bank1
  5234  0693  1303               	bcf	status, 6	;RP1=0, select bank1
  5235  0694  01C9               	clrf	(_ROBOTerror)^080h
  5236  0695  1403               	bsf	status,0
  5237  0696  0DC9               	rlf	(_ROBOTerror)^080h,f
  5238                           	line	251
  5239                           ;robot.c: 251: break;
  5240  0697  2F9F               	goto	l12153
  5241                           	line	252
  5242                           	
  5243  0698                     l6253:	
  5244                           	line	253
  5245                           	
  5246  0698                     l12113:	
  5247                           ;robot.c: 252: }
  5248                           ;robot.c: 253: if (VwallSensor)
  5249  0698  084E               	movf	(_VwallSensor)^080h,w	;volatile
  5250  0699  1D03               	skipz
  5251  069A  2E9C               	goto	u5530
  5252  069B  2EB4               	goto	l12119
  5253  069C                     u5530:
  5254                           	line	255
  5255                           	
  5256  069C                     l12115:	
  5257                           ;robot.c: 254: {
  5258                           ;robot.c: 255: RobotDrive(0, 0x7FFF);
  5259  069C  3000               	movlw	low(0)
  5260  069D  1283               	bcf	status, 5	;RP0=0, select bank0
  5261  069E  1303               	bcf	status, 6	;RP1=0, select bank0
  5262  069F  00A9               	movwf	(?_RobotDrive)
  5263  06A0  3000               	movlw	high(0)
  5264  06A1  00AA               	movwf	((?_RobotDrive))+1
  5265  06A2  30FF               	movlw	low(07FFFh)
  5266  06A3  00AB               	movwf	0+(?_RobotDrive)+02h
  5267  06A4  307F               	movlw	high(07FFFh)
  5268  06A5  00AC               	movwf	(0+(?_RobotDrive)+02h)+1
  5269  06A6  160A  158A  248C   	fcall	_RobotDrive
              120A  118A         
  5270                           	line	256
  5271                           	
  5272  06AB                     l12117:	
  5273                           ;robot.c: 256: ROBOTerror = 2;
  5274  06AB  3002               	movlw	(02h)
  5275  06AC  1283               	bcf	status, 5	;RP0=0, select bank0
  5276  06AD  1303               	bcf	status, 6	;RP1=0, select bank0
  5277  06AE  00E4               	movwf	(??_robotFollow+0)+0
  5278  06AF  0864               	movf	(??_robotFollow+0)+0,w
  5279  06B0  1683               	bsf	status, 5	;RP0=1, select bank1
  5280  06B1  1303               	bcf	status, 6	;RP1=0, select bank1
  5281  06B2  00C9               	movwf	(_ROBOTerror)^080h
  5282                           	line	257
  5283                           ;robot.c: 257: break;
  5284  06B3  2F9F               	goto	l12153
  5285                           	line	258
  5286                           	
  5287  06B4                     l6254:	
  5288                           	line	259
  5289                           	
  5290  06B4                     l12119:	
  5291                           ;robot.c: 258: }
  5292                           ;robot.c: 259: if (CliffSensors)
  5293  06B4  0844               	movf	(_CliffSensors)^080h,w	;volatile
  5294  06B5  1D03               	skipz
  5295  06B6  2EB8               	goto	u5540
  5296  06B7  2ED0               	goto	l12125
  5297  06B8                     u5540:
  5298                           	line	261
  5299                           	
  5300  06B8                     l12121:	
  5301                           ;robot.c: 260: {
  5302                           ;robot.c: 261: RobotDrive(-200, 0x7FFF);
  5303  06B8  3038               	movlw	low(-200)
  5304  06B9  1283               	bcf	status, 5	;RP0=0, select bank0
  5305  06BA  1303               	bcf	status, 6	;RP1=0, select bank0
  5306  06BB  00A9               	movwf	(?_RobotDrive)
  5307  06BC  30FF               	movlw	high(-200)
  5308  06BD  00AA               	movwf	((?_RobotDrive))+1
  5309  06BE  30FF               	movlw	low(07FFFh)
  5310  06BF  00AB               	movwf	0+(?_RobotDrive)+02h
  5311  06C0  307F               	movlw	high(07FFFh)
  5312  06C1  00AC               	movwf	(0+(?_RobotDrive)+02h)+1
  5313  06C2  160A  158A  248C   	fcall	_RobotDrive
              120A  118A         
  5314                           	line	262
  5315                           	
  5316  06C7                     l12123:	
  5317                           ;robot.c: 262: ROBOTerror = 3;
  5318  06C7  3003               	movlw	(03h)
  5319  06C8  1283               	bcf	status, 5	;RP0=0, select bank0
  5320  06C9  1303               	bcf	status, 6	;RP1=0, select bank0
  5321  06CA  00E4               	movwf	(??_robotFollow+0)+0
  5322  06CB  0864               	movf	(??_robotFollow+0)+0,w
  5323  06CC  1683               	bsf	status, 5	;RP0=1, select bank1
  5324  06CD  1303               	bcf	status, 6	;RP1=0, select bank1
  5325  06CE  00C9               	movwf	(_ROBOTerror)^080h
  5326                           	line	263
  5327                           ;robot.c: 263: break;
  5328  06CF  2F9F               	goto	l12153
  5329                           	line	264
  5330                           	
  5331  06D0                     l6255:	
  5332                           	line	265
  5333                           	
  5334  06D0                     l12125:	
  5335                           ;robot.c: 264: }
  5336                           ;robot.c: 265: if (VictimSensor != 255)
  5337  06D0  084D               	movf	(_VictimSensor)^080h,w	;volatile
  5338  06D1  3AFF               	xorlw	0FFh
  5339  06D2  1903               	skipnz
  5340  06D3  2ED5               	goto	u5551
  5341  06D4  2ED6               	goto	u5550
  5342  06D5                     u5551:
  5343  06D5  2EEE               	goto	l12131
  5344  06D6                     u5550:
  5345                           	line	267
  5346                           	
  5347  06D6                     l12127:	
  5348                           ;robot.c: 266: {
  5349                           ;robot.c: 267: RobotDrive(0, 0x7FFF);
  5350  06D6  3000               	movlw	low(0)
  5351  06D7  1283               	bcf	status, 5	;RP0=0, select bank0
  5352  06D8  1303               	bcf	status, 6	;RP1=0, select bank0
  5353  06D9  00A9               	movwf	(?_RobotDrive)
  5354  06DA  3000               	movlw	high(0)
  5355  06DB  00AA               	movwf	((?_RobotDrive))+1
  5356  06DC  30FF               	movlw	low(07FFFh)
  5357  06DD  00AB               	movwf	0+(?_RobotDrive)+02h
  5358  06DE  307F               	movlw	high(07FFFh)
  5359  06DF  00AC               	movwf	(0+(?_RobotDrive)+02h)+1
  5360  06E0  160A  158A  248C   	fcall	_RobotDrive
              120A  118A         
  5361                           	line	268
  5362                           	
  5363  06E5                     l12129:	
  5364                           ;robot.c: 268: ROBOTerror = 4;
  5365  06E5  3004               	movlw	(04h)
  5366  06E6  1283               	bcf	status, 5	;RP0=0, select bank0
  5367  06E7  1303               	bcf	status, 6	;RP1=0, select bank0
  5368  06E8  00E4               	movwf	(??_robotFollow+0)+0
  5369  06E9  0864               	movf	(??_robotFollow+0)+0,w
  5370  06EA  1683               	bsf	status, 5	;RP0=1, select bank1
  5371  06EB  1303               	bcf	status, 6	;RP1=0, select bank1
  5372  06EC  00C9               	movwf	(_ROBOTerror)^080h
  5373                           	line	269
  5374                           ;robot.c: 269: break;
  5375  06ED  2F9F               	goto	l12153
  5376                           	line	270
  5377                           	
  5378  06EE                     l6256:	
  5379                           	line	271
  5380                           	
  5381  06EE                     l12131:	
  5382                           ;robot.c: 270: }
  5383                           ;robot.c: 271: temp1 = DistHighByte;
  5384  06EE  087D               	movf	(_DistHighByte),w	;volatile
  5385  06EF  1283               	bcf	status, 5	;RP0=0, select bank0
  5386  06F0  1303               	bcf	status, 6	;RP1=0, select bank0
  5387  06F1  00E4               	movwf	(??_robotFollow+0)+0
  5388  06F2  01E5               	clrf	(??_robotFollow+0)+0+1
  5389  06F3  0864               	movf	0+(??_robotFollow+0)+0,w
  5390  06F4  00E8               	movwf	(robotFollow@temp1)
  5391  06F5  0865               	movf	1+(??_robotFollow+0)+0,w
  5392  06F6  00E9               	movwf	(robotFollow@temp1+1)
  5393                           	line	272
  5394                           	
  5395  06F7                     l12133:	
  5396                           ;robot.c: 272: temp1 = temp1 << 8;
  5397  06F7  0869               	movf	(robotFollow@temp1+1),w
  5398  06F8  00E5               	movwf	(??_robotFollow+0)+0+1
  5399  06F9  0868               	movf	(robotFollow@temp1),w
  5400  06FA  00E4               	movwf	(??_robotFollow+0)+0
  5401  06FB  0864               	movf	(??_robotFollow+0)+0,w
  5402  06FC  00E5               	movwf	(??_robotFollow+0)+1
  5403  06FD  01E4               	clrf	(??_robotFollow+0)+0
  5404  06FE  0864               	movf	0+(??_robotFollow+0)+0,w
  5405  06FF  00E8               	movwf	(robotFollow@temp1)
  5406  0700  0865               	movf	1+(??_robotFollow+0)+0,w
  5407  0701  00E9               	movwf	(robotFollow@temp1+1)
  5408                           	line	273
  5409                           	
  5410  0702                     l12135:	
  5411                           ;robot.c: 273: temp1 += DistLowByte;
  5412  0702  1683               	bsf	status, 5	;RP0=1, select bank1
  5413  0703  1303               	bcf	status, 6	;RP1=0, select bank1
  5414  0704  0845               	movf	(_DistLowByte)^080h,w	;volatile
  5415  0705  1283               	bcf	status, 5	;RP0=0, select bank0
  5416  0706  1303               	bcf	status, 6	;RP1=0, select bank0
  5417  0707  00E4               	movwf	(??_robotFollow+0)+0
  5418  0708  01E5               	clrf	(??_robotFollow+0)+0+1
  5419  0709  0864               	movf	0+(??_robotFollow+0)+0,w
  5420  070A  07E8               	addwf	(robotFollow@temp1),f
  5421  070B  1803               	skipnc
  5422  070C  0AE9               	incf	(robotFollow@temp1+1),f
  5423  070D  0865               	movf	1+(??_robotFollow+0)+0,w
  5424  070E  07E9               	addwf	(robotFollow@temp1+1),f
  5425                           	line	274
  5426                           	
  5427  070F                     l12137:	
  5428                           ;robot.c: 274: distTravelled += temp1;
  5429  070F  0868               	movf	(robotFollow@temp1),w
  5430  0710  1683               	bsf	status, 5	;RP0=1, select bank1
  5431  0711  1303               	bcf	status, 6	;RP1=0, select bank1
  5432  0712  07B2               	addwf	(_distTravelled)^080h,f
  5433  0713  1803               	skipnc
  5434  0714  0AB3               	incf	(_distTravelled+1)^080h,f
  5435  0715  1283               	bcf	status, 5	;RP0=0, select bank0
  5436  0716  1303               	bcf	status, 6	;RP1=0, select bank0
  5437  0717  0869               	movf	(robotFollow@temp1+1),w
  5438  0718  1683               	bsf	status, 5	;RP0=1, select bank1
  5439  0719  1303               	bcf	status, 6	;RP1=0, select bank1
  5440  071A  07B3               	addwf	(_distTravelled+1)^080h,f
  5441                           	line	275
  5442                           	
  5443  071B                     l12139:	
  5444                           ;robot.c: 275: TotalDistTravelled += temp1;
  5445  071B  1283               	bcf	status, 5	;RP0=0, select bank0
  5446  071C  1303               	bcf	status, 6	;RP1=0, select bank0
  5447  071D  0868               	movf	(robotFollow@temp1),w
  5448  071E  1683               	bsf	status, 5	;RP0=1, select bank1
  5449  071F  1303               	bcf	status, 6	;RP1=0, select bank1
  5450  0720  07AC               	addwf	(_TotalDistTravelled)^080h,f
  5451  0721  1803               	skipnc
  5452  0722  0AAD               	incf	(_TotalDistTravelled+1)^080h,f
  5453  0723  1283               	bcf	status, 5	;RP0=0, select bank0
  5454  0724  1303               	bcf	status, 6	;RP1=0, select bank0
  5455  0725  0869               	movf	(robotFollow@temp1+1),w
  5456  0726  1683               	bsf	status, 5	;RP0=1, select bank1
  5457  0727  1303               	bcf	status, 6	;RP1=0, select bank1
  5458  0728  07AD               	addwf	(_TotalDistTravelled+1)^080h,f
  5459                           	line	276
  5460                           ;robot.c: 276: if (trackingDist > 0 && trackingDist <= TotalDistTravelled - 2050 )
  5461  0729  083F               	movf	(_trackingDist+1)^080h,w
  5462  072A  3A80               	xorlw	80h
  5463  072B  00FF               	movwf	btemp+1
  5464  072C  3080               	movlw	(high(01h))^80h
  5465  072D  027F               	subwf	btemp+1,w
  5466  072E  1D03               	skipz
  5467  072F  2F32               	goto	u5565
  5468  0730  3001               	movlw	low(01h)
  5469  0731  023E               	subwf	(_trackingDist)^080h,w
  5470  0732                     u5565:
  5471                           
  5472  0732  1C03               	skipc
  5473  0733  2F35               	goto	u5561
  5474  0734  2F36               	goto	u5560
  5475  0735                     u5561:
  5476  0735  2F87               	goto	l12149
  5477  0736                     u5560:
  5478                           	
  5479  0736                     l12141:	
  5480  0736  1683               	bsf	status, 5	;RP0=1, select bank1
  5481  0737  1303               	bcf	status, 6	;RP1=0, select bank1
  5482  0738  082C               	movf	(_TotalDistTravelled)^080h,w
  5483  0739  3EFE               	addlw	low(-2050)
  5484  073A  1283               	bcf	status, 5	;RP0=0, select bank0
  5485  073B  1303               	bcf	status, 6	;RP1=0, select bank0
  5486  073C  00E4               	movwf	(??_robotFollow+0)+0
  5487  073D  1683               	bsf	status, 5	;RP0=1, select bank1
  5488  073E  1303               	bcf	status, 6	;RP1=0, select bank1
  5489  073F  082D               	movf	(_TotalDistTravelled+1)^080h,w
  5490  0740  1803               	skipnc
  5491  0741  3E01               	addlw	1
  5492  0742  3EF7               	addlw	high(-2050)
  5493  0743  1283               	bcf	status, 5	;RP0=0, select bank0
  5494  0744  1303               	bcf	status, 6	;RP1=0, select bank0
  5495  0745  00E5               	movwf	1+(??_robotFollow+0)+0
  5496  0746  0865               	movf	1+(??_robotFollow+0)+0,w
  5497  0747  3A80               	xorlw	80h
  5498  0748  00E6               	movwf	(??_robotFollow+2)+0
  5499  0749  1683               	bsf	status, 5	;RP0=1, select bank1
  5500  074A  1303               	bcf	status, 6	;RP1=0, select bank1
  5501  074B  083F               	movf	(_trackingDist+1)^080h,w
  5502  074C  3A80               	xorlw	80h
  5503  074D  1283               	bcf	status, 5	;RP0=0, select bank0
  5504  074E  1303               	bcf	status, 6	;RP1=0, select bank0
  5505  074F  0266               	subwf	(??_robotFollow+2)+0,w
  5506  0750  1D03               	skipz
  5507  0751  2F58               	goto	u5575
  5508  0752  1683               	bsf	status, 5	;RP0=1, select bank1
  5509  0753  1303               	bcf	status, 6	;RP1=0, select bank1
  5510  0754  083E               	movf	(_trackingDist)^080h,w
  5511  0755  1283               	bcf	status, 5	;RP0=0, select bank0
  5512  0756  1303               	bcf	status, 6	;RP1=0, select bank0
  5513  0757  0264               	subwf	0+(??_robotFollow+0)+0,w
  5514  0758                     u5575:
  5515                           
  5516  0758  1C03               	skipc
  5517  0759  2F5B               	goto	u5571
  5518  075A  2F5C               	goto	u5570
  5519  075B                     u5571:
  5520  075B  2F87               	goto	l12149
  5521  075C                     u5570:
  5522                           	line	279
  5523                           	
  5524  075C                     l12143:	
  5525                           ;robot.c: 277: {
  5526                           ;robot.c: 279: robotTurnSpeed(80,400);
  5527  075C  3050               	movlw	low(050h)
  5528  075D  1283               	bcf	status, 5	;RP0=0, select bank0
  5529  075E  1303               	bcf	status, 6	;RP1=0, select bank0
  5530  075F  00D7               	movwf	(?_robotTurnSpeed)
  5531  0760  3000               	movlw	high(050h)
  5532  0761  00D8               	movwf	((?_robotTurnSpeed))+1
  5533  0762  3090               	movlw	low(0190h)
  5534  0763  00D9               	movwf	0+(?_robotTurnSpeed)+02h
  5535  0764  3001               	movlw	high(0190h)
  5536  0765  00DA               	movwf	(0+(?_robotTurnSpeed)+02h)+1
  5537  0766  160A  118A  2245   	fcall	_robotTurnSpeed
              120A  118A         
  5538                           	line	280
  5539                           ;robot.c: 280: robotMoveSpeed(400, 200);
  5540  076B  3090               	movlw	low(0190h)
  5541  076C  1283               	bcf	status, 5	;RP0=0, select bank0
  5542  076D  1303               	bcf	status, 6	;RP1=0, select bank0
  5543  076E  00D7               	movwf	(?_robotMoveSpeed)
  5544  076F  3001               	movlw	high(0190h)
  5545  0770  00D8               	movwf	((?_robotMoveSpeed))+1
  5546  0771  30C8               	movlw	low(0C8h)
  5547  0772  00D9               	movwf	0+(?_robotMoveSpeed)+02h
  5548  0773  3000               	movlw	high(0C8h)
  5549  0774  00DA               	movwf	(0+(?_robotMoveSpeed)+02h)+1
  5550  0775  160A  118A  25ED   	fcall	_robotMoveSpeed
              120A  118A         
  5551                           	line	281
  5552                           	
  5553  077A                     l12145:	
  5554                           ;robot.c: 281: trackingDist = 0;
  5555  077A  1683               	bsf	status, 5	;RP0=1, select bank1
  5556  077B  1303               	bcf	status, 6	;RP1=0, select bank1
  5557  077C  01BE               	clrf	(_trackingDist)^080h
  5558  077D  01BF               	clrf	(_trackingDist+1)^080h
  5559                           	line	282
  5560                           	
  5561  077E                     l12147:	
  5562                           ;robot.c: 282: RobotPos++;
  5563  077E  3001               	movlw	(01h)
  5564  077F  1283               	bcf	status, 5	;RP0=0, select bank0
  5565  0780  1303               	bcf	status, 6	;RP1=0, select bank0
  5566  0781  00E4               	movwf	(??_robotFollow+0)+0
  5567  0782  0864               	movf	(??_robotFollow+0)+0,w
  5568  0783  1683               	bsf	status, 5	;RP0=1, select bank1
  5569  0784  1303               	bcf	status, 6	;RP1=0, select bank1
  5570  0785  07CB               	addwf	(_RobotPos)^080h,f
  5571                           	line	285
  5572                           ;robot.c: 285: break;
  5573  0786  2F9F               	goto	l12153
  5574                           	line	286
  5575                           	
  5576  0787                     l6257:	
  5577                           	line	287
  5578                           	
  5579  0787                     l12149:	
  5580                           ;robot.c: 286: }
  5581                           ;robot.c: 287: Disp2 = RobotPos;
  5582  0787  1683               	bsf	status, 5	;RP0=1, select bank1
  5583  0788  1303               	bcf	status, 6	;RP1=0, select bank1
  5584  0789  084B               	movf	(_RobotPos)^080h,w
  5585  078A  1283               	bcf	status, 5	;RP0=0, select bank0
  5586  078B  1303               	bcf	status, 6	;RP1=0, select bank0
  5587  078C  00E4               	movwf	(??_robotFollow+0)+0
  5588  078D  01E5               	clrf	(??_robotFollow+0)+0+1
  5589  078E  0864               	movf	0+(??_robotFollow+0)+0,w
  5590  078F  1683               	bsf	status, 5	;RP0=1, select bank1
  5591  0790  1303               	bcf	status, 6	;RP1=0, select bank1
  5592  0791  00A6               	movwf	(_Disp2)^080h
  5593  0792  1283               	bcf	status, 5	;RP0=0, select bank0
  5594  0793  1303               	bcf	status, 6	;RP1=0, select bank0
  5595  0794  0865               	movf	1+(??_robotFollow+0)+0,w
  5596  0795  1683               	bsf	status, 5	;RP0=1, select bank1
  5597  0796  1303               	bcf	status, 6	;RP1=0, select bank1
  5598  0797  00A7               	movwf	(_Disp2+1)^080h
  5599                           	line	288
  5600                           	
  5601  0798                     l12151:	
  5602                           ;robot.c: 288: UpdateDisplay();
  5603  0798  120A  158A  257B   	fcall	_UpdateDisplay
              120A  118A         
  5604  079D  2CA6               	goto	l12041
  5605                           	line	289
  5606                           	
  5607  079E                     l6258:	
  5608                           	line	194
  5609  079E  2CA6               	goto	l12041
  5610                           	
  5611  079F                     l6251:	
  5612                           	line	291
  5613                           	
  5614  079F                     l12153:	
  5615                           ;robot.c: 289: }
  5616                           ;robot.c: 291: Disp2 = RobotPos;
  5617  079F  1683               	bsf	status, 5	;RP0=1, select bank1
  5618  07A0  1303               	bcf	status, 6	;RP1=0, select bank1
  5619  07A1  084B               	movf	(_RobotPos)^080h,w
  5620  07A2  1283               	bcf	status, 5	;RP0=0, select bank0
  5621  07A3  1303               	bcf	status, 6	;RP1=0, select bank0
  5622  07A4  00E4               	movwf	(??_robotFollow+0)+0
  5623  07A5  01E5               	clrf	(??_robotFollow+0)+0+1
  5624  07A6  0864               	movf	0+(??_robotFollow+0)+0,w
  5625  07A7  1683               	bsf	status, 5	;RP0=1, select bank1
  5626  07A8  1303               	bcf	status, 6	;RP1=0, select bank1
  5627  07A9  00A6               	movwf	(_Disp2)^080h
  5628  07AA  1283               	bcf	status, 5	;RP0=0, select bank0
  5629  07AB  1303               	bcf	status, 6	;RP1=0, select bank0
  5630  07AC  0865               	movf	1+(??_robotFollow+0)+0,w
  5631  07AD  1683               	bsf	status, 5	;RP0=1, select bank1
  5632  07AE  1303               	bcf	status, 6	;RP1=0, select bank1
  5633  07AF  00A7               	movwf	(_Disp2+1)^080h
  5634                           	line	292
  5635                           	
  5636  07B0                     l12155:	
  5637                           ;robot.c: 292: UpdateDisplay();
  5638  07B0  120A  158A  257B   	fcall	_UpdateDisplay
              120A  118A         
  5639                           	line	293
  5640                           	
  5641  07B5                     l6259:	
  5642  07B5  0008               	return
  5643                           	opt stack 0
  5644                           GLOBAL	__end_of_robotFollow
  5645  07B6                     	__end_of_robotFollow:
  5646 ;; =============== function _robotFollow ends ============
  5647                           
  5648                           	signat	_robotFollow,8312
  5649                           	global	_Init_Follow_IR
  5650                           psect	text1097,local,class=CODE,delta=2
  5651                           global __ptext1097
  5652  1AB1                     __ptext1097:
  5653                           
  5654 ;; *************** function _Init_Follow_IR *****************
  5655 ;; Defined at:
  5656 ;;		line 240 in file "E:\Aldnoah.Zero\Assignment3\Main.c"
  5657 ;; Parameters:    Size  Location     Type
  5658 ;;		None
  5659 ;; Auto vars:     Size  Location     Type
  5660 ;;		None
  5661 ;; Return value:  Size  Location     Type
  5662 ;;		None               void
  5663 ;; Registers used:
  5664 ;;		wreg, fsr0l, fsr0h, status,2, status,0, btemp+1, pclath, cstack
  5665 ;; Tracked objects:
  5666 ;;		On entry : 0/0
  5667 ;;		On exit  : 0/0
  5668 ;;		Unchanged: 0/0
  5669 ;; Data sizes:     COMMON   BANK0   BANK1   BANK3   BANK2
  5670 ;;      Params:         0       0       0       0       0
  5671 ;;      Locals:         0       0       0       0       0
  5672 ;;      Temps:          0       3       0       0       0
  5673 ;;      Totals:         0       3       0       0       0
  5674 ;;Total ram usage:        3 bytes
  5675 ;; Hardware stack levels used:    1
  5676 ;; Hardware stack levels required when called:    6
  5677 ;; This function calls:
  5678 ;;		_calibrateIR
  5679 ;;		_rotate
  5680 ;; This function is called by:
  5681 ;;		_main
  5682 ;; This function uses a non-reentrant model
  5683 ;;
  5684                           psect	text1097
  5685                           	file	"E:\Aldnoah.Zero\Assignment3\Main.c"
  5686                           	line	240
  5687                           	global	__size_of_Init_Follow_IR
  5688  0021                     	__size_of_Init_Follow_IR	equ	__end_of_Init_Follow_IR-_Init_Follow_IR
  5689                           	
  5690  1AB1                     _Init_Follow_IR:	
  5691                           	opt	stack 1
  5692                           ; Regs used in _Init_Follow_IR: [wreg-fsr0h+status,2+status,0+btemp+1+pclath+cstack]
  5693                           	line	241
  5694                           	
  5695  1AB1                     l12027:	
  5696                           ;Main.c: 241: calibrateIR();
  5697  1AB1  160A  158A  26A6   	fcall	_calibrateIR
              160A  158A         
  5698                           	line	242
  5699                           	
  5700  1AB6                     l12029:	
  5701                           ;Main.c: 242: _delay((unsigned long)((500)*(20000000/4000.0)));
  5702                           	opt asmopt_off
  5703  1AB6  300D               movlw  13
  5704  1AB7  1283               	bcf	status, 5	;RP0=0, select bank0
  5705  1AB8  1303               	bcf	status, 6	;RP1=0, select bank0
  5706  1AB9  00D9               movwf	((??_Init_Follow_IR+0)+0+2),f
  5707  1ABA  30AF               movlw	175
  5708  1ABB  00D8               movwf	((??_Init_Follow_IR+0)+0+1),f
  5709  1ABC  30C1               	movlw	193
  5710  1ABD  00D7               movwf	((??_Init_Follow_IR+0)+0),f
  5711  1ABE                     u5747:
  5712  1ABE  0BD7               	decfsz	((??_Init_Follow_IR+0)+0),f
  5713  1ABF  2ABE               	goto	u5747
  5714  1AC0  0BD8               	decfsz	((??_Init_Follow_IR+0)+0+1),f
  5715  1AC1  2ABE               	goto	u5747
  5716  1AC2  0BD9               	decfsz	((??_Init_Follow_IR+0)+0+2),f
  5717  1AC3  2ABE               	goto	u5747
  5718  1AC4  0064               	clrwdt
  5719                           opt asmopt_on
  5720                           
  5721                           	line	243
  5722                           	
  5723  1AC5                     l12031:	
  5724                           ;Main.c: 243: rotate(25, 0);
  5725  1AC5  3019               	movlw	low(019h)
  5726  1AC6  1283               	bcf	status, 5	;RP0=0, select bank0
  5727  1AC7  1303               	bcf	status, 6	;RP1=0, select bank0
  5728  1AC8  00A3               	movwf	(?_rotate)
  5729  1AC9  3000               	movlw	high(019h)
  5730  1ACA  00A4               	movwf	((?_rotate))+1
  5731  1ACB  01A5               	clrf	0+(?_rotate)+02h
  5732  1ACC  160A  158A  25D7   	fcall	_rotate
              160A  158A         
  5733                           	line	244
  5734                           	
  5735  1AD1                     l2312:	
  5736  1AD1  0008               	return
  5737                           	opt stack 0
  5738                           GLOBAL	__end_of_Init_Follow_IR
  5739  1AD2                     	__end_of_Init_Follow_IR:
  5740 ;; =============== function _Init_Follow_IR ends ============
  5741                           
  5742                           	signat	_Init_Follow_IR,88
  5743                           	global	_robotMoveSpeed
  5744                           psect	text1098,local,class=CODE,delta=2
  5745                           global __ptext1098
  5746  15ED                     __ptext1098:
  5747                           
  5748 ;; *************** function _robotMoveSpeed *****************
  5749 ;; Defined at:
  5750 ;;		line 513 in file "E:\Aldnoah.Zero\Assignment3\robot.c"
  5751 ;; Parameters:    Size  Location     Type
  5752 ;;  distance        2   55[BANK0 ] int 
  5753 ;;  speed           2   57[BANK0 ] int 
  5754 ;; Auto vars:     Size  Location     Type
  5755 ;;  temp1           2   62[BANK0 ] int 
  5756 ;; Return value:  Size  Location     Type
  5757 ;;		None               void
  5758 ;; Registers used:
  5759 ;;		wreg, fsr0l, fsr0h, status,2, status,0, btemp+1, pclath, cstack
  5760 ;; Tracked objects:
  5761 ;;		On entry : 0/0
  5762 ;;		On exit  : 0/0
  5763 ;;		Unchanged: 0/0
  5764 ;; Data sizes:     COMMON   BANK0   BANK1   BANK3   BANK2
  5765 ;;      Params:         0       4       0       0       0
  5766 ;;      Locals:         0       2       0       0       0
  5767 ;;      Temps:          0       3       0       0       0
  5768 ;;      Totals:         0       9       0       0       0
  5769 ;;Total ram usage:        9 bytes
  5770 ;; Hardware stack levels used:    1
  5771 ;; Hardware stack levels required when called:    5
  5772 ;; This function calls:
  5773 ;;		_RobotDrive
  5774 ;;		_robot_read
  5775 ;;		_UpdateDisplay
  5776 ;;		_abs
  5777 ;; This function is called by:
  5778 ;;		_GoHome
  5779 ;;		_FindVictim
  5780 ;;		_robotFollow
  5781 ;; This function uses a non-reentrant model
  5782 ;;
  5783                           psect	text1098
  5784                           	file	"E:\Aldnoah.Zero\Assignment3\robot.c"
  5785                           	line	513
  5786                           	global	__size_of_robotMoveSpeed
  5787  00F1                     	__size_of_robotMoveSpeed	equ	__end_of_robotMoveSpeed-_robotMoveSpeed
  5788                           	
  5789  15ED                     _robotMoveSpeed:	
  5790                           	opt	stack 1
  5791                           ; Regs used in _robotMoveSpeed: [wreg-fsr0h+status,2+status,0+btemp+1+pclath+cstack]
  5792                           	line	514
  5793                           	
  5794  15ED                     l11983:	
  5795                           ;robot.c: 514: distTravelled = 0;
  5796  15ED  1683               	bsf	status, 5	;RP0=1, select bank1
  5797  15EE  1303               	bcf	status, 6	;RP1=0, select bank1
  5798  15EF  01B2               	clrf	(_distTravelled)^080h
  5799  15F0  01B3               	clrf	(_distTravelled+1)^080h
  5800                           	line	516
  5801                           	
  5802  15F1                     l11985:	
  5803                           ;robot.c: 515: int temp1;
  5804                           ;robot.c: 516: RobotDrive(speed, 0x7FFF);
  5805  15F1  1283               	bcf	status, 5	;RP0=0, select bank0
  5806  15F2  1303               	bcf	status, 6	;RP1=0, select bank0
  5807  15F3  085A               	movf	(robotMoveSpeed@speed+1),w
  5808  15F4  01AA               	clrf	(?_RobotDrive+1)
  5809  15F5  07AA               	addwf	(?_RobotDrive+1)
  5810  15F6  0859               	movf	(robotMoveSpeed@speed),w
  5811  15F7  01A9               	clrf	(?_RobotDrive)
  5812  15F8  07A9               	addwf	(?_RobotDrive)
  5813                           
  5814  15F9  30FF               	movlw	low(07FFFh)
  5815  15FA  00AB               	movwf	0+(?_RobotDrive)+02h
  5816  15FB  307F               	movlw	high(07FFFh)
  5817  15FC  00AC               	movwf	(0+(?_RobotDrive)+02h)+1
  5818  15FD  160A  158A  248C   	fcall	_RobotDrive
              160A  118A         
  5819                           	line	519
  5820                           ;robot.c: 519: while (abs(distTravelled) < abs(distance))
  5821  1602  2E83               	goto	l12019
  5822                           	
  5823  1603                     l6318:	
  5824                           	line	521
  5825                           	
  5826  1603                     l11987:	
  5827                           ;robot.c: 520: {
  5828                           ;robot.c: 521: robot_read(0);
  5829  1603  3000               	movlw	(0)
  5830  1604  160A  118A  26DE   	fcall	_robot_read
              160A  118A         
  5831                           	line	522
  5832                           	
  5833  1609                     l11989:	
  5834                           ;robot.c: 522: if (BumpSensors)
  5835  1609  1683               	bsf	status, 5	;RP0=1, select bank1
  5836  160A  1303               	bcf	status, 6	;RP1=0, select bank1
  5837  160B  0842               	movf	(_BumpSensors)^080h,w	;volatile
  5838  160C  1D03               	skipz
  5839  160D  2E0F               	goto	u5320
  5840  160E  2E13               	goto	l11993
  5841  160F                     u5320:
  5842                           	line	524
  5843                           	
  5844  160F                     l11991:	
  5845                           ;robot.c: 523: {
  5846                           ;robot.c: 524: ROBOTerror = 1;
  5847  160F  01C9               	clrf	(_ROBOTerror)^080h
  5848  1610  1403               	bsf	status,0
  5849  1611  0DC9               	rlf	(_ROBOTerror)^080h,f
  5850                           	line	525
  5851                           ;robot.c: 525: break;
  5852  1612  2EB8               	goto	l12021
  5853                           	line	526
  5854                           	
  5855  1613                     l6319:	
  5856                           	line	527
  5857                           	
  5858  1613                     l11993:	
  5859                           ;robot.c: 526: }
  5860                           ;robot.c: 527: if (VwallSensor)
  5861  1613  084E               	movf	(_VwallSensor)^080h,w	;volatile
  5862  1614  1D03               	skipz
  5863  1615  2E17               	goto	u5330
  5864  1616  2E20               	goto	l11997
  5865  1617                     u5330:
  5866                           	line	529
  5867                           	
  5868  1617                     l11995:	
  5869                           ;robot.c: 528: {
  5870                           ;robot.c: 529: ROBOTerror = 2;
  5871  1617  3002               	movlw	(02h)
  5872  1618  1283               	bcf	status, 5	;RP0=0, select bank0
  5873  1619  1303               	bcf	status, 6	;RP1=0, select bank0
  5874  161A  00DB               	movwf	(??_robotMoveSpeed+0)+0
  5875  161B  085B               	movf	(??_robotMoveSpeed+0)+0,w
  5876  161C  1683               	bsf	status, 5	;RP0=1, select bank1
  5877  161D  1303               	bcf	status, 6	;RP1=0, select bank1
  5878  161E  00C9               	movwf	(_ROBOTerror)^080h
  5879                           	line	530
  5880                           ;robot.c: 530: break;
  5881  161F  2EB8               	goto	l12021
  5882                           	line	531
  5883                           	
  5884  1620                     l6321:	
  5885                           	line	532
  5886                           	
  5887  1620                     l11997:	
  5888                           ;robot.c: 531: }
  5889                           ;robot.c: 532: if (CliffSensors)
  5890  1620  0844               	movf	(_CliffSensors)^080h,w	;volatile
  5891  1621  1D03               	skipz
  5892  1622  2E24               	goto	u5340
  5893  1623  2E2D               	goto	l12001
  5894  1624                     u5340:
  5895                           	line	534
  5896                           	
  5897  1624                     l11999:	
  5898                           ;robot.c: 533: {
  5899                           ;robot.c: 534: ROBOTerror = 3;
  5900  1624  3003               	movlw	(03h)
  5901  1625  1283               	bcf	status, 5	;RP0=0, select bank0
  5902  1626  1303               	bcf	status, 6	;RP1=0, select bank0
  5903  1627  00DB               	movwf	(??_robotMoveSpeed+0)+0
  5904  1628  085B               	movf	(??_robotMoveSpeed+0)+0,w
  5905  1629  1683               	bsf	status, 5	;RP0=1, select bank1
  5906  162A  1303               	bcf	status, 6	;RP1=0, select bank1
  5907  162B  00C9               	movwf	(_ROBOTerror)^080h
  5908                           	line	535
  5909                           ;robot.c: 535: break;
  5910  162C  2EB8               	goto	l12021
  5911                           	line	536
  5912                           	
  5913  162D                     l6322:	
  5914                           	line	537
  5915                           	
  5916  162D                     l12001:	
  5917                           ;robot.c: 536: }
  5918                           ;robot.c: 537: if (VictimSensor != 255)
  5919  162D  084D               	movf	(_VictimSensor)^080h,w	;volatile
  5920  162E  3AFF               	xorlw	0FFh
  5921  162F  1903               	skipnz
  5922  1630  2E32               	goto	u5351
  5923  1631  2E33               	goto	u5350
  5924  1632                     u5351:
  5925  1632  2E3C               	goto	l12005
  5926  1633                     u5350:
  5927                           	line	539
  5928                           	
  5929  1633                     l12003:	
  5930                           ;robot.c: 538: {
  5931                           ;robot.c: 539: ROBOTerror = 4;
  5932  1633  3004               	movlw	(04h)
  5933  1634  1283               	bcf	status, 5	;RP0=0, select bank0
  5934  1635  1303               	bcf	status, 6	;RP1=0, select bank0
  5935  1636  00DB               	movwf	(??_robotMoveSpeed+0)+0
  5936  1637  085B               	movf	(??_robotMoveSpeed+0)+0,w
  5937  1638  1683               	bsf	status, 5	;RP0=1, select bank1
  5938  1639  1303               	bcf	status, 6	;RP1=0, select bank1
  5939  163A  00C9               	movwf	(_ROBOTerror)^080h
  5940                           	line	540
  5941                           ;robot.c: 540: break;
  5942  163B  2EB8               	goto	l12021
  5943                           	line	541
  5944                           	
  5945  163C                     l6323:	
  5946                           	line	542
  5947                           	
  5948  163C                     l12005:	
  5949                           ;robot.c: 541: }
  5950                           ;robot.c: 542: temp1 = DistHighByte;
  5951  163C  087D               	movf	(_DistHighByte),w	;volatile
  5952  163D  1283               	bcf	status, 5	;RP0=0, select bank0
  5953  163E  1303               	bcf	status, 6	;RP1=0, select bank0
  5954  163F  00DB               	movwf	(??_robotMoveSpeed+0)+0
  5955  1640  01DC               	clrf	(??_robotMoveSpeed+0)+0+1
  5956  1641  085B               	movf	0+(??_robotMoveSpeed+0)+0,w
  5957  1642  00DE               	movwf	(robotMoveSpeed@temp1)
  5958  1643  085C               	movf	1+(??_robotMoveSpeed+0)+0,w
  5959  1644  00DF               	movwf	(robotMoveSpeed@temp1+1)
  5960                           	line	543
  5961                           	
  5962  1645                     l12007:	
  5963                           ;robot.c: 543: temp1 = temp1 << 8;
  5964  1645  085F               	movf	(robotMoveSpeed@temp1+1),w
  5965  1646  00DC               	movwf	(??_robotMoveSpeed+0)+0+1
  5966  1647  085E               	movf	(robotMoveSpeed@temp1),w
  5967  1648  00DB               	movwf	(??_robotMoveSpeed+0)+0
  5968  1649  085B               	movf	(??_robotMoveSpeed+0)+0,w
  5969  164A  00DC               	movwf	(??_robotMoveSpeed+0)+1
  5970  164B  01DB               	clrf	(??_robotMoveSpeed+0)+0
  5971  164C  085B               	movf	0+(??_robotMoveSpeed+0)+0,w
  5972  164D  00DE               	movwf	(robotMoveSpeed@temp1)
  5973  164E  085C               	movf	1+(??_robotMoveSpeed+0)+0,w
  5974  164F  00DF               	movwf	(robotMoveSpeed@temp1+1)
  5975                           	line	544
  5976                           	
  5977  1650                     l12009:	
  5978                           ;robot.c: 544: temp1 += DistLowByte;
  5979  1650  1683               	bsf	status, 5	;RP0=1, select bank1
  5980  1651  1303               	bcf	status, 6	;RP1=0, select bank1
  5981  1652  0845               	movf	(_DistLowByte)^080h,w	;volatile
  5982  1653  1283               	bcf	status, 5	;RP0=0, select bank0
  5983  1654  1303               	bcf	status, 6	;RP1=0, select bank0
  5984  1655  00DB               	movwf	(??_robotMoveSpeed+0)+0
  5985  1656  01DC               	clrf	(??_robotMoveSpeed+0)+0+1
  5986  1657  085B               	movf	0+(??_robotMoveSpeed+0)+0,w
  5987  1658  07DE               	addwf	(robotMoveSpeed@temp1),f
  5988  1659  1803               	skipnc
  5989  165A  0ADF               	incf	(robotMoveSpeed@temp1+1),f
  5990  165B  085C               	movf	1+(??_robotMoveSpeed+0)+0,w
  5991  165C  07DF               	addwf	(robotMoveSpeed@temp1+1),f
  5992                           	line	545
  5993                           	
  5994  165D                     l12011:	
  5995                           ;robot.c: 545: distTravelled += temp1;
  5996  165D  085E               	movf	(robotMoveSpeed@temp1),w
  5997  165E  1683               	bsf	status, 5	;RP0=1, select bank1
  5998  165F  1303               	bcf	status, 6	;RP1=0, select bank1
  5999  1660  07B2               	addwf	(_distTravelled)^080h,f
  6000  1661  1803               	skipnc
  6001  1662  0AB3               	incf	(_distTravelled+1)^080h,f
  6002  1663  1283               	bcf	status, 5	;RP0=0, select bank0
  6003  1664  1303               	bcf	status, 6	;RP1=0, select bank0
  6004  1665  085F               	movf	(robotMoveSpeed@temp1+1),w
  6005  1666  1683               	bsf	status, 5	;RP0=1, select bank1
  6006  1667  1303               	bcf	status, 6	;RP1=0, select bank1
  6007  1668  07B3               	addwf	(_distTravelled+1)^080h,f
  6008                           	line	546
  6009                           	
  6010  1669                     l12013:	
  6011                           ;robot.c: 546: TotalDistTravelled += temp1;
  6012  1669  1283               	bcf	status, 5	;RP0=0, select bank0
  6013  166A  1303               	bcf	status, 6	;RP1=0, select bank0
  6014  166B  085E               	movf	(robotMoveSpeed@temp1),w
  6015  166C  1683               	bsf	status, 5	;RP0=1, select bank1
  6016  166D  1303               	bcf	status, 6	;RP1=0, select bank1
  6017  166E  07AC               	addwf	(_TotalDistTravelled)^080h,f
  6018  166F  1803               	skipnc
  6019  1670  0AAD               	incf	(_TotalDistTravelled+1)^080h,f
  6020  1671  1283               	bcf	status, 5	;RP0=0, select bank0
  6021  1672  1303               	bcf	status, 6	;RP1=0, select bank0
  6022  1673  085F               	movf	(robotMoveSpeed@temp1+1),w
  6023  1674  1683               	bsf	status, 5	;RP0=1, select bank1
  6024  1675  1303               	bcf	status, 6	;RP1=0, select bank1
  6025  1676  07AD               	addwf	(_TotalDistTravelled+1)^080h,f
  6026                           	line	547
  6027                           	
  6028  1677                     l12015:	
  6029                           ;robot.c: 547: Disp2 = distTravelled;
  6030  1677  0833               	movf	(_distTravelled+1)^080h,w
  6031  1678  01A7               	clrf	(_Disp2+1)^080h
  6032  1679  07A7               	addwf	(_Disp2+1)^080h
  6033  167A  0832               	movf	(_distTravelled)^080h,w
  6034  167B  01A6               	clrf	(_Disp2)^080h
  6035  167C  07A6               	addwf	(_Disp2)^080h
  6036                           
  6037                           	line	548
  6038                           	
  6039  167D                     l12017:	
  6040                           ;robot.c: 548: UpdateDisplay();
  6041  167D  120A  158A  257B   	fcall	_UpdateDisplay
              160A  118A         
  6042  1682  2E83               	goto	l12019
  6043                           	line	554
  6044                           	
  6045  1683                     l6317:	
  6046                           	line	519
  6047                           	
  6048  1683                     l12019:	
  6049  1683  1683               	bsf	status, 5	;RP0=1, select bank1
  6050  1684  1303               	bcf	status, 6	;RP1=0, select bank1
  6051  1685  0833               	movf	(_distTravelled+1)^080h,w
  6052  1686  1283               	bcf	status, 5	;RP0=0, select bank0
  6053  1687  1303               	bcf	status, 6	;RP1=0, select bank0
  6054  1688  01A7               	clrf	(?_abs+1)
  6055  1689  07A7               	addwf	(?_abs+1)
  6056  168A  1683               	bsf	status, 5	;RP0=1, select bank1
  6057  168B  1303               	bcf	status, 6	;RP1=0, select bank1
  6058  168C  0832               	movf	(_distTravelled)^080h,w
  6059  168D  1283               	bcf	status, 5	;RP0=0, select bank0
  6060  168E  1303               	bcf	status, 6	;RP1=0, select bank0
  6061  168F  01A6               	clrf	(?_abs)
  6062  1690  07A6               	addwf	(?_abs)
  6063                           
  6064  1691  160A  158A  2457   	fcall	_abs
              160A  118A         
  6065  1696  1283               	bcf	status, 5	;RP0=0, select bank0
  6066  1697  1303               	bcf	status, 6	;RP1=0, select bank0
  6067  1698  0826               	movf	(0+?_abs),w
  6068  1699  00DB               	movwf	(??_robotMoveSpeed+0)+0
  6069  169A  0827               	movf	(1+?_abs),w
  6070  169B  00DC               	movwf	((??_robotMoveSpeed+0)+0+1)
  6071  169C  0858               	movf	(robotMoveSpeed@distance+1),w
  6072  169D  01A7               	clrf	(?_abs+1)
  6073  169E  07A7               	addwf	(?_abs+1)
  6074  169F  0857               	movf	(robotMoveSpeed@distance),w
  6075  16A0  01A6               	clrf	(?_abs)
  6076  16A1  07A6               	addwf	(?_abs)
  6077                           
  6078  16A2  160A  158A  2457   	fcall	_abs
              160A  118A         
  6079  16A7  1283               	bcf	status, 5	;RP0=0, select bank0
  6080  16A8  1303               	bcf	status, 6	;RP1=0, select bank0
  6081  16A9  085C               	movf	1+(??_robotMoveSpeed+0)+0,w
  6082  16AA  3A80               	xorlw	80h
  6083  16AB  00DD               	movwf	(??_robotMoveSpeed+2)+0
  6084  16AC  0827               	movf	(1+(?_abs)),w
  6085  16AD  3A80               	xorlw	80h
  6086  16AE  025D               	subwf	(??_robotMoveSpeed+2)+0,w
  6087  16AF  1D03               	skipz
  6088  16B0  2EB3               	goto	u5365
  6089  16B1  0826               	movf	(0+(?_abs)),w
  6090  16B2  025B               	subwf	0+(??_robotMoveSpeed+0)+0,w
  6091  16B3                     u5365:
  6092                           
  6093  16B3  1C03               	skipc
  6094  16B4  2EB6               	goto	u5361
  6095  16B5  2EB7               	goto	u5360
  6096  16B6                     u5361:
  6097  16B6  2E03               	goto	l11987
  6098  16B7                     u5360:
  6099  16B7  2EB8               	goto	l12021
  6100                           	
  6101  16B8                     l6320:	
  6102                           	line	555
  6103                           	
  6104  16B8                     l12021:	
  6105                           ;robot.c: 554: }
  6106                           ;robot.c: 555: Disp2 = ROBOTerror;
  6107  16B8  1683               	bsf	status, 5	;RP0=1, select bank1
  6108  16B9  1303               	bcf	status, 6	;RP1=0, select bank1
  6109  16BA  0849               	movf	(_ROBOTerror)^080h,w
  6110  16BB  1283               	bcf	status, 5	;RP0=0, select bank0
  6111  16BC  1303               	bcf	status, 6	;RP1=0, select bank0
  6112  16BD  00DB               	movwf	(??_robotMoveSpeed+0)+0
  6113  16BE  01DC               	clrf	(??_robotMoveSpeed+0)+0+1
  6114  16BF  085B               	movf	0+(??_robotMoveSpeed+0)+0,w
  6115  16C0  1683               	bsf	status, 5	;RP0=1, select bank1
  6116  16C1  1303               	bcf	status, 6	;RP1=0, select bank1
  6117  16C2  00A6               	movwf	(_Disp2)^080h
  6118  16C3  1283               	bcf	status, 5	;RP0=0, select bank0
  6119  16C4  1303               	bcf	status, 6	;RP1=0, select bank0
  6120  16C5  085C               	movf	1+(??_robotMoveSpeed+0)+0,w
  6121  16C6  1683               	bsf	status, 5	;RP0=1, select bank1
  6122  16C7  1303               	bcf	status, 6	;RP1=0, select bank1
  6123  16C8  00A7               	movwf	(_Disp2+1)^080h
  6124                           	line	556
  6125                           	
  6126  16C9                     l12023:	
  6127                           ;robot.c: 556: UpdateDisplay();
  6128  16C9  120A  158A  257B   	fcall	_UpdateDisplay
              160A  118A         
  6129                           	line	557
  6130                           	
  6131  16CE                     l12025:	
  6132                           ;robot.c: 557: RobotDrive(0, 0x7FFF);
  6133  16CE  3000               	movlw	low(0)
  6134  16CF  1283               	bcf	status, 5	;RP0=0, select bank0
  6135  16D0  1303               	bcf	status, 6	;RP1=0, select bank0
  6136  16D1  00A9               	movwf	(?_RobotDrive)
  6137  16D2  3000               	movlw	high(0)
  6138  16D3  00AA               	movwf	((?_RobotDrive))+1
  6139  16D4  30FF               	movlw	low(07FFFh)
  6140  16D5  00AB               	movwf	0+(?_RobotDrive)+02h
  6141  16D6  307F               	movlw	high(07FFFh)
  6142  16D7  00AC               	movwf	(0+(?_RobotDrive)+02h)+1
  6143  16D8  160A  158A  248C   	fcall	_RobotDrive
              160A  118A         
  6144                           	line	559
  6145                           	
  6146  16DD                     l6324:	
  6147  16DD  0008               	return
  6148                           	opt stack 0
  6149                           GLOBAL	__end_of_robotMoveSpeed
  6150  16DE                     	__end_of_robotMoveSpeed:
  6151 ;; =============== function _robotMoveSpeed ends ============
  6152                           
  6153                           	signat	_robotMoveSpeed,8312
  6154                           	global	_robot_turnArc
  6155                           psect	text1099,local,class=CODE,delta=2
  6156                           global __ptext1099
  6157  0015                     __ptext1099:
  6158                           
  6159 ;; *************** function _robot_turnArc *****************
  6160 ;; Defined at:
  6161 ;;		line 334 in file "E:\Aldnoah.Zero\Assignment3\robot.c"
  6162 ;; Parameters:    Size  Location     Type
  6163 ;;  speed           2   55[BANK0 ] int 
  6164 ;; Auto vars:     Size  Location     Type
  6165 ;;  temp1           2   64[BANK0 ] int 
  6166 ;;  AdcTarget       2   62[BANK0 ] int 
  6167 ;;  turnTarget      2   60[BANK0 ] int 
  6168 ;; Return value:  Size  Location     Type
  6169 ;;		None               void
  6170 ;; Registers used:
  6171 ;;		wreg, fsr0l, fsr0h, status,2, status,0, btemp+1, pclath, cstack
  6172 ;; Tracked objects:
  6173 ;;		On entry : 0/0
  6174 ;;		On exit  : 0/0
  6175 ;;		Unchanged: 0/0
  6176 ;; Data sizes:     COMMON   BANK0   BANK1   BANK3   BANK2
  6177 ;;      Params:         0       2       0       0       0
  6178 ;;      Locals:         0       6       0       0       0
  6179 ;;      Temps:          0       3       0       0       0
  6180 ;;      Totals:         0      11       0       0       0
  6181 ;;Total ram usage:       11 bytes
  6182 ;; Hardware stack levels used:    1
  6183 ;; Hardware stack levels required when called:    6
  6184 ;; This function calls:
  6185 ;;		_RobotDrive
  6186 ;;		_rotate
  6187 ;;		_readAvgDistance
  6188 ;;		_robot_read
  6189 ;;		_UpdateDisplay
  6190 ;;		___awdiv
  6191 ;;		_abs
  6192 ;; This function is called by:
  6193 ;;		_GoHome
  6194 ;;		_FindVictim
  6195 ;; This function uses a non-reentrant model
  6196 ;;
  6197                           psect	text1099
  6198                           	file	"E:\Aldnoah.Zero\Assignment3\robot.c"
  6199                           	line	334
  6200                           	global	__size_of_robot_turnArc
  6201  0474                     	__size_of_robot_turnArc	equ	__end_of_robot_turnArc-_robot_turnArc
  6202                           	
  6203  0015                     _robot_turnArc:	
  6204                           	opt	stack 0
  6205                           ; Regs used in _robot_turnArc: [wreg-fsr0h+status,2+status,0+btemp+1+pclath+cstack]
  6206                           	line	336
  6207                           	
  6208  0015                     l11803:	
  6209                           ;robot.c: 336: angleTurned = 0;
  6210  0015  1683               	bsf	status, 5	;RP0=1, select bank1
  6211  0016  1303               	bcf	status, 6	;RP1=0, select bank1
  6212  0017  01B0               	clrf	(_angleTurned)^080h
  6213  0018  01B1               	clrf	(_angleTurned+1)^080h
  6214                           	line	338
  6215                           ;robot.c: 337: int temp1;
  6216                           ;robot.c: 338: int turnTarget = 0;
  6217  0019  1283               	bcf	status, 5	;RP0=0, select bank0
  6218  001A  1303               	bcf	status, 6	;RP1=0, select bank0
  6219  001B  01DC               	clrf	(robot_turnArc@turnTarget)
  6220  001C  01DD               	clrf	(robot_turnArc@turnTarget+1)
  6221                           	line	339
  6222                           	
  6223  001D                     l11805:	
  6224                           ;robot.c: 339: RobotDrive(speed, 0x7FFF);
  6225  001D  0858               	movf	(robot_turnArc@speed+1),w
  6226  001E  01AA               	clrf	(?_RobotDrive+1)
  6227  001F  07AA               	addwf	(?_RobotDrive+1)
  6228  0020  0857               	movf	(robot_turnArc@speed),w
  6229  0021  01A9               	clrf	(?_RobotDrive)
  6230  0022  07A9               	addwf	(?_RobotDrive)
  6231                           
  6232  0023  30FF               	movlw	low(07FFFh)
  6233  0024  00AB               	movwf	0+(?_RobotDrive)+02h
  6234  0025  307F               	movlw	high(07FFFh)
  6235  0026  00AC               	movwf	(0+(?_RobotDrive)+02h)+1
  6236  0027  160A  158A  248C   	fcall	_RobotDrive
              120A  118A         
  6237                           	line	340
  6238                           	
  6239  002C                     l11807:	
  6240                           ;robot.c: 340: ROBOTerror = 0;
  6241  002C  1683               	bsf	status, 5	;RP0=1, select bank1
  6242  002D  1303               	bcf	status, 6	;RP1=0, select bank1
  6243  002E  01C9               	clrf	(_ROBOTerror)^080h
  6244                           	line	341
  6245                           	
  6246  002F                     l11809:	
  6247                           ;robot.c: 341: if (followDir == 0)
  6248  002F  08D1               	movf	(_followDir)^080h,f
  6249  0030  1D03               	skipz
  6250  0031  2833               	goto	u5131
  6251  0032  2834               	goto	u5130
  6252  0033                     u5131:
  6253  0033  2841               	goto	l11813
  6254  0034                     u5130:
  6255                           	line	343
  6256                           	
  6257  0034                     l11811:	
  6258                           ;robot.c: 342: {
  6259                           ;robot.c: 343: rotate(25,0);
  6260  0034  3019               	movlw	low(019h)
  6261  0035  1283               	bcf	status, 5	;RP0=0, select bank0
  6262  0036  1303               	bcf	status, 6	;RP1=0, select bank0
  6263  0037  00A3               	movwf	(?_rotate)
  6264  0038  3000               	movlw	high(019h)
  6265  0039  00A4               	movwf	((?_rotate))+1
  6266  003A  01A5               	clrf	0+(?_rotate)+02h
  6267  003B  160A  158A  25D7   	fcall	_rotate
              120A  118A         
  6268                           	line	344
  6269                           ;robot.c: 344: }
  6270  0040  2850               	goto	l11815
  6271                           	line	345
  6272                           	
  6273  0041                     l6276:	
  6274                           	line	347
  6275                           	
  6276  0041                     l11813:	
  6277                           ;robot.c: 345: else
  6278                           ;robot.c: 346: {
  6279                           ;robot.c: 347: rotate(25,1);
  6280  0041  3019               	movlw	low(019h)
  6281  0042  1283               	bcf	status, 5	;RP0=0, select bank0
  6282  0043  1303               	bcf	status, 6	;RP1=0, select bank0
  6283  0044  00A3               	movwf	(?_rotate)
  6284  0045  3000               	movlw	high(019h)
  6285  0046  00A4               	movwf	((?_rotate))+1
  6286  0047  01A5               	clrf	0+(?_rotate)+02h
  6287  0048  1403               	bsf	status,0
  6288  0049  0DA5               	rlf	0+(?_rotate)+02h,f
  6289  004A  160A  158A  25D7   	fcall	_rotate
              120A  118A         
  6290  004F  2850               	goto	l11815
  6291                           	line	348
  6292                           	
  6293  0050                     l6277:	
  6294                           	line	349
  6295                           	
  6296  0050                     l11815:	
  6297                           ;robot.c: 348: }
  6298                           ;robot.c: 349: readAvgDistance();
  6299  0050  160A  118A  2145   	fcall	_readAvgDistance
              120A  118A         
  6300                           	line	350
  6301                           	
  6302  0055                     l11817:	
  6303                           ;robot.c: 350: int AdcTarget = adcVal;
  6304  0055  1683               	bsf	status, 5	;RP0=1, select bank1
  6305  0056  1303               	bcf	status, 6	;RP1=0, select bank1
  6306  0057  082F               	movf	(_adcVal+1)^080h,w	;volatile
  6307  0058  1283               	bcf	status, 5	;RP0=0, select bank0
  6308  0059  1303               	bcf	status, 6	;RP1=0, select bank0
  6309  005A  01DF               	clrf	(robot_turnArc@AdcTarget+1)	;volatile
  6310  005B  07DF               	addwf	(robot_turnArc@AdcTarget+1)	;volatile
  6311  005C  1683               	bsf	status, 5	;RP0=1, select bank1
  6312  005D  1303               	bcf	status, 6	;RP1=0, select bank1
  6313  005E  082E               	movf	(_adcVal)^080h,w	;volatile
  6314  005F  1283               	bcf	status, 5	;RP0=0, select bank0
  6315  0060  1303               	bcf	status, 6	;RP1=0, select bank0
  6316  0061  01DE               	clrf	(robot_turnArc@AdcTarget)	;volatile
  6317  0062  07DE               	addwf	(robot_turnArc@AdcTarget)	;volatile
  6318                           
  6319  0063  2864               	goto	l11819
  6320                           	line	352
  6321                           ;robot.c: 352: while (1)
  6322                           	
  6323  0064                     l6278:	
  6324                           	line	354
  6325                           	
  6326  0064                     l11819:	
  6327                           ;robot.c: 353: {
  6328                           ;robot.c: 354: readAvgDistance();
  6329  0064  160A  118A  2145   	fcall	_readAvgDistance
              120A  118A         
  6330                           	line	355
  6331                           	
  6332  0069                     l11821:	
  6333                           ;robot.c: 355: if (adcVal > (AdcTarget) && adcVal < (AdcTarget + 15))
  6334  0069  1683               	bsf	status, 5	;RP0=1, select bank1
  6335  006A  1303               	bcf	status, 6	;RP1=0, select bank1
  6336  006B  082F               	movf	(_adcVal+1)^080h,w	;volatile
  6337  006C  1283               	bcf	status, 5	;RP0=0, select bank0
  6338  006D  1303               	bcf	status, 6	;RP1=0, select bank0
  6339  006E  025F               	subwf	(robot_turnArc@AdcTarget+1),w
  6340  006F  1D03               	skipz
  6341  0070  2877               	goto	u5145
  6342  0071  1683               	bsf	status, 5	;RP0=1, select bank1
  6343  0072  1303               	bcf	status, 6	;RP1=0, select bank1
  6344  0073  082E               	movf	(_adcVal)^080h,w	;volatile
  6345  0074  1283               	bcf	status, 5	;RP0=0, select bank0
  6346  0075  1303               	bcf	status, 6	;RP1=0, select bank0
  6347  0076  025E               	subwf	(robot_turnArc@AdcTarget),w
  6348  0077                     u5145:
  6349  0077  1803               	skipnc
  6350  0078  287A               	goto	u5141
  6351  0079  287B               	goto	u5140
  6352  007A                     u5141:
  6353  007A  28A5               	goto	l11827
  6354  007B                     u5140:
  6355                           	
  6356  007B                     l11823:	
  6357  007B  085E               	movf	(robot_turnArc@AdcTarget),w
  6358  007C  3E0F               	addlw	low(0Fh)
  6359  007D  00D9               	movwf	(??_robot_turnArc+0)+0
  6360  007E  085F               	movf	(robot_turnArc@AdcTarget+1),w
  6361  007F  1803               	skipnc
  6362  0080  3E01               	addlw	1
  6363  0081  3E00               	addlw	high(0Fh)
  6364  0082  00DA               	movwf	1+(??_robot_turnArc+0)+0
  6365  0083  085A               	movf	1+(??_robot_turnArc+0)+0,w
  6366  0084  1683               	bsf	status, 5	;RP0=1, select bank1
  6367  0085  1303               	bcf	status, 6	;RP1=0, select bank1
  6368  0086  022F               	subwf	(_adcVal+1)^080h,w	;volatile
  6369  0087  1D03               	skipz
  6370  0088  288F               	goto	u5155
  6371  0089  1283               	bcf	status, 5	;RP0=0, select bank0
  6372  008A  1303               	bcf	status, 6	;RP1=0, select bank0
  6373  008B  0859               	movf	0+(??_robot_turnArc+0)+0,w
  6374  008C  1683               	bsf	status, 5	;RP0=1, select bank1
  6375  008D  1303               	bcf	status, 6	;RP1=0, select bank1
  6376  008E  022E               	subwf	(_adcVal)^080h,w	;volatile
  6377  008F                     u5155:
  6378  008F  1803               	skipnc
  6379  0090  2892               	goto	u5151
  6380  0091  2893               	goto	u5150
  6381  0092                     u5151:
  6382  0092  28A5               	goto	l11827
  6383  0093                     u5150:
  6384                           	line	357
  6385                           	
  6386  0093                     l11825:	
  6387                           ;robot.c: 356: {
  6388                           ;robot.c: 357: RobotDrive(speed, 1700);
  6389  0093  1283               	bcf	status, 5	;RP0=0, select bank0
  6390  0094  1303               	bcf	status, 6	;RP1=0, select bank0
  6391  0095  0858               	movf	(robot_turnArc@speed+1),w
  6392  0096  01AA               	clrf	(?_RobotDrive+1)
  6393  0097  07AA               	addwf	(?_RobotDrive+1)
  6394  0098  0857               	movf	(robot_turnArc@speed),w
  6395  0099  01A9               	clrf	(?_RobotDrive)
  6396  009A  07A9               	addwf	(?_RobotDrive)
  6397                           
  6398  009B  30A4               	movlw	low(06A4h)
  6399  009C  00AB               	movwf	0+(?_RobotDrive)+02h
  6400  009D  3006               	movlw	high(06A4h)
  6401  009E  00AC               	movwf	(0+(?_RobotDrive)+02h)+1
  6402  009F  160A  158A  248C   	fcall	_RobotDrive
              120A  118A         
  6403                           	line	358
  6404                           ;robot.c: 358: }
  6405  00A4  292D               	goto	l6280
  6406                           	line	359
  6407                           	
  6408  00A5                     l6279:	
  6409                           	
  6410  00A5                     l11827:	
  6411                           ;robot.c: 359: else if (adcVal < (AdcTarget) && adcVal > (AdcTarget - 15))
  6412  00A5  1283               	bcf	status, 5	;RP0=0, select bank0
  6413  00A6  1303               	bcf	status, 6	;RP1=0, select bank0
  6414  00A7  085F               	movf	(robot_turnArc@AdcTarget+1),w
  6415  00A8  1683               	bsf	status, 5	;RP0=1, select bank1
  6416  00A9  1303               	bcf	status, 6	;RP1=0, select bank1
  6417  00AA  022F               	subwf	(_adcVal+1)^080h,w	;volatile
  6418  00AB  1D03               	skipz
  6419  00AC  28B3               	goto	u5165
  6420  00AD  1283               	bcf	status, 5	;RP0=0, select bank0
  6421  00AE  1303               	bcf	status, 6	;RP1=0, select bank0
  6422  00AF  085E               	movf	(robot_turnArc@AdcTarget),w
  6423  00B0  1683               	bsf	status, 5	;RP0=1, select bank1
  6424  00B1  1303               	bcf	status, 6	;RP1=0, select bank1
  6425  00B2  022E               	subwf	(_adcVal)^080h,w	;volatile
  6426  00B3                     u5165:
  6427  00B3  1803               	skipnc
  6428  00B4  28B6               	goto	u5161
  6429  00B5  28B7               	goto	u5160
  6430  00B6                     u5161:
  6431  00B6  28E3               	goto	l11833
  6432  00B7                     u5160:
  6433                           	
  6434  00B7                     l11829:	
  6435  00B7  1283               	bcf	status, 5	;RP0=0, select bank0
  6436  00B8  1303               	bcf	status, 6	;RP1=0, select bank0
  6437  00B9  085E               	movf	(robot_turnArc@AdcTarget),w
  6438  00BA  3EF1               	addlw	low(0FFF1h)
  6439  00BB  00D9               	movwf	(??_robot_turnArc+0)+0
  6440  00BC  085F               	movf	(robot_turnArc@AdcTarget+1),w
  6441  00BD  1803               	skipnc
  6442  00BE  3E01               	addlw	1
  6443  00BF  3EFF               	addlw	high(0FFF1h)
  6444  00C0  00DA               	movwf	1+(??_robot_turnArc+0)+0
  6445  00C1  1683               	bsf	status, 5	;RP0=1, select bank1
  6446  00C2  1303               	bcf	status, 6	;RP1=0, select bank1
  6447  00C3  082F               	movf	(_adcVal+1)^080h,w	;volatile
  6448  00C4  1283               	bcf	status, 5	;RP0=0, select bank0
  6449  00C5  1303               	bcf	status, 6	;RP1=0, select bank0
  6450  00C6  025A               	subwf	1+(??_robot_turnArc+0)+0,w
  6451  00C7  1D03               	skipz
  6452  00C8  28CF               	goto	u5175
  6453  00C9  1683               	bsf	status, 5	;RP0=1, select bank1
  6454  00CA  1303               	bcf	status, 6	;RP1=0, select bank1
  6455  00CB  082E               	movf	(_adcVal)^080h,w	;volatile
  6456  00CC  1283               	bcf	status, 5	;RP0=0, select bank0
  6457  00CD  1303               	bcf	status, 6	;RP1=0, select bank0
  6458  00CE  0259               	subwf	0+(??_robot_turnArc+0)+0,w
  6459  00CF                     u5175:
  6460  00CF  1803               	skipnc
  6461  00D0  28D2               	goto	u5171
  6462  00D1  28D3               	goto	u5170
  6463  00D2                     u5171:
  6464  00D2  28E3               	goto	l11833
  6465  00D3                     u5170:
  6466                           	line	361
  6467                           	
  6468  00D3                     l11831:	
  6469                           ;robot.c: 360: {
  6470                           ;robot.c: 361: RobotDrive(speed, -1700);
  6471  00D3  0858               	movf	(robot_turnArc@speed+1),w
  6472  00D4  01AA               	clrf	(?_RobotDrive+1)
  6473  00D5  07AA               	addwf	(?_RobotDrive+1)
  6474  00D6  0857               	movf	(robot_turnArc@speed),w
  6475  00D7  01A9               	clrf	(?_RobotDrive)
  6476  00D8  07A9               	addwf	(?_RobotDrive)
  6477                           
  6478  00D9  305C               	movlw	low(-1700)
  6479  00DA  00AB               	movwf	0+(?_RobotDrive)+02h
  6480  00DB  30F9               	movlw	high(-1700)
  6481  00DC  00AC               	movwf	(0+(?_RobotDrive)+02h)+1
  6482  00DD  160A  158A  248C   	fcall	_RobotDrive
              120A  118A         
  6483                           	line	362
  6484                           ;robot.c: 362: }
  6485  00E2  292D               	goto	l6280
  6486                           	line	363
  6487                           	
  6488  00E3                     l6281:	
  6489                           	
  6490  00E3                     l11833:	
  6491                           ;robot.c: 363: else if (adcVal <= (AdcTarget - 50) || adcVal >= (AdcTarget + 15))
  6492  00E3  1283               	bcf	status, 5	;RP0=0, select bank0
  6493  00E4  1303               	bcf	status, 6	;RP1=0, select bank0
  6494  00E5  085E               	movf	(robot_turnArc@AdcTarget),w
  6495  00E6  3ECE               	addlw	low(0FFCEh)
  6496  00E7  00D9               	movwf	(??_robot_turnArc+0)+0
  6497  00E8  085F               	movf	(robot_turnArc@AdcTarget+1),w
  6498  00E9  1803               	skipnc
  6499  00EA  3E01               	addlw	1
  6500  00EB  3EFF               	addlw	high(0FFCEh)
  6501  00EC  00DA               	movwf	1+(??_robot_turnArc+0)+0
  6502  00ED  1683               	bsf	status, 5	;RP0=1, select bank1
  6503  00EE  1303               	bcf	status, 6	;RP1=0, select bank1
  6504  00EF  082F               	movf	(_adcVal+1)^080h,w	;volatile
  6505  00F0  1283               	bcf	status, 5	;RP0=0, select bank0
  6506  00F1  1303               	bcf	status, 6	;RP1=0, select bank0
  6507  00F2  025A               	subwf	1+(??_robot_turnArc+0)+0,w
  6508  00F3  1D03               	skipz
  6509  00F4  28FB               	goto	u5185
  6510  00F5  1683               	bsf	status, 5	;RP0=1, select bank1
  6511  00F6  1303               	bcf	status, 6	;RP1=0, select bank1
  6512  00F7  082E               	movf	(_adcVal)^080h,w	;volatile
  6513  00F8  1283               	bcf	status, 5	;RP0=0, select bank0
  6514  00F9  1303               	bcf	status, 6	;RP1=0, select bank0
  6515  00FA  0259               	subwf	0+(??_robot_turnArc+0)+0,w
  6516  00FB                     u5185:
  6517  00FB  1803               	skipnc
  6518  00FC  28FE               	goto	u5181
  6519  00FD  28FF               	goto	u5180
  6520  00FE                     u5181:
  6521  00FE  2A22               	goto	l11881
  6522  00FF                     u5180:
  6523                           	
  6524  00FF                     l11835:	
  6525  00FF  085E               	movf	(robot_turnArc@AdcTarget),w
  6526  0100  3E0F               	addlw	low(0Fh)
  6527  0101  00D9               	movwf	(??_robot_turnArc+0)+0
  6528  0102  085F               	movf	(robot_turnArc@AdcTarget+1),w
  6529  0103  1803               	skipnc
  6530  0104  3E01               	addlw	1
  6531  0105  3E00               	addlw	high(0Fh)
  6532  0106  00DA               	movwf	1+(??_robot_turnArc+0)+0
  6533  0107  085A               	movf	1+(??_robot_turnArc+0)+0,w
  6534  0108  1683               	bsf	status, 5	;RP0=1, select bank1
  6535  0109  1303               	bcf	status, 6	;RP1=0, select bank1
  6536  010A  022F               	subwf	(_adcVal+1)^080h,w	;volatile
  6537  010B  1D03               	skipz
  6538  010C  2913               	goto	u5195
  6539  010D  1283               	bcf	status, 5	;RP0=0, select bank0
  6540  010E  1303               	bcf	status, 6	;RP1=0, select bank0
  6541  010F  0859               	movf	0+(??_robot_turnArc+0)+0,w
  6542  0110  1683               	bsf	status, 5	;RP0=1, select bank1
  6543  0111  1303               	bcf	status, 6	;RP1=0, select bank1
  6544  0112  022E               	subwf	(_adcVal)^080h,w	;volatile
  6545  0113                     u5195:
  6546  0113  1C03               	skipc
  6547  0114  2916               	goto	u5191
  6548  0115  2917               	goto	u5190
  6549  0116                     u5191:
  6550  0116  291A               	goto	l11839
  6551  0117                     u5190:
  6552  0117  2A22               	goto	l11881
  6553                           	
  6554  0118                     l6285:	
  6555                           	line	365
  6556                           ;robot.c: 364: {
  6557                           ;robot.c: 365: break;
  6558  0118  2A22               	goto	l11881
  6559                           	line	366
  6560                           	
  6561  0119                     l11837:	
  6562                           ;robot.c: 366: }
  6563  0119  292D               	goto	l6280
  6564                           	line	368
  6565                           	
  6566  011A                     l6283:	
  6567                           	line	370
  6568                           	
  6569  011A                     l11839:	
  6570                           ;robot.c: 368: else
  6571                           ;robot.c: 369: {
  6572                           ;robot.c: 370: RobotDrive(speed, 0x7FFF);
  6573  011A  1283               	bcf	status, 5	;RP0=0, select bank0
  6574  011B  1303               	bcf	status, 6	;RP1=0, select bank0
  6575  011C  0858               	movf	(robot_turnArc@speed+1),w
  6576  011D  01AA               	clrf	(?_RobotDrive+1)
  6577  011E  07AA               	addwf	(?_RobotDrive+1)
  6578  011F  0857               	movf	(robot_turnArc@speed),w
  6579  0120  01A9               	clrf	(?_RobotDrive)
  6580  0121  07A9               	addwf	(?_RobotDrive)
  6581                           
  6582  0122  30FF               	movlw	low(07FFFh)
  6583  0123  00AB               	movwf	0+(?_RobotDrive)+02h
  6584  0124  307F               	movlw	high(07FFFh)
  6585  0125  00AC               	movwf	(0+(?_RobotDrive)+02h)+1
  6586  0126  160A  158A  248C   	fcall	_RobotDrive
              120A  118A         
  6587  012B  292D               	goto	l6280
  6588                           	line	371
  6589                           	
  6590  012C                     l6287:	
  6591  012C  292D               	goto	l6280
  6592                           	
  6593  012D                     l6282:	
  6594                           	
  6595  012D                     l6280:	
  6596                           	line	372
  6597                           ;robot.c: 371: }
  6598                           ;robot.c: 372: robot_read(2);
  6599  012D  3002               	movlw	(02h)
  6600  012E  160A  118A  26DE   	fcall	_robot_read
              120A  118A         
  6601                           	line	373
  6602                           	
  6603  0133                     l11841:	
  6604                           ;robot.c: 373: if (BumpSensors)
  6605  0133  1683               	bsf	status, 5	;RP0=1, select bank1
  6606  0134  1303               	bcf	status, 6	;RP1=0, select bank1
  6607  0135  0842               	movf	(_BumpSensors)^080h,w	;volatile
  6608  0136  1D03               	skipz
  6609  0137  2939               	goto	u5200
  6610  0138  294E               	goto	l11847
  6611  0139                     u5200:
  6612                           	line	375
  6613                           	
  6614  0139                     l11843:	
  6615                           ;robot.c: 374: {
  6616                           ;robot.c: 375: RobotDrive(0, 0x7FFF);
  6617  0139  3000               	movlw	low(0)
  6618  013A  1283               	bcf	status, 5	;RP0=0, select bank0
  6619  013B  1303               	bcf	status, 6	;RP1=0, select bank0
  6620  013C  00A9               	movwf	(?_RobotDrive)
  6621  013D  3000               	movlw	high(0)
  6622  013E  00AA               	movwf	((?_RobotDrive))+1
  6623  013F  30FF               	movlw	low(07FFFh)
  6624  0140  00AB               	movwf	0+(?_RobotDrive)+02h
  6625  0141  307F               	movlw	high(07FFFh)
  6626  0142  00AC               	movwf	(0+(?_RobotDrive)+02h)+1
  6627  0143  160A  158A  248C   	fcall	_RobotDrive
              120A  118A         
  6628                           	line	376
  6629                           	
  6630  0148                     l11845:	
  6631                           ;robot.c: 376: ROBOTerror = 1;
  6632  0148  1683               	bsf	status, 5	;RP0=1, select bank1
  6633  0149  1303               	bcf	status, 6	;RP1=0, select bank1
  6634  014A  01C9               	clrf	(_ROBOTerror)^080h
  6635  014B  1403               	bsf	status,0
  6636  014C  0DC9               	rlf	(_ROBOTerror)^080h,f
  6637                           	line	377
  6638                           ;robot.c: 377: break;
  6639  014D  2A22               	goto	l11881
  6640                           	line	378
  6641                           	
  6642  014E                     l6288:	
  6643                           	line	379
  6644                           	
  6645  014E                     l11847:	
  6646                           ;robot.c: 378: }
  6647                           ;robot.c: 379: if (VwallSensor)
  6648  014E  084E               	movf	(_VwallSensor)^080h,w	;volatile
  6649  014F  1D03               	skipz
  6650  0150  2952               	goto	u5210
  6651  0151  296A               	goto	l11853
  6652  0152                     u5210:
  6653                           	line	381
  6654                           	
  6655  0152                     l11849:	
  6656                           ;robot.c: 380: {
  6657                           ;robot.c: 381: RobotDrive(0, 0x7FFF);
  6658  0152  3000               	movlw	low(0)
  6659  0153  1283               	bcf	status, 5	;RP0=0, select bank0
  6660  0154  1303               	bcf	status, 6	;RP1=0, select bank0
  6661  0155  00A9               	movwf	(?_RobotDrive)
  6662  0156  3000               	movlw	high(0)
  6663  0157  00AA               	movwf	((?_RobotDrive))+1
  6664  0158  30FF               	movlw	low(07FFFh)
  6665  0159  00AB               	movwf	0+(?_RobotDrive)+02h
  6666  015A  307F               	movlw	high(07FFFh)
  6667  015B  00AC               	movwf	(0+(?_RobotDrive)+02h)+1
  6668  015C  160A  158A  248C   	fcall	_RobotDrive
              120A  118A         
  6669                           	line	382
  6670                           	
  6671  0161                     l11851:	
  6672                           ;robot.c: 382: ROBOTerror = 2;
  6673  0161  3002               	movlw	(02h)
  6674  0162  1283               	bcf	status, 5	;RP0=0, select bank0
  6675  0163  1303               	bcf	status, 6	;RP1=0, select bank0
  6676  0164  00D9               	movwf	(??_robot_turnArc+0)+0
  6677  0165  0859               	movf	(??_robot_turnArc+0)+0,w
  6678  0166  1683               	bsf	status, 5	;RP0=1, select bank1
  6679  0167  1303               	bcf	status, 6	;RP1=0, select bank1
  6680  0168  00C9               	movwf	(_ROBOTerror)^080h
  6681                           	line	383
  6682                           ;robot.c: 383: break;
  6683  0169  2A22               	goto	l11881
  6684                           	line	384
  6685                           	
  6686  016A                     l6289:	
  6687                           	line	385
  6688                           	
  6689  016A                     l11853:	
  6690                           ;robot.c: 384: }
  6691                           ;robot.c: 385: if (CliffSensors)
  6692  016A  0844               	movf	(_CliffSensors)^080h,w	;volatile
  6693  016B  1D03               	skipz
  6694  016C  296E               	goto	u5220
  6695  016D  2986               	goto	l11859
  6696  016E                     u5220:
  6697                           	line	387
  6698                           	
  6699  016E                     l11855:	
  6700                           ;robot.c: 386: {
  6701                           ;robot.c: 387: RobotDrive(-200, 0x7FFF);
  6702  016E  3038               	movlw	low(-200)
  6703  016F  1283               	bcf	status, 5	;RP0=0, select bank0
  6704  0170  1303               	bcf	status, 6	;RP1=0, select bank0
  6705  0171  00A9               	movwf	(?_RobotDrive)
  6706  0172  30FF               	movlw	high(-200)
  6707  0173  00AA               	movwf	((?_RobotDrive))+1
  6708  0174  30FF               	movlw	low(07FFFh)
  6709  0175  00AB               	movwf	0+(?_RobotDrive)+02h
  6710  0176  307F               	movlw	high(07FFFh)
  6711  0177  00AC               	movwf	(0+(?_RobotDrive)+02h)+1
  6712  0178  160A  158A  248C   	fcall	_RobotDrive
              120A  118A         
  6713                           	line	388
  6714                           	
  6715  017D                     l11857:	
  6716                           ;robot.c: 388: ROBOTerror = 3;
  6717  017D  3003               	movlw	(03h)
  6718  017E  1283               	bcf	status, 5	;RP0=0, select bank0
  6719  017F  1303               	bcf	status, 6	;RP1=0, select bank0
  6720  0180  00D9               	movwf	(??_robot_turnArc+0)+0
  6721  0181  0859               	movf	(??_robot_turnArc+0)+0,w
  6722  0182  1683               	bsf	status, 5	;RP0=1, select bank1
  6723  0183  1303               	bcf	status, 6	;RP1=0, select bank1
  6724  0184  00C9               	movwf	(_ROBOTerror)^080h
  6725                           	line	389
  6726                           ;robot.c: 389: break;
  6727  0185  2A22               	goto	l11881
  6728                           	line	390
  6729                           	
  6730  0186                     l6290:	
  6731                           	line	391
  6732                           	
  6733  0186                     l11859:	
  6734                           ;robot.c: 390: }
  6735                           ;robot.c: 391: if (VictimSensor != 255)
  6736  0186  084D               	movf	(_VictimSensor)^080h,w	;volatile
  6737  0187  3AFF               	xorlw	0FFh
  6738  0188  1903               	skipnz
  6739  0189  298B               	goto	u5231
  6740  018A  298C               	goto	u5230
  6741  018B                     u5231:
  6742  018B  29A4               	goto	l11865
  6743  018C                     u5230:
  6744                           	line	393
  6745                           	
  6746  018C                     l11861:	
  6747                           ;robot.c: 392: {
  6748                           ;robot.c: 393: RobotDrive(0, 0x7FFF);
  6749  018C  3000               	movlw	low(0)
  6750  018D  1283               	bcf	status, 5	;RP0=0, select bank0
  6751  018E  1303               	bcf	status, 6	;RP1=0, select bank0
  6752  018F  00A9               	movwf	(?_RobotDrive)
  6753  0190  3000               	movlw	high(0)
  6754  0191  00AA               	movwf	((?_RobotDrive))+1
  6755  0192  30FF               	movlw	low(07FFFh)
  6756  0193  00AB               	movwf	0+(?_RobotDrive)+02h
  6757  0194  307F               	movlw	high(07FFFh)
  6758  0195  00AC               	movwf	(0+(?_RobotDrive)+02h)+1
  6759  0196  160A  158A  248C   	fcall	_RobotDrive
              120A  118A         
  6760                           	line	394
  6761                           	
  6762  019B                     l11863:	
  6763                           ;robot.c: 394: ROBOTerror = 4;
  6764  019B  3004               	movlw	(04h)
  6765  019C  1283               	bcf	status, 5	;RP0=0, select bank0
  6766  019D  1303               	bcf	status, 6	;RP1=0, select bank0
  6767  019E  00D9               	movwf	(??_robot_turnArc+0)+0
  6768  019F  0859               	movf	(??_robot_turnArc+0)+0,w
  6769  01A0  1683               	bsf	status, 5	;RP0=1, select bank1
  6770  01A1  1303               	bcf	status, 6	;RP1=0, select bank1
  6771  01A2  00C9               	movwf	(_ROBOTerror)^080h
  6772                           	line	395
  6773                           ;robot.c: 395: break;
  6774  01A3  2A22               	goto	l11881
  6775                           	line	396
  6776                           	
  6777  01A4                     l6291:	
  6778                           	line	397
  6779                           	
  6780  01A4                     l11865:	
  6781                           ;robot.c: 396: }
  6782                           ;robot.c: 397: temp1 = DistHighByte;
  6783  01A4  087D               	movf	(_DistHighByte),w	;volatile
  6784  01A5  1283               	bcf	status, 5	;RP0=0, select bank0
  6785  01A6  1303               	bcf	status, 6	;RP1=0, select bank0
  6786  01A7  00D9               	movwf	(??_robot_turnArc+0)+0
  6787  01A8  01DA               	clrf	(??_robot_turnArc+0)+0+1
  6788  01A9  0859               	movf	0+(??_robot_turnArc+0)+0,w
  6789  01AA  00E0               	movwf	(robot_turnArc@temp1)
  6790  01AB  085A               	movf	1+(??_robot_turnArc+0)+0,w
  6791  01AC  00E1               	movwf	(robot_turnArc@temp1+1)
  6792                           	line	398
  6793                           	
  6794  01AD                     l11867:	
  6795                           ;robot.c: 398: temp1 = temp1 << 8;
  6796  01AD  0861               	movf	(robot_turnArc@temp1+1),w
  6797  01AE  00DA               	movwf	(??_robot_turnArc+0)+0+1
  6798  01AF  0860               	movf	(robot_turnArc@temp1),w
  6799  01B0  00D9               	movwf	(??_robot_turnArc+0)+0
  6800  01B1  0859               	movf	(??_robot_turnArc+0)+0,w
  6801  01B2  00DA               	movwf	(??_robot_turnArc+0)+1
  6802  01B3  01D9               	clrf	(??_robot_turnArc+0)+0
  6803  01B4  0859               	movf	0+(??_robot_turnArc+0)+0,w
  6804  01B5  00E0               	movwf	(robot_turnArc@temp1)
  6805  01B6  085A               	movf	1+(??_robot_turnArc+0)+0,w
  6806  01B7  00E1               	movwf	(robot_turnArc@temp1+1)
  6807                           	line	399
  6808                           	
  6809  01B8                     l11869:	
  6810                           ;robot.c: 399: temp1 += DistLowByte;
  6811  01B8  1683               	bsf	status, 5	;RP0=1, select bank1
  6812  01B9  1303               	bcf	status, 6	;RP1=0, select bank1
  6813  01BA  0845               	movf	(_DistLowByte)^080h,w	;volatile
  6814  01BB  1283               	bcf	status, 5	;RP0=0, select bank0
  6815  01BC  1303               	bcf	status, 6	;RP1=0, select bank0
  6816  01BD  00D9               	movwf	(??_robot_turnArc+0)+0
  6817  01BE  01DA               	clrf	(??_robot_turnArc+0)+0+1
  6818  01BF  0859               	movf	0+(??_robot_turnArc+0)+0,w
  6819  01C0  07E0               	addwf	(robot_turnArc@temp1),f
  6820  01C1  1803               	skipnc
  6821  01C2  0AE1               	incf	(robot_turnArc@temp1+1),f
  6822  01C3  085A               	movf	1+(??_robot_turnArc+0)+0,w
  6823  01C4  07E1               	addwf	(robot_turnArc@temp1+1),f
  6824                           	line	400
  6825                           	
  6826  01C5                     l11871:	
  6827                           ;robot.c: 400: distTravelled += temp1;
  6828  01C5  0860               	movf	(robot_turnArc@temp1),w
  6829  01C6  1683               	bsf	status, 5	;RP0=1, select bank1
  6830  01C7  1303               	bcf	status, 6	;RP1=0, select bank1
  6831  01C8  07B2               	addwf	(_distTravelled)^080h,f
  6832  01C9  1803               	skipnc
  6833  01CA  0AB3               	incf	(_distTravelled+1)^080h,f
  6834  01CB  1283               	bcf	status, 5	;RP0=0, select bank0
  6835  01CC  1303               	bcf	status, 6	;RP1=0, select bank0
  6836  01CD  0861               	movf	(robot_turnArc@temp1+1),w
  6837  01CE  1683               	bsf	status, 5	;RP0=1, select bank1
  6838  01CF  1303               	bcf	status, 6	;RP1=0, select bank1
  6839  01D0  07B3               	addwf	(_distTravelled+1)^080h,f
  6840                           	line	401
  6841                           	
  6842  01D1                     l11873:	
  6843                           ;robot.c: 401: TotalDistTravelled += temp1;
  6844  01D1  1283               	bcf	status, 5	;RP0=0, select bank0
  6845  01D2  1303               	bcf	status, 6	;RP1=0, select bank0
  6846  01D3  0860               	movf	(robot_turnArc@temp1),w
  6847  01D4  1683               	bsf	status, 5	;RP0=1, select bank1
  6848  01D5  1303               	bcf	status, 6	;RP1=0, select bank1
  6849  01D6  07AC               	addwf	(_TotalDistTravelled)^080h,f
  6850  01D7  1803               	skipnc
  6851  01D8  0AAD               	incf	(_TotalDistTravelled+1)^080h,f
  6852  01D9  1283               	bcf	status, 5	;RP0=0, select bank0
  6853  01DA  1303               	bcf	status, 6	;RP1=0, select bank0
  6854  01DB  0861               	movf	(robot_turnArc@temp1+1),w
  6855  01DC  1683               	bsf	status, 5	;RP0=1, select bank1
  6856  01DD  1303               	bcf	status, 6	;RP1=0, select bank1
  6857  01DE  07AD               	addwf	(_TotalDistTravelled+1)^080h,f
  6858                           	line	402
  6859                           	
  6860  01DF                     l11875:	
  6861                           ;robot.c: 402: temp1 = AngleHighByte;
  6862  01DF  0840               	movf	(_AngleHighByte)^080h,w	;volatile
  6863  01E0  1283               	bcf	status, 5	;RP0=0, select bank0
  6864  01E1  1303               	bcf	status, 6	;RP1=0, select bank0
  6865  01E2  00D9               	movwf	(??_robot_turnArc+0)+0
  6866  01E3  01DA               	clrf	(??_robot_turnArc+0)+0+1
  6867  01E4  0859               	movf	0+(??_robot_turnArc+0)+0,w
  6868  01E5  00E0               	movwf	(robot_turnArc@temp1)
  6869  01E6  085A               	movf	1+(??_robot_turnArc+0)+0,w
  6870  01E7  00E1               	movwf	(robot_turnArc@temp1+1)
  6871                           	line	403
  6872                           	
  6873  01E8                     l11877:	
  6874                           ;robot.c: 403: temp1 = temp1 << 8;
  6875  01E8  0861               	movf	(robot_turnArc@temp1+1),w
  6876  01E9  00DA               	movwf	(??_robot_turnArc+0)+0+1
  6877  01EA  0860               	movf	(robot_turnArc@temp1),w
  6878  01EB  00D9               	movwf	(??_robot_turnArc+0)+0
  6879  01EC  0859               	movf	(??_robot_turnArc+0)+0,w
  6880  01ED  00DA               	movwf	(??_robot_turnArc+0)+1
  6881  01EE  01D9               	clrf	(??_robot_turnArc+0)+0
  6882  01EF  0859               	movf	0+(??_robot_turnArc+0)+0,w
  6883  01F0  00E0               	movwf	(robot_turnArc@temp1)
  6884  01F1  085A               	movf	1+(??_robot_turnArc+0)+0,w
  6885  01F2  00E1               	movwf	(robot_turnArc@temp1+1)
  6886                           	line	404
  6887                           ;robot.c: 404: temp1 += AngleLowByte;
  6888  01F3  1683               	bsf	status, 5	;RP0=1, select bank1
  6889  01F4  1303               	bcf	status, 6	;RP1=0, select bank1
  6890  01F5  0841               	movf	(_AngleLowByte)^080h,w	;volatile
  6891  01F6  1283               	bcf	status, 5	;RP0=0, select bank0
  6892  01F7  1303               	bcf	status, 6	;RP1=0, select bank0
  6893  01F8  00D9               	movwf	(??_robot_turnArc+0)+0
  6894  01F9  01DA               	clrf	(??_robot_turnArc+0)+0+1
  6895  01FA  0859               	movf	0+(??_robot_turnArc+0)+0,w
  6896  01FB  07E0               	addwf	(robot_turnArc@temp1),f
  6897  01FC  1803               	skipnc
  6898  01FD  0AE1               	incf	(robot_turnArc@temp1+1),f
  6899  01FE  085A               	movf	1+(??_robot_turnArc+0)+0,w
  6900  01FF  07E1               	addwf	(robot_turnArc@temp1+1),f
  6901                           	line	405
  6902                           ;robot.c: 405: angleTurned += temp1;
  6903  0200  0860               	movf	(robot_turnArc@temp1),w
  6904  0201  1683               	bsf	status, 5	;RP0=1, select bank1
  6905  0202  1303               	bcf	status, 6	;RP1=0, select bank1
  6906  0203  07B0               	addwf	(_angleTurned)^080h,f
  6907  0204  1803               	skipnc
  6908  0205  0AB1               	incf	(_angleTurned+1)^080h,f
  6909  0206  1283               	bcf	status, 5	;RP0=0, select bank0
  6910  0207  1303               	bcf	status, 6	;RP1=0, select bank0
  6911  0208  0861               	movf	(robot_turnArc@temp1+1),w
  6912  0209  1683               	bsf	status, 5	;RP0=1, select bank1
  6913  020A  1303               	bcf	status, 6	;RP1=0, select bank1
  6914  020B  07B1               	addwf	(_angleTurned+1)^080h,f
  6915                           	line	406
  6916                           ;robot.c: 406: Disp2 = RobotPos;
  6917  020C  084B               	movf	(_RobotPos)^080h,w
  6918  020D  1283               	bcf	status, 5	;RP0=0, select bank0
  6919  020E  1303               	bcf	status, 6	;RP1=0, select bank0
  6920  020F  00D9               	movwf	(??_robot_turnArc+0)+0
  6921  0210  01DA               	clrf	(??_robot_turnArc+0)+0+1
  6922  0211  0859               	movf	0+(??_robot_turnArc+0)+0,w
  6923  0212  1683               	bsf	status, 5	;RP0=1, select bank1
  6924  0213  1303               	bcf	status, 6	;RP1=0, select bank1
  6925  0214  00A6               	movwf	(_Disp2)^080h
  6926  0215  1283               	bcf	status, 5	;RP0=0, select bank0
  6927  0216  1303               	bcf	status, 6	;RP1=0, select bank0
  6928  0217  085A               	movf	1+(??_robot_turnArc+0)+0,w
  6929  0218  1683               	bsf	status, 5	;RP0=1, select bank1
  6930  0219  1303               	bcf	status, 6	;RP1=0, select bank1
  6931  021A  00A7               	movwf	(_Disp2+1)^080h
  6932                           	line	407
  6933                           	
  6934  021B                     l11879:	
  6935                           ;robot.c: 407: UpdateDisplay();
  6936  021B  120A  158A  257B   	fcall	_UpdateDisplay
              120A  118A         
  6937  0220  2864               	goto	l11819
  6938                           	line	408
  6939                           	
  6940  0221                     l6292:	
  6941                           	line	352
  6942  0221  2864               	goto	l11819
  6943                           	
  6944  0222                     l6286:	
  6945                           	line	410
  6946                           	
  6947  0222                     l11881:	
  6948                           ;robot.c: 408: }
  6949                           ;robot.c: 410: angleTurned = 0;
  6950  0222  1683               	bsf	status, 5	;RP0=1, select bank1
  6951  0223  1303               	bcf	status, 6	;RP1=0, select bank1
  6952  0224  01B0               	clrf	(_angleTurned)^080h
  6953  0225  01B1               	clrf	(_angleTurned+1)^080h
  6954                           	line	411
  6955                           ;robot.c: 411: switch (RobotPos)
  6956  0226  2B1B               	goto	l11925
  6957                           	line	413
  6958                           ;robot.c: 412: {
  6959                           ;robot.c: 413: case 3:
  6960                           	
  6961  0227                     l6294:	
  6962                           	line	414
  6963                           	
  6964  0227                     l11883:	
  6965                           ;robot.c: 414: RobotDrive((speed /2), -400);
  6966  0227  3002               	movlw	low(02h)
  6967  0228  1283               	bcf	status, 5	;RP0=0, select bank0
  6968  0229  1303               	bcf	status, 6	;RP1=0, select bank0
  6969  022A  00A0               	movwf	(?___awdiv)
  6970  022B  3000               	movlw	high(02h)
  6971  022C  00A1               	movwf	((?___awdiv))+1
  6972  022D  0858               	movf	(robot_turnArc@speed+1),w
  6973  022E  01A3               	clrf	1+(?___awdiv)+02h
  6974  022F  07A3               	addwf	1+(?___awdiv)+02h
  6975  0230  0857               	movf	(robot_turnArc@speed),w
  6976  0231  01A2               	clrf	0+(?___awdiv)+02h
  6977  0232  07A2               	addwf	0+(?___awdiv)+02h
  6978                           
  6979  0233  160A  158A  278A   	fcall	___awdiv
              120A  118A         
  6980  0238  1283               	bcf	status, 5	;RP0=0, select bank0
  6981  0239  1303               	bcf	status, 6	;RP1=0, select bank0
  6982  023A  0821               	movf	(1+(?___awdiv)),w
  6983  023B  01AA               	clrf	(?_RobotDrive+1)
  6984  023C  07AA               	addwf	(?_RobotDrive+1)
  6985  023D  0820               	movf	(0+(?___awdiv)),w
  6986  023E  01A9               	clrf	(?_RobotDrive)
  6987  023F  07A9               	addwf	(?_RobotDrive)
  6988                           
  6989  0240  3070               	movlw	low(-400)
  6990  0241  00AB               	movwf	0+(?_RobotDrive)+02h
  6991  0242  30FE               	movlw	high(-400)
  6992  0243  00AC               	movwf	(0+(?_RobotDrive)+02h)+1
  6993  0244  160A  158A  248C   	fcall	_RobotDrive
              120A  118A         
  6994                           	line	415
  6995                           	
  6996  0249                     l11885:	
  6997                           ;robot.c: 415: turnTarget = -90;
  6998  0249  30A6               	movlw	low(-90)
  6999  024A  1283               	bcf	status, 5	;RP0=0, select bank0
  7000  024B  1303               	bcf	status, 6	;RP1=0, select bank0
  7001  024C  00DC               	movwf	(robot_turnArc@turnTarget)
  7002  024D  30FF               	movlw	high(-90)
  7003  024E  00DD               	movwf	((robot_turnArc@turnTarget))+1
  7004                           	line	416
  7005                           ;robot.c: 416: break;
  7006  024F  2B34               	goto	l11927
  7007                           	line	418
  7008                           ;robot.c: 418: case 7:
  7009                           	
  7010  0250                     l6296:	
  7011                           	line	419
  7012                           	
  7013  0250                     l11887:	
  7014                           ;robot.c: 419: RobotDrive((speed), -400-100);
  7015  0250  1283               	bcf	status, 5	;RP0=0, select bank0
  7016  0251  0858               	movf	(robot_turnArc@speed+1),w
  7017  0252  01AA               	clrf	(?_RobotDrive+1)
  7018  0253  07AA               	addwf	(?_RobotDrive+1)
  7019  0254  0857               	movf	(robot_turnArc@speed),w
  7020  0255  01A9               	clrf	(?_RobotDrive)
  7021  0256  07A9               	addwf	(?_RobotDrive)
  7022                           
  7023  0257  300C               	movlw	low(-500)
  7024  0258  00AB               	movwf	0+(?_RobotDrive)+02h
  7025  0259  30FE               	movlw	high(-500)
  7026  025A  00AC               	movwf	(0+(?_RobotDrive)+02h)+1
  7027  025B  160A  158A  248C   	fcall	_RobotDrive
              120A  118A         
  7028                           	line	420
  7029                           	
  7030  0260                     l11889:	
  7031                           ;robot.c: 420: turnTarget = -185;
  7032  0260  3047               	movlw	low(-185)
  7033  0261  1283               	bcf	status, 5	;RP0=0, select bank0
  7034  0262  1303               	bcf	status, 6	;RP1=0, select bank0
  7035  0263  00DC               	movwf	(robot_turnArc@turnTarget)
  7036  0264  30FF               	movlw	high(-185)
  7037  0265  00DD               	movwf	((robot_turnArc@turnTarget))+1
  7038                           	line	421
  7039                           ;robot.c: 421: break;
  7040  0266  2B34               	goto	l11927
  7041                           	line	422
  7042                           ;robot.c: 422: case 10:
  7043                           	
  7044  0267                     l6297:	
  7045                           	line	423
  7046                           	
  7047  0267                     l11891:	
  7048                           ;robot.c: 423: RobotDrive((speed), -400 );
  7049  0267  1283               	bcf	status, 5	;RP0=0, select bank0
  7050  0268  0858               	movf	(robot_turnArc@speed+1),w
  7051  0269  01AA               	clrf	(?_RobotDrive+1)
  7052  026A  07AA               	addwf	(?_RobotDrive+1)
  7053  026B  0857               	movf	(robot_turnArc@speed),w
  7054  026C  01A9               	clrf	(?_RobotDrive)
  7055  026D  07A9               	addwf	(?_RobotDrive)
  7056                           
  7057  026E  3070               	movlw	low(-400)
  7058  026F  00AB               	movwf	0+(?_RobotDrive)+02h
  7059  0270  30FE               	movlw	high(-400)
  7060  0271  00AC               	movwf	(0+(?_RobotDrive)+02h)+1
  7061  0272  160A  158A  248C   	fcall	_RobotDrive
              120A  118A         
  7062                           	line	424
  7063                           	
  7064  0277                     l11893:	
  7065                           ;robot.c: 424: turnTarget = -90;
  7066  0277  30A6               	movlw	low(-90)
  7067  0278  1283               	bcf	status, 5	;RP0=0, select bank0
  7068  0279  1303               	bcf	status, 6	;RP1=0, select bank0
  7069  027A  00DC               	movwf	(robot_turnArc@turnTarget)
  7070  027B  30FF               	movlw	high(-90)
  7071  027C  00DD               	movwf	((robot_turnArc@turnTarget))+1
  7072                           	line	425
  7073                           ;robot.c: 425: break;
  7074  027D  2B34               	goto	l11927
  7075                           	line	426
  7076                           ;robot.c: 426: case 11:
  7077                           	
  7078  027E                     l6298:	
  7079                           	line	427
  7080                           	
  7081  027E                     l11895:	
  7082                           ;robot.c: 427: RobotDrive((speed), -400 - 100);
  7083  027E  1283               	bcf	status, 5	;RP0=0, select bank0
  7084  027F  0858               	movf	(robot_turnArc@speed+1),w
  7085  0280  01AA               	clrf	(?_RobotDrive+1)
  7086  0281  07AA               	addwf	(?_RobotDrive+1)
  7087  0282  0857               	movf	(robot_turnArc@speed),w
  7088  0283  01A9               	clrf	(?_RobotDrive)
  7089  0284  07A9               	addwf	(?_RobotDrive)
  7090                           
  7091  0285  300C               	movlw	low(-500)
  7092  0286  00AB               	movwf	0+(?_RobotDrive)+02h
  7093  0287  30FE               	movlw	high(-500)
  7094  0288  00AC               	movwf	(0+(?_RobotDrive)+02h)+1
  7095  0289  160A  158A  248C   	fcall	_RobotDrive
              120A  118A         
  7096                           	line	428
  7097                           	
  7098  028E                     l11897:	
  7099                           ;robot.c: 428: turnTarget = -190;
  7100  028E  3042               	movlw	low(-190)
  7101  028F  1283               	bcf	status, 5	;RP0=0, select bank0
  7102  0290  1303               	bcf	status, 6	;RP1=0, select bank0
  7103  0291  00DC               	movwf	(robot_turnArc@turnTarget)
  7104  0292  30FF               	movlw	high(-190)
  7105  0293  00DD               	movwf	((robot_turnArc@turnTarget))+1
  7106                           	line	429
  7107                           ;robot.c: 429: break;
  7108  0294  2B34               	goto	l11927
  7109                           	line	430
  7110                           ;robot.c: 430: case 12:
  7111                           	
  7112  0295                     l6299:	
  7113                           	line	431
  7114                           	
  7115  0295                     l11899:	
  7116                           ;robot.c: 431: RobotDrive((speed), -400 - 50);
  7117  0295  1283               	bcf	status, 5	;RP0=0, select bank0
  7118  0296  0858               	movf	(robot_turnArc@speed+1),w
  7119  0297  01AA               	clrf	(?_RobotDrive+1)
  7120  0298  07AA               	addwf	(?_RobotDrive+1)
  7121  0299  0857               	movf	(robot_turnArc@speed),w
  7122  029A  01A9               	clrf	(?_RobotDrive)
  7123  029B  07A9               	addwf	(?_RobotDrive)
  7124                           
  7125  029C  303E               	movlw	low(-450)
  7126  029D  00AB               	movwf	0+(?_RobotDrive)+02h
  7127  029E  30FE               	movlw	high(-450)
  7128  029F  00AC               	movwf	(0+(?_RobotDrive)+02h)+1
  7129  02A0  160A  158A  248C   	fcall	_RobotDrive
              120A  118A         
  7130                           	line	432
  7131                           	
  7132  02A5                     l11901:	
  7133                           ;robot.c: 432: turnTarget = -190;
  7134  02A5  3042               	movlw	low(-190)
  7135  02A6  1283               	bcf	status, 5	;RP0=0, select bank0
  7136  02A7  1303               	bcf	status, 6	;RP1=0, select bank0
  7137  02A8  00DC               	movwf	(robot_turnArc@turnTarget)
  7138  02A9  30FF               	movlw	high(-190)
  7139  02AA  00DD               	movwf	((robot_turnArc@turnTarget))+1
  7140                           	line	433
  7141                           ;robot.c: 433: break;
  7142  02AB  2B34               	goto	l11927
  7143                           	line	434
  7144                           ;robot.c: 434: case 15:
  7145                           	
  7146  02AC                     l6300:	
  7147                           	line	435
  7148                           	
  7149  02AC                     l11903:	
  7150                           ;robot.c: 435: RobotDrive((speed), -400 - 100);
  7151  02AC  1283               	bcf	status, 5	;RP0=0, select bank0
  7152  02AD  0858               	movf	(robot_turnArc@speed+1),w
  7153  02AE  01AA               	clrf	(?_RobotDrive+1)
  7154  02AF  07AA               	addwf	(?_RobotDrive+1)
  7155  02B0  0857               	movf	(robot_turnArc@speed),w
  7156  02B1  01A9               	clrf	(?_RobotDrive)
  7157  02B2  07A9               	addwf	(?_RobotDrive)
  7158                           
  7159  02B3  300C               	movlw	low(-500)
  7160  02B4  00AB               	movwf	0+(?_RobotDrive)+02h
  7161  02B5  30FE               	movlw	high(-500)
  7162  02B6  00AC               	movwf	(0+(?_RobotDrive)+02h)+1
  7163  02B7  160A  158A  248C   	fcall	_RobotDrive
              120A  118A         
  7164                           	line	436
  7165                           	
  7166  02BC                     l11905:	
  7167                           ;robot.c: 436: turnTarget = -190;
  7168  02BC  3042               	movlw	low(-190)
  7169  02BD  1283               	bcf	status, 5	;RP0=0, select bank0
  7170  02BE  1303               	bcf	status, 6	;RP1=0, select bank0
  7171  02BF  00DC               	movwf	(robot_turnArc@turnTarget)
  7172  02C0  30FF               	movlw	high(-190)
  7173  02C1  00DD               	movwf	((robot_turnArc@turnTarget))+1
  7174                           	line	437
  7175                           ;robot.c: 437: break;
  7176  02C2  2B34               	goto	l11927
  7177                           	line	438
  7178                           ;robot.c: 438: case 20:
  7179                           	
  7180  02C3                     l6301:	
  7181                           	line	439
  7182                           	
  7183  02C3                     l11907:	
  7184                           ;robot.c: 439: RobotDrive((speed), -400 - 100);
  7185  02C3  1283               	bcf	status, 5	;RP0=0, select bank0
  7186  02C4  0858               	movf	(robot_turnArc@speed+1),w
  7187  02C5  01AA               	clrf	(?_RobotDrive+1)
  7188  02C6  07AA               	addwf	(?_RobotDrive+1)
  7189  02C7  0857               	movf	(robot_turnArc@speed),w
  7190  02C8  01A9               	clrf	(?_RobotDrive)
  7191  02C9  07A9               	addwf	(?_RobotDrive)
  7192                           
  7193  02CA  300C               	movlw	low(-500)
  7194  02CB  00AB               	movwf	0+(?_RobotDrive)+02h
  7195  02CC  30FE               	movlw	high(-500)
  7196  02CD  00AC               	movwf	(0+(?_RobotDrive)+02h)+1
  7197  02CE  160A  158A  248C   	fcall	_RobotDrive
              120A  118A         
  7198                           	line	440
  7199                           	
  7200  02D3                     l11909:	
  7201                           ;robot.c: 440: turnTarget = -190;
  7202  02D3  3042               	movlw	low(-190)
  7203  02D4  1283               	bcf	status, 5	;RP0=0, select bank0
  7204  02D5  1303               	bcf	status, 6	;RP1=0, select bank0
  7205  02D6  00DC               	movwf	(robot_turnArc@turnTarget)
  7206  02D7  30FF               	movlw	high(-190)
  7207  02D8  00DD               	movwf	((robot_turnArc@turnTarget))+1
  7208                           	line	441
  7209                           ;robot.c: 441: break;
  7210  02D9  2B34               	goto	l11927
  7211                           	line	442
  7212                           ;robot.c: 442: default:
  7213                           	
  7214  02DA                     l6302:	
  7215                           	line	443
  7216                           	
  7217  02DA                     l11911:	
  7218                           ;robot.c: 443: if (followDir == 1)
  7219  02DA  1683               	bsf	status, 5	;RP0=1, select bank1
  7220  02DB  1303               	bcf	status, 6	;RP1=0, select bank1
  7221  02DC  0851               	movf	(_followDir)^080h,w
  7222  02DD  3A01               	xorlw	01h
  7223  02DE  1D03               	skipz
  7224  02DF  2AE1               	goto	u5241
  7225  02E0  2AE2               	goto	u5240
  7226  02E1                     u5241:
  7227  02E1  2AFA               	goto	l11917
  7228  02E2                     u5240:
  7229                           	line	445
  7230                           	
  7231  02E2                     l11913:	
  7232                           ;robot.c: 444: {
  7233                           ;robot.c: 445: RobotDrive((speed), 400);
  7234  02E2  1283               	bcf	status, 5	;RP0=0, select bank0
  7235  02E3  1303               	bcf	status, 6	;RP1=0, select bank0
  7236  02E4  0858               	movf	(robot_turnArc@speed+1),w
  7237  02E5  01AA               	clrf	(?_RobotDrive+1)
  7238  02E6  07AA               	addwf	(?_RobotDrive+1)
  7239  02E7  0857               	movf	(robot_turnArc@speed),w
  7240  02E8  01A9               	clrf	(?_RobotDrive)
  7241  02E9  07A9               	addwf	(?_RobotDrive)
  7242                           
  7243  02EA  3090               	movlw	low(0190h)
  7244  02EB  00AB               	movwf	0+(?_RobotDrive)+02h
  7245  02EC  3001               	movlw	high(0190h)
  7246  02ED  00AC               	movwf	(0+(?_RobotDrive)+02h)+1
  7247  02EE  160A  158A  248C   	fcall	_RobotDrive
              120A  118A         
  7248                           	line	446
  7249                           	
  7250  02F3                     l11915:	
  7251                           ;robot.c: 446: turnTarget = 75;
  7252  02F3  304B               	movlw	low(04Bh)
  7253  02F4  1283               	bcf	status, 5	;RP0=0, select bank0
  7254  02F5  1303               	bcf	status, 6	;RP1=0, select bank0
  7255  02F6  00DC               	movwf	(robot_turnArc@turnTarget)
  7256  02F7  3000               	movlw	high(04Bh)
  7257  02F8  00DD               	movwf	((robot_turnArc@turnTarget))+1
  7258  02F9  2AFA               	goto	l11917
  7259                           	line	447
  7260                           	
  7261  02FA                     l6303:	
  7262                           	line	448
  7263                           	
  7264  02FA                     l11917:	
  7265                           ;robot.c: 447: }
  7266                           ;robot.c: 448: if (followDir == 0)
  7267  02FA  1683               	bsf	status, 5	;RP0=1, select bank1
  7268  02FB  1303               	bcf	status, 6	;RP1=0, select bank1
  7269  02FC  08D1               	movf	(_followDir)^080h,f
  7270  02FD  1D03               	skipz
  7271  02FE  2B00               	goto	u5251
  7272  02FF  2B01               	goto	u5250
  7273  0300                     u5251:
  7274  0300  2B34               	goto	l11927
  7275  0301                     u5250:
  7276                           	line	450
  7277                           	
  7278  0301                     l11919:	
  7279                           ;robot.c: 449: {
  7280                           ;robot.c: 450: RobotDrive((speed), -400);
  7281  0301  1283               	bcf	status, 5	;RP0=0, select bank0
  7282  0302  1303               	bcf	status, 6	;RP1=0, select bank0
  7283  0303  0858               	movf	(robot_turnArc@speed+1),w
  7284  0304  01AA               	clrf	(?_RobotDrive+1)
  7285  0305  07AA               	addwf	(?_RobotDrive+1)
  7286  0306  0857               	movf	(robot_turnArc@speed),w
  7287  0307  01A9               	clrf	(?_RobotDrive)
  7288  0308  07A9               	addwf	(?_RobotDrive)
  7289                           
  7290  0309  3070               	movlw	low(-400)
  7291  030A  00AB               	movwf	0+(?_RobotDrive)+02h
  7292  030B  30FE               	movlw	high(-400)
  7293  030C  00AC               	movwf	(0+(?_RobotDrive)+02h)+1
  7294  030D  160A  158A  248C   	fcall	_RobotDrive
              120A  118A         
  7295                           	line	451
  7296                           	
  7297  0312                     l11921:	
  7298                           ;robot.c: 451: turnTarget = -75;
  7299  0312  30B5               	movlw	low(-75)
  7300  0313  1283               	bcf	status, 5	;RP0=0, select bank0
  7301  0314  1303               	bcf	status, 6	;RP1=0, select bank0
  7302  0315  00DC               	movwf	(robot_turnArc@turnTarget)
  7303  0316  30FF               	movlw	high(-75)
  7304  0317  00DD               	movwf	((robot_turnArc@turnTarget))+1
  7305  0318  2B34               	goto	l11927
  7306                           	line	452
  7307                           	
  7308  0319                     l6304:	
  7309                           	line	454
  7310                           ;robot.c: 452: }
  7311                           ;robot.c: 454: break;
  7312  0319  2B34               	goto	l11927
  7313                           	line	455
  7314                           	
  7315  031A                     l11923:	
  7316                           ;robot.c: 455: }
  7317  031A  2B34               	goto	l11927
  7318                           	line	411
  7319                           	
  7320  031B                     l6293:	
  7321                           	
  7322  031B                     l11925:	
  7323  031B  1683               	bsf	status, 5	;RP0=1, select bank1
  7324  031C  1303               	bcf	status, 6	;RP1=0, select bank1
  7325  031D  084B               	movf	(_RobotPos)^080h,w
  7326                           	; Switch size 1, requested type "space"
  7327                           ; Number of cases is 7, Range of values is 3 to 20
  7328                           ; switch strategies available:
  7329                           ; Name         Instructions Cycles
  7330                           ; simple_byte           22    12 (average)
  7331                           ; direct_byte           65    11 (fixed)
  7332                           ; jumptable            263     9 (fixed)
  7333                           ;	Chosen strategy is simple_byte
  7334                           
  7335                           	opt asmopt_off
  7336  031E  3A03               	xorlw	3^0	; case 3
  7337  031F  1903               	skipnz
  7338  0320  2A27               	goto	l11883
  7339  0321  3A04               	xorlw	7^3	; case 7
  7340  0322  1903               	skipnz
  7341  0323  2A50               	goto	l11887
  7342  0324  3A0D               	xorlw	10^7	; case 10
  7343  0325  1903               	skipnz
  7344  0326  2A67               	goto	l11891
  7345  0327  3A01               	xorlw	11^10	; case 11
  7346  0328  1903               	skipnz
  7347  0329  2A7E               	goto	l11895
  7348  032A  3A07               	xorlw	12^11	; case 12
  7349  032B  1903               	skipnz
  7350  032C  2A95               	goto	l11899
  7351  032D  3A03               	xorlw	15^12	; case 15
  7352  032E  1903               	skipnz
  7353  032F  2AAC               	goto	l11903
  7354  0330  3A1B               	xorlw	20^15	; case 20
  7355  0331  1903               	skipnz
  7356  0332  2AC3               	goto	l11907
  7357  0333  2ADA               	goto	l11911
  7358                           	opt asmopt_on
  7359                           
  7360                           	line	455
  7361                           	
  7362  0334                     l6295:	
  7363                           	line	456
  7364                           	
  7365  0334                     l11927:	
  7366                           ;robot.c: 456: if (followDir == 0)
  7367  0334  1683               	bsf	status, 5	;RP0=1, select bank1
  7368  0335  1303               	bcf	status, 6	;RP1=0, select bank1
  7369  0336  08D1               	movf	(_followDir)^080h,f
  7370  0337  1D03               	skipz
  7371  0338  2B3A               	goto	u5261
  7372  0339  2B3B               	goto	u5260
  7373  033A                     u5261:
  7374  033A  2B4A               	goto	l11931
  7375  033B                     u5260:
  7376                           	line	458
  7377                           	
  7378  033B                     l11929:	
  7379                           ;robot.c: 457: {
  7380                           ;robot.c: 458: rotate(25,1);
  7381  033B  3019               	movlw	low(019h)
  7382  033C  1283               	bcf	status, 5	;RP0=0, select bank0
  7383  033D  1303               	bcf	status, 6	;RP1=0, select bank0
  7384  033E  00A3               	movwf	(?_rotate)
  7385  033F  3000               	movlw	high(019h)
  7386  0340  00A4               	movwf	((?_rotate))+1
  7387  0341  01A5               	clrf	0+(?_rotate)+02h
  7388  0342  1403               	bsf	status,0
  7389  0343  0DA5               	rlf	0+(?_rotate)+02h,f
  7390  0344  160A  158A  25D7   	fcall	_rotate
              120A  118A         
  7391                           	line	459
  7392                           ;robot.c: 459: }
  7393  0349  2C3D               	goto	l11977
  7394                           	line	460
  7395                           	
  7396  034A                     l6305:	
  7397                           	line	462
  7398                           	
  7399  034A                     l11931:	
  7400                           ;robot.c: 460: else
  7401                           ;robot.c: 461: {
  7402                           ;robot.c: 462: rotate(25,0);
  7403  034A  3019               	movlw	low(019h)
  7404  034B  1283               	bcf	status, 5	;RP0=0, select bank0
  7405  034C  1303               	bcf	status, 6	;RP1=0, select bank0
  7406  034D  00A3               	movwf	(?_rotate)
  7407  034E  3000               	movlw	high(019h)
  7408  034F  00A4               	movwf	((?_rotate))+1
  7409  0350  01A5               	clrf	0+(?_rotate)+02h
  7410  0351  160A  158A  25D7   	fcall	_rotate
              120A  118A         
  7411  0356  2C3D               	goto	l11977
  7412                           	line	463
  7413                           	
  7414  0357                     l6306:	
  7415                           	line	465
  7416                           ;robot.c: 463: }
  7417                           ;robot.c: 465: while (abs(angleTurned) < abs(turnTarget))
  7418  0357  2C3D               	goto	l11977
  7419                           	
  7420  0358                     l6308:	
  7421                           	line	467
  7422                           	
  7423  0358                     l11933:	
  7424                           ;robot.c: 466: {
  7425                           ;robot.c: 467: robot_read(2);
  7426  0358  3002               	movlw	(02h)
  7427  0359  160A  118A  26DE   	fcall	_robot_read
              120A  118A         
  7428                           	line	468
  7429                           	
  7430  035E                     l11935:	
  7431                           ;robot.c: 468: if (BumpSensors)
  7432  035E  1683               	bsf	status, 5	;RP0=1, select bank1
  7433  035F  1303               	bcf	status, 6	;RP1=0, select bank1
  7434  0360  0842               	movf	(_BumpSensors)^080h,w	;volatile
  7435  0361  1D03               	skipz
  7436  0362  2B64               	goto	u5270
  7437  0363  2B79               	goto	l11941
  7438  0364                     u5270:
  7439                           	line	470
  7440                           	
  7441  0364                     l11937:	
  7442                           ;robot.c: 469: {
  7443                           ;robot.c: 470: RobotDrive(0, 0x7FFF);
  7444  0364  3000               	movlw	low(0)
  7445  0365  1283               	bcf	status, 5	;RP0=0, select bank0
  7446  0366  1303               	bcf	status, 6	;RP1=0, select bank0
  7447  0367  00A9               	movwf	(?_RobotDrive)
  7448  0368  3000               	movlw	high(0)
  7449  0369  00AA               	movwf	((?_RobotDrive))+1
  7450  036A  30FF               	movlw	low(07FFFh)
  7451  036B  00AB               	movwf	0+(?_RobotDrive)+02h
  7452  036C  307F               	movlw	high(07FFFh)
  7453  036D  00AC               	movwf	(0+(?_RobotDrive)+02h)+1
  7454  036E  160A  158A  248C   	fcall	_RobotDrive
              120A  118A         
  7455                           	line	471
  7456                           	
  7457  0373                     l11939:	
  7458                           ;robot.c: 471: ROBOTerror = 1;
  7459  0373  1683               	bsf	status, 5	;RP0=1, select bank1
  7460  0374  1303               	bcf	status, 6	;RP1=0, select bank1
  7461  0375  01C9               	clrf	(_ROBOTerror)^080h
  7462  0376  1403               	bsf	status,0
  7463  0377  0DC9               	rlf	(_ROBOTerror)^080h,f
  7464                           	line	472
  7465                           ;robot.c: 472: break;
  7466  0378  2C72               	goto	l11979
  7467                           	line	473
  7468                           	
  7469  0379                     l6309:	
  7470                           	line	474
  7471                           	
  7472  0379                     l11941:	
  7473                           ;robot.c: 473: }
  7474                           ;robot.c: 474: if (VwallSensor)
  7475  0379  084E               	movf	(_VwallSensor)^080h,w	;volatile
  7476  037A  1D03               	skipz
  7477  037B  2B7D               	goto	u5280
  7478  037C  2B95               	goto	l11947
  7479  037D                     u5280:
  7480                           	line	476
  7481                           	
  7482  037D                     l11943:	
  7483                           ;robot.c: 475: {
  7484                           ;robot.c: 476: RobotDrive(0, 0x7FFF);
  7485  037D  3000               	movlw	low(0)
  7486  037E  1283               	bcf	status, 5	;RP0=0, select bank0
  7487  037F  1303               	bcf	status, 6	;RP1=0, select bank0
  7488  0380  00A9               	movwf	(?_RobotDrive)
  7489  0381  3000               	movlw	high(0)
  7490  0382  00AA               	movwf	((?_RobotDrive))+1
  7491  0383  30FF               	movlw	low(07FFFh)
  7492  0384  00AB               	movwf	0+(?_RobotDrive)+02h
  7493  0385  307F               	movlw	high(07FFFh)
  7494  0386  00AC               	movwf	(0+(?_RobotDrive)+02h)+1
  7495  0387  160A  158A  248C   	fcall	_RobotDrive
              120A  118A         
  7496                           	line	477
  7497                           	
  7498  038C                     l11945:	
  7499                           ;robot.c: 477: ROBOTerror = 2;
  7500  038C  3002               	movlw	(02h)
  7501  038D  1283               	bcf	status, 5	;RP0=0, select bank0
  7502  038E  1303               	bcf	status, 6	;RP1=0, select bank0
  7503  038F  00D9               	movwf	(??_robot_turnArc+0)+0
  7504  0390  0859               	movf	(??_robot_turnArc+0)+0,w
  7505  0391  1683               	bsf	status, 5	;RP0=1, select bank1
  7506  0392  1303               	bcf	status, 6	;RP1=0, select bank1
  7507  0393  00C9               	movwf	(_ROBOTerror)^080h
  7508                           	line	478
  7509                           ;robot.c: 478: break;
  7510  0394  2C72               	goto	l11979
  7511                           	line	479
  7512                           	
  7513  0395                     l6311:	
  7514                           	line	480
  7515                           	
  7516  0395                     l11947:	
  7517                           ;robot.c: 479: }
  7518                           ;robot.c: 480: if (CliffSensors)
  7519  0395  0844               	movf	(_CliffSensors)^080h,w	;volatile
  7520  0396  1D03               	skipz
  7521  0397  2B99               	goto	u5290
  7522  0398  2BB1               	goto	l11953
  7523  0399                     u5290:
  7524                           	line	482
  7525                           	
  7526  0399                     l11949:	
  7527                           ;robot.c: 481: {
  7528                           ;robot.c: 482: RobotDrive(-200, 0x7FFF);
  7529  0399  3038               	movlw	low(-200)
  7530  039A  1283               	bcf	status, 5	;RP0=0, select bank0
  7531  039B  1303               	bcf	status, 6	;RP1=0, select bank0
  7532  039C  00A9               	movwf	(?_RobotDrive)
  7533  039D  30FF               	movlw	high(-200)
  7534  039E  00AA               	movwf	((?_RobotDrive))+1
  7535  039F  30FF               	movlw	low(07FFFh)
  7536  03A0  00AB               	movwf	0+(?_RobotDrive)+02h
  7537  03A1  307F               	movlw	high(07FFFh)
  7538  03A2  00AC               	movwf	(0+(?_RobotDrive)+02h)+1
  7539  03A3  160A  158A  248C   	fcall	_RobotDrive
              120A  118A         
  7540                           	line	483
  7541                           	
  7542  03A8                     l11951:	
  7543                           ;robot.c: 483: ROBOTerror = 3;
  7544  03A8  3003               	movlw	(03h)
  7545  03A9  1283               	bcf	status, 5	;RP0=0, select bank0
  7546  03AA  1303               	bcf	status, 6	;RP1=0, select bank0
  7547  03AB  00D9               	movwf	(??_robot_turnArc+0)+0
  7548  03AC  0859               	movf	(??_robot_turnArc+0)+0,w
  7549  03AD  1683               	bsf	status, 5	;RP0=1, select bank1
  7550  03AE  1303               	bcf	status, 6	;RP1=0, select bank1
  7551  03AF  00C9               	movwf	(_ROBOTerror)^080h
  7552                           	line	484
  7553                           ;robot.c: 484: break;
  7554  03B0  2C72               	goto	l11979
  7555                           	line	485
  7556                           	
  7557  03B1                     l6312:	
  7558                           	line	486
  7559                           	
  7560  03B1                     l11953:	
  7561                           ;robot.c: 485: }
  7562                           ;robot.c: 486: if (VictimSensor != 255)
  7563  03B1  084D               	movf	(_VictimSensor)^080h,w	;volatile
  7564  03B2  3AFF               	xorlw	0FFh
  7565  03B3  1903               	skipnz
  7566  03B4  2BB6               	goto	u5301
  7567  03B5  2BB7               	goto	u5300
  7568  03B6                     u5301:
  7569  03B6  2BCF               	goto	l11959
  7570  03B7                     u5300:
  7571                           	line	488
  7572                           	
  7573  03B7                     l11955:	
  7574                           ;robot.c: 487: {
  7575                           ;robot.c: 488: RobotDrive(0, 0x7FFF);
  7576  03B7  3000               	movlw	low(0)
  7577  03B8  1283               	bcf	status, 5	;RP0=0, select bank0
  7578  03B9  1303               	bcf	status, 6	;RP1=0, select bank0
  7579  03BA  00A9               	movwf	(?_RobotDrive)
  7580  03BB  3000               	movlw	high(0)
  7581  03BC  00AA               	movwf	((?_RobotDrive))+1
  7582  03BD  30FF               	movlw	low(07FFFh)
  7583  03BE  00AB               	movwf	0+(?_RobotDrive)+02h
  7584  03BF  307F               	movlw	high(07FFFh)
  7585  03C0  00AC               	movwf	(0+(?_RobotDrive)+02h)+1
  7586  03C1  160A  158A  248C   	fcall	_RobotDrive
              120A  118A         
  7587                           	line	489
  7588                           	
  7589  03C6                     l11957:	
  7590                           ;robot.c: 489: ROBOTerror = 4;
  7591  03C6  3004               	movlw	(04h)
  7592  03C7  1283               	bcf	status, 5	;RP0=0, select bank0
  7593  03C8  1303               	bcf	status, 6	;RP1=0, select bank0
  7594  03C9  00D9               	movwf	(??_robot_turnArc+0)+0
  7595  03CA  0859               	movf	(??_robot_turnArc+0)+0,w
  7596  03CB  1683               	bsf	status, 5	;RP0=1, select bank1
  7597  03CC  1303               	bcf	status, 6	;RP1=0, select bank1
  7598  03CD  00C9               	movwf	(_ROBOTerror)^080h
  7599                           	line	490
  7600                           ;robot.c: 490: break;
  7601  03CE  2C72               	goto	l11979
  7602                           	line	491
  7603                           	
  7604  03CF                     l6313:	
  7605                           	line	492
  7606                           	
  7607  03CF                     l11959:	
  7608                           ;robot.c: 491: }
  7609                           ;robot.c: 492: temp1 = AngleHighByte;
  7610  03CF  0840               	movf	(_AngleHighByte)^080h,w	;volatile
  7611  03D0  1283               	bcf	status, 5	;RP0=0, select bank0
  7612  03D1  1303               	bcf	status, 6	;RP1=0, select bank0
  7613  03D2  00D9               	movwf	(??_robot_turnArc+0)+0
  7614  03D3  01DA               	clrf	(??_robot_turnArc+0)+0+1
  7615  03D4  0859               	movf	0+(??_robot_turnArc+0)+0,w
  7616  03D5  00E0               	movwf	(robot_turnArc@temp1)
  7617  03D6  085A               	movf	1+(??_robot_turnArc+0)+0,w
  7618  03D7  00E1               	movwf	(robot_turnArc@temp1+1)
  7619                           	line	493
  7620                           	
  7621  03D8                     l11961:	
  7622                           ;robot.c: 493: temp1 = temp1 << 8;
  7623  03D8  0861               	movf	(robot_turnArc@temp1+1),w
  7624  03D9  00DA               	movwf	(??_robot_turnArc+0)+0+1
  7625  03DA  0860               	movf	(robot_turnArc@temp1),w
  7626  03DB  00D9               	movwf	(??_robot_turnArc+0)+0
  7627  03DC  0859               	movf	(??_robot_turnArc+0)+0,w
  7628  03DD  00DA               	movwf	(??_robot_turnArc+0)+1
  7629  03DE  01D9               	clrf	(??_robot_turnArc+0)+0
  7630  03DF  0859               	movf	0+(??_robot_turnArc+0)+0,w
  7631  03E0  00E0               	movwf	(robot_turnArc@temp1)
  7632  03E1  085A               	movf	1+(??_robot_turnArc+0)+0,w
  7633  03E2  00E1               	movwf	(robot_turnArc@temp1+1)
  7634                           	line	494
  7635                           	
  7636  03E3                     l11963:	
  7637                           ;robot.c: 494: temp1 += AngleLowByte;
  7638  03E3  1683               	bsf	status, 5	;RP0=1, select bank1
  7639  03E4  1303               	bcf	status, 6	;RP1=0, select bank1
  7640  03E5  0841               	movf	(_AngleLowByte)^080h,w	;volatile
  7641  03E6  1283               	bcf	status, 5	;RP0=0, select bank0
  7642  03E7  1303               	bcf	status, 6	;RP1=0, select bank0
  7643  03E8  00D9               	movwf	(??_robot_turnArc+0)+0
  7644  03E9  01DA               	clrf	(??_robot_turnArc+0)+0+1
  7645  03EA  0859               	movf	0+(??_robot_turnArc+0)+0,w
  7646  03EB  07E0               	addwf	(robot_turnArc@temp1),f
  7647  03EC  1803               	skipnc
  7648  03ED  0AE1               	incf	(robot_turnArc@temp1+1),f
  7649  03EE  085A               	movf	1+(??_robot_turnArc+0)+0,w
  7650  03EF  07E1               	addwf	(robot_turnArc@temp1+1),f
  7651                           	line	495
  7652                           	
  7653  03F0                     l11965:	
  7654                           ;robot.c: 495: angleTurned += temp1;
  7655  03F0  0860               	movf	(robot_turnArc@temp1),w
  7656  03F1  1683               	bsf	status, 5	;RP0=1, select bank1
  7657  03F2  1303               	bcf	status, 6	;RP1=0, select bank1
  7658  03F3  07B0               	addwf	(_angleTurned)^080h,f
  7659  03F4  1803               	skipnc
  7660  03F5  0AB1               	incf	(_angleTurned+1)^080h,f
  7661  03F6  1283               	bcf	status, 5	;RP0=0, select bank0
  7662  03F7  1303               	bcf	status, 6	;RP1=0, select bank0
  7663  03F8  0861               	movf	(robot_turnArc@temp1+1),w
  7664  03F9  1683               	bsf	status, 5	;RP0=1, select bank1
  7665  03FA  1303               	bcf	status, 6	;RP1=0, select bank1
  7666  03FB  07B1               	addwf	(_angleTurned+1)^080h,f
  7667                           	line	496
  7668                           	
  7669  03FC                     l11967:	
  7670                           ;robot.c: 496: temp1 = DistHighByte;
  7671  03FC  087D               	movf	(_DistHighByte),w	;volatile
  7672  03FD  1283               	bcf	status, 5	;RP0=0, select bank0
  7673  03FE  1303               	bcf	status, 6	;RP1=0, select bank0
  7674  03FF  00D9               	movwf	(??_robot_turnArc+0)+0
  7675  0400  01DA               	clrf	(??_robot_turnArc+0)+0+1
  7676  0401  0859               	movf	0+(??_robot_turnArc+0)+0,w
  7677  0402  00E0               	movwf	(robot_turnArc@temp1)
  7678  0403  085A               	movf	1+(??_robot_turnArc+0)+0,w
  7679  0404  00E1               	movwf	(robot_turnArc@temp1+1)
  7680                           	line	497
  7681                           ;robot.c: 497: temp1 = temp1 << 8;
  7682  0405  0861               	movf	(robot_turnArc@temp1+1),w
  7683  0406  00DA               	movwf	(??_robot_turnArc+0)+0+1
  7684  0407  0860               	movf	(robot_turnArc@temp1),w
  7685  0408  00D9               	movwf	(??_robot_turnArc+0)+0
  7686  0409  0859               	movf	(??_robot_turnArc+0)+0,w
  7687  040A  00DA               	movwf	(??_robot_turnArc+0)+1
  7688  040B  01D9               	clrf	(??_robot_turnArc+0)+0
  7689  040C  0859               	movf	0+(??_robot_turnArc+0)+0,w
  7690  040D  00E0               	movwf	(robot_turnArc@temp1)
  7691  040E  085A               	movf	1+(??_robot_turnArc+0)+0,w
  7692  040F  00E1               	movwf	(robot_turnArc@temp1+1)
  7693                           	line	498
  7694                           	
  7695  0410                     l11969:	
  7696                           ;robot.c: 498: temp1 += DistLowByte;
  7697  0410  1683               	bsf	status, 5	;RP0=1, select bank1
  7698  0411  1303               	bcf	status, 6	;RP1=0, select bank1
  7699  0412  0845               	movf	(_DistLowByte)^080h,w	;volatile
  7700  0413  1283               	bcf	status, 5	;RP0=0, select bank0
  7701  0414  1303               	bcf	status, 6	;RP1=0, select bank0
  7702  0415  00D9               	movwf	(??_robot_turnArc+0)+0
  7703  0416  01DA               	clrf	(??_robot_turnArc+0)+0+1
  7704  0417  0859               	movf	0+(??_robot_turnArc+0)+0,w
  7705  0418  07E0               	addwf	(robot_turnArc@temp1),f
  7706  0419  1803               	skipnc
  7707  041A  0AE1               	incf	(robot_turnArc@temp1+1),f
  7708  041B  085A               	movf	1+(??_robot_turnArc+0)+0,w
  7709  041C  07E1               	addwf	(robot_turnArc@temp1+1),f
  7710                           	line	499
  7711                           	
  7712  041D                     l11971:	
  7713                           ;robot.c: 499: distTravelled += temp1;
  7714  041D  0860               	movf	(robot_turnArc@temp1),w
  7715  041E  1683               	bsf	status, 5	;RP0=1, select bank1
  7716  041F  1303               	bcf	status, 6	;RP1=0, select bank1
  7717  0420  07B2               	addwf	(_distTravelled)^080h,f
  7718  0421  1803               	skipnc
  7719  0422  0AB3               	incf	(_distTravelled+1)^080h,f
  7720  0423  1283               	bcf	status, 5	;RP0=0, select bank0
  7721  0424  1303               	bcf	status, 6	;RP1=0, select bank0
  7722  0425  0861               	movf	(robot_turnArc@temp1+1),w
  7723  0426  1683               	bsf	status, 5	;RP0=1, select bank1
  7724  0427  1303               	bcf	status, 6	;RP1=0, select bank1
  7725  0428  07B3               	addwf	(_distTravelled+1)^080h,f
  7726                           	line	500
  7727                           	
  7728  0429                     l11973:	
  7729                           ;robot.c: 500: TotalDistTravelled += temp1;
  7730  0429  1283               	bcf	status, 5	;RP0=0, select bank0
  7731  042A  1303               	bcf	status, 6	;RP1=0, select bank0
  7732  042B  0860               	movf	(robot_turnArc@temp1),w
  7733  042C  1683               	bsf	status, 5	;RP0=1, select bank1
  7734  042D  1303               	bcf	status, 6	;RP1=0, select bank1
  7735  042E  07AC               	addwf	(_TotalDistTravelled)^080h,f
  7736  042F  1803               	skipnc
  7737  0430  0AAD               	incf	(_TotalDistTravelled+1)^080h,f
  7738  0431  1283               	bcf	status, 5	;RP0=0, select bank0
  7739  0432  1303               	bcf	status, 6	;RP1=0, select bank0
  7740  0433  0861               	movf	(robot_turnArc@temp1+1),w
  7741  0434  1683               	bsf	status, 5	;RP0=1, select bank1
  7742  0435  1303               	bcf	status, 6	;RP1=0, select bank1
  7743  0436  07AD               	addwf	(_TotalDistTravelled+1)^080h,f
  7744                           	line	502
  7745                           	
  7746  0437                     l11975:	
  7747                           ;robot.c: 502: UpdateDisplay();
  7748  0437  120A  158A  257B   	fcall	_UpdateDisplay
              120A  118A         
  7749  043C  2C3D               	goto	l11977
  7750                           	line	503
  7751                           	
  7752  043D                     l6307:	
  7753                           	line	465
  7754                           	
  7755  043D                     l11977:	
  7756  043D  1683               	bsf	status, 5	;RP0=1, select bank1
  7757  043E  1303               	bcf	status, 6	;RP1=0, select bank1
  7758  043F  0831               	movf	(_angleTurned+1)^080h,w
  7759  0440  1283               	bcf	status, 5	;RP0=0, select bank0
  7760  0441  1303               	bcf	status, 6	;RP1=0, select bank0
  7761  0442  01A7               	clrf	(?_abs+1)
  7762  0443  07A7               	addwf	(?_abs+1)
  7763  0444  1683               	bsf	status, 5	;RP0=1, select bank1
  7764  0445  1303               	bcf	status, 6	;RP1=0, select bank1
  7765  0446  0830               	movf	(_angleTurned)^080h,w
  7766  0447  1283               	bcf	status, 5	;RP0=0, select bank0
  7767  0448  1303               	bcf	status, 6	;RP1=0, select bank0
  7768  0449  01A6               	clrf	(?_abs)
  7769  044A  07A6               	addwf	(?_abs)
  7770                           
  7771  044B  160A  158A  2457   	fcall	_abs
              120A  118A         
  7772  0450  1283               	bcf	status, 5	;RP0=0, select bank0
  7773  0451  1303               	bcf	status, 6	;RP1=0, select bank0
  7774  0452  0826               	movf	(0+?_abs),w
  7775  0453  00D9               	movwf	(??_robot_turnArc+0)+0
  7776  0454  0827               	movf	(1+?_abs),w
  7777  0455  00DA               	movwf	((??_robot_turnArc+0)+0+1)
  7778  0456  085D               	movf	(robot_turnArc@turnTarget+1),w
  7779  0457  01A7               	clrf	(?_abs+1)
  7780  0458  07A7               	addwf	(?_abs+1)
  7781  0459  085C               	movf	(robot_turnArc@turnTarget),w
  7782  045A  01A6               	clrf	(?_abs)
  7783  045B  07A6               	addwf	(?_abs)
  7784                           
  7785  045C  160A  158A  2457   	fcall	_abs
              120A  118A         
  7786  0461  1283               	bcf	status, 5	;RP0=0, select bank0
  7787  0462  1303               	bcf	status, 6	;RP1=0, select bank0
  7788  0463  085A               	movf	1+(??_robot_turnArc+0)+0,w
  7789  0464  3A80               	xorlw	80h
  7790  0465  00DB               	movwf	(??_robot_turnArc+2)+0
  7791  0466  0827               	movf	(1+(?_abs)),w
  7792  0467  3A80               	xorlw	80h
  7793  0468  025B               	subwf	(??_robot_turnArc+2)+0,w
  7794  0469  1D03               	skipz
  7795  046A  2C6D               	goto	u5315
  7796  046B  0826               	movf	(0+(?_abs)),w
  7797  046C  0259               	subwf	0+(??_robot_turnArc+0)+0,w
  7798  046D                     u5315:
  7799                           
  7800  046D  1C03               	skipc
  7801  046E  2C70               	goto	u5311
  7802  046F  2C71               	goto	u5310
  7803  0470                     u5311:
  7804  0470  2B58               	goto	l11933
  7805  0471                     u5310:
  7806  0471  2C72               	goto	l11979
  7807                           	
  7808  0472                     l6310:	
  7809                           	line	504
  7810                           	
  7811  0472                     l11979:	
  7812                           ;robot.c: 503: }
  7813                           ;robot.c: 504: Disp2 = ROBOTerror;
  7814  0472  1683               	bsf	status, 5	;RP0=1, select bank1
  7815  0473  1303               	bcf	status, 6	;RP1=0, select bank1
  7816  0474  0849               	movf	(_ROBOTerror)^080h,w
  7817  0475  1283               	bcf	status, 5	;RP0=0, select bank0
  7818  0476  1303               	bcf	status, 6	;RP1=0, select bank0
  7819  0477  00D9               	movwf	(??_robot_turnArc+0)+0
  7820  0478  01DA               	clrf	(??_robot_turnArc+0)+0+1
  7821  0479  0859               	movf	0+(??_robot_turnArc+0)+0,w
  7822  047A  1683               	bsf	status, 5	;RP0=1, select bank1
  7823  047B  1303               	bcf	status, 6	;RP1=0, select bank1
  7824  047C  00A6               	movwf	(_Disp2)^080h
  7825  047D  1283               	bcf	status, 5	;RP0=0, select bank0
  7826  047E  1303               	bcf	status, 6	;RP1=0, select bank0
  7827  047F  085A               	movf	1+(??_robot_turnArc+0)+0,w
  7828  0480  1683               	bsf	status, 5	;RP0=1, select bank1
  7829  0481  1303               	bcf	status, 6	;RP1=0, select bank1
  7830  0482  00A7               	movwf	(_Disp2+1)^080h
  7831                           	line	505
  7832                           	
  7833  0483                     l11981:	
  7834                           ;robot.c: 505: UpdateDisplay();
  7835  0483  120A  158A  257B   	fcall	_UpdateDisplay
              120A  118A         
  7836                           	line	508
  7837                           	
  7838  0488                     l6314:	
  7839  0488  0008               	return
  7840                           	opt stack 0
  7841                           GLOBAL	__end_of_robot_turnArc
  7842  0489                     	__end_of_robot_turnArc:
  7843 ;; =============== function _robot_turnArc ends ============
  7844                           
  7845                           	signat	_robot_turnArc,4216
  7846                           	global	_robotTurnSpeed
  7847                           psect	text1100,local,class=CODE,delta=2
  7848                           global __ptext1100
  7849  1245                     __ptext1100:
  7850                           
  7851 ;; *************** function _robotTurnSpeed *****************
  7852 ;; Defined at:
  7853 ;;		line 566 in file "E:\Aldnoah.Zero\Assignment3\robot.c"
  7854 ;; Parameters:    Size  Location     Type
  7855 ;;  angle           2   55[BANK0 ] int 
  7856 ;;  speed           2   57[BANK0 ] int 
  7857 ;; Auto vars:     Size  Location     Type
  7858 ;;  temp1           2   62[BANK0 ] int 
  7859 ;; Return value:  Size  Location     Type
  7860 ;;		None               void
  7861 ;; Registers used:
  7862 ;;		wreg, fsr0l, fsr0h, status,2, status,0, btemp+1, pclath, cstack
  7863 ;; Tracked objects:
  7864 ;;		On entry : 0/0
  7865 ;;		On exit  : 0/0
  7866 ;;		Unchanged: 0/0
  7867 ;; Data sizes:     COMMON   BANK0   BANK1   BANK3   BANK2
  7868 ;;      Params:         0       4       0       0       0
  7869 ;;      Locals:         0       2       0       0       0
  7870 ;;      Temps:          0       3       0       0       0
  7871 ;;      Totals:         0       9       0       0       0
  7872 ;;Total ram usage:        9 bytes
  7873 ;; Hardware stack levels used:    1
  7874 ;; Hardware stack levels required when called:    5
  7875 ;; This function calls:
  7876 ;;		_robotTurn
  7877 ;;		_robot_read
  7878 ;;		_UpdateDisplay
  7879 ;;		_abs
  7880 ;; This function is called by:
  7881 ;;		_GoHome
  7882 ;;		_FindVictim
  7883 ;;		_robotFollow
  7884 ;;		_robot_turnInPlace
  7885 ;; This function uses a non-reentrant model
  7886 ;;
  7887                           psect	text1100
  7888                           	file	"E:\Aldnoah.Zero\Assignment3\robot.c"
  7889                           	line	566
  7890                           	global	__size_of_robotTurnSpeed
  7891  00A4                     	__size_of_robotTurnSpeed	equ	__end_of_robotTurnSpeed-_robotTurnSpeed
  7892                           	
  7893  1245                     _robotTurnSpeed:	
  7894                           	opt	stack 0
  7895                           ; Regs used in _robotTurnSpeed: [wreg-fsr0h+status,2+status,0+btemp+1+pclath+cstack]
  7896                           	line	567
  7897                           	
  7898  1245                     l11775:	
  7899                           ;robot.c: 567: angleTurned = 0;
  7900  1245  1683               	bsf	status, 5	;RP0=1, select bank1
  7901  1246  1303               	bcf	status, 6	;RP1=0, select bank1
  7902  1247  01B0               	clrf	(_angleTurned)^080h
  7903  1248  01B1               	clrf	(_angleTurned+1)^080h
  7904                           	line	568
  7905                           ;robot.c: 568: int temp1 = 0;
  7906  1249  1283               	bcf	status, 5	;RP0=0, select bank0
  7907  124A  1303               	bcf	status, 6	;RP1=0, select bank0
  7908  124B  01DE               	clrf	(robotTurnSpeed@temp1)
  7909  124C  01DF               	clrf	(robotTurnSpeed@temp1+1)
  7910                           	line	570
  7911                           	
  7912  124D                     l11777:	
  7913                           ;robot.c: 570: robotTurn(angle);
  7914  124D  0858               	movf	(robotTurnSpeed@angle+1),w
  7915  124E  01A3               	clrf	(?_robotTurn+1)
  7916  124F  07A3               	addwf	(?_robotTurn+1)
  7917  1250  0857               	movf	(robotTurnSpeed@angle),w
  7918  1251  01A2               	clrf	(?_robotTurn)
  7919  1252  07A2               	addwf	(?_robotTurn)
  7920                           
  7921  1253  160A  158A  2716   	fcall	_robotTurn
              160A  118A         
  7922                           	line	573
  7923                           ;robot.c: 573: while (abs(angleTurned) < abs(angle))
  7924  1258  2AA8               	goto	l11799
  7925                           	
  7926  1259                     l6328:	
  7927                           	line	575
  7928                           	
  7929  1259                     l11779:	
  7930                           ;robot.c: 574: {
  7931                           ;robot.c: 575: robot_read(1);
  7932  1259  3001               	movlw	(01h)
  7933  125A  160A  118A  26DE   	fcall	_robot_read
              160A  118A         
  7934                           	line	576
  7935                           	
  7936  125F                     l11781:	
  7937                           ;robot.c: 576: if (BumpSensors || VwallSensor)
  7938  125F  1683               	bsf	status, 5	;RP0=1, select bank1
  7939  1260  1303               	bcf	status, 6	;RP1=0, select bank1
  7940  1261  08C2               	movf	(_BumpSensors)^080h,f
  7941  1262  1D03               	skipz	;volatile
  7942  1263  2A65               	goto	u5101
  7943  1264  2A66               	goto	u5100
  7944  1265                     u5101:
  7945  1265  2A6B               	goto	l11785
  7946  1266                     u5100:
  7947                           	
  7948  1266                     l11783:	
  7949  1266  084E               	movf	(_VwallSensor)^080h,w	;volatile
  7950  1267  1D03               	skipz
  7951  1268  2A6A               	goto	u5110
  7952  1269  2A6F               	goto	l11787
  7953  126A                     u5110:
  7954  126A  2A6B               	goto	l11785
  7955                           	
  7956  126B                     l6331:	
  7957                           	line	578
  7958                           	
  7959  126B                     l11785:	
  7960                           ;robot.c: 577: {
  7961                           ;robot.c: 578: ROBOTerror = 1;
  7962  126B  01C9               	clrf	(_ROBOTerror)^080h
  7963  126C  1403               	bsf	status,0
  7964  126D  0DC9               	rlf	(_ROBOTerror)^080h,f
  7965                           	line	579
  7966                           ;robot.c: 579: break;
  7967  126E  2ADD               	goto	l11801
  7968                           	line	580
  7969                           	
  7970  126F                     l6329:	
  7971                           	line	581
  7972                           	
  7973  126F                     l11787:	
  7974                           ;robot.c: 580: }
  7975                           ;robot.c: 581: temp1 = AngleHighByte;
  7976  126F  0840               	movf	(_AngleHighByte)^080h,w	;volatile
  7977  1270  1283               	bcf	status, 5	;RP0=0, select bank0
  7978  1271  1303               	bcf	status, 6	;RP1=0, select bank0
  7979  1272  00DB               	movwf	(??_robotTurnSpeed+0)+0
  7980  1273  01DC               	clrf	(??_robotTurnSpeed+0)+0+1
  7981  1274  085B               	movf	0+(??_robotTurnSpeed+0)+0,w
  7982  1275  00DE               	movwf	(robotTurnSpeed@temp1)
  7983  1276  085C               	movf	1+(??_robotTurnSpeed+0)+0,w
  7984  1277  00DF               	movwf	(robotTurnSpeed@temp1+1)
  7985                           	line	582
  7986                           	
  7987  1278                     l11789:	
  7988                           ;robot.c: 582: temp1 = temp1 << 8;
  7989  1278  085F               	movf	(robotTurnSpeed@temp1+1),w
  7990  1279  00DC               	movwf	(??_robotTurnSpeed+0)+0+1
  7991  127A  085E               	movf	(robotTurnSpeed@temp1),w
  7992  127B  00DB               	movwf	(??_robotTurnSpeed+0)+0
  7993  127C  085B               	movf	(??_robotTurnSpeed+0)+0,w
  7994  127D  00DC               	movwf	(??_robotTurnSpeed+0)+1
  7995  127E  01DB               	clrf	(??_robotTurnSpeed+0)+0
  7996  127F  085B               	movf	0+(??_robotTurnSpeed+0)+0,w
  7997  1280  00DE               	movwf	(robotTurnSpeed@temp1)
  7998  1281  085C               	movf	1+(??_robotTurnSpeed+0)+0,w
  7999  1282  00DF               	movwf	(robotTurnSpeed@temp1+1)
  8000                           	line	583
  8001                           	
  8002  1283                     l11791:	
  8003                           ;robot.c: 583: temp1 += AngleLowByte;
  8004  1283  1683               	bsf	status, 5	;RP0=1, select bank1
  8005  1284  1303               	bcf	status, 6	;RP1=0, select bank1
  8006  1285  0841               	movf	(_AngleLowByte)^080h,w	;volatile
  8007  1286  1283               	bcf	status, 5	;RP0=0, select bank0
  8008  1287  1303               	bcf	status, 6	;RP1=0, select bank0
  8009  1288  00DB               	movwf	(??_robotTurnSpeed+0)+0
  8010  1289  01DC               	clrf	(??_robotTurnSpeed+0)+0+1
  8011  128A  085B               	movf	0+(??_robotTurnSpeed+0)+0,w
  8012  128B  07DE               	addwf	(robotTurnSpeed@temp1),f
  8013  128C  1803               	skipnc
  8014  128D  0ADF               	incf	(robotTurnSpeed@temp1+1),f
  8015  128E  085C               	movf	1+(??_robotTurnSpeed+0)+0,w
  8016  128F  07DF               	addwf	(robotTurnSpeed@temp1+1),f
  8017                           	line	584
  8018                           	
  8019  1290                     l11793:	
  8020                           ;robot.c: 584: angleTurned += temp1;
  8021  1290  085E               	movf	(robotTurnSpeed@temp1),w
  8022  1291  1683               	bsf	status, 5	;RP0=1, select bank1
  8023  1292  1303               	bcf	status, 6	;RP1=0, select bank1
  8024  1293  07B0               	addwf	(_angleTurned)^080h,f
  8025  1294  1803               	skipnc
  8026  1295  0AB1               	incf	(_angleTurned+1)^080h,f
  8027  1296  1283               	bcf	status, 5	;RP0=0, select bank0
  8028  1297  1303               	bcf	status, 6	;RP1=0, select bank0
  8029  1298  085F               	movf	(robotTurnSpeed@temp1+1),w
  8030  1299  1683               	bsf	status, 5	;RP0=1, select bank1
  8031  129A  1303               	bcf	status, 6	;RP1=0, select bank1
  8032  129B  07B1               	addwf	(_angleTurned+1)^080h,f
  8033                           	line	585
  8034                           	
  8035  129C                     l11795:	
  8036                           ;robot.c: 585: Disp2 = angleTurned;
  8037  129C  0831               	movf	(_angleTurned+1)^080h,w
  8038  129D  01A7               	clrf	(_Disp2+1)^080h
  8039  129E  07A7               	addwf	(_Disp2+1)^080h
  8040  129F  0830               	movf	(_angleTurned)^080h,w
  8041  12A0  01A6               	clrf	(_Disp2)^080h
  8042  12A1  07A6               	addwf	(_Disp2)^080h
  8043                           
  8044                           	line	586
  8045                           	
  8046  12A2                     l11797:	
  8047                           ;robot.c: 586: UpdateDisplay();
  8048  12A2  120A  158A  257B   	fcall	_UpdateDisplay
              160A  118A         
  8049  12A7  2AA8               	goto	l11799
  8050                           	line	587
  8051                           	
  8052  12A8                     l6327:	
  8053                           	line	573
  8054                           	
  8055  12A8                     l11799:	
  8056  12A8  1683               	bsf	status, 5	;RP0=1, select bank1
  8057  12A9  1303               	bcf	status, 6	;RP1=0, select bank1
  8058  12AA  0831               	movf	(_angleTurned+1)^080h,w
  8059  12AB  1283               	bcf	status, 5	;RP0=0, select bank0
  8060  12AC  1303               	bcf	status, 6	;RP1=0, select bank0
  8061  12AD  01A7               	clrf	(?_abs+1)
  8062  12AE  07A7               	addwf	(?_abs+1)
  8063  12AF  1683               	bsf	status, 5	;RP0=1, select bank1
  8064  12B0  1303               	bcf	status, 6	;RP1=0, select bank1
  8065  12B1  0830               	movf	(_angleTurned)^080h,w
  8066  12B2  1283               	bcf	status, 5	;RP0=0, select bank0
  8067  12B3  1303               	bcf	status, 6	;RP1=0, select bank0
  8068  12B4  01A6               	clrf	(?_abs)
  8069  12B5  07A6               	addwf	(?_abs)
  8070                           
  8071  12B6  160A  158A  2457   	fcall	_abs
              160A  118A         
  8072  12BB  1283               	bcf	status, 5	;RP0=0, select bank0
  8073  12BC  1303               	bcf	status, 6	;RP1=0, select bank0
  8074  12BD  0826               	movf	(0+?_abs),w
  8075  12BE  00DB               	movwf	(??_robotTurnSpeed+0)+0
  8076  12BF  0827               	movf	(1+?_abs),w
  8077  12C0  00DC               	movwf	((??_robotTurnSpeed+0)+0+1)
  8078  12C1  0858               	movf	(robotTurnSpeed@angle+1),w
  8079  12C2  01A7               	clrf	(?_abs+1)
  8080  12C3  07A7               	addwf	(?_abs+1)
  8081  12C4  0857               	movf	(robotTurnSpeed@angle),w
  8082  12C5  01A6               	clrf	(?_abs)
  8083  12C6  07A6               	addwf	(?_abs)
  8084                           
  8085  12C7  160A  158A  2457   	fcall	_abs
              160A  118A         
  8086  12CC  1283               	bcf	status, 5	;RP0=0, select bank0
  8087  12CD  1303               	bcf	status, 6	;RP1=0, select bank0
  8088  12CE  085C               	movf	1+(??_robotTurnSpeed+0)+0,w
  8089  12CF  3A80               	xorlw	80h
  8090  12D0  00DD               	movwf	(??_robotTurnSpeed+2)+0
  8091  12D1  0827               	movf	(1+(?_abs)),w
  8092  12D2  3A80               	xorlw	80h
  8093  12D3  025D               	subwf	(??_robotTurnSpeed+2)+0,w
  8094  12D4  1D03               	skipz
  8095  12D5  2AD8               	goto	u5125
  8096  12D6  0826               	movf	(0+(?_abs)),w
  8097  12D7  025B               	subwf	0+(??_robotTurnSpeed+0)+0,w
  8098  12D8                     u5125:
  8099                           
  8100  12D8  1C03               	skipc
  8101  12D9  2ADB               	goto	u5121
  8102  12DA  2ADC               	goto	u5120
  8103  12DB                     u5121:
  8104  12DB  2A59               	goto	l11779
  8105  12DC                     u5120:
  8106  12DC  2ADD               	goto	l11801
  8107                           	
  8108  12DD                     l6332:	
  8109                           	line	589
  8110                           	
  8111  12DD                     l11801:	
  8112                           ;robot.c: 587: }
  8113                           ;robot.c: 589: robotTurn(0);
  8114  12DD  3000               	movlw	low(0)
  8115  12DE  1283               	bcf	status, 5	;RP0=0, select bank0
  8116  12DF  1303               	bcf	status, 6	;RP1=0, select bank0
  8117  12E0  00A2               	movwf	(?_robotTurn)
  8118  12E1  3000               	movlw	high(0)
  8119  12E2  00A3               	movwf	((?_robotTurn))+1
  8120  12E3  160A  158A  2716   	fcall	_robotTurn
              160A  118A         
  8121                           	line	590
  8122                           	
  8123  12E8                     l6333:	
  8124  12E8  0008               	return
  8125                           	opt stack 0
  8126                           GLOBAL	__end_of_robotTurnSpeed
  8127  12E9                     	__end_of_robotTurnSpeed:
  8128 ;; =============== function _robotTurnSpeed ends ============
  8129                           
  8130                           	signat	_robotTurnSpeed,8312
  8131                           	global	_ChargeMode
  8132                           psect	text1101,local,class=CODE,delta=2
  8133                           global __ptext1101
  8134  1D8A                     __ptext1101:
  8135                           
  8136 ;; *************** function _ChargeMode *****************
  8137 ;; Defined at:
  8138 ;;		line 438 in file "E:\Aldnoah.Zero\Assignment3\Main.c"
  8139 ;; Parameters:    Size  Location     Type
  8140 ;;		None
  8141 ;; Auto vars:     Size  Location     Type
  8142 ;;		None
  8143 ;; Return value:  Size  Location     Type
  8144 ;;		None               void
  8145 ;; Registers used:
  8146 ;;		wreg, fsr0l, fsr0h, status,2, status,0, btemp+1, pclath, cstack
  8147 ;; Tracked objects:
  8148 ;;		On entry : 0/0
  8149 ;;		On exit  : 0/0
  8150 ;;		Unchanged: 0/0
  8151 ;; Data sizes:     COMMON   BANK0   BANK1   BANK3   BANK2
  8152 ;;      Params:         0       0       0       0       0
  8153 ;;      Locals:         0       0       0       0       0
  8154 ;;      Temps:          0       1       0       0       0
  8155 ;;      Totals:         0       1       0       0       0
  8156 ;;Total ram usage:        1 bytes
  8157 ;; Hardware stack levels used:    1
  8158 ;; Hardware stack levels required when called:    5
  8159 ;; This function calls:
  8160 ;;		_ser_putch
  8161 ;;		_RobotBattRead
  8162 ;;		_UpdateDisplay
  8163 ;; This function is called by:
  8164 ;;		_main
  8165 ;; This function uses a non-reentrant model
  8166 ;;
  8167                           psect	text1101
  8168                           	file	"E:\Aldnoah.Zero\Assignment3\Main.c"
  8169                           	line	438
  8170                           	global	__size_of_ChargeMode
  8171  004D                     	__size_of_ChargeMode	equ	__end_of_ChargeMode-_ChargeMode
  8172                           	
  8173  1D8A                     _ChargeMode:	
  8174                           	opt	stack 2
  8175                           ; Regs used in _ChargeMode: [wreg-fsr0h+status,2+status,0+btemp+1+pclath+cstack]
  8176                           	line	440
  8177                           	
  8178  1D8A                     l11753:	
  8179                           ;Main.c: 440: currentMenu = 2;
  8180  1D8A  3002               	movlw	(02h)
  8181  1D8B  1283               	bcf	status, 5	;RP0=0, select bank0
  8182  1D8C  1303               	bcf	status, 6	;RP1=0, select bank0
  8183  1D8D  00D7               	movwf	(??_ChargeMode+0)+0
  8184  1D8E  0857               	movf	(??_ChargeMode+0)+0,w
  8185  1D8F  1683               	bsf	status, 5	;RP0=1, select bank1
  8186  1D90  1303               	bcf	status, 6	;RP1=0, select bank1
  8187  1D91  00D0               	movwf	(_currentMenu)^080h	;volatile
  8188                           	line	441
  8189                           	
  8190  1D92                     l11755:	
  8191                           ;Main.c: 441: ser_putch(128);
  8192  1D92  3080               	movlw	(080h)
  8193  1D93  160A  158A  23FB   	fcall	_ser_putch
              160A  158A         
  8194  1D98  2D99               	goto	l11757
  8195                           	line	443
  8196                           ;Main.c: 443: while (1)
  8197                           	
  8198  1D99                     l2376:	
  8199                           	line	445
  8200                           	
  8201  1D99                     l11757:	
  8202                           ;Main.c: 444: {
  8203                           ;Main.c: 445: if (RTC_FLAG_250MS == 1)
  8204  1D99  1FF0               	btfss	(_RTC_FLAG_250MS/8),(_RTC_FLAG_250MS)&7
  8205  1D9A  2D9C               	goto	u5091
  8206  1D9B  2D9D               	goto	u5090
  8207  1D9C                     u5091:
  8208  1D9C  2DC1               	goto	l11773
  8209  1D9D                     u5090:
  8210                           	line	447
  8211                           	
  8212  1D9D                     l11759:	
  8213                           ;Main.c: 446: {
  8214                           ;Main.c: 447: RTC_FLAG_250MS = 0;
  8215  1D9D  13F0               	bcf	(_RTC_FLAG_250MS/8),(_RTC_FLAG_250MS)&7
  8216                           	line	448
  8217                           	
  8218  1D9E                     l11761:	
  8219                           ;Main.c: 448: RobotBattRead();
  8220  1D9E  160A  118A  21BC   	fcall	_RobotBattRead
              160A  158A         
  8221                           	line	449
  8222                           ;Main.c: 449: UpdateDisplay();
  8223  1DA3  120A  158A  257B   	fcall	_UpdateDisplay
              160A  158A         
  8224  1DA8  2DC1               	goto	l11773
  8225                           	line	450
  8226                           	
  8227  1DA9                     l2377:	
  8228                           	line	451
  8229                           ;Main.c: 450: }
  8230                           ;Main.c: 451: switch (buttonPressed)
  8231  1DA9  2DC1               	goto	l11773
  8232                           	line	453
  8233                           ;Main.c: 452: {
  8234                           ;Main.c: 453: case 1:
  8235                           	
  8236  1DAA                     l2379:	
  8237                           	line	454
  8238                           ;Main.c: 454: buttonPressed = 0;
  8239  1DAA  01CF               	clrf	(_buttonPressed)^080h	;volatile
  8240                           	line	455
  8241                           ;Main.c: 455: break;
  8242  1DAB  2D99               	goto	l11757
  8243                           	line	456
  8244                           ;Main.c: 456: case 2:
  8245                           	
  8246  1DAC                     l2381:	
  8247                           	line	457
  8248                           ;Main.c: 457: buttonPressed = 0;
  8249  1DAC  01CF               	clrf	(_buttonPressed)^080h	;volatile
  8250                           	line	458
  8251                           ;Main.c: 458: break;
  8252  1DAD  2D99               	goto	l11757
  8253                           	line	459
  8254                           ;Main.c: 459: case 3:
  8255                           	
  8256  1DAE                     l2382:	
  8257                           	line	460
  8258                           ;Main.c: 460: buttonPressed = 0;
  8259  1DAE  01CF               	clrf	(_buttonPressed)^080h	;volatile
  8260                           	line	461
  8261                           ;Main.c: 461: break;
  8262  1DAF  2D99               	goto	l11757
  8263                           	line	462
  8264                           ;Main.c: 462: case 4:
  8265                           	
  8266  1DB0                     l2383:	
  8267                           	line	463
  8268                           ;Main.c: 463: buttonPressed = 0;
  8269  1DB0  01CF               	clrf	(_buttonPressed)^080h	;volatile
  8270                           	line	464
  8271                           ;Main.c: 464: break;
  8272  1DB1  2D99               	goto	l11757
  8273                           	line	465
  8274                           ;Main.c: 465: case 5:
  8275                           	
  8276  1DB2                     l2384:	
  8277                           	line	466
  8278                           	
  8279  1DB2                     l11763:	
  8280                           ;Main.c: 466: ser_putch(132);
  8281  1DB2  3084               	movlw	(084h)
  8282  1DB3  160A  158A  23FB   	fcall	_ser_putch
              160A  158A         
  8283                           	line	467
  8284                           	
  8285  1DB8                     l11765:	
  8286                           ;Main.c: 467: buttonPressed = 0;
  8287  1DB8  1683               	bsf	status, 5	;RP0=1, select bank1
  8288  1DB9  1303               	bcf	status, 6	;RP1=0, select bank1
  8289  1DBA  01CF               	clrf	(_buttonPressed)^080h	;volatile
  8290                           	line	468
  8291                           	
  8292  1DBB                     l11767:	
  8293                           ;Main.c: 468: currentMenu = 0;
  8294  1DBB  01D0               	clrf	(_currentMenu)^080h	;volatile
  8295  1DBC  2DD6               	goto	l2385
  8296                           	line	469
  8297                           	
  8298  1DBD                     l11769:	
  8299                           ;Main.c: 469: return;
  8300  1DBD  2DD6               	goto	l2385
  8301                           	line	470
  8302                           ;Main.c: 470: default:
  8303                           	
  8304  1DBE                     l2386:	
  8305                           	line	471
  8306                           ;Main.c: 471: buttonPressed = 0;
  8307  1DBE  01CF               	clrf	(_buttonPressed)^080h	;volatile
  8308                           	line	472
  8309                           ;Main.c: 472: break;
  8310  1DBF  2D99               	goto	l11757
  8311                           	line	473
  8312                           	
  8313  1DC0                     l11771:	
  8314                           ;Main.c: 473: }
  8315  1DC0  2D99               	goto	l11757
  8316                           	line	451
  8317                           	
  8318  1DC1                     l2378:	
  8319                           	
  8320  1DC1                     l11773:	
  8321  1DC1  1683               	bsf	status, 5	;RP0=1, select bank1
  8322  1DC2  1303               	bcf	status, 6	;RP1=0, select bank1
  8323  1DC3  084F               	movf	(_buttonPressed)^080h,w	;volatile
  8324                           	; Switch size 1, requested type "space"
  8325                           ; Number of cases is 5, Range of values is 1 to 5
  8326                           ; switch strategies available:
  8327                           ; Name         Instructions Cycles
  8328                           ; simple_byte           16     9 (average)
  8329                           ; direct_byte           26    11 (fixed)
  8330                           ; jumptable            263     9 (fixed)
  8331                           ;	Chosen strategy is simple_byte
  8332                           
  8333                           	opt asmopt_off
  8334  1DC4  3A01               	xorlw	1^0	; case 1
  8335  1DC5  1903               	skipnz
  8336  1DC6  2DAA               	goto	l2379
  8337  1DC7  3A03               	xorlw	2^1	; case 2
  8338  1DC8  1903               	skipnz
  8339  1DC9  2DAC               	goto	l2381
  8340  1DCA  3A01               	xorlw	3^2	; case 3
  8341  1DCB  1903               	skipnz
  8342  1DCC  2DAE               	goto	l2382
  8343  1DCD  3A07               	xorlw	4^3	; case 4
  8344  1DCE  1903               	skipnz
  8345  1DCF  2DB0               	goto	l2383
  8346  1DD0  3A01               	xorlw	5^4	; case 5
  8347  1DD1  1903               	skipnz
  8348  1DD2  2DB2               	goto	l11763
  8349  1DD3  2DBE               	goto	l2386
  8350                           	opt asmopt_on
  8351                           
  8352                           	line	473
  8353                           	
  8354  1DD4                     l2380:	
  8355  1DD4  2D99               	goto	l11757
  8356                           	line	474
  8357                           	
  8358  1DD5                     l2387:	
  8359                           	line	443
  8360  1DD5  2D99               	goto	l11757
  8361                           	
  8362  1DD6                     l2388:	
  8363                           	line	475
  8364                           	
  8365  1DD6                     l2385:	
  8366  1DD6  0008               	return
  8367                           	opt stack 0
  8368                           GLOBAL	__end_of_ChargeMode
  8369  1DD7                     	__end_of_ChargeMode:
  8370 ;; =============== function _ChargeMode ends ============
  8371                           
  8372                           	signat	_ChargeMode,88
  8373                           	global	_calibrateIR
  8374                           psect	text1102,local,class=CODE,delta=2
  8375                           global __ptext1102
  8376  1EA6                     __ptext1102:
  8377                           
  8378 ;; *************** function _calibrateIR *****************
  8379 ;; Defined at:
  8380 ;;		line 396 in file "E:\Aldnoah.Zero\Assignment3\Main.c"
  8381 ;; Parameters:    Size  Location     Type
  8382 ;;		None
  8383 ;; Auto vars:     Size  Location     Type
  8384 ;;		None
  8385 ;; Return value:  Size  Location     Type
  8386 ;;		None               void
  8387 ;; Registers used:
  8388 ;;		wreg, fsr0l, fsr0h, status,2, status,0, btemp+1, pclath, cstack
  8389 ;; Tracked objects:
  8390 ;;		On entry : 0/0
  8391 ;;		On exit  : 0/0
  8392 ;;		Unchanged: 0/0
  8393 ;; Data sizes:     COMMON   BANK0   BANK1   BANK3   BANK2
  8394 ;;      Params:         0       0       0       0       0
  8395 ;;      Locals:         0       0       0       0       0
  8396 ;;      Temps:          0       0       0       0       0
  8397 ;;      Totals:         0       0       0       0       0
  8398 ;;Total ram usage:        0 bytes
  8399 ;; Hardware stack levels used:    1
  8400 ;; Hardware stack levels required when called:    5
  8401 ;; This function calls:
  8402 ;;		_rotate
  8403 ;;		_UpdateDisplay
  8404 ;; This function is called by:
  8405 ;;		_main
  8406 ;;		_Init_Follow_IR
  8407 ;; This function uses a non-reentrant model
  8408 ;;
  8409                           psect	text1102
  8410                           	file	"E:\Aldnoah.Zero\Assignment3\Main.c"
  8411                           	line	396
  8412                           	global	__size_of_calibrateIR
  8413  0070                     	__size_of_calibrateIR	equ	__end_of_calibrateIR-_calibrateIR
  8414                           	
  8415  1EA6                     _calibrateIR:	
  8416                           	opt	stack 1
  8417                           ; Regs used in _calibrateIR: [wreg-fsr0h+status,2+status,0+btemp+1+pclath+cstack]
  8418                           	line	397
  8419                           	
  8420  1EA6                     l11721:	
  8421                           ;Main.c: 397: currentMenu = 1;
  8422  1EA6  1683               	bsf	status, 5	;RP0=1, select bank1
  8423  1EA7  1303               	bcf	status, 6	;RP1=0, select bank1
  8424  1EA8  01D0               	clrf	(_currentMenu)^080h	;volatile
  8425  1EA9  1403               	bsf	status,0
  8426  1EAA  0DD0               	rlf	(_currentMenu)^080h,f	;volatile
  8427                           	line	398
  8428                           	
  8429  1EAB                     l11723:	
  8430                           ;Main.c: 398: rotate(8, 0);
  8431  1EAB  3008               	movlw	low(08h)
  8432  1EAC  1283               	bcf	status, 5	;RP0=0, select bank0
  8433  1EAD  1303               	bcf	status, 6	;RP1=0, select bank0
  8434  1EAE  00A3               	movwf	(?_rotate)
  8435  1EAF  3000               	movlw	high(08h)
  8436  1EB0  00A4               	movwf	((?_rotate))+1
  8437  1EB1  01A5               	clrf	0+(?_rotate)+02h
  8438  1EB2  160A  158A  25D7   	fcall	_rotate
              160A  158A         
  8439                           	line	399
  8440                           	
  8441  1EB7                     l11725:	
  8442                           ;Main.c: 399: rotate(8, 1);
  8443  1EB7  3008               	movlw	low(08h)
  8444  1EB8  1283               	bcf	status, 5	;RP0=0, select bank0
  8445  1EB9  1303               	bcf	status, 6	;RP1=0, select bank0
  8446  1EBA  00A3               	movwf	(?_rotate)
  8447  1EBB  3000               	movlw	high(08h)
  8448  1EBC  00A4               	movwf	((?_rotate))+1
  8449  1EBD  01A5               	clrf	0+(?_rotate)+02h
  8450  1EBE  1403               	bsf	status,0
  8451  1EBF  0DA5               	rlf	0+(?_rotate)+02h,f
  8452  1EC0  160A  158A  25D7   	fcall	_rotate
              160A  158A         
  8453  1EC5  2EC6               	goto	l11727
  8454                           	line	400
  8455                           ;Main.c: 400: while (1)
  8456                           	
  8457  1EC6                     l2361:	
  8458                           	line	402
  8459                           	
  8460  1EC6                     l11727:	
  8461                           ;Main.c: 401: {
  8462                           ;Main.c: 402: if (RTC_FLAG_250MS == 1)
  8463  1EC6  1FF0               	btfss	(_RTC_FLAG_250MS/8),(_RTC_FLAG_250MS)&7
  8464  1EC7  2EC9               	goto	u5081
  8465  1EC8  2ECA               	goto	u5080
  8466  1EC9                     u5081:
  8467  1EC9  2F00               	goto	l11751
  8468  1ECA                     u5080:
  8469                           	line	404
  8470                           	
  8471  1ECA                     l11729:	
  8472                           ;Main.c: 403: {
  8473                           ;Main.c: 404: RTC_FLAG_250MS = 0;
  8474  1ECA  13F0               	bcf	(_RTC_FLAG_250MS/8),(_RTC_FLAG_250MS)&7
  8475                           	line	405
  8476                           	
  8477  1ECB                     l11731:	
  8478                           ;Main.c: 405: UpdateDisplay();
  8479  1ECB  120A  158A  257B   	fcall	_UpdateDisplay
              160A  158A         
  8480  1ED0  2F00               	goto	l11751
  8481                           	line	406
  8482                           	
  8483  1ED1                     l2362:	
  8484                           	line	407
  8485                           ;Main.c: 406: }
  8486                           ;Main.c: 407: switch (buttonPressed)
  8487  1ED1  2F00               	goto	l11751
  8488                           	line	409
  8489                           ;Main.c: 408: {
  8490                           ;Main.c: 409: case 1:
  8491                           	
  8492  1ED2                     l2364:	
  8493                           	line	410
  8494                           ;Main.c: 410: buttonPressed = 0;
  8495  1ED2  01CF               	clrf	(_buttonPressed)^080h	;volatile
  8496                           	line	411
  8497                           ;Main.c: 411: break;
  8498  1ED3  2EC6               	goto	l11727
  8499                           	line	412
  8500                           ;Main.c: 412: case 2:
  8501                           	
  8502  1ED4                     l2366:	
  8503                           	line	413
  8504                           ;Main.c: 413: buttonPressed = 0;
  8505  1ED4  01CF               	clrf	(_buttonPressed)^080h	;volatile
  8506                           	line	414
  8507                           ;Main.c: 414: break;
  8508  1ED5  2EC6               	goto	l11727
  8509                           	line	415
  8510                           ;Main.c: 415: case 3:
  8511                           	
  8512  1ED6                     l2367:	
  8513                           	line	416
  8514                           	
  8515  1ED6                     l11733:	
  8516                           ;Main.c: 416: rotate(1, 1);
  8517  1ED6  3001               	movlw	low(01h)
  8518  1ED7  1283               	bcf	status, 5	;RP0=0, select bank0
  8519  1ED8  1303               	bcf	status, 6	;RP1=0, select bank0
  8520  1ED9  00A3               	movwf	(?_rotate)
  8521  1EDA  3000               	movlw	high(01h)
  8522  1EDB  00A4               	movwf	((?_rotate))+1
  8523  1EDC  01A5               	clrf	0+(?_rotate)+02h
  8524  1EDD  1403               	bsf	status,0
  8525  1EDE  0DA5               	rlf	0+(?_rotate)+02h,f
  8526  1EDF  160A  158A  25D7   	fcall	_rotate
              160A  158A         
  8527                           	line	417
  8528                           	
  8529  1EE4                     l11735:	
  8530                           ;Main.c: 417: buttonPressed = 0;
  8531  1EE4  1683               	bsf	status, 5	;RP0=1, select bank1
  8532  1EE5  1303               	bcf	status, 6	;RP1=0, select bank1
  8533  1EE6  01CF               	clrf	(_buttonPressed)^080h	;volatile
  8534                           	line	418
  8535                           ;Main.c: 418: break;
  8536  1EE7  2EC6               	goto	l11727
  8537                           	line	419
  8538                           ;Main.c: 419: case 4:
  8539                           	
  8540  1EE8                     l2368:	
  8541                           	line	420
  8542                           	
  8543  1EE8                     l11737:	
  8544                           ;Main.c: 420: rotate(1, 0);
  8545  1EE8  3001               	movlw	low(01h)
  8546  1EE9  1283               	bcf	status, 5	;RP0=0, select bank0
  8547  1EEA  1303               	bcf	status, 6	;RP1=0, select bank0
  8548  1EEB  00A3               	movwf	(?_rotate)
  8549  1EEC  3000               	movlw	high(01h)
  8550  1EED  00A4               	movwf	((?_rotate))+1
  8551  1EEE  01A5               	clrf	0+(?_rotate)+02h
  8552  1EEF  160A  158A  25D7   	fcall	_rotate
              160A  158A         
  8553                           	line	421
  8554                           	
  8555  1EF4                     l11739:	
  8556                           ;Main.c: 421: buttonPressed = 0;
  8557  1EF4  1683               	bsf	status, 5	;RP0=1, select bank1
  8558  1EF5  1303               	bcf	status, 6	;RP1=0, select bank1
  8559  1EF6  01CF               	clrf	(_buttonPressed)^080h	;volatile
  8560                           	line	422
  8561                           ;Main.c: 422: break;
  8562  1EF7  2EC6               	goto	l11727
  8563                           	line	423
  8564                           ;Main.c: 423: case 5:
  8565                           	
  8566  1EF8                     l2369:	
  8567                           	line	425
  8568                           	
  8569  1EF8                     l11741:	
  8570                           ;Main.c: 425: totalSteps = 0;
  8571  1EF8  01BC               	clrf	(_totalSteps)^080h
  8572  1EF9  01BD               	clrf	(_totalSteps+1)^080h
  8573                           	line	426
  8574                           	
  8575  1EFA                     l11743:	
  8576                           ;Main.c: 426: buttonPressed = 0;
  8577  1EFA  01CF               	clrf	(_buttonPressed)^080h	;volatile
  8578                           	line	427
  8579                           	
  8580  1EFB                     l11745:	
  8581                           ;Main.c: 427: currentMenu = 0;
  8582  1EFB  01D0               	clrf	(_currentMenu)^080h	;volatile
  8583  1EFC  2F15               	goto	l2370
  8584                           	line	428
  8585                           	
  8586  1EFD                     l11747:	
  8587                           ;Main.c: 428: return;
  8588  1EFD  2F15               	goto	l2370
  8589                           	line	429
  8590                           ;Main.c: 429: default:
  8591                           	
  8592  1EFE                     l2371:	
  8593                           	line	430
  8594                           ;Main.c: 430: break;
  8595  1EFE  2EC6               	goto	l11727
  8596                           	line	431
  8597                           	
  8598  1EFF                     l11749:	
  8599                           ;Main.c: 431: }
  8600  1EFF  2EC6               	goto	l11727
  8601                           	line	407
  8602                           	
  8603  1F00                     l2363:	
  8604                           	
  8605  1F00                     l11751:	
  8606  1F00  1683               	bsf	status, 5	;RP0=1, select bank1
  8607  1F01  1303               	bcf	status, 6	;RP1=0, select bank1
  8608  1F02  084F               	movf	(_buttonPressed)^080h,w	;volatile
  8609                           	; Switch size 1, requested type "space"
  8610                           ; Number of cases is 5, Range of values is 1 to 5
  8611                           ; switch strategies available:
  8612                           ; Name         Instructions Cycles
  8613                           ; simple_byte           16     9 (average)
  8614                           ; direct_byte           26    11 (fixed)
  8615                           ; jumptable            263     9 (fixed)
  8616                           ;	Chosen strategy is simple_byte
  8617                           
  8618                           	opt asmopt_off
  8619  1F03  3A01               	xorlw	1^0	; case 1
  8620  1F04  1903               	skipnz
  8621  1F05  2ED2               	goto	l2364
  8622  1F06  3A03               	xorlw	2^1	; case 2
  8623  1F07  1903               	skipnz
  8624  1F08  2ED4               	goto	l2366
  8625  1F09  3A01               	xorlw	3^2	; case 3
  8626  1F0A  1903               	skipnz
  8627  1F0B  2ED6               	goto	l11733
  8628  1F0C  3A07               	xorlw	4^3	; case 4
  8629  1F0D  1903               	skipnz
  8630  1F0E  2EE8               	goto	l11737
  8631  1F0F  3A01               	xorlw	5^4	; case 5
  8632  1F10  1903               	skipnz
  8633  1F11  2EF8               	goto	l11741
  8634  1F12  2EC6               	goto	l11727
  8635                           	opt asmopt_on
  8636                           
  8637                           	line	431
  8638                           	
  8639  1F13                     l2365:	
  8640  1F13  2EC6               	goto	l11727
  8641                           	line	432
  8642                           	
  8643  1F14                     l2372:	
  8644                           	line	400
  8645  1F14  2EC6               	goto	l11727
  8646                           	
  8647  1F15                     l2373:	
  8648                           	line	433
  8649                           	
  8650  1F15                     l2370:	
  8651  1F15  0008               	return
  8652                           	opt stack 0
  8653                           GLOBAL	__end_of_calibrateIR
  8654  1F16                     	__end_of_calibrateIR:
  8655 ;; =============== function _calibrateIR ends ============
  8656                           
  8657                           	signat	_calibrateIR,88
  8658                           	global	_UpdateDisplay
  8659                           psect	text1103,local,class=CODE,delta=2
  8660                           global __ptext1103
  8661  0D7B                     __ptext1103:
  8662                           
  8663 ;; *************** function _UpdateDisplay *****************
  8664 ;; Defined at:
  8665 ;;		line 135 in file "E:\Aldnoah.Zero\Assignment3\HMI.c"
  8666 ;; Parameters:    Size  Location     Type
  8667 ;;		None
  8668 ;; Auto vars:     Size  Location     Type
  8669 ;;  tempDist        2   53[BANK0 ] int 
  8670 ;;  LCDOutput      16   37[BANK0 ] unsigned char [16]
  8671 ;; Return value:  Size  Location     Type
  8672 ;;		None               void
  8673 ;; Registers used:
  8674 ;;		wreg, fsr0l, fsr0h, status,2, status,0, btemp+1, pclath, cstack
  8675 ;; Tracked objects:
  8676 ;;		On entry : 0/0
  8677 ;;		On exit  : 0/0
  8678 ;;		Unchanged: 0/0
  8679 ;; Data sizes:     COMMON   BANK0   BANK1   BANK3   BANK2
  8680 ;;      Params:         0       0       0       0       0
  8681 ;;      Locals:         0      18       0       0       0
  8682 ;;      Temps:          0       4       0       0       0
  8683 ;;      Totals:         0      22       0       0       0
  8684 ;;Total ram usage:       22 bytes
  8685 ;; Hardware stack levels used:    1
  8686 ;; Hardware stack levels required when called:    4
  8687 ;; This function calls:
  8688 ;;		_lcd_write_control
  8689 ;;		_sprintf
  8690 ;;		_lcd_set_cursor
  8691 ;;		_lcd_write_string
  8692 ;;		___awmod
  8693 ;;		___awdiv
  8694 ;; This function is called by:
  8695 ;;		_main
  8696 ;;		_calibrateIR
  8697 ;;		_ChargeMode
  8698 ;;		_robotFollow
  8699 ;;		_robot_turnArc
  8700 ;;		_robotMoveSpeed
  8701 ;;		_robotTurnSpeed
  8702 ;; This function uses a non-reentrant model
  8703 ;;
  8704                           psect	text1103
  8705                           	file	"E:\Aldnoah.Zero\Assignment3\HMI.c"
  8706                           	line	135
  8707                           	global	__size_of_UpdateDisplay
  8708  0285                     	__size_of_UpdateDisplay	equ	__end_of_UpdateDisplay-_UpdateDisplay
  8709                           	
  8710  0D7B                     _UpdateDisplay:	
  8711                           	opt	stack 2
  8712                           ; Regs used in _UpdateDisplay: [wreg-fsr0h+status,2+status,0+btemp+1+pclath+cstack]
  8713                           	line	136
  8714                           	
  8715  0D7B                     l11639:	
  8716                           ;HMI.c: 136: char LCDOutput[16] = "";
  8717  0D7B  3045               	movlw	(UpdateDisplay@LCDOutput)&0ffh
  8718  0D7C  0084               	movwf	fsr0
  8719  0D7D  3090               	movlw	low(UpdateDisplay@F1260)
  8720  0D7E  1283               	bcf	status, 5	;RP0=0, select bank0
  8721  0D7F  1303               	bcf	status, 6	;RP1=0, select bank0
  8722  0D80  00C1               	movwf	(??_UpdateDisplay+0)+0
  8723  0D81  0804               	movf	fsr0,w
  8724  0D82  00C2               	movwf	((??_UpdateDisplay+0)+0+1)
  8725  0D83  3010               	movlw	16
  8726  0D84  00C3               	movwf	((??_UpdateDisplay+0)+0+2)
  8727  0D85                     u5060:
  8728  0D85  0841               	movf	(??_UpdateDisplay+0)+0,w
  8729  0D86  0084               	movwf	fsr0
  8730  0D87  1783               	bsf	status, 7	;select IRP bank3
  8731                           	
  8732  0D88  0800               	movf	indf,w
  8733  0D89  00C4               	movwf	((??_UpdateDisplay+0)+0+3)
  8734  0D8A  0AC1               	incf	(??_UpdateDisplay+0)+0,f
  8735  0D8B  0842               	movf	((??_UpdateDisplay+0)+0+1),w
  8736  0D8C  0084               	movwf	fsr0
  8737  0D8D  1383               	bcf	status, 7	;select IRP bank0
  8738                           	
  8739  0D8E  0844               	movf	((??_UpdateDisplay+0)+0+3),w
  8740  0D8F  0080               	movwf	indf
  8741  0D90  0AC2               	incf	((??_UpdateDisplay+0)+0+1),f
  8742  0D91  0BC3               	decfsz	((??_UpdateDisplay+0)+0+2),f
  8743  0D92  2D85               	goto	u5060
  8744                           	line	137
  8745                           ;HMI.c: 137: switch (currentMenu)
  8746  0D93  2FEF               	goto	l11715
  8747                           	line	139
  8748                           ;HMI.c: 138: {
  8749                           ;HMI.c: 139: case 0:
  8750                           	
  8751  0D94                     l4663:	
  8752                           	line	140
  8753                           	
  8754  0D94                     l11641:	
  8755                           ;HMI.c: 140: lcd_write_control(0b00000001);
  8756  0D94  3001               	movlw	(01h)
  8757  0D95  160A  158A  2228   	fcall	_lcd_write_control
              120A  158A         
  8758                           	line	141
  8759                           	
  8760  0D9A                     l11643:	
  8761                           ;HMI.c: 141: sprintf(LCDOutput,"IR:%3dcm D:%3d",Disp1, Disp2);
  8762  0D9A  303B               	movlw	((STR_13-__stringbase))&0ffh
  8763  0D9B  1283               	bcf	status, 5	;RP0=0, select bank0
  8764  0D9C  1303               	bcf	status, 6	;RP1=0, select bank0
  8765  0D9D  00C1               	movwf	(??_UpdateDisplay+0)+0
  8766  0D9E  0841               	movf	(??_UpdateDisplay+0)+0,w
  8767  0D9F  00AE               	movwf	(?_sprintf)
  8768  0DA0  1683               	bsf	status, 5	;RP0=1, select bank1
  8769  0DA1  1303               	bcf	status, 6	;RP1=0, select bank1
  8770  0DA2  0825               	movf	(_Disp1+1)^080h,w
  8771  0DA3  1283               	bcf	status, 5	;RP0=0, select bank0
  8772  0DA4  1303               	bcf	status, 6	;RP1=0, select bank0
  8773  0DA5  01B0               	clrf	1+(?_sprintf)+01h
  8774  0DA6  07B0               	addwf	1+(?_sprintf)+01h
  8775  0DA7  1683               	bsf	status, 5	;RP0=1, select bank1
  8776  0DA8  1303               	bcf	status, 6	;RP1=0, select bank1
  8777  0DA9  0824               	movf	(_Disp1)^080h,w
  8778  0DAA  1283               	bcf	status, 5	;RP0=0, select bank0
  8779  0DAB  1303               	bcf	status, 6	;RP1=0, select bank0
  8780  0DAC  01AF               	clrf	0+(?_sprintf)+01h
  8781  0DAD  07AF               	addwf	0+(?_sprintf)+01h
  8782                           
  8783  0DAE  1683               	bsf	status, 5	;RP0=1, select bank1
  8784  0DAF  1303               	bcf	status, 6	;RP1=0, select bank1
  8785  0DB0  0827               	movf	(_Disp2+1)^080h,w
  8786  0DB1  1283               	bcf	status, 5	;RP0=0, select bank0
  8787  0DB2  1303               	bcf	status, 6	;RP1=0, select bank0
  8788  0DB3  01B2               	clrf	1+(?_sprintf)+03h
  8789  0DB4  07B2               	addwf	1+(?_sprintf)+03h
  8790  0DB5  1683               	bsf	status, 5	;RP0=1, select bank1
  8791  0DB6  1303               	bcf	status, 6	;RP1=0, select bank1
  8792  0DB7  0826               	movf	(_Disp2)^080h,w
  8793  0DB8  1283               	bcf	status, 5	;RP0=0, select bank0
  8794  0DB9  1303               	bcf	status, 6	;RP1=0, select bank0
  8795  0DBA  01B1               	clrf	0+(?_sprintf)+03h
  8796  0DBB  07B1               	addwf	0+(?_sprintf)+03h
  8797                           
  8798  0DBC  3045               	movlw	(UpdateDisplay@LCDOutput)&0ffh
  8799  0DBD  120A  158A  21E2   	fcall	_sprintf
              120A  158A         
  8800                           	line	142
  8801                           	
  8802  0DC2                     l11645:	
  8803                           ;HMI.c: 142: lcd_set_cursor(0x00);
  8804  0DC2  3000               	movlw	(0)
  8805  0DC3  160A  158A  21F6   	fcall	_lcd_set_cursor
              120A  158A         
  8806                           	line	143
  8807                           ;HMI.c: 143: lcd_write_string(LCDOutput);
  8808  0DC8  3045               	movlw	(UpdateDisplay@LCDOutput&0ffh)
  8809  0DC9  1283               	bcf	status, 5	;RP0=0, select bank0
  8810  0DCA  1303               	bcf	status, 6	;RP1=0, select bank0
  8811  0DCB  00A7               	movwf	(?_lcd_write_string)
  8812  0DCC  3000               	movlw	(0x0/2)
  8813  0DCD  00A8               	movwf	(?_lcd_write_string+1)
  8814  0DCE  160A  158A  23CF   	fcall	_lcd_write_string
              120A  158A         
  8815                           	line	144
  8816                           	
  8817  0DD3                     l11647:	
  8818                           ;HMI.c: 144: lcd_set_cursor(0x40);
  8819  0DD3  3040               	movlw	(040h)
  8820  0DD4  160A  158A  21F6   	fcall	_lcd_set_cursor
              120A  158A         
  8821                           	line	145
  8822                           	
  8823  0DD9                     l11649:	
  8824                           ;HMI.c: 145: if (pos > 0)
  8825  0DD9  1683               	bsf	status, 5	;RP0=1, select bank1
  8826  0DDA  1303               	bcf	status, 6	;RP1=0, select bank1
  8827  0DDB  0839               	movf	(_pos+1)^080h,w
  8828  0DDC  3A80               	xorlw	80h
  8829  0DDD  00FF               	movwf	btemp+1
  8830  0DDE  3080               	movlw	(high(01h))^80h
  8831  0DDF  027F               	subwf	btemp+1,w
  8832  0DE0  1D03               	skipz
  8833  0DE1  2DE4               	goto	u5075
  8834  0DE2  3001               	movlw	low(01h)
  8835  0DE3  0238               	subwf	(_pos)^080h,w
  8836  0DE4                     u5075:
  8837                           
  8838  0DE4  1C03               	skipc
  8839  0DE5  2DE7               	goto	u5071
  8840  0DE6  2DE8               	goto	u5070
  8841  0DE7                     u5071:
  8842  0DE7  2DFB               	goto	l11653
  8843  0DE8                     u5070:
  8844                           	line	146
  8845                           	
  8846  0DE8                     l11651:	
  8847                           ;HMI.c: 146: lcd_write_string(shortMenuStrings[pos - 1]);
  8848  0DE8  1683               	bsf	status, 5	;RP0=1, select bank1
  8849  0DE9  1303               	bcf	status, 6	;RP1=0, select bank1
  8850  0DEA  0838               	movf	(_pos)^080h,w
  8851  0DEB  3EFF               	addlw	0FFh
  8852  0DEC  3EE1               	addlw	_shortMenuStrings&0ffh
  8853  0DED  0084               	movwf	fsr0
  8854  0DEE  1383               	bcf	status, 7	;select IRP bank1
  8855  0DEF  0800               	movf	indf,w
  8856  0DF0  1283               	bcf	status, 5	;RP0=0, select bank0
  8857  0DF1  1303               	bcf	status, 6	;RP1=0, select bank0
  8858  0DF2  00A7               	movwf	(?_lcd_write_string)
  8859  0DF3  3080               	movlw	80h
  8860  0DF4  00A8               	movwf	(?_lcd_write_string+1)
  8861  0DF5  160A  158A  23CF   	fcall	_lcd_write_string
              120A  158A         
  8862  0DFA  2E0E               	goto	l11655
  8863                           	line	147
  8864                           	
  8865  0DFB                     l4664:	
  8866                           	line	148
  8867                           	
  8868  0DFB                     l11653:	
  8869                           ;HMI.c: 147: else
  8870                           ;HMI.c: 148: lcd_write_string(shortMenuStrings[pos + 6 - 1]);
  8871  0DFB  1683               	bsf	status, 5	;RP0=1, select bank1
  8872  0DFC  1303               	bcf	status, 6	;RP1=0, select bank1
  8873  0DFD  0838               	movf	(_pos)^080h,w
  8874  0DFE  3E05               	addlw	05h
  8875  0DFF  3EE1               	addlw	_shortMenuStrings&0ffh
  8876  0E00  0084               	movwf	fsr0
  8877  0E01  1383               	bcf	status, 7	;select IRP bank1
  8878  0E02  0800               	movf	indf,w
  8879  0E03  1283               	bcf	status, 5	;RP0=0, select bank0
  8880  0E04  1303               	bcf	status, 6	;RP1=0, select bank0
  8881  0E05  00A7               	movwf	(?_lcd_write_string)
  8882  0E06  3080               	movlw	80h
  8883  0E07  00A8               	movwf	(?_lcd_write_string+1)
  8884  0E08  160A  158A  23CF   	fcall	_lcd_write_string
              120A  158A         
  8885  0E0D  2E0E               	goto	l11655
  8886                           	
  8887  0E0E                     l4665:	
  8888                           	line	149
  8889                           	
  8890  0E0E                     l11655:	
  8891                           ;HMI.c: 149: lcd_set_cursor(0x44);
  8892  0E0E  3044               	movlw	(044h)
  8893  0E0F  160A  158A  21F6   	fcall	_lcd_set_cursor
              120A  158A         
  8894                           	line	150
  8895                           	
  8896  0E14                     l11657:	
  8897                           ;HMI.c: 150: lcd_write_string(menuStrings[pos]);
  8898  0E14  1683               	bsf	status, 5	;RP0=1, select bank1
  8899  0E15  1303               	bcf	status, 6	;RP1=0, select bank1
  8900  0E16  0838               	movf	(_pos)^080h,w
  8901  0E17  3EDB               	addlw	_menuStrings&0ffh
  8902  0E18  0084               	movwf	fsr0
  8903  0E19  1383               	bcf	status, 7	;select IRP bank1
  8904  0E1A  0800               	movf	indf,w
  8905  0E1B  1283               	bcf	status, 5	;RP0=0, select bank0
  8906  0E1C  1303               	bcf	status, 6	;RP1=0, select bank0
  8907  0E1D  00A7               	movwf	(?_lcd_write_string)
  8908  0E1E  3080               	movlw	80h
  8909  0E1F  00A8               	movwf	(?_lcd_write_string+1)
  8910  0E20  160A  158A  23CF   	fcall	_lcd_write_string
              120A  158A         
  8911                           	line	151
  8912                           ;HMI.c: 151: lcd_set_cursor(0x4D);
  8913  0E25  304D               	movlw	(04Dh)
  8914  0E26  160A  158A  21F6   	fcall	_lcd_set_cursor
              120A  158A         
  8915                           	line	152
  8916                           	
  8917  0E2B                     l11659:	
  8918                           ;HMI.c: 152: lcd_write_string(shortMenuStrings[(pos + 1) % 6]);
  8919  0E2B  3006               	movlw	low(06h)
  8920  0E2C  1283               	bcf	status, 5	;RP0=0, select bank0
  8921  0E2D  1303               	bcf	status, 6	;RP1=0, select bank0
  8922  0E2E  00A0               	movwf	(?___awmod)
  8923  0E2F  3000               	movlw	high(06h)
  8924  0E30  00A1               	movwf	((?___awmod))+1
  8925  0E31  1683               	bsf	status, 5	;RP0=1, select bank1
  8926  0E32  1303               	bcf	status, 6	;RP1=0, select bank1
  8927  0E33  0838               	movf	(_pos)^080h,w
  8928  0E34  3E01               	addlw	low(01h)
  8929  0E35  1283               	bcf	status, 5	;RP0=0, select bank0
  8930  0E36  1303               	bcf	status, 6	;RP1=0, select bank0
  8931  0E37  00A2               	movwf	0+(?___awmod)+02h
  8932  0E38  1683               	bsf	status, 5	;RP0=1, select bank1
  8933  0E39  1303               	bcf	status, 6	;RP1=0, select bank1
  8934  0E3A  0839               	movf	(_pos+1)^080h,w
  8935  0E3B  1803               	skipnc
  8936  0E3C  3E01               	addlw	1
  8937  0E3D  3E00               	addlw	high(01h)
  8938  0E3E  1283               	bcf	status, 5	;RP0=0, select bank0
  8939  0E3F  1303               	bcf	status, 6	;RP1=0, select bank0
  8940  0E40  00A3               	movwf	1+0+(?___awmod)+02h
  8941  0E41  160A  158A  263E   	fcall	___awmod
              120A  158A         
  8942  0E46  1283               	bcf	status, 5	;RP0=0, select bank0
  8943  0E47  1303               	bcf	status, 6	;RP1=0, select bank0
  8944  0E48  0820               	movf	(0+(?___awmod)),w
  8945  0E49  3EE1               	addlw	_shortMenuStrings&0ffh
  8946  0E4A  0084               	movwf	fsr0
  8947  0E4B  1383               	bcf	status, 7	;select IRP bank1
  8948  0E4C  0800               	movf	indf,w
  8949  0E4D  00A7               	movwf	(?_lcd_write_string)
  8950  0E4E  3080               	movlw	80h
  8951  0E4F  00A8               	movwf	(?_lcd_write_string+1)
  8952  0E50  160A  158A  23CF   	fcall	_lcd_write_string
              120A  158A         
  8953                           	line	153
  8954                           ;HMI.c: 153: break;
  8955  0E55  2FFF               	goto	l4679
  8956                           	line	154
  8957                           ;HMI.c: 154: case 1:
  8958                           	
  8959  0E56                     l4667:	
  8960                           	line	155
  8961                           	
  8962  0E56                     l11661:	
  8963                           ;HMI.c: 155: lcd_write_control(0b00000001);
  8964  0E56  3001               	movlw	(01h)
  8965  0E57  160A  158A  2228   	fcall	_lcd_write_control
              120A  158A         
  8966                           	line	156
  8967                           ;HMI.c: 156: lcd_set_cursor(0x00);
  8968  0E5C  3000               	movlw	(0)
  8969  0E5D  160A  158A  21F6   	fcall	_lcd_set_cursor
              120A  158A         
  8970                           	line	157
  8971                           	
  8972  0E62                     l11663:	
  8973                           ;HMI.c: 157: lcd_write_string("Zero Step_Motor");
  8974  0E62  302B               	movlw	low((STR_14-__stringbase))
  8975  0E63  1283               	bcf	status, 5	;RP0=0, select bank0
  8976  0E64  1303               	bcf	status, 6	;RP1=0, select bank0
  8977  0E65  00A7               	movwf	(?_lcd_write_string)
  8978  0E66  3080               	movlw	80h
  8979  0E67  00A8               	movwf	(?_lcd_write_string+1)
  8980  0E68  160A  158A  23CF   	fcall	_lcd_write_string
              120A  158A         
  8981                           	line	158
  8982                           	
  8983  0E6D                     l11665:	
  8984                           ;HMI.c: 158: lcd_set_cursor(0x40);
  8985  0E6D  3040               	movlw	(040h)
  8986  0E6E  160A  158A  21F6   	fcall	_lcd_set_cursor
              120A  158A         
  8987                           	line	159
  8988                           ;HMI.c: 159: lcd_write_string("<<<");
  8989  0E73  30A8               	movlw	low((STR_15-__stringbase))
  8990  0E74  1283               	bcf	status, 5	;RP0=0, select bank0
  8991  0E75  1303               	bcf	status, 6	;RP1=0, select bank0
  8992  0E76  00A7               	movwf	(?_lcd_write_string)
  8993  0E77  3080               	movlw	80h
  8994  0E78  00A8               	movwf	(?_lcd_write_string+1)
  8995  0E79  160A  158A  23CF   	fcall	_lcd_write_string
              120A  158A         
  8996                           	line	160
  8997                           	
  8998  0E7E                     l11667:	
  8999                           ;HMI.c: 160: lcd_set_cursor(0x44);
  9000  0E7E  3044               	movlw	(044h)
  9001  0E7F  160A  158A  21F6   	fcall	_lcd_set_cursor
              120A  158A         
  9002                           	line	161
  9003                           	
  9004  0E84                     l11669:	
  9005                           ;HMI.c: 161: lcd_write_string("CONFIRM");
  9006  0E84  3097               	movlw	low((STR_16-__stringbase))
  9007  0E85  1283               	bcf	status, 5	;RP0=0, select bank0
  9008  0E86  1303               	bcf	status, 6	;RP1=0, select bank0
  9009  0E87  00A7               	movwf	(?_lcd_write_string)
  9010  0E88  3080               	movlw	80h
  9011  0E89  00A8               	movwf	(?_lcd_write_string+1)
  9012  0E8A  160A  158A  23CF   	fcall	_lcd_write_string
              120A  158A         
  9013                           	line	162
  9014                           ;HMI.c: 162: lcd_set_cursor(0x4D);
  9015  0E8F  304D               	movlw	(04Dh)
  9016  0E90  160A  158A  21F6   	fcall	_lcd_set_cursor
              120A  158A         
  9017                           	line	163
  9018                           	
  9019  0E95                     l11671:	
  9020                           ;HMI.c: 163: lcd_write_string(">>>");
  9021  0E95  30AC               	movlw	low((STR_17-__stringbase))
  9022  0E96  1283               	bcf	status, 5	;RP0=0, select bank0
  9023  0E97  1303               	bcf	status, 6	;RP1=0, select bank0
  9024  0E98  00A7               	movwf	(?_lcd_write_string)
  9025  0E99  3080               	movlw	80h
  9026  0E9A  00A8               	movwf	(?_lcd_write_string+1)
  9027  0E9B  160A  158A  23CF   	fcall	_lcd_write_string
              120A  158A         
  9028                           	line	164
  9029                           ;HMI.c: 164: break;
  9030  0EA0  2FFF               	goto	l4679
  9031                           	line	165
  9032                           ;HMI.c: 165: case 2:
  9033                           	
  9034  0EA1                     l4668:	
  9035                           	line	166
  9036                           	
  9037  0EA1                     l11673:	
  9038                           ;HMI.c: 166: lcd_write_control(0b00000001);
  9039  0EA1  3001               	movlw	(01h)
  9040  0EA2  160A  158A  2228   	fcall	_lcd_write_control
              120A  158A         
  9041                           	line	167
  9042                           ;HMI.c: 167: lcd_set_cursor(0x00);
  9043  0EA7  3000               	movlw	(0)
  9044  0EA8  160A  158A  21F6   	fcall	_lcd_set_cursor
              120A  158A         
  9045                           	line	168
  9046                           	
  9047  0EAD                     l11675:	
  9048                           ;HMI.c: 168: lcd_write_string(" Charging Mode ");
  9049  0EAD  300B               	movlw	low((STR_18-__stringbase))
  9050  0EAE  1283               	bcf	status, 5	;RP0=0, select bank0
  9051  0EAF  1303               	bcf	status, 6	;RP1=0, select bank0
  9052  0EB0  00A7               	movwf	(?_lcd_write_string)
  9053  0EB1  3080               	movlw	80h
  9054  0EB2  00A8               	movwf	(?_lcd_write_string+1)
  9055  0EB3  160A  158A  23CF   	fcall	_lcd_write_string
              120A  158A         
  9056                           	line	169
  9057                           	
  9058  0EB8                     l11677:	
  9059                           ;HMI.c: 169: lcd_set_cursor(0x40);
  9060  0EB8  3040               	movlw	(040h)
  9061  0EB9  160A  158A  21F6   	fcall	_lcd_set_cursor
              120A  158A         
  9062                           	line	170
  9063                           ;HMI.c: 170: sprintf(LCDOutput,"%dmA", BattCharge);
  9064  0EBE  309F               	movlw	((STR_19-__stringbase))&0ffh
  9065  0EBF  1283               	bcf	status, 5	;RP0=0, select bank0
  9066  0EC0  1303               	bcf	status, 6	;RP1=0, select bank0
  9067  0EC1  00C1               	movwf	(??_UpdateDisplay+0)+0
  9068  0EC2  0841               	movf	(??_UpdateDisplay+0)+0,w
  9069  0EC3  00AE               	movwf	(?_sprintf)
  9070  0EC4  1683               	bsf	status, 5	;RP0=1, select bank1
  9071  0EC5  1303               	bcf	status, 6	;RP1=0, select bank1
  9072  0EC6  0821               	movf	(_BattCharge+1)^080h,w
  9073  0EC7  1283               	bcf	status, 5	;RP0=0, select bank0
  9074  0EC8  1303               	bcf	status, 6	;RP1=0, select bank0
  9075  0EC9  01B0               	clrf	1+(?_sprintf)+01h
  9076  0ECA  07B0               	addwf	1+(?_sprintf)+01h
  9077  0ECB  1683               	bsf	status, 5	;RP0=1, select bank1
  9078  0ECC  1303               	bcf	status, 6	;RP1=0, select bank1
  9079  0ECD  0820               	movf	(_BattCharge)^080h,w
  9080  0ECE  1283               	bcf	status, 5	;RP0=0, select bank0
  9081  0ECF  1303               	bcf	status, 6	;RP1=0, select bank0
  9082  0ED0  01AF               	clrf	0+(?_sprintf)+01h
  9083  0ED1  07AF               	addwf	0+(?_sprintf)+01h
  9084                           
  9085  0ED2  3045               	movlw	(UpdateDisplay@LCDOutput)&0ffh
  9086  0ED3  120A  158A  21E2   	fcall	_sprintf
              120A  158A         
  9087                           	line	171
  9088                           ;HMI.c: 171: lcd_write_string(LCDOutput);
  9089  0ED8  3045               	movlw	(UpdateDisplay@LCDOutput&0ffh)
  9090  0ED9  1283               	bcf	status, 5	;RP0=0, select bank0
  9091  0EDA  1303               	bcf	status, 6	;RP1=0, select bank0
  9092  0EDB  00A7               	movwf	(?_lcd_write_string)
  9093  0EDC  3000               	movlw	(0x0/2)
  9094  0EDD  00A8               	movwf	(?_lcd_write_string+1)
  9095  0EDE  160A  158A  23CF   	fcall	_lcd_write_string
              120A  158A         
  9096                           	line	172
  9097                           	
  9098  0EE3                     l11679:	
  9099                           ;HMI.c: 172: lcd_set_cursor(0x4D);
  9100  0EE3  304D               	movlw	(04Dh)
  9101  0EE4  160A  158A  21F6   	fcall	_lcd_set_cursor
              120A  158A         
  9102                           	line	173
  9103                           ;HMI.c: 173: switch(BattState)
  9104  0EE9  2F33               	goto	l11695
  9105                           	line	175
  9106                           ;HMI.c: 174: {
  9107                           ;HMI.c: 175: case 0:
  9108                           	
  9109  0EEA                     l4670:	
  9110                           	line	176
  9111                           	
  9112  0EEA                     l11681:	
  9113                           ;HMI.c: 176: lcd_write_string("NC");
  9114  0EEA  30C7               	movlw	low((STR_20-__stringbase))
  9115  0EEB  1283               	bcf	status, 5	;RP0=0, select bank0
  9116  0EEC  1303               	bcf	status, 6	;RP1=0, select bank0
  9117  0EED  00A7               	movwf	(?_lcd_write_string)
  9118  0EEE  3080               	movlw	80h
  9119  0EEF  00A8               	movwf	(?_lcd_write_string+1)
  9120  0EF0  160A  158A  23CF   	fcall	_lcd_write_string
              120A  158A         
  9121                           	line	177
  9122                           ;HMI.c: 177: break;
  9123  0EF5  2F4E               	goto	l11697
  9124                           	line	178
  9125                           ;HMI.c: 178: case 1:
  9126                           	
  9127  0EF6                     l4672:	
  9128                           	line	179
  9129                           	
  9130  0EF6                     l11683:	
  9131                           ;HMI.c: 179: lcd_write_string("RC");
  9132  0EF6  30CA               	movlw	low((STR_21-__stringbase))
  9133  0EF7  1283               	bcf	status, 5	;RP0=0, select bank0
  9134  0EF8  1303               	bcf	status, 6	;RP1=0, select bank0
  9135  0EF9  00A7               	movwf	(?_lcd_write_string)
  9136  0EFA  3080               	movlw	80h
  9137  0EFB  00A8               	movwf	(?_lcd_write_string+1)
  9138  0EFC  160A  158A  23CF   	fcall	_lcd_write_string
              120A  158A         
  9139                           	line	180
  9140                           ;HMI.c: 180: break;
  9141  0F01  2F4E               	goto	l11697
  9142                           	line	181
  9143                           ;HMI.c: 181: case 2:
  9144                           	
  9145  0F02                     l4673:	
  9146                           	line	182
  9147                           	
  9148  0F02                     l11685:	
  9149                           ;HMI.c: 182: lcd_write_string("FC");
  9150  0F02  30C4               	movlw	low((STR_22-__stringbase))
  9151  0F03  1283               	bcf	status, 5	;RP0=0, select bank0
  9152  0F04  1303               	bcf	status, 6	;RP1=0, select bank0
  9153  0F05  00A7               	movwf	(?_lcd_write_string)
  9154  0F06  3080               	movlw	80h
  9155  0F07  00A8               	movwf	(?_lcd_write_string+1)
  9156  0F08  160A  158A  23CF   	fcall	_lcd_write_string
              120A  158A         
  9157                           	line	183
  9158                           ;HMI.c: 183: break;
  9159  0F0D  2F4E               	goto	l11697
  9160                           	line	184
  9161                           ;HMI.c: 184: case 3:
  9162                           	
  9163  0F0E                     l4674:	
  9164                           	line	185
  9165                           	
  9166  0F0E                     l11687:	
  9167                           ;HMI.c: 185: lcd_write_string("TC");
  9168  0F0E  30CD               	movlw	low((STR_23-__stringbase))
  9169  0F0F  1283               	bcf	status, 5	;RP0=0, select bank0
  9170  0F10  1303               	bcf	status, 6	;RP1=0, select bank0
  9171  0F11  00A7               	movwf	(?_lcd_write_string)
  9172  0F12  3080               	movlw	80h
  9173  0F13  00A8               	movwf	(?_lcd_write_string+1)
  9174  0F14  160A  158A  23CF   	fcall	_lcd_write_string
              120A  158A         
  9175                           	line	186
  9176                           ;HMI.c: 186: break;
  9177  0F19  2F4E               	goto	l11697
  9178                           	line	187
  9179                           ;HMI.c: 187: case 4:
  9180                           	
  9181  0F1A                     l4675:	
  9182                           	line	188
  9183                           	
  9184  0F1A                     l11689:	
  9185                           ;HMI.c: 188: lcd_write_string("Wa");
  9186  0F1A  30D0               	movlw	low((STR_24-__stringbase))
  9187  0F1B  1283               	bcf	status, 5	;RP0=0, select bank0
  9188  0F1C  1303               	bcf	status, 6	;RP1=0, select bank0
  9189  0F1D  00A7               	movwf	(?_lcd_write_string)
  9190  0F1E  3080               	movlw	80h
  9191  0F1F  00A8               	movwf	(?_lcd_write_string+1)
  9192  0F20  160A  158A  23CF   	fcall	_lcd_write_string
              120A  158A         
  9193                           	line	189
  9194                           ;HMI.c: 189: break;
  9195  0F25  2F4E               	goto	l11697
  9196                           	line	190
  9197                           ;HMI.c: 190: case 5:
  9198                           	
  9199  0F26                     l4676:	
  9200                           	line	191
  9201                           	
  9202  0F26                     l11691:	
  9203                           ;HMI.c: 191: lcd_write_string("FC");
  9204  0F26  30C4               	movlw	low((STR_25-__stringbase))
  9205  0F27  1283               	bcf	status, 5	;RP0=0, select bank0
  9206  0F28  1303               	bcf	status, 6	;RP1=0, select bank0
  9207  0F29  00A7               	movwf	(?_lcd_write_string)
  9208  0F2A  3080               	movlw	80h
  9209  0F2B  00A8               	movwf	(?_lcd_write_string+1)
  9210  0F2C  160A  158A  23CF   	fcall	_lcd_write_string
              120A  158A         
  9211                           	line	192
  9212                           ;HMI.c: 192: break;
  9213  0F31  2F4E               	goto	l11697
  9214                           	line	193
  9215                           	
  9216  0F32                     l11693:	
  9217                           ;HMI.c: 193: }
  9218  0F32  2F4E               	goto	l11697
  9219                           	line	173
  9220                           	
  9221  0F33                     l4669:	
  9222                           	
  9223  0F33                     l11695:	
  9224                           	; Switch on 2 bytes has been partitioned into a top level switch of size 1, and 1 sub-s
                                 witches
  9225                           ; Switch size 1, requested type "space"
  9226                           ; Number of cases is 1, Range of values is 0 to 0
  9227                           ; switch strategies available:
  9228                           ; Name         Instructions Cycles
  9229                           ; simple_byte            4     3 (average)
  9230                           ; direct_byte           11     8 (fixed)
  9231                           ; jumptable            260     6 (fixed)
  9232                           ; rangetable             5     6 (fixed)
  9233                           ; spacedrange            8     9 (fixed)
  9234                           ; locatedrange           1     3 (fixed)
  9235                           ;	Chosen strategy is simple_byte
  9236                           
  9237  0F33  1683               	bsf	status, 5	;RP0=1, select bank1
  9238  0F34  1303               	bcf	status, 6	;RP1=0, select bank1
  9239  0F35  0823               	movf (_BattState+1)^080h,w
  9240                           	opt asmopt_off
  9241  0F36  3A00               	xorlw	0^0	; case 0
  9242  0F37  1903               	skipnz
  9243  0F38  2F3A               	goto	l12407
  9244  0F39  2F4E               	goto	l11697
  9245                           	opt asmopt_on
  9246                           	
  9247  0F3A                     l12407:	
  9248                           ; Switch size 1, requested type "space"
  9249                           ; Number of cases is 6, Range of values is 0 to 5
  9250                           ; switch strategies available:
  9251                           ; Name         Instructions Cycles
  9252                           ; simple_byte           19    10 (average)
  9253                           ; direct_byte           26     8 (fixed)
  9254                           ; jumptable            260     6 (fixed)
  9255                           ; rangetable            10     6 (fixed)
  9256                           ; spacedrange           18     9 (fixed)
  9257                           ; locatedrange           6     3 (fixed)
  9258                           ;	Chosen strategy is simple_byte
  9259                           
  9260  0F3A  0822               	movf (_BattState)^080h,w
  9261                           	opt asmopt_off
  9262  0F3B  3A00               	xorlw	0^0	; case 0
  9263  0F3C  1903               	skipnz
  9264  0F3D  2EEA               	goto	l11681
  9265  0F3E  3A01               	xorlw	1^0	; case 1
  9266  0F3F  1903               	skipnz
  9267  0F40  2EF6               	goto	l11683
  9268  0F41  3A03               	xorlw	2^1	; case 2
  9269  0F42  1903               	skipnz
  9270  0F43  2F02               	goto	l11685
  9271  0F44  3A01               	xorlw	3^2	; case 3
  9272  0F45  1903               	skipnz
  9273  0F46  2F0E               	goto	l11687
  9274  0F47  3A07               	xorlw	4^3	; case 4
  9275  0F48  1903               	skipnz
  9276  0F49  2F1A               	goto	l11689
  9277  0F4A  3A01               	xorlw	5^4	; case 5
  9278  0F4B  1903               	skipnz
  9279  0F4C  2F26               	goto	l11691
  9280  0F4D  2F4E               	goto	l11697
  9281                           	opt asmopt_on
  9282                           
  9283                           	line	193
  9284                           	
  9285  0F4E                     l4671:	
  9286                           	line	195
  9287                           	
  9288  0F4E                     l11697:	
  9289                           ;HMI.c: 195: lcd_set_cursor(0x44);
  9290  0F4E  3044               	movlw	(044h)
  9291  0F4F  160A  158A  21F6   	fcall	_lcd_set_cursor
              120A  158A         
  9292                           	line	196
  9293                           	
  9294  0F54                     l11699:	
  9295                           ;HMI.c: 196: lcd_write_string("  EXIT  ");
  9296  0F54  3059               	movlw	low((STR_26-__stringbase))
  9297  0F55  1283               	bcf	status, 5	;RP0=0, select bank0
  9298  0F56  1303               	bcf	status, 6	;RP1=0, select bank0
  9299  0F57  00A7               	movwf	(?_lcd_write_string)
  9300  0F58  3080               	movlw	80h
  9301  0F59  00A8               	movwf	(?_lcd_write_string+1)
  9302  0F5A  160A  158A  23CF   	fcall	_lcd_write_string
              120A  158A         
  9303                           	line	197
  9304                           ;HMI.c: 197: break;
  9305  0F5F  2FFF               	goto	l4679
  9306                           	line	198
  9307                           ;HMI.c: 198: case 3:
  9308                           	
  9309  0F60                     l4677:	
  9310                           	line	199
  9311                           	
  9312  0F60                     l11701:	
  9313                           ;HMI.c: 199: lcd_write_control(0b00000001);
  9314  0F60  3001               	movlw	(01h)
  9315  0F61  160A  158A  2228   	fcall	_lcd_write_control
              120A  158A         
  9316                           	line	200
  9317                           	
  9318  0F66                     l11703:	
  9319                           ;HMI.c: 200: sprintf(LCDOutput,"IR:%3dcm CP:%3d",adcVal, RobotPos);
  9320  0F66  301B               	movlw	((STR_27-__stringbase))&0ffh
  9321  0F67  1283               	bcf	status, 5	;RP0=0, select bank0
  9322  0F68  1303               	bcf	status, 6	;RP1=0, select bank0
  9323  0F69  00C1               	movwf	(??_UpdateDisplay+0)+0
  9324  0F6A  0841               	movf	(??_UpdateDisplay+0)+0,w
  9325  0F6B  00AE               	movwf	(?_sprintf)
  9326  0F6C  1683               	bsf	status, 5	;RP0=1, select bank1
  9327  0F6D  1303               	bcf	status, 6	;RP1=0, select bank1
  9328  0F6E  082F               	movf	(_adcVal+1)^080h,w	;volatile
  9329  0F6F  1283               	bcf	status, 5	;RP0=0, select bank0
  9330  0F70  1303               	bcf	status, 6	;RP1=0, select bank0
  9331  0F71  01B0               	clrf	1+(?_sprintf)+01h
  9332  0F72  07B0               	addwf	1+(?_sprintf)+01h
  9333  0F73  1683               	bsf	status, 5	;RP0=1, select bank1
  9334  0F74  1303               	bcf	status, 6	;RP1=0, select bank1
  9335  0F75  082E               	movf	(_adcVal)^080h,w	;volatile
  9336  0F76  1283               	bcf	status, 5	;RP0=0, select bank0
  9337  0F77  1303               	bcf	status, 6	;RP1=0, select bank0
  9338  0F78  01AF               	clrf	0+(?_sprintf)+01h
  9339  0F79  07AF               	addwf	0+(?_sprintf)+01h
  9340                           
  9341  0F7A  1683               	bsf	status, 5	;RP0=1, select bank1
  9342  0F7B  1303               	bcf	status, 6	;RP1=0, select bank1
  9343  0F7C  084B               	movf	(_RobotPos)^080h,w
  9344  0F7D  1283               	bcf	status, 5	;RP0=0, select bank0
  9345  0F7E  1303               	bcf	status, 6	;RP1=0, select bank0
  9346  0F7F  00C2               	movwf	(??_UpdateDisplay+1)+0
  9347  0F80  01C3               	clrf	(??_UpdateDisplay+1)+0+1
  9348  0F81  0842               	movf	0+(??_UpdateDisplay+1)+0,w
  9349  0F82  00B1               	movwf	0+(?_sprintf)+03h
  9350  0F83  0843               	movf	1+(??_UpdateDisplay+1)+0,w
  9351  0F84  00B2               	movwf	1+(?_sprintf)+03h
  9352  0F85  3045               	movlw	(UpdateDisplay@LCDOutput)&0ffh
  9353  0F86  120A  158A  21E2   	fcall	_sprintf
              120A  158A         
  9354                           	line	201
  9355                           	
  9356  0F8B                     l11705:	
  9357                           ;HMI.c: 201: lcd_set_cursor(0x00);
  9358  0F8B  3000               	movlw	(0)
  9359  0F8C  160A  158A  21F6   	fcall	_lcd_set_cursor
              120A  158A         
  9360                           	line	202
  9361                           ;HMI.c: 202: lcd_write_string(LCDOutput);
  9362  0F91  3045               	movlw	(UpdateDisplay@LCDOutput&0ffh)
  9363  0F92  1283               	bcf	status, 5	;RP0=0, select bank0
  9364  0F93  1303               	bcf	status, 6	;RP1=0, select bank0
  9365  0F94  00A7               	movwf	(?_lcd_write_string)
  9366  0F95  3000               	movlw	(0x0/2)
  9367  0F96  00A8               	movwf	(?_lcd_write_string+1)
  9368  0F97  160A  158A  23CF   	fcall	_lcd_write_string
              120A  158A         
  9369                           	line	203
  9370                           	
  9371  0F9C                     l11707:	
  9372                           ;HMI.c: 203: int tempDist = (TotalDistTravelled/ 10);
  9373  0F9C  300A               	movlw	low(0Ah)
  9374  0F9D  1283               	bcf	status, 5	;RP0=0, select bank0
  9375  0F9E  1303               	bcf	status, 6	;RP1=0, select bank0
  9376  0F9F  00A0               	movwf	(?___awdiv)
  9377  0FA0  3000               	movlw	high(0Ah)
  9378  0FA1  00A1               	movwf	((?___awdiv))+1
  9379  0FA2  1683               	bsf	status, 5	;RP0=1, select bank1
  9380  0FA3  1303               	bcf	status, 6	;RP1=0, select bank1
  9381  0FA4  082D               	movf	(_TotalDistTravelled+1)^080h,w
  9382  0FA5  1283               	bcf	status, 5	;RP0=0, select bank0
  9383  0FA6  1303               	bcf	status, 6	;RP1=0, select bank0
  9384  0FA7  01A3               	clrf	1+(?___awdiv)+02h
  9385  0FA8  07A3               	addwf	1+(?___awdiv)+02h
  9386  0FA9  1683               	bsf	status, 5	;RP0=1, select bank1
  9387  0FAA  1303               	bcf	status, 6	;RP1=0, select bank1
  9388  0FAB  082C               	movf	(_TotalDistTravelled)^080h,w
  9389  0FAC  1283               	bcf	status, 5	;RP0=0, select bank0
  9390  0FAD  1303               	bcf	status, 6	;RP1=0, select bank0
  9391  0FAE  01A2               	clrf	0+(?___awdiv)+02h
  9392  0FAF  07A2               	addwf	0+(?___awdiv)+02h
  9393                           
  9394  0FB0  160A  158A  278A   	fcall	___awdiv
              120A  158A         
  9395  0FB5  1283               	bcf	status, 5	;RP0=0, select bank0
  9396  0FB6  1303               	bcf	status, 6	;RP1=0, select bank0
  9397  0FB7  0821               	movf	(1+(?___awdiv)),w
  9398  0FB8  01D6               	clrf	(UpdateDisplay@tempDist+1)
  9399  0FB9  07D6               	addwf	(UpdateDisplay@tempDist+1)
  9400  0FBA  0820               	movf	(0+(?___awdiv)),w
  9401  0FBB  01D5               	clrf	(UpdateDisplay@tempDist)
  9402  0FBC  07D5               	addwf	(UpdateDisplay@tempDist)
  9403                           
  9404                           	line	205
  9405                           	
  9406  0FBD                     l11709:	
  9407                           ;HMI.c: 205: sprintf(LCDOutput,"D:%4dcm AT:%3d",tempDist, angleTurned);
  9408  0FBD  304A               	movlw	((STR_28-__stringbase))&0ffh
  9409  0FBE  00C1               	movwf	(??_UpdateDisplay+0)+0
  9410  0FBF  0841               	movf	(??_UpdateDisplay+0)+0,w
  9411  0FC0  00AE               	movwf	(?_sprintf)
  9412  0FC1  0856               	movf	(UpdateDisplay@tempDist+1),w
  9413  0FC2  01B0               	clrf	1+(?_sprintf)+01h
  9414  0FC3  07B0               	addwf	1+(?_sprintf)+01h
  9415  0FC4  0855               	movf	(UpdateDisplay@tempDist),w
  9416  0FC5  01AF               	clrf	0+(?_sprintf)+01h
  9417  0FC6  07AF               	addwf	0+(?_sprintf)+01h
  9418                           
  9419  0FC7  1683               	bsf	status, 5	;RP0=1, select bank1
  9420  0FC8  1303               	bcf	status, 6	;RP1=0, select bank1
  9421  0FC9  0831               	movf	(_angleTurned+1)^080h,w
  9422  0FCA  1283               	bcf	status, 5	;RP0=0, select bank0
  9423  0FCB  1303               	bcf	status, 6	;RP1=0, select bank0
  9424  0FCC  01B2               	clrf	1+(?_sprintf)+03h
  9425  0FCD  07B2               	addwf	1+(?_sprintf)+03h
  9426  0FCE  1683               	bsf	status, 5	;RP0=1, select bank1
  9427  0FCF  1303               	bcf	status, 6	;RP1=0, select bank1
  9428  0FD0  0830               	movf	(_angleTurned)^080h,w
  9429  0FD1  1283               	bcf	status, 5	;RP0=0, select bank0
  9430  0FD2  1303               	bcf	status, 6	;RP1=0, select bank0
  9431  0FD3  01B1               	clrf	0+(?_sprintf)+03h
  9432  0FD4  07B1               	addwf	0+(?_sprintf)+03h
  9433                           
  9434  0FD5  3045               	movlw	(UpdateDisplay@LCDOutput)&0ffh
  9435  0FD6  120A  158A  21E2   	fcall	_sprintf
              120A  158A         
  9436                           	line	206
  9437                           ;HMI.c: 206: lcd_set_cursor(0x40);
  9438  0FDB  3040               	movlw	(040h)
  9439  0FDC  160A  158A  21F6   	fcall	_lcd_set_cursor
              120A  158A         
  9440                           	line	207
  9441                           	
  9442  0FE1                     l11711:	
  9443                           ;HMI.c: 207: lcd_write_string(LCDOutput);
  9444  0FE1  3045               	movlw	(UpdateDisplay@LCDOutput&0ffh)
  9445  0FE2  1283               	bcf	status, 5	;RP0=0, select bank0
  9446  0FE3  1303               	bcf	status, 6	;RP1=0, select bank0
  9447  0FE4  00A7               	movwf	(?_lcd_write_string)
  9448  0FE5  3000               	movlw	(0x0/2)
  9449  0FE6  00A8               	movwf	(?_lcd_write_string+1)
  9450  0FE7  160A  158A  23CF   	fcall	_lcd_write_string
              120A  158A         
  9451                           	line	208
  9452                           ;HMI.c: 208: break;
  9453  0FEC  2FFF               	goto	l4679
  9454                           	line	209
  9455                           ;HMI.c: 209: default:
  9456                           	
  9457  0FED                     l4678:	
  9458                           	line	210
  9459                           ;HMI.c: 210: break;
  9460  0FED  2FFF               	goto	l4679
  9461                           	line	211
  9462                           	
  9463  0FEE                     l11713:	
  9464                           ;HMI.c: 211: }
  9465  0FEE  2FFF               	goto	l4679
  9466                           	line	137
  9467                           	
  9468  0FEF                     l4662:	
  9469                           	
  9470  0FEF                     l11715:	
  9471  0FEF  1683               	bsf	status, 5	;RP0=1, select bank1
  9472  0FF0  1303               	bcf	status, 6	;RP1=0, select bank1
  9473  0FF1  0850               	movf	(_currentMenu)^080h,w	;volatile
  9474                           	; Switch size 1, requested type "space"
  9475                           ; Number of cases is 4, Range of values is 0 to 3
  9476                           ; switch strategies available:
  9477                           ; Name         Instructions Cycles
  9478                           ; simple_byte           13     7 (average)
  9479                           ; direct_byte           20     8 (fixed)
  9480                           ; jumptable            260     6 (fixed)
  9481                           ; rangetable             8     6 (fixed)
  9482                           ; spacedrange           14     9 (fixed)
  9483                           ; locatedrange           4     3 (fixed)
  9484                           ;	Chosen strategy is simple_byte
  9485                           
  9486                           	opt asmopt_off
  9487  0FF2  3A00               	xorlw	0^0	; case 0
  9488  0FF3  1903               	skipnz
  9489  0FF4  2D94               	goto	l11641
  9490  0FF5  3A01               	xorlw	1^0	; case 1
  9491  0FF6  1903               	skipnz
  9492  0FF7  2E56               	goto	l11661
  9493  0FF8  3A03               	xorlw	2^1	; case 2
  9494  0FF9  1903               	skipnz
  9495  0FFA  2EA1               	goto	l11673
  9496  0FFB  3A01               	xorlw	3^2	; case 3
  9497  0FFC  1903               	skipnz
  9498  0FFD  2F60               	goto	l11701
  9499  0FFE  2FFF               	goto	l4679
  9500                           	opt asmopt_on
  9501                           
  9502                           	line	211
  9503                           	
  9504  0FFF                     l4666:	
  9505                           	line	212
  9506                           	
  9507  0FFF                     l4679:	
  9508  0FFF  0008               	return
  9509                           	opt stack 0
  9510                           GLOBAL	__end_of_UpdateDisplay
  9511  1000                     	__end_of_UpdateDisplay:
  9512 ;; =============== function _UpdateDisplay ends ============
  9513                           
  9514                           	signat	_UpdateDisplay,88
  9515                           	global	_readAvgDistance
  9516                           psect	text1104,local,class=CODE,delta=2
  9517                           global __ptext1104
  9518  1145                     __ptext1104:
  9519                           
  9520 ;; *************** function _readAvgDistance *****************
  9521 ;; Defined at:
  9522 ;;		line 28 in file "E:\Aldnoah.Zero\Assignment3\infrared.c"
  9523 ;; Parameters:    Size  Location     Type
  9524 ;;		None
  9525 ;; Auto vars:     Size  Location     Type
  9526 ;;  i               2   20[BANK0 ] int 
  9527 ;;  tempIR          2   18[BANK0 ] unsigned int 
  9528 ;;  j               2   16[BANK0 ] int 
  9529 ;;  fullval         2   14[BANK0 ] unsigned int 
  9530 ;; Return value:  Size  Location     Type
  9531 ;;		None               void
  9532 ;; Registers used:
  9533 ;;		wreg, fsr0l, fsr0h, status,2, status,0, btemp+1, pclath, cstack
  9534 ;; Tracked objects:
  9535 ;;		On entry : 0/0
  9536 ;;		On exit  : 0/0
  9537 ;;		Unchanged: 0/0
  9538 ;; Data sizes:     COMMON   BANK0   BANK1   BANK3   BANK2
  9539 ;;      Params:         0       0       0       0       0
  9540 ;;      Locals:         0       8       0       0       0
  9541 ;;      Temps:          0       0       0       0       0
  9542 ;;      Totals:         0       8       0       0       0
  9543 ;;Total ram usage:        8 bytes
  9544 ;; Hardware stack levels used:    1
  9545 ;; Hardware stack levels required when called:    5
  9546 ;; This function calls:
  9547 ;;		_readDistance
  9548 ;;		___lwdiv
  9549 ;; This function is called by:
  9550 ;;		_main
  9551 ;;		_GoHome
  9552 ;;		_FindVictim
  9553 ;;		_robotFollow
  9554 ;;		_robot_turnArc
  9555 ;; This function uses a non-reentrant model
  9556 ;;
  9557                           psect	text1104
  9558                           	file	"E:\Aldnoah.Zero\Assignment3\infrared.c"
  9559                           	line	28
  9560                           	global	__size_of_readAvgDistance
  9561  0077                     	__size_of_readAvgDistance	equ	__end_of_readAvgDistance-_readAvgDistance
  9562                           	
  9563  1145                     _readAvgDistance:	
  9564                           	opt	stack 0
  9565                           ; Regs used in _readAvgDistance: [wreg-fsr0h+status,2+status,0+btemp+1+pclath+cstack]
  9566                           	line	29
  9567                           	
  9568  1145                     l11621:	
  9569                           ;infrared.c: 29: unsigned int fullval = 0, tempIR = 0;
  9570  1145  1283               	bcf	status, 5	;RP0=0, select bank0
  9571  1146  1303               	bcf	status, 6	;RP1=0, select bank0
  9572  1147  01AE               	clrf	(readAvgDistance@fullval)
  9573  1148  01AF               	clrf	(readAvgDistance@fullval+1)
  9574  1149  01B2               	clrf	(readAvgDistance@tempIR)
  9575  114A  01B3               	clrf	(readAvgDistance@tempIR+1)
  9576                           	line	30
  9577                           ;infrared.c: 30: int j = 0;
  9578  114B  01B0               	clrf	(readAvgDistance@j)
  9579  114C  01B1               	clrf	(readAvgDistance@j+1)
  9580                           	line	32
  9581                           ;infrared.c: 32: for (int i = 0; i < 8; i++)
  9582  114D  01B4               	clrf	(readAvgDistance@i)
  9583  114E  01B5               	clrf	(readAvgDistance@i+1)
  9584                           	
  9585  114F                     l11623:	
  9586  114F  0835               	movf	(readAvgDistance@i+1),w
  9587  1150  3A80               	xorlw	80h
  9588  1151  00FF               	movwf	btemp+1
  9589  1152  3080               	movlw	(high(08h))^80h
  9590  1153  027F               	subwf	btemp+1,w
  9591  1154  1D03               	skipz
  9592  1155  2958               	goto	u5035
  9593  1156  3008               	movlw	low(08h)
  9594  1157  0234               	subwf	(readAvgDistance@i),w
  9595  1158                     u5035:
  9596                           
  9597  1158  1C03               	skipc
  9598  1159  295B               	goto	u5031
  9599  115A  295C               	goto	u5030
  9600  115B                     u5031:
  9601  115B  295E               	goto	l11627
  9602  115C                     u5030:
  9603  115C  2994               	goto	l11635
  9604                           	
  9605  115D                     l11625:	
  9606  115D  2994               	goto	l11635
  9607                           	line	33
  9608                           	
  9609  115E                     l3123:	
  9610                           	line	34
  9611                           	
  9612  115E                     l11627:	
  9613                           ;infrared.c: 33: {
  9614                           ;infrared.c: 34: tempIR = readDistance();
  9615  115E  160A  158A  2252   	fcall	_readDistance
              160A  118A         
  9616  1163  1283               	bcf	status, 5	;RP0=0, select bank0
  9617  1164  1303               	bcf	status, 6	;RP1=0, select bank0
  9618  1165  0829               	movf	(1+(?_readDistance)),w
  9619  1166  01B3               	clrf	(readAvgDistance@tempIR+1)
  9620  1167  07B3               	addwf	(readAvgDistance@tempIR+1)
  9621  1168  0828               	movf	(0+(?_readDistance)),w
  9622  1169  01B2               	clrf	(readAvgDistance@tempIR)
  9623  116A  07B2               	addwf	(readAvgDistance@tempIR)
  9624                           
  9625                           	line	35
  9626                           	
  9627  116B                     l11629:	
  9628                           ;infrared.c: 35: if (tempIR <= 1000)
  9629  116B  3003               	movlw	high(03E9h)
  9630  116C  0233               	subwf	(readAvgDistance@tempIR+1),w
  9631  116D  30E9               	movlw	low(03E9h)
  9632  116E  1903               	skipnz
  9633  116F  0232               	subwf	(readAvgDistance@tempIR),w
  9634  1170  1803               	skipnc
  9635  1171  2973               	goto	u5041
  9636  1172  2974               	goto	u5040
  9637  1173                     u5041:
  9638  1173  2980               	goto	l3125
  9639  1174                     u5040:
  9640                           	line	37
  9641                           	
  9642  1174                     l11631:	
  9643                           ;infrared.c: 36: {
  9644                           ;infrared.c: 37: fullval += tempIR;
  9645  1174  0832               	movf	(readAvgDistance@tempIR),w
  9646  1175  07AE               	addwf	(readAvgDistance@fullval),f
  9647  1176  1803               	skipnc
  9648  1177  0AAF               	incf	(readAvgDistance@fullval+1),f
  9649  1178  0833               	movf	(readAvgDistance@tempIR+1),w
  9650  1179  07AF               	addwf	(readAvgDistance@fullval+1),f
  9651                           	line	38
  9652                           ;infrared.c: 38: j++;
  9653  117A  3001               	movlw	low(01h)
  9654  117B  07B0               	addwf	(readAvgDistance@j),f
  9655  117C  1803               	skipnc
  9656  117D  0AB1               	incf	(readAvgDistance@j+1),f
  9657  117E  3000               	movlw	high(01h)
  9658  117F  07B1               	addwf	(readAvgDistance@j+1),f
  9659                           	line	39
  9660                           	
  9661  1180                     l3125:	
  9662                           	line	32
  9663  1180  3001               	movlw	low(01h)
  9664  1181  07B4               	addwf	(readAvgDistance@i),f
  9665  1182  1803               	skipnc
  9666  1183  0AB5               	incf	(readAvgDistance@i+1),f
  9667  1184  3000               	movlw	high(01h)
  9668  1185  07B5               	addwf	(readAvgDistance@i+1),f
  9669                           	
  9670  1186                     l11633:	
  9671  1186  0835               	movf	(readAvgDistance@i+1),w
  9672  1187  3A80               	xorlw	80h
  9673  1188  00FF               	movwf	btemp+1
  9674  1189  3080               	movlw	(high(08h))^80h
  9675  118A  027F               	subwf	btemp+1,w
  9676  118B  1D03               	skipz
  9677  118C  298F               	goto	u5055
  9678  118D  3008               	movlw	low(08h)
  9679  118E  0234               	subwf	(readAvgDistance@i),w
  9680  118F                     u5055:
  9681                           
  9682  118F  1C03               	skipc
  9683  1190  2992               	goto	u5051
  9684  1191  2993               	goto	u5050
  9685  1192                     u5051:
  9686  1192  295E               	goto	l11627
  9687  1193                     u5050:
  9688  1193  2994               	goto	l11635
  9689                           	
  9690  1194                     l3124:	
  9691                           	line	41
  9692                           	
  9693  1194                     l11635:	
  9694                           ;infrared.c: 39: }
  9695                           ;infrared.c: 40: }
  9696                           ;infrared.c: 41: adcVal = fullval / j;
  9697  1194  1283               	bcf	status, 5	;RP0=0, select bank0
  9698  1195  1303               	bcf	status, 6	;RP1=0, select bank0
  9699  1196  0831               	movf	(readAvgDistance@j+1),w
  9700  1197  01A1               	clrf	(?___lwdiv+1)
  9701  1198  07A1               	addwf	(?___lwdiv+1)
  9702  1199  0830               	movf	(readAvgDistance@j),w
  9703  119A  01A0               	clrf	(?___lwdiv)
  9704  119B  07A0               	addwf	(?___lwdiv)
  9705                           
  9706  119C  082F               	movf	(readAvgDistance@fullval+1),w
  9707  119D  01A3               	clrf	1+(?___lwdiv)+02h
  9708  119E  07A3               	addwf	1+(?___lwdiv)+02h
  9709  119F  082E               	movf	(readAvgDistance@fullval),w
  9710  11A0  01A2               	clrf	0+(?___lwdiv)+02h
  9711  11A1  07A2               	addwf	0+(?___lwdiv)+02h
  9712                           
  9713  11A2  160A  118A  20F5   	fcall	___lwdiv
              160A  118A         
  9714  11A7  1283               	bcf	status, 5	;RP0=0, select bank0
  9715  11A8  1303               	bcf	status, 6	;RP1=0, select bank0
  9716  11A9  0821               	movf	(1+(?___lwdiv)),w
  9717  11AA  1683               	bsf	status, 5	;RP0=1, select bank1
  9718  11AB  1303               	bcf	status, 6	;RP1=0, select bank1
  9719  11AC  01AF               	clrf	(_adcVal+1)^080h	;volatile
  9720  11AD  07AF               	addwf	(_adcVal+1)^080h	;volatile
  9721  11AE  1283               	bcf	status, 5	;RP0=0, select bank0
  9722  11AF  1303               	bcf	status, 6	;RP1=0, select bank0
  9723  11B0  0820               	movf	(0+(?___lwdiv)),w
  9724  11B1  1683               	bsf	status, 5	;RP0=1, select bank1
  9725  11B2  1303               	bcf	status, 6	;RP1=0, select bank1
  9726  11B3  01AE               	clrf	(_adcVal)^080h	;volatile
  9727  11B4  07AE               	addwf	(_adcVal)^080h	;volatile
  9728                           
  9729                           	line	43
  9730                           	
  9731  11B5                     l11637:	
  9732                           ;infrared.c: 43: Disp1 = adcVal;
  9733  11B5  082F               	movf	(_adcVal+1)^080h,w	;volatile
  9734  11B6  01A5               	clrf	(_Disp1+1)^080h	;volatile
  9735  11B7  07A5               	addwf	(_Disp1+1)^080h	;volatile
  9736  11B8  082E               	movf	(_adcVal)^080h,w	;volatile
  9737  11B9  01A4               	clrf	(_Disp1)^080h	;volatile
  9738  11BA  07A4               	addwf	(_Disp1)^080h	;volatile
  9739                           
  9740                           	line	44
  9741                           	
  9742  11BB                     l3126:	
  9743  11BB  0008               	return
  9744                           	opt stack 0
  9745                           GLOBAL	__end_of_readAvgDistance
  9746  11BC                     	__end_of_readAvgDistance:
  9747 ;; =============== function _readAvgDistance ends ============
  9748                           
  9749                           	signat	_readAvgDistance,88
  9750                           	global	_init
  9751                           psect	text1105,local,class=CODE,delta=2
  9752                           global __ptext1105
  9753  1C28                     __ptext1105:
  9754                           
  9755 ;; *************** function _init *****************
  9756 ;; Defined at:
  9757 ;;		line 139 in file "E:\Aldnoah.Zero\Assignment3\Main.c"
  9758 ;; Parameters:    Size  Location     Type
  9759 ;;		None
  9760 ;; Auto vars:     Size  Location     Type
  9761 ;;		None
  9762 ;; Return value:  Size  Location     Type
  9763 ;;		None               void
  9764 ;; Registers used:
  9765 ;;		wreg, fsr0l, fsr0h, status,2, status,0, pclath, cstack
  9766 ;; Tracked objects:
  9767 ;;		On entry : 0/0
  9768 ;;		On exit  : 0/0
  9769 ;;		Unchanged: 0/0
  9770 ;; Data sizes:     COMMON   BANK0   BANK1   BANK3   BANK2
  9771 ;;      Params:         0       0       0       0       0
  9772 ;;      Locals:         0       0       0       0       0
  9773 ;;      Temps:          0       1       0       0       0
  9774 ;;      Totals:         0       1       0       0       0
  9775 ;;Total ram usage:        1 bytes
  9776 ;; Hardware stack levels used:    1
  9777 ;; Hardware stack levels required when called:    4
  9778 ;; This function calls:
  9779 ;;		_ser_init
  9780 ;;		_init_adc
  9781 ;;		_lcd_init
  9782 ;;		_robo_init
  9783 ;; This function is called by:
  9784 ;;		_main
  9785 ;; This function uses a non-reentrant model
  9786 ;;
  9787                           psect	text1105
  9788                           	file	"E:\Aldnoah.Zero\Assignment3\Main.c"
  9789                           	line	139
  9790                           	global	__size_of_init
  9791  002F                     	__size_of_init	equ	__end_of_init-_init
  9792                           	
  9793  1C28                     _init:	
  9794                           	opt	stack 3
  9795                           ; Regs used in _init: [wreg-fsr0h+status,2+status,0+pclath+cstack]
  9796                           	line	140
  9797                           	
  9798  1C28                     l11595:	
  9799                           ;Main.c: 140: buttonPressed = 0;
  9800  1C28  1683               	bsf	status, 5	;RP0=1, select bank1
  9801  1C29  1303               	bcf	status, 6	;RP1=0, select bank1
  9802  1C2A  01CF               	clrf	(_buttonPressed)^080h	;volatile
  9803                           	line	142
  9804                           	
  9805  1C2B                     l11597:	
  9806                           ;Main.c: 142: TRISB = 0b11111100;
  9807  1C2B  30FC               	movlw	(0FCh)
  9808  1C2C  0086               	movwf	(134)^080h	;volatile
  9809                           	line	143
  9810                           	
  9811  1C2D                     l11599:	
  9812                           ;Main.c: 143: TRISC &= 0b10010000;
  9813  1C2D  3090               	movlw	(090h)
  9814  1C2E  1283               	bcf	status, 5	;RP0=0, select bank0
  9815  1C2F  1303               	bcf	status, 6	;RP1=0, select bank0
  9816  1C30  00A3               	movwf	(??_init+0)+0
  9817  1C31  0823               	movf	(??_init+0)+0,w
  9818  1C32  1683               	bsf	status, 5	;RP0=1, select bank1
  9819  1C33  1303               	bcf	status, 6	;RP1=0, select bank1
  9820  1C34  0587               	andwf	(135)^080h,f	;volatile
  9821                           	line	146
  9822                           	
  9823  1C35                     l11601:	
  9824                           ;Main.c: 146: SSPSTAT = 0b01000000;
  9825  1C35  3040               	movlw	(040h)
  9826  1C36  0094               	movwf	(148)^080h	;volatile
  9827                           	line	147
  9828                           	
  9829  1C37                     l11603:	
  9830                           ;Main.c: 147: SSPCON = 0b10100001;
  9831  1C37  30A1               	movlw	(0A1h)
  9832  1C38  1283               	bcf	status, 5	;RP0=0, select bank0
  9833  1C39  1303               	bcf	status, 6	;RP1=0, select bank0
  9834  1C3A  0094               	movwf	(20)	;volatile
  9835                           	line	150
  9836                           	
  9837  1C3B                     l11605:	
  9838                           ;Main.c: 150: OPTION_REG = 0b00000100;
  9839  1C3B  3004               	movlw	(04h)
  9840  1C3C  1683               	bsf	status, 5	;RP0=1, select bank1
  9841  1C3D  1303               	bcf	status, 6	;RP1=0, select bank1
  9842  1C3E  0081               	movwf	(129)^080h	;volatile
  9843                           	line	153
  9844                           	
  9845  1C3F                     l11607:	
  9846                           ;Main.c: 153: ser_init();
  9847  1C3F  160A  158A  2322   	fcall	_ser_init
              160A  158A         
  9848                           	line	154
  9849                           	
  9850  1C44                     l11609:	
  9851                           ;Main.c: 154: init_adc();
  9852  1C44  160A  158A  223C   	fcall	_init_adc
              160A  158A         
  9853                           	line	155
  9854                           	
  9855  1C49                     l11611:	
  9856                           ;Main.c: 155: lcd_init();
  9857  1C49  160A  158A  234C   	fcall	_lcd_init
              160A  158A         
  9858                           	line	156
  9859                           	
  9860  1C4E                     l11613:	
  9861                           ;Main.c: 156: robo_init();
  9862  1C4E  160A  158A  2298   	fcall	_robo_init
              160A  158A         
  9863                           	line	160
  9864                           	
  9865  1C53                     l11615:	
  9866                           ;Main.c: 160: TMR0IE = 1;
  9867  1C53  168B               	bsf	(93/8),(93)&7
  9868                           	line	162
  9869                           	
  9870  1C54                     l11617:	
  9871                           ;Main.c: 162: PEIE=1;
  9872  1C54  170B               	bsf	(94/8),(94)&7
  9873                           	line	164
  9874                           	
  9875  1C55                     l11619:	
  9876                           ;Main.c: 164: (GIE = 1);
  9877  1C55  178B               	bsf	(95/8),(95)&7
  9878                           	line	165
  9879                           	
  9880  1C56                     l2291:	
  9881  1C56  0008               	return
  9882                           	opt stack 0
  9883                           GLOBAL	__end_of_init
  9884  1C57                     	__end_of_init:
  9885 ;; =============== function _init ends ============
  9886                           
  9887                           	signat	_init,88
  9888                           	global	_readDistance
  9889                           psect	text1106,local,class=CODE,delta=2
  9890                           global __ptext1106
  9891  1A52                     __ptext1106:
  9892                           
  9893 ;; *************** function _readDistance *****************
  9894 ;; Defined at:
  9895 ;;		line 51 in file "E:\Aldnoah.Zero\Assignment3\infrared.c"
  9896 ;; Parameters:    Size  Location     Type
  9897 ;;		None
  9898 ;; Auto vars:     Size  Location     Type
  9899 ;;  readVal         2   12[BANK0 ] unsigned int 
  9900 ;; Return value:  Size  Location     Type
  9901 ;;                  2    8[BANK0 ] unsigned int 
  9902 ;; Registers used:
  9903 ;;		wreg, fsr0l, fsr0h, status,2, status,0, pclath, cstack
  9904 ;; Tracked objects:
  9905 ;;		On entry : 0/0
  9906 ;;		On exit  : 0/0
  9907 ;;		Unchanged: 0/0
  9908 ;; Data sizes:     COMMON   BANK0   BANK1   BANK3   BANK2
  9909 ;;      Params:         0       2       0       0       0
  9910 ;;      Locals:         0       2       0       0       0
  9911 ;;      Temps:          0       2       0       0       0
  9912 ;;      Totals:         0       6       0       0       0
  9913 ;;Total ram usage:        6 bytes
  9914 ;; Hardware stack levels used:    1
  9915 ;; Hardware stack levels required when called:    4
  9916 ;; This function calls:
  9917 ;;		_adc_read_channel
  9918 ;; This function is called by:
  9919 ;;		_readAvgDistance
  9920 ;; This function uses a non-reentrant model
  9921 ;;
  9922                           psect	text1106
  9923                           	file	"E:\Aldnoah.Zero\Assignment3\infrared.c"
  9924                           	line	51
  9925                           	global	__size_of_readDistance
  9926  0016                     	__size_of_readDistance	equ	__end_of_readDistance-_readDistance
  9927                           	
  9928  1A52                     _readDistance:	
  9929                           	opt	stack 0
  9930                           ; Regs used in _readDistance: [wreg-fsr0h+status,2+status,0+pclath+cstack]
  9931                           	line	54
  9932                           	
  9933  1A52                     l11589:	
  9934                           ;infrared.c: 52: unsigned int readVal;
  9935                           ;infrared.c: 54: readVal = adc_read_channel(0);
  9936  1A52  3000               	movlw	(0)
  9937  1A53  160A  158A  24C5   	fcall	_adc_read_channel
              160A  158A         
  9938  1A58  1283               	bcf	status, 5	;RP0=0, select bank0
  9939  1A59  1303               	bcf	status, 6	;RP1=0, select bank0
  9940  1A5A  00AA               	movwf	(??_readDistance+0)+0
  9941  1A5B  01AB               	clrf	(??_readDistance+0)+0+1
  9942  1A5C  082A               	movf	0+(??_readDistance+0)+0,w
  9943  1A5D  00AC               	movwf	(readDistance@readVal)
  9944  1A5E  082B               	movf	1+(??_readDistance+0)+0,w
  9945  1A5F  00AD               	movwf	(readDistance@readVal+1)
  9946                           	line	56
  9947                           	
  9948  1A60                     l11591:	
  9949                           ;infrared.c: 56: return readVal;
  9950  1A60  082D               	movf	(readDistance@readVal+1),w
  9951  1A61  01A9               	clrf	(?_readDistance+1)
  9952  1A62  07A9               	addwf	(?_readDistance+1)
  9953  1A63  082C               	movf	(readDistance@readVal),w
  9954  1A64  01A8               	clrf	(?_readDistance)
  9955  1A65  07A8               	addwf	(?_readDistance)
  9956                           
  9957  1A66  2A67               	goto	l3129
  9958                           	
  9959  1A67                     l11593:	
  9960                           	line	57
  9961                           	
  9962  1A67                     l3129:	
  9963  1A67  0008               	return
  9964                           	opt stack 0
  9965                           GLOBAL	__end_of_readDistance
  9966  1A68                     	__end_of_readDistance:
  9967 ;; =============== function _readDistance ends ============
  9968                           
  9969                           	signat	_readDistance,90
  9970                           	global	_RobotBattRead
  9971                           psect	text1107,local,class=CODE,delta=2
  9972                           global __ptext1107
  9973  11BC                     __ptext1107:
  9974                           
  9975 ;; *************** function _RobotBattRead *****************
  9976 ;; Defined at:
  9977 ;;		line 593 in file "E:\Aldnoah.Zero\Assignment3\robot.c"
  9978 ;; Parameters:    Size  Location     Type
  9979 ;;		None
  9980 ;; Auto vars:     Size  Location     Type
  9981 ;;  temp1           2    4[BANK0 ] int 
  9982 ;; Return value:  Size  Location     Type
  9983 ;;		None               void
  9984 ;; Registers used:
  9985 ;;		wreg, fsr0l, fsr0h, status,2, status,0, btemp+1, pclath, cstack
  9986 ;; Tracked objects:
  9987 ;;		On entry : 0/0
  9988 ;;		On exit  : 0/0
  9989 ;;		Unchanged: 0/0
  9990 ;; Data sizes:     COMMON   BANK0   BANK1   BANK3   BANK2
  9991 ;;      Params:         0       0       0       0       0
  9992 ;;      Locals:         0       2       0       0       0
  9993 ;;      Temps:          0       2       0       0       0
  9994 ;;      Totals:         0       4       0       0       0
  9995 ;;Total ram usage:        4 bytes
  9996 ;; Hardware stack levels used:    1
  9997 ;; Hardware stack levels required when called:    4
  9998 ;; This function calls:
  9999 ;;		_ser_putch
 10000 ;;		_ser_getch
 10001 ;; This function is called by:
 10002 ;;		_ChargeMode
 10003 ;; This function uses a non-reentrant model
 10004 ;;
 10005                           psect	text1107
 10006                           	file	"E:\Aldnoah.Zero\Assignment3\robot.c"
 10007                           	line	593
 10008                           	global	__size_of_RobotBattRead
 10009  0089                     	__size_of_RobotBattRead	equ	__end_of_RobotBattRead-_RobotBattRead
 10010                           	
 10011  11BC                     _RobotBattRead:	
 10012                           	opt	stack 2
 10013                           ; Regs used in _RobotBattRead: [wreg-fsr0h+status,2+status,0+btemp+1+pclath+cstack]
 10014                           	line	594
 10015                           	
 10016  11BC                     l11561:	
 10017                           ;robot.c: 594: int temp1 = 0;
 10018  11BC  1283               	bcf	status, 5	;RP0=0, select bank0
 10019  11BD  1303               	bcf	status, 6	;RP1=0, select bank0
 10020  11BE  01A4               	clrf	(RobotBattRead@temp1)
 10021  11BF  01A5               	clrf	(RobotBattRead@temp1+1)
 10022                           	line	595
 10023                           	
 10024  11C0                     l11563:	
 10025                           ;robot.c: 595: ser_putch(142);
 10026  11C0  308E               	movlw	(08Eh)
 10027  11C1  160A  158A  23FB   	fcall	_ser_putch
              160A  118A         
 10028                           	line	596
 10029                           	
 10030  11C6                     l11565:	
 10031                           ;robot.c: 596: ser_putch(25);
 10032  11C6  3019               	movlw	(019h)
 10033  11C7  160A  158A  23FB   	fcall	_ser_putch
              160A  118A         
 10034                           	line	597
 10035                           	
 10036  11CC                     l11567:	
 10037                           ;robot.c: 597: _delay((unsigned long)((5)*(20000000/4000.0)));
 10038                           	opt asmopt_off
 10039  11CC  3021               movlw	33
 10040  11CD  1283               	bcf	status, 5	;RP0=0, select bank0
 10041  11CE  1303               	bcf	status, 6	;RP1=0, select bank0
 10042  11CF  00A3               movwf	((??_RobotBattRead+0)+0+1),f
 10043  11D0  3076               	movlw	118
 10044  11D1  00A2               movwf	((??_RobotBattRead+0)+0),f
 10045  11D2                     u5757:
 10046  11D2  0BA2               	decfsz	((??_RobotBattRead+0)+0),f
 10047  11D3  29D2               	goto	u5757
 10048  11D4  0BA3               	decfsz	((??_RobotBattRead+0)+0+1),f
 10049  11D5  29D2               	goto	u5757
 10050  11D6  0064               	clrwdt
 10051                           opt asmopt_on
 10052                           
 10053                           	line	598
 10054                           	
 10055  11D7                     l11569:	
 10056                           ;robot.c: 598: DistHighByte = ser_getch();
 10057  11D7  160A  158A  23A3   	fcall	_ser_getch
              160A  118A         
 10058  11DC  1283               	bcf	status, 5	;RP0=0, select bank0
 10059  11DD  1303               	bcf	status, 6	;RP1=0, select bank0
 10060  11DE  00A2               	movwf	(??_RobotBattRead+0)+0
 10061  11DF  0822               	movf	(??_RobotBattRead+0)+0,w
 10062  11E0  00FD               	movwf	(_DistHighByte)	;volatile
 10063                           	line	599
 10064                           	
 10065  11E1                     l11571:	
 10066                           ;robot.c: 599: DistLowByte = ser_getch();
 10067  11E1  160A  158A  23A3   	fcall	_ser_getch
              160A  118A         
 10068  11E6  1283               	bcf	status, 5	;RP0=0, select bank0
 10069  11E7  1303               	bcf	status, 6	;RP1=0, select bank0
 10070  11E8  00A2               	movwf	(??_RobotBattRead+0)+0
 10071  11E9  0822               	movf	(??_RobotBattRead+0)+0,w
 10072  11EA  1683               	bsf	status, 5	;RP0=1, select bank1
 10073  11EB  1303               	bcf	status, 6	;RP1=0, select bank1
 10074  11EC  00C5               	movwf	(_DistLowByte)^080h	;volatile
 10075                           	line	600
 10076                           	
 10077  11ED                     l11573:	
 10078                           ;robot.c: 600: ser_putch(142);
 10079  11ED  308E               	movlw	(08Eh)
 10080  11EE  160A  158A  23FB   	fcall	_ser_putch
              160A  118A         
 10081                           	line	601
 10082                           	
 10083  11F3                     l11575:	
 10084                           ;robot.c: 601: ser_putch(21);
 10085  11F3  3015               	movlw	(015h)
 10086  11F4  160A  158A  23FB   	fcall	_ser_putch
              160A  118A         
 10087                           	line	602
 10088                           	
 10089  11F9                     l11577:	
 10090                           ;robot.c: 602: _delay((unsigned long)((5)*(20000000/4000.0)));
 10091                           	opt asmopt_off
 10092  11F9  3021               movlw	33
 10093  11FA  1283               	bcf	status, 5	;RP0=0, select bank0
 10094  11FB  1303               	bcf	status, 6	;RP1=0, select bank0
 10095  11FC  00A3               movwf	((??_RobotBattRead+0)+0+1),f
 10096  11FD  3076               	movlw	118
 10097  11FE  00A2               movwf	((??_RobotBattRead+0)+0),f
 10098  11FF                     u5767:
 10099  11FF  0BA2               	decfsz	((??_RobotBattRead+0)+0),f
 10100  1200  29FF               	goto	u5767
 10101  1201  0BA3               	decfsz	((??_RobotBattRead+0)+0+1),f
 10102  1202  29FF               	goto	u5767
 10103  1203  0064               	clrwdt
 10104                           opt asmopt_on
 10105                           
 10106                           	line	603
 10107                           	
 10108  1204                     l11579:	
 10109                           ;robot.c: 603: BattState = ser_getch();
 10110  1204  160A  158A  23A3   	fcall	_ser_getch
              160A  118A         
 10111  1209  1283               	bcf	status, 5	;RP0=0, select bank0
 10112  120A  1303               	bcf	status, 6	;RP1=0, select bank0
 10113  120B  00A2               	movwf	(??_RobotBattRead+0)+0
 10114  120C  01A3               	clrf	(??_RobotBattRead+0)+0+1
 10115  120D  0822               	movf	0+(??_RobotBattRead+0)+0,w
 10116  120E  1683               	bsf	status, 5	;RP0=1, select bank1
 10117  120F  1303               	bcf	status, 6	;RP1=0, select bank1
 10118  1210  00A2               	movwf	(_BattState)^080h
 10119  1211  1283               	bcf	status, 5	;RP0=0, select bank0
 10120  1212  1303               	bcf	status, 6	;RP1=0, select bank0
 10121  1213  0823               	movf	1+(??_RobotBattRead+0)+0,w
 10122  1214  1683               	bsf	status, 5	;RP0=1, select bank1
 10123  1215  1303               	bcf	status, 6	;RP1=0, select bank1
 10124  1216  00A3               	movwf	(_BattState+1)^080h
 10125                           	line	606
 10126                           	
 10127  1217                     l11581:	
 10128                           ;robot.c: 606: temp1 = DistHighByte;
 10129  1217  087D               	movf	(_DistHighByte),w	;volatile
 10130  1218  1283               	bcf	status, 5	;RP0=0, select bank0
 10131  1219  1303               	bcf	status, 6	;RP1=0, select bank0
 10132  121A  00A2               	movwf	(??_RobotBattRead+0)+0
 10133  121B  01A3               	clrf	(??_RobotBattRead+0)+0+1
 10134  121C  0822               	movf	0+(??_RobotBattRead+0)+0,w
 10135  121D  00A4               	movwf	(RobotBattRead@temp1)
 10136  121E  0823               	movf	1+(??_RobotBattRead+0)+0,w
 10137  121F  00A5               	movwf	(RobotBattRead@temp1+1)
 10138                           	line	607
 10139                           	
 10140  1220                     l11583:	
 10141                           ;robot.c: 607: temp1 = temp1 << 8;
 10142  1220  0825               	movf	(RobotBattRead@temp1+1),w
 10143  1221  00A3               	movwf	(??_RobotBattRead+0)+0+1
 10144  1222  0824               	movf	(RobotBattRead@temp1),w
 10145  1223  00A2               	movwf	(??_RobotBattRead+0)+0
 10146  1224  0822               	movf	(??_RobotBattRead+0)+0,w
 10147  1225  00A3               	movwf	(??_RobotBattRead+0)+1
 10148  1226  01A2               	clrf	(??_RobotBattRead+0)+0
 10149  1227  0822               	movf	0+(??_RobotBattRead+0)+0,w
 10150  1228  00A4               	movwf	(RobotBattRead@temp1)
 10151  1229  0823               	movf	1+(??_RobotBattRead+0)+0,w
 10152  122A  00A5               	movwf	(RobotBattRead@temp1+1)
 10153                           	line	608
 10154                           	
 10155  122B                     l11585:	
 10156                           ;robot.c: 608: temp1 += DistLowByte;
 10157  122B  1683               	bsf	status, 5	;RP0=1, select bank1
 10158  122C  1303               	bcf	status, 6	;RP1=0, select bank1
 10159  122D  0845               	movf	(_DistLowByte)^080h,w	;volatile
 10160  122E  1283               	bcf	status, 5	;RP0=0, select bank0
 10161  122F  1303               	bcf	status, 6	;RP1=0, select bank0
 10162  1230  00A2               	movwf	(??_RobotBattRead+0)+0
 10163  1231  01A3               	clrf	(??_RobotBattRead+0)+0+1
 10164  1232  0822               	movf	0+(??_RobotBattRead+0)+0,w
 10165  1233  07A4               	addwf	(RobotBattRead@temp1),f
 10166  1234  1803               	skipnc
 10167  1235  0AA5               	incf	(RobotBattRead@temp1+1),f
 10168  1236  0823               	movf	1+(??_RobotBattRead+0)+0,w
 10169  1237  07A5               	addwf	(RobotBattRead@temp1+1),f
 10170                           	line	609
 10171                           	
 10172  1238                     l11587:	
 10173                           ;robot.c: 609: BattCharge = temp1;
 10174  1238  0825               	movf	(RobotBattRead@temp1+1),w
 10175  1239  1683               	bsf	status, 5	;RP0=1, select bank1
 10176  123A  1303               	bcf	status, 6	;RP1=0, select bank1
 10177  123B  01A1               	clrf	(_BattCharge+1)^080h
 10178  123C  07A1               	addwf	(_BattCharge+1)^080h
 10179  123D  1283               	bcf	status, 5	;RP0=0, select bank0
 10180  123E  1303               	bcf	status, 6	;RP1=0, select bank0
 10181  123F  0824               	movf	(RobotBattRead@temp1),w
 10182  1240  1683               	bsf	status, 5	;RP0=1, select bank1
 10183  1241  1303               	bcf	status, 6	;RP1=0, select bank1
 10184  1242  01A0               	clrf	(_BattCharge)^080h
 10185  1243  07A0               	addwf	(_BattCharge)^080h
 10186                           
 10187                           	line	610
 10188                           	
 10189  1244                     l6336:	
 10190  1244  0008               	return
 10191                           	opt stack 0
 10192                           GLOBAL	__end_of_RobotBattRead
 10193  1245                     	__end_of_RobotBattRead:
 10194 ;; =============== function _RobotBattRead ends ============
 10195                           
 10196                           	signat	_RobotBattRead,88
 10197                           	global	_robot_read
 10198                           psect	text1108,local,class=CODE,delta=2
 10199                           global __ptext1108
 10200  16DE                     __ptext1108:
 10201                           
 10202 ;; *************** function _robot_read *****************
 10203 ;; Defined at:
 10204 ;;		line 55 in file "E:\Aldnoah.Zero\Assignment3\robot.c"
 10205 ;; Parameters:    Size  Location     Type
 10206 ;;  readType        1    wreg     unsigned char 
 10207 ;; Auto vars:     Size  Location     Type
 10208 ;;  readType        1    3[BANK0 ] unsigned char 
 10209 ;; Return value:  Size  Location     Type
 10210 ;;		None               void
 10211 ;; Registers used:
 10212 ;;		wreg, fsr0l, fsr0h, status,2, status,0, pclath, cstack
 10213 ;; Tracked objects:
 10214 ;;		On entry : 0/0
 10215 ;;		On exit  : 0/0
 10216 ;;		Unchanged: 0/0
 10217 ;; Data sizes:     COMMON   BANK0   BANK1   BANK3   BANK2
 10218 ;;      Params:         0       0       0       0       0
 10219 ;;      Locals:         0       1       0       0       0
 10220 ;;      Temps:          0       1       0       0       0
 10221 ;;      Totals:         0       2       0       0       0
 10222 ;;Total ram usage:        2 bytes
 10223 ;; Hardware stack levels used:    1
 10224 ;; Hardware stack levels required when called:    4
 10225 ;; This function calls:
 10226 ;;		_ser_putch
 10227 ;;		_ser_getch
 10228 ;; This function is called by:
 10229 ;;		_main
 10230 ;;		_robotFollow
 10231 ;;		_robot_turnArc
 10232 ;;		_robotMoveSpeed
 10233 ;;		_robotTurnSpeed
 10234 ;; This function uses a non-reentrant model
 10235 ;;
 10236                           psect	text1108
 10237                           	file	"E:\Aldnoah.Zero\Assignment3\robot.c"
 10238                           	line	55
 10239                           	global	__size_of_robot_read
 10240  0122                     	__size_of_robot_read	equ	__end_of_robot_read-_robot_read
 10241                           	
 10242  16DE                     _robot_read:	
 10243                           	opt	stack 1
 10244                           ; Regs used in _robot_read: [wreg-fsr0h+status,2+status,0+pclath+cstack]
 10245                           ;robot_read@readType stored from wreg
 10246  16DE  1283               	bcf	status, 5	;RP0=0, select bank0
 10247  16DF  1303               	bcf	status, 6	;RP1=0, select bank0
 10248  16E0  00A3               	movwf	(robot_read@readType)
 10249                           	line	56
 10250                           	
 10251  16E1                     l11547:	
 10252                           ;robot.c: 56: ser_putch(142);
 10253  16E1  308E               	movlw	(08Eh)
 10254  16E2  160A  158A  23FB   	fcall	_ser_putch
              160A  118A         
 10255                           	line	57
 10256                           ;robot.c: 57: ser_putch(10);
 10257  16E7  300A               	movlw	(0Ah)
 10258  16E8  160A  158A  23FB   	fcall	_ser_putch
              160A  118A         
 10259                           	line	59
 10260                           ;robot.c: 59: CliffSensors = ser_getch();
 10261  16ED  160A  158A  23A3   	fcall	_ser_getch
              160A  118A         
 10262  16F2  1283               	bcf	status, 5	;RP0=0, select bank0
 10263  16F3  1303               	bcf	status, 6	;RP1=0, select bank0
 10264  16F4  00A2               	movwf	(??_robot_read+0)+0
 10265  16F5  0822               	movf	(??_robot_read+0)+0,w
 10266  16F6  1683               	bsf	status, 5	;RP0=1, select bank1
 10267  16F7  1303               	bcf	status, 6	;RP1=0, select bank1
 10268  16F8  00C4               	movwf	(_CliffSensors)^080h	;volatile
 10269                           	line	61
 10270                           ;robot.c: 61: ser_putch(142);
 10271  16F9  308E               	movlw	(08Eh)
 10272  16FA  160A  158A  23FB   	fcall	_ser_putch
              160A  118A         
 10273                           	line	62
 10274                           ;robot.c: 62: ser_putch(11);
 10275  16FF  300B               	movlw	(0Bh)
 10276  1700  160A  158A  23FB   	fcall	_ser_putch
              160A  118A         
 10277                           	line	64
 10278                           ;robot.c: 64: CliffSensors += ser_getch();
 10279  1705  160A  158A  23A3   	fcall	_ser_getch
              160A  118A         
 10280  170A  1283               	bcf	status, 5	;RP0=0, select bank0
 10281  170B  1303               	bcf	status, 6	;RP1=0, select bank0
 10282  170C  00A2               	movwf	(??_robot_read+0)+0
 10283  170D  0822               	movf	(??_robot_read+0)+0,w
 10284  170E  1683               	bsf	status, 5	;RP0=1, select bank1
 10285  170F  1303               	bcf	status, 6	;RP1=0, select bank1
 10286  1710  07C4               	addwf	(_CliffSensors)^080h,f	;volatile
 10287                           	line	68
 10288                           ;robot.c: 68: ser_putch(142);
 10289  1711  308E               	movlw	(08Eh)
 10290  1712  160A  158A  23FB   	fcall	_ser_putch
              160A  118A         
 10291                           	line	69
 10292                           ;robot.c: 69: ser_putch(7);
 10293  1717  3007               	movlw	(07h)
 10294  1718  160A  158A  23FB   	fcall	_ser_putch
              160A  118A         
 10295                           	line	71
 10296                           ;robot.c: 71: BumpSensors = ser_getch();
 10297  171D  160A  158A  23A3   	fcall	_ser_getch
              160A  118A         
 10298  1722  1283               	bcf	status, 5	;RP0=0, select bank0
 10299  1723  1303               	bcf	status, 6	;RP1=0, select bank0
 10300  1724  00A2               	movwf	(??_robot_read+0)+0
 10301  1725  0822               	movf	(??_robot_read+0)+0,w
 10302  1726  1683               	bsf	status, 5	;RP0=1, select bank1
 10303  1727  1303               	bcf	status, 6	;RP1=0, select bank1
 10304  1728  00C2               	movwf	(_BumpSensors)^080h	;volatile
 10305                           	line	73
 10306                           ;robot.c: 73: ser_putch(142);
 10307  1729  308E               	movlw	(08Eh)
 10308  172A  160A  158A  23FB   	fcall	_ser_putch
              160A  118A         
 10309                           	line	74
 10310                           ;robot.c: 74: ser_putch(13);
 10311  172F  300D               	movlw	(0Dh)
 10312  1730  160A  158A  23FB   	fcall	_ser_putch
              160A  118A         
 10313                           	line	76
 10314                           ;robot.c: 76: VwallSensor = ser_getch();
 10315  1735  160A  158A  23A3   	fcall	_ser_getch
              160A  118A         
 10316  173A  1283               	bcf	status, 5	;RP0=0, select bank0
 10317  173B  1303               	bcf	status, 6	;RP1=0, select bank0
 10318  173C  00A2               	movwf	(??_robot_read+0)+0
 10319  173D  0822               	movf	(??_robot_read+0)+0,w
 10320  173E  1683               	bsf	status, 5	;RP0=1, select bank1
 10321  173F  1303               	bcf	status, 6	;RP1=0, select bank1
 10322  1740  00CE               	movwf	(_VwallSensor)^080h	;volatile
 10323                           	line	78
 10324                           ;robot.c: 78: ser_putch(142);
 10325  1741  308E               	movlw	(08Eh)
 10326  1742  160A  158A  23FB   	fcall	_ser_putch
              160A  118A         
 10327                           	line	79
 10328                           ;robot.c: 79: ser_putch(17);
 10329  1747  3011               	movlw	(011h)
 10330  1748  160A  158A  23FB   	fcall	_ser_putch
              160A  118A         
 10331                           	line	81
 10332                           ;robot.c: 81: VictimSensor = ser_getch();
 10333  174D  160A  158A  23A3   	fcall	_ser_getch
              160A  118A         
 10334  1752  1283               	bcf	status, 5	;RP0=0, select bank0
 10335  1753  1303               	bcf	status, 6	;RP1=0, select bank0
 10336  1754  00A2               	movwf	(??_robot_read+0)+0
 10337  1755  0822               	movf	(??_robot_read+0)+0,w
 10338  1756  1683               	bsf	status, 5	;RP0=1, select bank1
 10339  1757  1303               	bcf	status, 6	;RP1=0, select bank1
 10340  1758  00CD               	movwf	(_VictimSensor)^080h	;volatile
 10341                           	line	85
 10342                           	
 10343  1759                     l11549:	
 10344                           ;robot.c: 85: if (readType == 0)
 10345  1759  1283               	bcf	status, 5	;RP0=0, select bank0
 10346  175A  1303               	bcf	status, 6	;RP1=0, select bank0
 10347  175B  08A3               	movf	(robot_read@readType),f
 10348  175C  1D03               	skipz
 10349  175D  2F5F               	goto	u5001
 10350  175E  2F60               	goto	u5000
 10351  175F                     u5001:
 10352  175F  2F83               	goto	l11553
 10353  1760                     u5000:
 10354                           	line	87
 10355                           	
 10356  1760                     l11551:	
 10357                           ;robot.c: 86: {
 10358                           ;robot.c: 87: ser_putch(142);
 10359  1760  308E               	movlw	(08Eh)
 10360  1761  160A  158A  23FB   	fcall	_ser_putch
              160A  118A         
 10361                           	line	88
 10362                           ;robot.c: 88: ser_putch(19);
 10363  1766  3013               	movlw	(013h)
 10364  1767  160A  158A  23FB   	fcall	_ser_putch
              160A  118A         
 10365                           	line	90
 10366                           ;robot.c: 90: DistHighByte = ser_getch();
 10367  176C  160A  158A  23A3   	fcall	_ser_getch
              160A  118A         
 10368  1771  1283               	bcf	status, 5	;RP0=0, select bank0
 10369  1772  1303               	bcf	status, 6	;RP1=0, select bank0
 10370  1773  00A2               	movwf	(??_robot_read+0)+0
 10371  1774  0822               	movf	(??_robot_read+0)+0,w
 10372  1775  00FD               	movwf	(_DistHighByte)	;volatile
 10373                           	line	91
 10374                           ;robot.c: 91: DistLowByte = ser_getch();
 10375  1776  160A  158A  23A3   	fcall	_ser_getch
              160A  118A         
 10376  177B  1283               	bcf	status, 5	;RP0=0, select bank0
 10377  177C  1303               	bcf	status, 6	;RP1=0, select bank0
 10378  177D  00A2               	movwf	(??_robot_read+0)+0
 10379  177E  0822               	movf	(??_robot_read+0)+0,w
 10380  177F  1683               	bsf	status, 5	;RP0=1, select bank1
 10381  1780  1303               	bcf	status, 6	;RP1=0, select bank1
 10382  1781  00C5               	movwf	(_DistLowByte)^080h	;volatile
 10383                           	line	92
 10384                           ;robot.c: 92: }
 10385  1782  2FFF               	goto	l6219
 10386                           	line	93
 10387                           	
 10388  1783                     l6214:	
 10389                           	
 10390  1783                     l11553:	
 10391                           ;robot.c: 93: else if (readType == 1)
 10392  1783  1283               	bcf	status, 5	;RP0=0, select bank0
 10393  1784  0823               	movf	(robot_read@readType),w
 10394  1785  3A01               	xorlw	01h
 10395  1786  1D03               	skipz
 10396  1787  2F89               	goto	u5011
 10397  1788  2F8A               	goto	u5010
 10398  1789                     u5011:
 10399  1789  2FAF               	goto	l11557
 10400  178A                     u5010:
 10401                           	line	95
 10402                           	
 10403  178A                     l11555:	
 10404                           ;robot.c: 94: {
 10405                           ;robot.c: 95: ser_putch(142);
 10406  178A  308E               	movlw	(08Eh)
 10407  178B  160A  158A  23FB   	fcall	_ser_putch
              160A  118A         
 10408                           	line	96
 10409                           ;robot.c: 96: ser_putch(20);
 10410  1790  3014               	movlw	(014h)
 10411  1791  160A  158A  23FB   	fcall	_ser_putch
              160A  118A         
 10412                           	line	98
 10413                           ;robot.c: 98: AngleHighByte = ser_getch();
 10414  1796  160A  158A  23A3   	fcall	_ser_getch
              160A  118A         
 10415  179B  1283               	bcf	status, 5	;RP0=0, select bank0
 10416  179C  1303               	bcf	status, 6	;RP1=0, select bank0
 10417  179D  00A2               	movwf	(??_robot_read+0)+0
 10418  179E  0822               	movf	(??_robot_read+0)+0,w
 10419  179F  1683               	bsf	status, 5	;RP0=1, select bank1
 10420  17A0  1303               	bcf	status, 6	;RP1=0, select bank1
 10421  17A1  00C0               	movwf	(_AngleHighByte)^080h	;volatile
 10422                           	line	99
 10423                           ;robot.c: 99: AngleLowByte = ser_getch();
 10424  17A2  160A  158A  23A3   	fcall	_ser_getch
              160A  118A         
 10425  17A7  1283               	bcf	status, 5	;RP0=0, select bank0
 10426  17A8  1303               	bcf	status, 6	;RP1=0, select bank0
 10427  17A9  00A2               	movwf	(??_robot_read+0)+0
 10428  17AA  0822               	movf	(??_robot_read+0)+0,w
 10429  17AB  1683               	bsf	status, 5	;RP0=1, select bank1
 10430  17AC  1303               	bcf	status, 6	;RP1=0, select bank1
 10431  17AD  00C1               	movwf	(_AngleLowByte)^080h	;volatile
 10432                           	line	100
 10433                           ;robot.c: 100: }
 10434  17AE  2FFF               	goto	l6219
 10435                           	line	101
 10436                           	
 10437  17AF                     l6216:	
 10438                           	
 10439  17AF                     l11557:	
 10440                           ;robot.c: 101: else if (readType == 2)
 10441  17AF  1283               	bcf	status, 5	;RP0=0, select bank0
 10442  17B0  0823               	movf	(robot_read@readType),w
 10443  17B1  3A02               	xorlw	02h
 10444  17B2  1D03               	skipz
 10445  17B3  2FB5               	goto	u5021
 10446  17B4  2FB6               	goto	u5020
 10447  17B5                     u5021:
 10448  17B5  2FFF               	goto	l6219
 10449  17B6                     u5020:
 10450                           	line	104
 10451                           	
 10452  17B6                     l11559:	
 10453                           ;robot.c: 102: {
 10454                           ;robot.c: 104: ser_putch(142);
 10455  17B6  308E               	movlw	(08Eh)
 10456  17B7  160A  158A  23FB   	fcall	_ser_putch
              160A  118A         
 10457                           	line	105
 10458                           ;robot.c: 105: ser_putch(19);
 10459  17BC  3013               	movlw	(013h)
 10460  17BD  160A  158A  23FB   	fcall	_ser_putch
              160A  118A         
 10461                           	line	107
 10462                           ;robot.c: 107: DistHighByte = ser_getch();
 10463  17C2  160A  158A  23A3   	fcall	_ser_getch
              160A  118A         
 10464  17C7  1283               	bcf	status, 5	;RP0=0, select bank0
 10465  17C8  1303               	bcf	status, 6	;RP1=0, select bank0
 10466  17C9  00A2               	movwf	(??_robot_read+0)+0
 10467  17CA  0822               	movf	(??_robot_read+0)+0,w
 10468  17CB  00FD               	movwf	(_DistHighByte)	;volatile
 10469                           	line	108
 10470                           ;robot.c: 108: DistLowByte = ser_getch();
 10471  17CC  160A  158A  23A3   	fcall	_ser_getch
              160A  118A         
 10472  17D1  1283               	bcf	status, 5	;RP0=0, select bank0
 10473  17D2  1303               	bcf	status, 6	;RP1=0, select bank0
 10474  17D3  00A2               	movwf	(??_robot_read+0)+0
 10475  17D4  0822               	movf	(??_robot_read+0)+0,w
 10476  17D5  1683               	bsf	status, 5	;RP0=1, select bank1
 10477  17D6  1303               	bcf	status, 6	;RP1=0, select bank1
 10478  17D7  00C5               	movwf	(_DistLowByte)^080h	;volatile
 10479                           	line	109
 10480                           ;robot.c: 109: ser_putch(142);
 10481  17D8  308E               	movlw	(08Eh)
 10482  17D9  160A  158A  23FB   	fcall	_ser_putch
              160A  118A         
 10483                           	line	110
 10484                           ;robot.c: 110: ser_putch(20);
 10485  17DE  3014               	movlw	(014h)
 10486  17DF  160A  158A  23FB   	fcall	_ser_putch
              160A  118A         
 10487                           	line	112
 10488                           ;robot.c: 112: AngleHighByte = ser_getch();
 10489  17E4  160A  158A  23A3   	fcall	_ser_getch
              160A  118A         
 10490  17E9  1283               	bcf	status, 5	;RP0=0, select bank0
 10491  17EA  1303               	bcf	status, 6	;RP1=0, select bank0
 10492  17EB  00A2               	movwf	(??_robot_read+0)+0
 10493  17EC  0822               	movf	(??_robot_read+0)+0,w
 10494  17ED  1683               	bsf	status, 5	;RP0=1, select bank1
 10495  17EE  1303               	bcf	status, 6	;RP1=0, select bank1
 10496  17EF  00C0               	movwf	(_AngleHighByte)^080h	;volatile
 10497                           	line	113
 10498                           ;robot.c: 113: AngleLowByte = ser_getch();
 10499  17F0  160A  158A  23A3   	fcall	_ser_getch
              160A  118A         
 10500  17F5  1283               	bcf	status, 5	;RP0=0, select bank0
 10501  17F6  1303               	bcf	status, 6	;RP1=0, select bank0
 10502  17F7  00A2               	movwf	(??_robot_read+0)+0
 10503  17F8  0822               	movf	(??_robot_read+0)+0,w
 10504  17F9  1683               	bsf	status, 5	;RP0=1, select bank1
 10505  17FA  1303               	bcf	status, 6	;RP1=0, select bank1
 10506  17FB  00C1               	movwf	(_AngleLowByte)^080h	;volatile
 10507  17FC  2FFF               	goto	l6219
 10508                           	line	114
 10509                           	
 10510  17FD                     l6218:	
 10511  17FD  2FFF               	goto	l6219
 10512                           	line	116
 10513                           	
 10514  17FE                     l6217:	
 10515  17FE  2FFF               	goto	l6219
 10516                           	
 10517  17FF                     l6215:	
 10518                           	
 10519  17FF                     l6219:	
 10520  17FF  0008               	return
 10521                           	opt stack 0
 10522                           GLOBAL	__end_of_robot_read
 10523  1800                     	__end_of_robot_read:
 10524 ;; =============== function _robot_read ends ============
 10525                           
 10526                           	signat	_robot_read,4216
 10527                           	global	_lcd_init
 10528                           psect	text1109,local,class=CODE,delta=2
 10529                           global __ptext1109
 10530  1B4C                     __ptext1109:
 10531                           
 10532 ;; *************** function _lcd_init *****************
 10533 ;; Defined at:
 10534 ;;		line 101 in file "E:\Aldnoah.Zero\Assignment3\lcd.c"
 10535 ;; Parameters:    Size  Location     Type
 10536 ;;		None
 10537 ;; Auto vars:     Size  Location     Type
 10538 ;;		None
 10539 ;; Return value:  Size  Location     Type
 10540 ;;		None               void
 10541 ;; Registers used:
 10542 ;;		wreg, status,2, status,0, pclath, cstack
 10543 ;; Tracked objects:
 10544 ;;		On entry : 0/0
 10545 ;;		On exit  : 0/0
 10546 ;;		Unchanged: 0/0
 10547 ;; Data sizes:     COMMON   BANK0   BANK1   BANK3   BANK2
 10548 ;;      Params:         0       0       0       0       0
 10549 ;;      Locals:         0       0       0       0       0
 10550 ;;      Temps:          0       0       0       0       0
 10551 ;;      Totals:         0       0       0       0       0
 10552 ;;Total ram usage:        0 bytes
 10553 ;; Hardware stack levels used:    1
 10554 ;; Hardware stack levels required when called:    3
 10555 ;; This function calls:
 10556 ;;		_lcd_write_control
 10557 ;; This function is called by:
 10558 ;;		_init
 10559 ;; This function uses a non-reentrant model
 10560 ;;
 10561                           psect	text1109
 10562                           	file	"E:\Aldnoah.Zero\Assignment3\lcd.c"
 10563                           	line	101
 10564                           	global	__size_of_lcd_init
 10565  002B                     	__size_of_lcd_init	equ	__end_of_lcd_init-_lcd_init
 10566                           	
 10567  1B4C                     _lcd_init:	
 10568                           	opt	stack 3
 10569                           ; Regs used in _lcd_init: [wreg+status,2+status,0+pclath+cstack]
 10570                           	line	105
 10571                           	
 10572  1B4C                     l11527:	
 10573                           ;lcd.c: 105: ADCON1 = 0b00000010;
 10574  1B4C  3002               	movlw	(02h)
 10575  1B4D  1683               	bsf	status, 5	;RP0=1, select bank1
 10576  1B4E  1303               	bcf	status, 6	;RP1=0, select bank1
 10577  1B4F  009F               	movwf	(159)^080h	;volatile
 10578                           	line	108
 10579                           	
 10580  1B50                     l11529:	
 10581                           ;lcd.c: 108: PORTD = 0;
 10582  1B50  1283               	bcf	status, 5	;RP0=0, select bank0
 10583  1B51  1303               	bcf	status, 6	;RP1=0, select bank0
 10584  1B52  0188               	clrf	(8)	;volatile
 10585                           	line	109
 10586                           	
 10587  1B53                     l11531:	
 10588                           ;lcd.c: 109: PORTE = 0;
 10589  1B53  0189               	clrf	(9)	;volatile
 10590                           	line	111
 10591                           	
 10592  1B54                     l11533:	
 10593                           ;lcd.c: 111: TRISD = 0b00000000;
 10594  1B54  1683               	bsf	status, 5	;RP0=1, select bank1
 10595  1B55  1303               	bcf	status, 6	;RP1=0, select bank1
 10596  1B56  0188               	clrf	(136)^080h	;volatile
 10597                           	line	112
 10598                           	
 10599  1B57                     l11535:	
 10600                           ;lcd.c: 112: TRISE = 0b00000000;
 10601  1B57  0189               	clrf	(137)^080h	;volatile
 10602                           	line	115
 10603                           	
 10604  1B58                     l11537:	
 10605                           ;lcd.c: 115: lcd_write_control(0b00000001);
 10606  1B58  3001               	movlw	(01h)
 10607  1B59  160A  158A  2228   	fcall	_lcd_write_control
              160A  158A         
 10608                           	line	116
 10609                           	
 10610  1B5E                     l11539:	
 10611                           ;lcd.c: 116: lcd_write_control(0b00111000);
 10612  1B5E  3038               	movlw	(038h)
 10613  1B5F  160A  158A  2228   	fcall	_lcd_write_control
              160A  158A         
 10614                           	line	117
 10615                           	
 10616  1B64                     l11541:	
 10617                           ;lcd.c: 117: lcd_write_control(0b00001100);
 10618  1B64  300C               	movlw	(0Ch)
 10619  1B65  160A  158A  2228   	fcall	_lcd_write_control
              160A  158A         
 10620                           	line	118
 10621                           	
 10622  1B6A                     l11543:	
 10623                           ;lcd.c: 118: lcd_write_control(0b00000110);
 10624  1B6A  3006               	movlw	(06h)
 10625  1B6B  160A  158A  2228   	fcall	_lcd_write_control
              160A  158A         
 10626                           	line	119
 10627                           	
 10628  1B70                     l11545:	
 10629                           ;lcd.c: 119: lcd_write_control(0b00000010);
 10630  1B70  3002               	movlw	(02h)
 10631  1B71  160A  158A  2228   	fcall	_lcd_write_control
              160A  158A         
 10632                           	line	121
 10633                           	
 10634  1B76                     l1429:	
 10635  1B76  0008               	return
 10636                           	opt stack 0
 10637                           GLOBAL	__end_of_lcd_init
 10638  1B77                     	__end_of_lcd_init:
 10639 ;; =============== function _lcd_init ends ============
 10640                           
 10641                           	signat	_lcd_init,88
 10642                           	global	_lcd_write_string
 10643                           psect	text1110,local,class=CODE,delta=2
 10644                           global __ptext1110
 10645  1BCF                     __ptext1110:
 10646                           
 10647 ;; *************** function _lcd_write_string *****************
 10648 ;; Defined at:
 10649 ;;		line 48 in file "E:\Aldnoah.Zero\Assignment3\lcd.c"
 10650 ;; Parameters:    Size  Location     Type
 10651 ;;  s               2    7[BANK0 ] PTR unsigned char 
 10652 ;;		 -> STR_26(9), STR_25(3), STR_24(3), STR_23(3), 
 10653 ;;		 -> STR_22(3), STR_21(3), STR_20(3), STR_18(16), 
 10654 ;;		 -> STR_17(4), STR_16(8), STR_15(4), STR_14(16), 
 10655 ;;		 -> UpdateDisplay@LCDOutput(16), STR_12(4), STR_11(4), STR_10(4), 
 10656 ;;		 -> STR_9(4), STR_8(4), STR_7(4), STR_6(9), 
 10657 ;;		 -> STR_5(9), STR_4(8), STR_3(9), STR_2(9), 
 10658 ;;		 -> STR_1(9), 
 10659 ;; Auto vars:     Size  Location     Type
 10660 ;;		None
 10661 ;; Return value:  Size  Location     Type
 10662 ;;		None               void
 10663 ;; Registers used:
 10664 ;;		wreg, fsr0l, fsr0h, status,2, status,0, btemp+1, pclath, cstack
 10665 ;; Tracked objects:
 10666 ;;		On entry : 0/0
 10667 ;;		On exit  : 0/0
 10668 ;;		Unchanged: 0/0
 10669 ;; Data sizes:     COMMON   BANK0   BANK1   BANK3   BANK2
 10670 ;;      Params:         0       2       0       0       0
 10671 ;;      Locals:         0       0       0       0       0
 10672 ;;      Temps:          0       0       0       0       0
 10673 ;;      Totals:         0       2       0       0       0
 10674 ;;Total ram usage:        2 bytes
 10675 ;; Hardware stack levels used:    1
 10676 ;; Hardware stack levels required when called:    3
 10677 ;; This function calls:
 10678 ;;		_lcd_write_data
 10679 ;; This function is called by:
 10680 ;;		_UpdateDisplay
 10681 ;; This function uses a non-reentrant model
 10682 ;;
 10683                           psect	text1110
 10684                           	file	"E:\Aldnoah.Zero\Assignment3\lcd.c"
 10685                           	line	48
 10686                           	global	__size_of_lcd_write_string
 10687  002C                     	__size_of_lcd_write_string	equ	__end_of_lcd_write_string-_lcd_write_string
 10688                           	
 10689  1BCF                     _lcd_write_string:	
 10690                           	opt	stack 2
 10691                           ; Regs used in _lcd_write_string: [wreg-fsr0h+status,2+status,0+btemp+1+pclath+cstack]
 10692                           	line	50
 10693                           	
 10694  1BCF                     l11519:	
 10695                           ;lcd.c: 50: while(*s) lcd_write_data(*s++);
 10696  1BCF  2BE9               	goto	l11525
 10697                           	
 10698  1BD0                     l1409:	
 10699                           	
 10700  1BD0                     l11521:	
 10701  1BD0  1283               	bcf	status, 5	;RP0=0, select bank0
 10702  1BD1  1303               	bcf	status, 6	;RP1=0, select bank0
 10703  1BD2  0828               	movf	(lcd_write_string@s+1),w
 10704  1BD3  00FF               	movwf	btemp+1
 10705  1BD4  0827               	movf	(lcd_write_string@s),w
 10706  1BD5  0084               	movwf	fsr0
 10707  1BD6  160A  118A  2000   	fcall	stringtab
              160A  158A         
 10708  1BDB  160A  158A  2201   	fcall	_lcd_write_data
              160A  158A         
 10709                           	
 10710  1BE0                     l11523:	
 10711  1BE0  3001               	movlw	low(01h)
 10712  1BE1  1283               	bcf	status, 5	;RP0=0, select bank0
 10713  1BE2  1303               	bcf	status, 6	;RP1=0, select bank0
 10714  1BE3  07A7               	addwf	(lcd_write_string@s),f
 10715  1BE4  1803               	skipnc
 10716  1BE5  0AA8               	incf	(lcd_write_string@s+1),f
 10717  1BE6  3000               	movlw	high(01h)
 10718  1BE7  07A8               	addwf	(lcd_write_string@s+1),f
 10719  1BE8  2BE9               	goto	l11525
 10720                           	
 10721  1BE9                     l1408:	
 10722                           	
 10723  1BE9                     l11525:	
 10724  1BE9  1283               	bcf	status, 5	;RP0=0, select bank0
 10725  1BEA  1303               	bcf	status, 6	;RP1=0, select bank0
 10726  1BEB  0828               	movf	(lcd_write_string@s+1),w
 10727  1BEC  00FF               	movwf	btemp+1
 10728  1BED  0827               	movf	(lcd_write_string@s),w
 10729  1BEE  0084               	movwf	fsr0
 10730  1BEF  160A  118A  2000   	fcall	stringtab
              160A  158A         
 10731  1BF4  3800               	iorlw	0
 10732  1BF5  1D03               	skipz
 10733  1BF6  2BF8               	goto	u4991
 10734  1BF7  2BF9               	goto	u4990
 10735  1BF8                     u4991:
 10736  1BF8  2BD0               	goto	l11521
 10737  1BF9                     u4990:
 10738  1BF9  2BFA               	goto	l1411
 10739                           	
 10740  1BFA                     l1410:	
 10741                           	line	51
 10742                           	
 10743  1BFA                     l1411:	
 10744  1BFA  0008               	return
 10745                           	opt stack 0
 10746                           GLOBAL	__end_of_lcd_write_string
 10747  1BFB                     	__end_of_lcd_write_string:
 10748 ;; =============== function _lcd_write_string ends ============
 10749                           
 10750                           	signat	_lcd_write_string,4216
 10751                           	global	_lcd_set_cursor
 10752                           psect	text1111,local,class=CODE,delta=2
 10753                           global __ptext1111
 10754  19F6                     __ptext1111:
 10755                           
 10756 ;; *************** function _lcd_set_cursor *****************
 10757 ;; Defined at:
 10758 ;;		line 42 in file "E:\Aldnoah.Zero\Assignment3\lcd.c"
 10759 ;; Parameters:    Size  Location     Type
 10760 ;;  address         1    wreg     unsigned char 
 10761 ;; Auto vars:     Size  Location     Type
 10762 ;;  address         1    3[BANK0 ] unsigned char 
 10763 ;; Return value:  Size  Location     Type
 10764 ;;		None               void
 10765 ;; Registers used:
 10766 ;;		wreg, status,2, status,0, pclath, cstack
 10767 ;; Tracked objects:
 10768 ;;		On entry : 0/0
 10769 ;;		On exit  : 0/0
 10770 ;;		Unchanged: 0/0
 10771 ;; Data sizes:     COMMON   BANK0   BANK1   BANK3   BANK2
 10772 ;;      Params:         0       0       0       0       0
 10773 ;;      Locals:         0       1       0       0       0
 10774 ;;      Temps:          0       0       0       0       0
 10775 ;;      Totals:         0       1       0       0       0
 10776 ;;Total ram usage:        1 bytes
 10777 ;; Hardware stack levels used:    1
 10778 ;; Hardware stack levels required when called:    3
 10779 ;; This function calls:
 10780 ;;		_lcd_write_control
 10781 ;; This function is called by:
 10782 ;;		_UpdateDisplay
 10783 ;; This function uses a non-reentrant model
 10784 ;;
 10785                           psect	text1111
 10786                           	file	"E:\Aldnoah.Zero\Assignment3\lcd.c"
 10787                           	line	42
 10788                           	global	__size_of_lcd_set_cursor
 10789  000B                     	__size_of_lcd_set_cursor	equ	__end_of_lcd_set_cursor-_lcd_set_cursor
 10790                           	
 10791  19F6                     _lcd_set_cursor:	
 10792                           	opt	stack 2
 10793                           ; Regs used in _lcd_set_cursor: [wreg+status,2+status,0+pclath+cstack]
 10794                           ;lcd_set_cursor@address stored from wreg
 10795  19F6  1283               	bcf	status, 5	;RP0=0, select bank0
 10796  19F7  1303               	bcf	status, 6	;RP1=0, select bank0
 10797  19F8  00A3               	movwf	(lcd_set_cursor@address)
 10798                           	line	43
 10799                           	
 10800  19F9                     l11515:	
 10801                           ;lcd.c: 43: address |= 0b10000000;
 10802  19F9  17A3               	bsf	(lcd_set_cursor@address)+(7/8),(7)&7
 10803                           	line	44
 10804                           	
 10805  19FA                     l11517:	
 10806                           ;lcd.c: 44: lcd_write_control(address);
 10807  19FA  0823               	movf	(lcd_set_cursor@address),w
 10808  19FB  160A  158A  2228   	fcall	_lcd_write_control
              160A  158A         
 10809                           	line	45
 10810                           	
 10811  1A00                     l1405:	
 10812  1A00  0008               	return
 10813                           	opt stack 0
 10814                           GLOBAL	__end_of_lcd_set_cursor
 10815  1A01                     	__end_of_lcd_set_cursor:
 10816 ;; =============== function _lcd_set_cursor ends ============
 10817                           
 10818                           	signat	_lcd_set_cursor,4216
 10819                           	global	_abs
 10820                           psect	text1112,local,class=CODE,delta=2
 10821                           global __ptext1112
 10822  1C57                     __ptext1112:
 10823                           
 10824 ;; *************** function _abs *****************
 10825 ;; Defined at:
 10826 ;;		line 615 in file "E:\Aldnoah.Zero\Assignment3\robot.c"
 10827 ;; Parameters:    Size  Location     Type
 10828 ;;  v               2    6[BANK0 ] int 
 10829 ;; Auto vars:     Size  Location     Type
 10830 ;;		None
 10831 ;; Return value:  Size  Location     Type
 10832 ;;                  2    6[BANK0 ] int 
 10833 ;; Registers used:
 10834 ;;		wreg, status,2, status,0, btemp+1, pclath, cstack
 10835 ;; Tracked objects:
 10836 ;;		On entry : 0/0
 10837 ;;		On exit  : 0/0
 10838 ;;		Unchanged: 0/0
 10839 ;; Data sizes:     COMMON   BANK0   BANK1   BANK3   BANK2
 10840 ;;      Params:         0       2       0       0       0
 10841 ;;      Locals:         0       0       0       0       0
 10842 ;;      Temps:          0       2       0       0       0
 10843 ;;      Totals:         0       4       0       0       0
 10844 ;;Total ram usage:        4 bytes
 10845 ;; Hardware stack levels used:    1
 10846 ;; Hardware stack levels required when called:    3
 10847 ;; This function calls:
 10848 ;;		___wmul
 10849 ;; This function is called by:
 10850 ;;		_robot_turnArc
 10851 ;;		_robotMoveSpeed
 10852 ;;		_robotTurnSpeed
 10853 ;; This function uses a non-reentrant model
 10854 ;;
 10855                           psect	text1112
 10856                           	file	"E:\Aldnoah.Zero\Assignment3\robot.c"
 10857                           	line	615
 10858                           	global	__size_of_abs
 10859  0035                     	__size_of_abs	equ	__end_of_abs-_abs
 10860                           	
 10861  1C57                     _abs:	
 10862                           	opt	stack 2
 10863                           ; Regs used in _abs: [wreg+status,2+status,0+btemp+1+pclath+cstack]
 10864                           	line	616
 10865                           	
 10866  1C57                     l11511:	
 10867                           ;robot.c: 616: return (v * ((v > 0) - (v < 0)));
 10868  1C57  3000               	movlw	0
 10869  1C58  1283               	bcf	status, 5	;RP0=0, select bank0
 10870  1C59  1303               	bcf	status, 6	;RP1=0, select bank0
 10871  1C5A  1BA7               	btfsc	(abs@v+1),7
 10872  1C5B  3001               	movlw	1
 10873  1C5C  00A8               	movwf	(??_abs+0)+0
 10874  1C5D  01A9               	clrf	(??_abs+0)+0+1
 10875  1C5E  09A8               	comf	(??_abs+0)+0,f
 10876  1C5F  09A9               	comf	(??_abs+0)+1,f
 10877  1C60  0AA8               	incf	(??_abs+0)+0,f
 10878  1C61  1903               	skipnz
 10879  1C62  0AA9               	incf	(??_abs+0)+1,f
 10880  1C63  0827               	movf	(abs@v+1),w
 10881  1C64  3A80               	xorlw	80h
 10882  1C65  00FF               	movwf	btemp+1
 10883  1C66  3080               	movlw	(high(01h))^80h
 10884  1C67  027F               	subwf	btemp+1,w
 10885  1C68  1D03               	skipz
 10886  1C69  2C6C               	goto	u4985
 10887  1C6A  3001               	movlw	low(01h)
 10888  1C6B  0226               	subwf	(abs@v),w
 10889  1C6C                     u4985:
 10890                           
 10891  1C6C  3000               	movlw	0
 10892  1C6D  1803               	skipnc
 10893  1C6E  3001               	movlw	1
 10894  1C6F  1283               	bcf	status, 5	;RP0=0, select bank0
 10895  1C70  1303               	bcf	status, 6	;RP1=0, select bank0
 10896  1C71  0728               	addwf	0+(??_abs+0)+0,w
 10897  1C72  00A0               	movwf	(?___wmul)
 10898  1C73  0829               	movf	1+(??_abs+0)+0,w
 10899  1C74  1803               	skipnc
 10900  1C75  0A29               	incf	1+(??_abs+0)+0,w
 10901  1C76  00A1               	movwf	((?___wmul))+1
 10902  1C77  0827               	movf	(abs@v+1),w
 10903  1C78  01A3               	clrf	1+(?___wmul)+02h
 10904  1C79  07A3               	addwf	1+(?___wmul)+02h
 10905  1C7A  0826               	movf	(abs@v),w
 10906  1C7B  01A2               	clrf	0+(?___wmul)+02h
 10907  1C7C  07A2               	addwf	0+(?___wmul)+02h
 10908                           
 10909  1C7D  160A  158A  2377   	fcall	___wmul
              160A  158A         
 10910  1C82  1283               	bcf	status, 5	;RP0=0, select bank0
 10911  1C83  1303               	bcf	status, 6	;RP1=0, select bank0
 10912  1C84  0821               	movf	(1+(?___wmul)),w
 10913  1C85  01A7               	clrf	(?_abs+1)
 10914  1C86  07A7               	addwf	(?_abs+1)
 10915  1C87  0820               	movf	(0+(?___wmul)),w
 10916  1C88  01A6               	clrf	(?_abs)
 10917  1C89  07A6               	addwf	(?_abs)
 10918                           
 10919  1C8A  2C8B               	goto	l6339
 10920                           	
 10921  1C8B                     l11513:	
 10922                           	line	617
 10923                           	
 10924  1C8B                     l6339:	
 10925  1C8B  0008               	return
 10926                           	opt stack 0
 10927                           GLOBAL	__end_of_abs
 10928  1C8C                     	__end_of_abs:
 10929 ;; =============== function _abs ends ============
 10930                           
 10931                           	signat	_abs,4218
 10932                           	global	_robotTurn
 10933                           psect	text1113,local,class=CODE,delta=2
 10934                           global __ptext1113
 10935  1F16                     __ptext1113:
 10936                           
 10937 ;; *************** function _robotTurn *****************
 10938 ;; Defined at:
 10939 ;;		line 142 in file "E:\Aldnoah.Zero\Assignment3\robot.c"
 10940 ;; Parameters:    Size  Location     Type
 10941 ;;  angle           2    2[BANK0 ] int 
 10942 ;; Auto vars:     Size  Location     Type
 10943 ;;		None
 10944 ;; Return value:  Size  Location     Type
 10945 ;;		None               void
 10946 ;; Registers used:
 10947 ;;		wreg, fsr0l, fsr0h, status,2, status,0, btemp+1, pclath, cstack
 10948 ;; Tracked objects:
 10949 ;;		On entry : 0/0
 10950 ;;		On exit  : 0/0
 10951 ;;		Unchanged: 0/0
 10952 ;; Data sizes:     COMMON   BANK0   BANK1   BANK3   BANK2
 10953 ;;      Params:         0       2       0       0       0
 10954 ;;      Locals:         0       0       0       0       0
 10955 ;;      Temps:          0       0       0       0       0
 10956 ;;      Totals:         0       2       0       0       0
 10957 ;;Total ram usage:        2 bytes
 10958 ;; Hardware stack levels used:    1
 10959 ;; Hardware stack levels required when called:    3
 10960 ;; This function calls:
 10961 ;;		_ser_putch
 10962 ;; This function is called by:
 10963 ;;		_robotTurnSpeed
 10964 ;; This function uses a non-reentrant model
 10965 ;;
 10966                           psect	text1113
 10967                           	file	"E:\Aldnoah.Zero\Assignment3\robot.c"
 10968                           	line	142
 10969                           	global	__size_of_robotTurn
 10970  0074                     	__size_of_robotTurn	equ	__end_of_robotTurn-_robotTurn
 10971                           	
 10972  1F16                     _robotTurn:	
 10973                           	opt	stack 1
 10974                           ; Regs used in _robotTurn: [wreg-fsr0h+status,2+status,0+btemp+1+pclath+cstack]
 10975                           	line	144
 10976                           	
 10977  1F16                     l11503:	
 10978                           ;robot.c: 144: if (angle > 0)
 10979  1F16  1283               	bcf	status, 5	;RP0=0, select bank0
 10980  1F17  1303               	bcf	status, 6	;RP1=0, select bank0
 10981  1F18  0823               	movf	(robotTurn@angle+1),w
 10982  1F19  3A80               	xorlw	80h
 10983  1F1A  00FF               	movwf	btemp+1
 10984  1F1B  3080               	movlw	(high(01h))^80h
 10985  1F1C  027F               	subwf	btemp+1,w
 10986  1F1D  1D03               	skipz
 10987  1F1E  2F21               	goto	u4965
 10988  1F1F  3001               	movlw	low(01h)
 10989  1F20  0222               	subwf	(robotTurn@angle),w
 10990  1F21                     u4965:
 10991                           
 10992  1F21  1C03               	skipc
 10993  1F22  2F24               	goto	u4961
 10994  1F23  2F25               	goto	u4960
 10995  1F24                     u4961:
 10996  1F24  2F44               	goto	l6225
 10997  1F25                     u4960:
 10998                           	line	146
 10999                           	
 11000  1F25                     l11505:	
 11001                           ;robot.c: 145: {
 11002                           ;robot.c: 146: ser_putch(137);
 11003  1F25  3089               	movlw	(089h)
 11004  1F26  160A  158A  23FB   	fcall	_ser_putch
              160A  158A         
 11005                           	line	148
 11006                           ;robot.c: 148: ser_putch(0);
 11007  1F2B  3000               	movlw	(0)
 11008  1F2C  160A  158A  23FB   	fcall	_ser_putch
              160A  158A         
 11009                           	line	150
 11010                           ;robot.c: 150: ser_putch(200);
 11011  1F31  30C8               	movlw	(0C8h)
 11012  1F32  160A  158A  23FB   	fcall	_ser_putch
              160A  158A         
 11013                           	line	152
 11014                           ;robot.c: 152: ser_putch(0);
 11015  1F37  3000               	movlw	(0)
 11016  1F38  160A  158A  23FB   	fcall	_ser_putch
              160A  158A         
 11017                           	line	154
 11018                           ;robot.c: 154: ser_putch(1);
 11019  1F3D  3001               	movlw	(01h)
 11020  1F3E  160A  158A  23FB   	fcall	_ser_putch
              160A  158A         
 11021                           	line	155
 11022                           ;robot.c: 155: }
 11023  1F43  2F89               	goto	l6229
 11024                           	line	156
 11025                           	
 11026  1F44                     l6225:	
 11027                           ;robot.c: 156: else if (angle < 0)
 11028  1F44  1283               	bcf	status, 5	;RP0=0, select bank0
 11029  1F45  1303               	bcf	status, 6	;RP1=0, select bank0
 11030  1F46  1FA3               	btfss	(robotTurn@angle+1),7
 11031  1F47  2F49               	goto	u4971
 11032  1F48  2F4A               	goto	u4970
 11033  1F49                     u4971:
 11034  1F49  2F69               	goto	l11509
 11035  1F4A                     u4970:
 11036                           	line	158
 11037                           	
 11038  1F4A                     l11507:	
 11039                           ;robot.c: 157: {
 11040                           ;robot.c: 158: ser_putch(137);
 11041  1F4A  3089               	movlw	(089h)
 11042  1F4B  160A  158A  23FB   	fcall	_ser_putch
              160A  158A         
 11043                           	line	160
 11044                           ;robot.c: 160: ser_putch(0);
 11045  1F50  3000               	movlw	(0)
 11046  1F51  160A  158A  23FB   	fcall	_ser_putch
              160A  158A         
 11047                           	line	162
 11048                           ;robot.c: 162: ser_putch(200);
 11049  1F56  30C8               	movlw	(0C8h)
 11050  1F57  160A  158A  23FB   	fcall	_ser_putch
              160A  158A         
 11051                           	line	164
 11052                           ;robot.c: 164: ser_putch(255);
 11053  1F5C  30FF               	movlw	(0FFh)
 11054  1F5D  160A  158A  23FB   	fcall	_ser_putch
              160A  158A         
 11055                           	line	166
 11056                           ;robot.c: 166: ser_putch(255);
 11057  1F62  30FF               	movlw	(0FFh)
 11058  1F63  160A  158A  23FB   	fcall	_ser_putch
              160A  158A         
 11059                           	line	167
 11060                           ;robot.c: 167: }
 11061  1F68  2F89               	goto	l6229
 11062                           	line	168
 11063                           	
 11064  1F69                     l6227:	
 11065                           	line	170
 11066                           	
 11067  1F69                     l11509:	
 11068                           ;robot.c: 168: else
 11069                           ;robot.c: 169: {
 11070                           ;robot.c: 170: ser_putch(137);
 11071  1F69  3089               	movlw	(089h)
 11072  1F6A  160A  158A  23FB   	fcall	_ser_putch
              160A  158A         
 11073                           	line	172
 11074                           ;robot.c: 172: ser_putch(0);
 11075  1F6F  3000               	movlw	(0)
 11076  1F70  160A  158A  23FB   	fcall	_ser_putch
              160A  158A         
 11077                           	line	174
 11078                           ;robot.c: 174: ser_putch(0);
 11079  1F75  3000               	movlw	(0)
 11080  1F76  160A  158A  23FB   	fcall	_ser_putch
              160A  158A         
 11081                           	line	176
 11082                           ;robot.c: 176: ser_putch(0);
 11083  1F7B  3000               	movlw	(0)
 11084  1F7C  160A  158A  23FB   	fcall	_ser_putch
              160A  158A         
 11085                           	line	178
 11086                           ;robot.c: 178: ser_putch(0);
 11087  1F81  3000               	movlw	(0)
 11088  1F82  160A  158A  23FB   	fcall	_ser_putch
              160A  158A         
 11089  1F87  2F89               	goto	l6229
 11090                           	line	179
 11091                           	
 11092  1F88                     l6228:	
 11093  1F88  2F89               	goto	l6229
 11094                           	
 11095  1F89                     l6226:	
 11096                           	line	180
 11097                           	
 11098  1F89                     l6229:	
 11099  1F89  0008               	return
 11100                           	opt stack 0
 11101                           GLOBAL	__end_of_robotTurn
 11102  1F8A                     	__end_of_robotTurn:
 11103 ;; =============== function _robotTurn ends ============
 11104                           
 11105                           	signat	_robotTurn,4216
 11106                           	global	_ser_getch
 11107                           psect	text1114,local,class=CODE,delta=2
 11108                           global __ptext1114
 11109  1BA3                     __ptext1114:
 11110                           
 11111 ;; *************** function _ser_getch *****************
 11112 ;; Defined at:
 11113 ;;		line 55 in file "E:\Aldnoah.Zero\Assignment3\ser.c"
 11114 ;; Parameters:    Size  Location     Type
 11115 ;;		None
 11116 ;; Auto vars:     Size  Location     Type
 11117 ;;  c               1    1[BANK0 ] unsigned char 
 11118 ;; Return value:  Size  Location     Type
 11119 ;;                  1    wreg      unsigned char 
 11120 ;; Registers used:
 11121 ;;		wreg, fsr0l, fsr0h, status,2, status,0, pclath, cstack
 11122 ;; Tracked objects:
 11123 ;;		On entry : 0/0
 11124 ;;		On exit  : 0/0
 11125 ;;		Unchanged: 0/0
 11126 ;; Data sizes:     COMMON   BANK0   BANK1   BANK3   BANK2
 11127 ;;      Params:         0       0       0       0       0
 11128 ;;      Locals:         0       1       0       0       0
 11129 ;;      Temps:          0       1       0       0       0
 11130 ;;      Totals:         0       2       0       0       0
 11131 ;;Total ram usage:        2 bytes
 11132 ;; Hardware stack levels used:    1
 11133 ;; Hardware stack levels required when called:    3
 11134 ;; This function calls:
 11135 ;;		_ser_isrx
 11136 ;; This function is called by:
 11137 ;;		_robot_read
 11138 ;;		_RobotBattRead
 11139 ;; This function uses a non-reentrant model
 11140 ;;
 11141                           psect	text1114
 11142                           	file	"E:\Aldnoah.Zero\Assignment3\ser.c"
 11143                           	line	55
 11144                           	global	__size_of_ser_getch
 11145  002C                     	__size_of_ser_getch	equ	__end_of_ser_getch-_ser_getch
 11146                           	
 11147  1BA3                     _ser_getch:	
 11148                           	opt	stack 2
 11149                           ; Regs used in _ser_getch: [wreg-fsr0h+status,2+status,0+pclath+cstack]
 11150                           	line	58
 11151                           	
 11152  1BA3                     l11487:	
 11153                           ;ser.c: 56: unsigned char c;
 11154                           ;ser.c: 58: while (ser_isrx()==0)
 11155  1BA3  2BA5               	goto	l11489
 11156                           	
 11157  1BA4                     l7046:	
 11158                           	line	59
 11159                           ;ser.c: 59: continue;
 11160  1BA4  2BA5               	goto	l11489
 11161                           	
 11162  1BA5                     l7045:	
 11163                           	line	58
 11164                           	
 11165  1BA5                     l11489:	
 11166  1BA5  160A  158A  227F   	fcall	_ser_isrx
              160A  158A         
 11167  1BAA  1C03               	btfss	status,0
 11168  1BAB  2BAD               	goto	u4951
 11169  1BAC  2BAE               	goto	u4950
 11170  1BAD                     u4951:
 11171  1BAD  2BA5               	goto	l11489
 11172  1BAE                     u4950:
 11173                           	
 11174  1BAE                     l7047:	
 11175                           	line	61
 11176                           ;ser.c: 61: GIE=0;
 11177  1BAE  138B               	bcf	(95/8),(95)&7
 11178                           	line	62
 11179                           	
 11180  1BAF                     l11491:	
 11181                           ;ser.c: 62: c=rxfifo[rxoptr];
 11182  1BAF  1683               	bsf	status, 5	;RP0=1, select bank1
 11183  1BB0  1303               	bcf	status, 6	;RP1=0, select bank1
 11184  1BB1  0855               	movf	(_rxoptr)^080h,w
 11185  1BB2  3EA0               	addlw	_rxfifo&0ffh
 11186  1BB3  0084               	movwf	fsr0
 11187  1BB4  1783               	bsf	status, 7	;select IRP bank3
 11188  1BB5  0800               	movf	indf,w
 11189  1BB6  1283               	bcf	status, 5	;RP0=0, select bank0
 11190  1BB7  1303               	bcf	status, 6	;RP1=0, select bank0
 11191  1BB8  00A0               	movwf	(??_ser_getch+0)+0
 11192  1BB9  0820               	movf	(??_ser_getch+0)+0,w
 11193  1BBA  00A1               	movwf	(ser_getch@c)
 11194                           	line	63
 11195                           	
 11196  1BBB                     l11493:	
 11197                           ;ser.c: 63: ++rxoptr;
 11198  1BBB  3001               	movlw	(01h)
 11199  1BBC  00A0               	movwf	(??_ser_getch+0)+0
 11200  1BBD  0820               	movf	(??_ser_getch+0)+0,w
 11201  1BBE  1683               	bsf	status, 5	;RP0=1, select bank1
 11202  1BBF  1303               	bcf	status, 6	;RP1=0, select bank1
 11203  1BC0  07D5               	addwf	(_rxoptr)^080h,f	;volatile
 11204                           	line	64
 11205                           	
 11206  1BC1                     l11495:	
 11207                           ;ser.c: 64: rxoptr &= (16-1);
 11208  1BC1  300F               	movlw	(0Fh)
 11209  1BC2  1283               	bcf	status, 5	;RP0=0, select bank0
 11210  1BC3  1303               	bcf	status, 6	;RP1=0, select bank0
 11211  1BC4  00A0               	movwf	(??_ser_getch+0)+0
 11212  1BC5  0820               	movf	(??_ser_getch+0)+0,w
 11213  1BC6  1683               	bsf	status, 5	;RP0=1, select bank1
 11214  1BC7  1303               	bcf	status, 6	;RP1=0, select bank1
 11215  1BC8  05D5               	andwf	(_rxoptr)^080h,f	;volatile
 11216                           	line	65
 11217                           	
 11218  1BC9                     l11497:	
 11219                           ;ser.c: 65: GIE=1;
 11220  1BC9  178B               	bsf	(95/8),(95)&7
 11221                           	line	66
 11222                           	
 11223  1BCA                     l11499:	
 11224                           ;ser.c: 66: return c;
 11225  1BCA  1283               	bcf	status, 5	;RP0=0, select bank0
 11226  1BCB  1303               	bcf	status, 6	;RP1=0, select bank0
 11227  1BCC  0821               	movf	(ser_getch@c),w
 11228  1BCD  2BCE               	goto	l7048
 11229                           	
 11230  1BCE                     l11501:	
 11231                           	line	67
 11232                           	
 11233  1BCE                     l7048:	
 11234  1BCE  0008               	return
 11235                           	opt stack 0
 11236                           GLOBAL	__end_of_ser_getch
 11237  1BCF                     	__end_of_ser_getch:
 11238 ;; =============== function _ser_getch ends ============
 11239                           
 11240                           	signat	_ser_getch,89
 11241                           	global	_sprintf
 11242                           psect	text1115,local,class=CODE,delta=2
 11243                           global __ptext1115
 11244  09E2                     __ptext1115:
 11245                           
 11246 ;; *************** function _sprintf *****************
 11247 ;; Defined at:
 11248 ;;		line 488 in file "C:\Program Files\HI-TECH Software\PICC\9.83\lib\doprnt.c"
 11249 ;; Parameters:    Size  Location     Type
 11250 ;;  sp              1    wreg     PTR unsigned char 
 11251 ;;		 -> UpdateDisplay@LCDOutput(16), 
 11252 ;;  f               1   14[BANK0 ] PTR const unsigned char 
 11253 ;;		 -> STR_28(15), STR_27(16), STR_19(5), STR_13(15), 
 11254 ;; Auto vars:     Size  Location     Type
 11255 ;;  sp              1   29[BANK0 ] PTR unsigned char 
 11256 ;;		 -> UpdateDisplay@LCDOutput(16), 
 11257 ;;  _val            4   25[BANK0 ] struct .
 11258 ;;  width           2   30[BANK0 ] int 
 11259 ;;  c               1   32[BANK0 ] char 
 11260 ;;  flag            1   24[BANK0 ] unsigned char 
 11261 ;;  prec            1   23[BANK0 ] char 
 11262 ;;  ap              1   22[BANK0 ] PTR void [1]
 11263 ;;		 -> ?_sprintf(2), 
 11264 ;; Return value:  Size  Location     Type
 11265 ;;                  2   14[BANK0 ] int 
 11266 ;; Registers used:
 11267 ;;		wreg, fsr0l, fsr0h, status,2, status,0, btemp+1, pclath, cstack
 11268 ;; Tracked objects:
 11269 ;;		On entry : 0/0
 11270 ;;		On exit  : 0/0
 11271 ;;		Unchanged: 0/0
 11272 ;; Data sizes:     COMMON   BANK0   BANK1   BANK3   BANK2
 11273 ;;      Params:         0       5       0       0       0
 11274 ;;      Locals:         0      11       0       0       0
 11275 ;;      Temps:          0       3       0       0       0
 11276 ;;      Totals:         0      19       0       0       0
 11277 ;;Total ram usage:       19 bytes
 11278 ;; Hardware stack levels used:    1
 11279 ;; Hardware stack levels required when called:    3
 11280 ;; This function calls:
 11281 ;;		_isdigit
 11282 ;;		___wmul
 11283 ;;		___lwdiv
 11284 ;;		___lwmod
 11285 ;; This function is called by:
 11286 ;;		_UpdateDisplay
 11287 ;; This function uses a non-reentrant model
 11288 ;;
 11289                           psect	text1115
 11290                           	file	"C:\Program Files\HI-TECH Software\PICC\9.83\sources\doprnt.c"
 11291                           	line	488
 11292                           	global	__size_of_sprintf
 11293  01B6                     	__size_of_sprintf	equ	__end_of_sprintf-_sprintf
 11294                           	
 11295  09E2                     _sprintf:	
 11296                           	opt	stack 2
 11297                           ; Regs used in _sprintf: [wreg-fsr0h+status,2+status,0+btemp+1+pclath+cstack]
 11298                           ;sprintf@sp stored from wreg
 11299                           	line	537
 11300  09E2  1283               	bcf	status, 5	;RP0=0, select bank0
 11301  09E3  1303               	bcf	status, 6	;RP1=0, select bank0
 11302  09E4  00BD               	movwf	(sprintf@sp)
 11303                           	
 11304  09E5                     l11397:	
 11305  09E5  302F               	movlw	(?_sprintf+01h)&0ffh
 11306  09E6  00B3               	movwf	(??_sprintf+0)+0
 11307  09E7  0833               	movf	(??_sprintf+0)+0,w
 11308  09E8  00B6               	movwf	(sprintf@ap)
 11309                           	line	540
 11310  09E9  2B7A               	goto	l11481
 11311                           	
 11312  09EA                     l7088:	
 11313                           	line	542
 11314                           	
 11315  09EA                     l11399:	
 11316  09EA  0840               	movf	(sprintf@c),w
 11317  09EB  3A25               	xorlw	025h
 11318  09EC  1903               	skipnz
 11319  09ED  29EF               	goto	u4801
 11320  09EE  29F0               	goto	u4800
 11321  09EF                     u4801:
 11322  09EF  29FC               	goto	l11405
 11323  09F0                     u4800:
 11324                           	line	545
 11325                           	
 11326  09F0                     l11401:	
 11327  09F0  0840               	movf	(sprintf@c),w
 11328  09F1  00B3               	movwf	(??_sprintf+0)+0
 11329  09F2  083D               	movf	(sprintf@sp),w
 11330  09F3  0084               	movwf	fsr0
 11331  09F4  0833               	movf	(??_sprintf+0)+0,w
 11332  09F5  1383               	bcf	status, 7	;select IRP bank0
 11333  09F6  0080               	movwf	indf
 11334                           	
 11335  09F7                     l11403:	
 11336  09F7  3001               	movlw	(01h)
 11337  09F8  00B3               	movwf	(??_sprintf+0)+0
 11338  09F9  0833               	movf	(??_sprintf+0)+0,w
 11339  09FA  07BD               	addwf	(sprintf@sp),f
 11340                           	line	546
 11341  09FB  2B7A               	goto	l11481
 11342                           	line	547
 11343                           	
 11344  09FC                     l7089:	
 11345                           	line	550
 11346                           	
 11347  09FC                     l11405:	
 11348  09FC  01BE               	clrf	(sprintf@width)
 11349  09FD  01BF               	clrf	(sprintf@width+1)
 11350                           	line	552
 11351                           	
 11352  09FE                     l11407:	
 11353  09FE  01B8               	clrf	(sprintf@flag)
 11354                           	line	601
 11355                           	
 11356  09FF                     l11409:	
 11357  09FF  082E               	movf	(sprintf@f),w
 11358  0A00  0084               	movwf	fsr0
 11359  0A01  160A  118A  200A   	fcall	stringdir
              120A  158A         
 11360  0A06  160A  158A  2268   	fcall	_isdigit
              120A  158A         
 11361  0A0B  1C03               	btfss	status,0
 11362  0A0C  2A0E               	goto	u4811
 11363  0A0D  2A0F               	goto	u4810
 11364  0A0E                     u4811:
 11365  0A0E  2A59               	goto	l11421
 11366  0A0F                     u4810:
 11367                           	line	602
 11368                           	
 11369  0A0F                     l11411:	
 11370  0A0F  1283               	bcf	status, 5	;RP0=0, select bank0
 11371  0A10  1303               	bcf	status, 6	;RP1=0, select bank0
 11372  0A11  01BE               	clrf	(sprintf@width)
 11373  0A12  01BF               	clrf	(sprintf@width+1)
 11374  0A13  2A14               	goto	l11413
 11375                           	line	603
 11376                           	
 11377  0A14                     l7091:	
 11378                           	line	604
 11379                           	
 11380  0A14                     l11413:	
 11381  0A14  1283               	bcf	status, 5	;RP0=0, select bank0
 11382  0A15  1303               	bcf	status, 6	;RP1=0, select bank0
 11383  0A16  083F               	movf	(sprintf@width+1),w
 11384  0A17  01A1               	clrf	(?___wmul+1)
 11385  0A18  07A1               	addwf	(?___wmul+1)
 11386  0A19  083E               	movf	(sprintf@width),w
 11387  0A1A  01A0               	clrf	(?___wmul)
 11388  0A1B  07A0               	addwf	(?___wmul)
 11389                           
 11390  0A1C  300A               	movlw	low(0Ah)
 11391  0A1D  00A2               	movwf	0+(?___wmul)+02h
 11392  0A1E  3000               	movlw	high(0Ah)
 11393  0A1F  00A3               	movwf	(0+(?___wmul)+02h)+1
 11394  0A20  160A  158A  2377   	fcall	___wmul
              120A  158A         
 11395  0A25  1283               	bcf	status, 5	;RP0=0, select bank0
 11396  0A26  1303               	bcf	status, 6	;RP1=0, select bank0
 11397  0A27  082E               	movf	(sprintf@f),w
 11398  0A28  0084               	movwf	fsr0
 11399  0A29  160A  118A  200A   	fcall	stringdir
              120A  158A         
 11400  0A2E  0720               	addwf	(0+(?___wmul)),w
 11401  0A2F  00B3               	movwf	(??_sprintf+0)+0
 11402  0A30  3000               	movlw	0
 11403  0A31  1803               	skipnc
 11404  0A32  3001               	movlw	1
 11405  0A33  0721               	addwf	(1+(?___wmul)),w
 11406  0A34  00B4               	movwf	1+(??_sprintf+0)+0
 11407  0A35  0833               	movf	0+(??_sprintf+0)+0,w
 11408  0A36  3ED0               	addlw	low(0FFD0h)
 11409  0A37  00BE               	movwf	(sprintf@width)
 11410  0A38  0834               	movf	1+(??_sprintf+0)+0,w
 11411  0A39  1803               	skipnc
 11412  0A3A  3E01               	addlw	1
 11413  0A3B  3EFF               	addlw	high(0FFD0h)
 11414  0A3C  00BF               	movwf	1+(sprintf@width)
 11415                           	
 11416  0A3D                     l11415:	
 11417  0A3D  3001               	movlw	(01h)
 11418  0A3E  00B3               	movwf	(??_sprintf+0)+0
 11419  0A3F  0833               	movf	(??_sprintf+0)+0,w
 11420  0A40  07AE               	addwf	(sprintf@f),f
 11421                           	line	605
 11422                           	
 11423  0A41                     l11417:	
 11424  0A41  082E               	movf	(sprintf@f),w
 11425  0A42  0084               	movwf	fsr0
 11426  0A43  160A  118A  200A   	fcall	stringdir
              120A  158A         
 11427  0A48  160A  158A  2268   	fcall	_isdigit
              120A  158A         
 11428  0A4D  1803               	btfsc	status,0
 11429  0A4E  2A50               	goto	u4821
 11430  0A4F  2A51               	goto	u4820
 11431  0A50                     u4821:
 11432  0A50  2A14               	goto	l11413
 11433  0A51                     u4820:
 11434  0A51  2A59               	goto	l11421
 11435                           	
 11436  0A52                     l7092:	
 11437  0A52  2A59               	goto	l11421
 11438                           	line	611
 11439                           	
 11440  0A53                     l7090:	
 11441                           	line	638
 11442  0A53  2A59               	goto	l11421
 11443                           	line	640
 11444                           	
 11445  0A54                     l7094:	
 11446                           	line	641
 11447  0A54  2B90               	goto	l11483
 11448                           	line	700
 11449                           	
 11450  0A55                     l7096:	
 11451  0A55  2A70               	goto	l11423
 11452                           	line	701
 11453                           	
 11454  0A56                     l7097:	
 11455                           	line	702
 11456  0A56  2A70               	goto	l11423
 11457                           	line	805
 11458                           	
 11459  0A57                     l7099:	
 11460                           	line	816
 11461  0A57  2B7A               	goto	l11481
 11462                           	line	825
 11463                           	
 11464  0A58                     l11419:	
 11465  0A58  2A70               	goto	l11423
 11466                           	line	638
 11467                           	
 11468  0A59                     l7093:	
 11469                           	
 11470  0A59                     l11421:	
 11471  0A59  3001               	movlw	01h
 11472  0A5A  1283               	bcf	status, 5	;RP0=0, select bank0
 11473  0A5B  1303               	bcf	status, 6	;RP1=0, select bank0
 11474  0A5C  07AE               	addwf	(sprintf@f),f
 11475  0A5D  30FF               	movlw	-01h
 11476  0A5E  072E               	addwf	(sprintf@f),w
 11477  0A5F  0084               	movwf	fsr0
 11478  0A60  160A  118A  200A   	fcall	stringdir
              120A  158A         
 11479  0A65  00C0               	movwf	(sprintf@c)
 11480                           	; Switch size 1, requested type "space"
 11481                           ; Number of cases is 3, Range of values is 0 to 105
 11482                           ; switch strategies available:
 11483                           ; Name         Instructions Cycles
 11484                           ; simple_byte           10     6 (average)
 11485                           ; jumptable            260     6 (fixed)
 11486                           ; rangetable           110     6 (fixed)
 11487                           ; spacedrange          218     9 (fixed)
 11488                           ; locatedrange         106     3 (fixed)
 11489                           ;	Chosen strategy is simple_byte
 11490                           
 11491                           	opt asmopt_off
 11492  0A66  3A00               	xorlw	0^0	; case 0
 11493  0A67  1903               	skipnz
 11494  0A68  2B90               	goto	l11483
 11495  0A69  3A64               	xorlw	100^0	; case 100
 11496  0A6A  1903               	skipnz
 11497  0A6B  2A70               	goto	l11423
 11498  0A6C  3A0D               	xorlw	105^100	; case 105
 11499  0A6D  1903               	skipnz
 11500  0A6E  2A70               	goto	l11423
 11501  0A6F  2B7A               	goto	l11481
 11502                           	opt asmopt_on
 11503                           
 11504                           	line	825
 11505                           	
 11506  0A70                     l7098:	
 11507                           	line	1254
 11508                           	
 11509  0A70                     l11423:	
 11510  0A70  1283               	bcf	status, 5	;RP0=0, select bank0
 11511  0A71  1303               	bcf	status, 6	;RP1=0, select bank0
 11512  0A72  0836               	movf	(sprintf@ap),w
 11513  0A73  0084               	movwf	fsr0
 11514  0A74  1383               	bcf	status, 7	;select IRP bank0
 11515  0A75  0800               	movf	indf,w
 11516  0A76  00B9               	movwf	(sprintf@_val)
 11517  0A77  0A84               	incf	fsr0,f
 11518  0A78  0800               	movf	indf,w
 11519  0A79  00BA               	movwf	(sprintf@_val+1)
 11520                           	
 11521  0A7A                     l11425:	
 11522  0A7A  3002               	movlw	(02h)
 11523  0A7B  00B3               	movwf	(??_sprintf+0)+0
 11524  0A7C  0833               	movf	(??_sprintf+0)+0,w
 11525  0A7D  07B6               	addwf	(sprintf@ap),f
 11526                           	line	1256
 11527                           	
 11528  0A7E                     l11427:	
 11529  0A7E  1FBA               	btfss	(sprintf@_val+1),7
 11530  0A7F  2A81               	goto	u4831
 11531  0A80  2A82               	goto	u4830
 11532  0A81                     u4831:
 11533  0A81  2A8C               	goto	l11433
 11534  0A82                     u4830:
 11535                           	line	1257
 11536                           	
 11537  0A82                     l11429:	
 11538  0A82  3003               	movlw	(03h)
 11539  0A83  00B3               	movwf	(??_sprintf+0)+0
 11540  0A84  0833               	movf	(??_sprintf+0)+0,w
 11541  0A85  04B8               	iorwf	(sprintf@flag),f
 11542                           	line	1258
 11543                           	
 11544  0A86                     l11431:	
 11545  0A86  09B9               	comf	(sprintf@_val),f
 11546  0A87  09BA               	comf	(sprintf@_val+1),f
 11547  0A88  0AB9               	incf	(sprintf@_val),f
 11548  0A89  1903               	skipnz
 11549  0A8A  0ABA               	incf	(sprintf@_val+1),f
 11550  0A8B  2A8C               	goto	l11433
 11551                           	line	1259
 11552                           	
 11553  0A8C                     l7100:	
 11554                           	line	1300
 11555                           	
 11556  0A8C                     l11433:	
 11557  0A8C  01C0               	clrf	(sprintf@c)
 11558  0A8D  1403               	bsf	status,0
 11559  0A8E  0DC0               	rlf	(sprintf@c),f
 11560                           	
 11561  0A8F                     l11435:	
 11562  0A8F  0840               	movf	(sprintf@c),w
 11563  0A90  3A05               	xorlw	05h
 11564  0A91  1D03               	skipz
 11565  0A92  2A94               	goto	u4841
 11566  0A93  2A95               	goto	u4840
 11567  0A94                     u4841:
 11568  0A94  2A97               	goto	l11439
 11569  0A95                     u4840:
 11570  0A95  2ABF               	goto	l11447
 11571                           	
 11572  0A96                     l11437:	
 11573  0A96  2ABF               	goto	l11447
 11574                           	line	1301
 11575                           	
 11576  0A97                     l7101:	
 11577                           	
 11578  0A97                     l11439:	
 11579  0A97  0840               	movf	(sprintf@c),w
 11580  0A98  00B3               	movwf	(??_sprintf+0)+0
 11581  0A99  0733               	addwf	(??_sprintf+0)+0,w
 11582  0A9A  3E01               	addlw	low((_dpowers-__stringbase))
 11583  0A9B  0084               	movwf	fsr0
 11584  0A9C  160A  118A  200A   	fcall	stringdir
              120A  158A         
 11585  0AA1  00B4               	movwf	(??_sprintf+1)+0
 11586  0AA2  160A  118A  200A   	fcall	stringdir
              120A  158A         
 11587  0AA7  00B5               	movwf	(??_sprintf+1)+0+1
 11588  0AA8  0835               	movf	1+(??_sprintf+1)+0,w
 11589  0AA9  023A               	subwf	(sprintf@_val+1),w
 11590  0AAA  1D03               	skipz
 11591  0AAB  2AAE               	goto	u4855
 11592  0AAC  0834               	movf	0+(??_sprintf+1)+0,w
 11593  0AAD  0239               	subwf	(sprintf@_val),w
 11594  0AAE                     u4855:
 11595  0AAE  1803               	skipnc
 11596  0AAF  2AB1               	goto	u4851
 11597  0AB0  2AB2               	goto	u4850
 11598  0AB1                     u4851:
 11599  0AB1  2AB4               	goto	l11443
 11600  0AB2                     u4850:
 11601  0AB2  2ABF               	goto	l11447
 11602                           	line	1302
 11603                           	
 11604  0AB3                     l11441:	
 11605  0AB3  2ABF               	goto	l11447
 11606                           	
 11607  0AB4                     l7103:	
 11608                           	line	1300
 11609                           	
 11610  0AB4                     l11443:	
 11611  0AB4  3001               	movlw	(01h)
 11612  0AB5  00B3               	movwf	(??_sprintf+0)+0
 11613  0AB6  0833               	movf	(??_sprintf+0)+0,w
 11614  0AB7  07C0               	addwf	(sprintf@c),f
 11615                           	
 11616  0AB8                     l11445:	
 11617  0AB8  0840               	movf	(sprintf@c),w
 11618  0AB9  3A05               	xorlw	05h
 11619  0ABA  1D03               	skipz
 11620  0ABB  2ABD               	goto	u4861
 11621  0ABC  2ABE               	goto	u4860
 11622  0ABD                     u4861:
 11623  0ABD  2A97               	goto	l11439
 11624  0ABE                     u4860:
 11625  0ABE  2ABF               	goto	l11447
 11626                           	
 11627  0ABF                     l7102:	
 11628                           	line	1340
 11629                           	
 11630  0ABF                     l11447:	
 11631  0ABF  083F               	movf	(sprintf@width+1),w
 11632  0AC0  043E               	iorwf	(sprintf@width),w
 11633  0AC1  1903               	skipnz
 11634  0AC2  2AC4               	goto	u4871
 11635  0AC3  2AC5               	goto	u4870
 11636  0AC4                     u4871:
 11637  0AC4  2AD1               	goto	l7104
 11638  0AC5                     u4870:
 11639                           	
 11640  0AC5                     l11449:	
 11641  0AC5  0838               	movf	(sprintf@flag),w
 11642  0AC6  3903               	andlw	03h
 11643  0AC7  1903               	btfsc	status,2
 11644  0AC8  2ACA               	goto	u4881
 11645  0AC9  2ACB               	goto	u4880
 11646  0ACA                     u4881:
 11647  0ACA  2AD1               	goto	l7104
 11648  0ACB                     u4880:
 11649                           	line	1341
 11650                           	
 11651  0ACB                     l11451:	
 11652  0ACB  30FF               	movlw	low(-1)
 11653  0ACC  07BE               	addwf	(sprintf@width),f
 11654  0ACD  1803               	skipnc
 11655  0ACE  0ABF               	incf	(sprintf@width+1),f
 11656  0ACF  30FF               	movlw	high(-1)
 11657  0AD0  07BF               	addwf	(sprintf@width+1),f
 11658                           	
 11659  0AD1                     l7104:	
 11660                           	line	1376
 11661  0AD1  0840               	movf	(sprintf@c),w
 11662  0AD2  00B3               	movwf	(??_sprintf+0)+0
 11663  0AD3  01B4               	clrf	(??_sprintf+0)+0+1
 11664  0AD4  1BB3               	btfsc	(??_sprintf+0)+0,7
 11665  0AD5  03B4               	decf	(??_sprintf+0)+0+1,f
 11666  0AD6  0834               	movf	1+(??_sprintf+0)+0,w
 11667  0AD7  3A80               	xorlw	80h
 11668  0AD8  00B5               	movwf	(??_sprintf+2)+0
 11669  0AD9  083F               	movf	(sprintf@width+1),w
 11670  0ADA  3A80               	xorlw	80h
 11671  0ADB  0235               	subwf	(??_sprintf+2)+0,w
 11672  0ADC  1D03               	skipz
 11673  0ADD  2AE0               	goto	u4895
 11674  0ADE  083E               	movf	(sprintf@width),w
 11675  0ADF  0233               	subwf	0+(??_sprintf+0)+0,w
 11676  0AE0                     u4895:
 11677                           
 11678  0AE0  1803               	skipnc
 11679  0AE1  2AE3               	goto	u4891
 11680  0AE2  2AE4               	goto	u4890
 11681  0AE3                     u4891:
 11682  0AE3  2AF2               	goto	l11455
 11683  0AE4                     u4890:
 11684                           	line	1377
 11685                           	
 11686  0AE4                     l11453:	
 11687  0AE4  1283               	bcf	status, 5	;RP0=0, select bank0
 11688  0AE5  1303               	bcf	status, 6	;RP1=0, select bank0
 11689  0AE6  0840               	movf	(sprintf@c),w
 11690  0AE7  00B3               	movwf	(??_sprintf+0)+0
 11691  0AE8  01B4               	clrf	(??_sprintf+0)+0+1
 11692  0AE9  1BB3               	btfsc	(??_sprintf+0)+0,7
 11693  0AEA  03B4               	decf	(??_sprintf+0)+0+1,f
 11694  0AEB  0833               	movf	0+(??_sprintf+0)+0,w
 11695  0AEC  02BE               	subwf	(sprintf@width),f
 11696  0AED  0834               	movf	1+(??_sprintf+0)+0,w
 11697  0AEE  1C03               	skipc
 11698  0AEF  03BF               	decf	(sprintf@width+1),f
 11699  0AF0  02BF               	subwf	(sprintf@width+1),f
 11700  0AF1  2AF7               	goto	l11457
 11701                           	line	1378
 11702                           	
 11703  0AF2                     l7105:	
 11704                           	line	1379
 11705                           	
 11706  0AF2                     l11455:	
 11707  0AF2  1283               	bcf	status, 5	;RP0=0, select bank0
 11708  0AF3  1303               	bcf	status, 6	;RP1=0, select bank0
 11709  0AF4  01BE               	clrf	(sprintf@width)
 11710  0AF5  01BF               	clrf	(sprintf@width+1)
 11711  0AF6  2AF7               	goto	l11457
 11712                           	
 11713  0AF7                     l7106:	
 11714                           	line	1423
 11715                           	
 11716  0AF7                     l11457:	
 11717  0AF7  083F               	movf	(sprintf@width+1),w
 11718  0AF8  043E               	iorwf	(sprintf@width),w
 11719  0AF9  1903               	skipnz
 11720  0AFA  2AFC               	goto	u4901
 11721  0AFB  2AFD               	goto	u4900
 11722  0AFC                     u4901:
 11723  0AFC  2B17               	goto	l11465
 11724  0AFD                     u4900:
 11725  0AFD  2AFE               	goto	l11459
 11726                           	line	1424
 11727                           	
 11728  0AFE                     l7108:	
 11729                           	line	1425
 11730                           	
 11731  0AFE                     l11459:	
 11732  0AFE  3020               	movlw	(020h)
 11733  0AFF  00B3               	movwf	(??_sprintf+0)+0
 11734  0B00  083D               	movf	(sprintf@sp),w
 11735  0B01  0084               	movwf	fsr0
 11736  0B02  0833               	movf	(??_sprintf+0)+0,w
 11737  0B03  1383               	bcf	status, 7	;select IRP bank0
 11738  0B04  0080               	movwf	indf
 11739                           	
 11740  0B05                     l11461:	
 11741  0B05  3001               	movlw	(01h)
 11742  0B06  00B3               	movwf	(??_sprintf+0)+0
 11743  0B07  0833               	movf	(??_sprintf+0)+0,w
 11744  0B08  07BD               	addwf	(sprintf@sp),f
 11745                           	line	1426
 11746                           	
 11747  0B09                     l11463:	
 11748  0B09  30FF               	movlw	low(-1)
 11749  0B0A  07BE               	addwf	(sprintf@width),f
 11750  0B0B  1803               	skipnc
 11751  0B0C  0ABF               	incf	(sprintf@width+1),f
 11752  0B0D  30FF               	movlw	high(-1)
 11753  0B0E  07BF               	addwf	(sprintf@width+1),f
 11754  0B0F  083F               	movf	(((sprintf@width+1))),w
 11755  0B10  043E               	iorwf	(((sprintf@width))),w
 11756  0B11  1D03               	skipz
 11757  0B12  2B14               	goto	u4911
 11758  0B13  2B15               	goto	u4910
 11759  0B14                     u4911:
 11760  0B14  2AFE               	goto	l11459
 11761  0B15                     u4910:
 11762  0B15  2B17               	goto	l11465
 11763                           	
 11764  0B16                     l7109:	
 11765  0B16  2B17               	goto	l11465
 11766                           	
 11767  0B17                     l7107:	
 11768                           	line	1433
 11769                           	
 11770  0B17                     l11465:	
 11771  0B17  0838               	movf	(sprintf@flag),w
 11772  0B18  3903               	andlw	03h
 11773  0B19  1903               	btfsc	status,2
 11774  0B1A  2B1C               	goto	u4921
 11775  0B1B  2B1D               	goto	u4920
 11776  0B1C                     u4921:
 11777  0B1C  2B29               	goto	l11471
 11778  0B1D                     u4920:
 11779                           	line	1434
 11780                           	
 11781  0B1D                     l11467:	
 11782  0B1D  302D               	movlw	(02Dh)
 11783  0B1E  00B3               	movwf	(??_sprintf+0)+0
 11784  0B1F  083D               	movf	(sprintf@sp),w
 11785  0B20  0084               	movwf	fsr0
 11786  0B21  0833               	movf	(??_sprintf+0)+0,w
 11787  0B22  1383               	bcf	status, 7	;select IRP bank0
 11788  0B23  0080               	movwf	indf
 11789                           	
 11790  0B24                     l11469:	
 11791  0B24  3001               	movlw	(01h)
 11792  0B25  00B3               	movwf	(??_sprintf+0)+0
 11793  0B26  0833               	movf	(??_sprintf+0)+0,w
 11794  0B27  07BD               	addwf	(sprintf@sp),f
 11795  0B28  2B29               	goto	l11471
 11796                           	
 11797  0B29                     l7110:	
 11798                           	line	1467
 11799                           	
 11800  0B29                     l11471:	
 11801  0B29  0840               	movf	(sprintf@c),w
 11802  0B2A  00B3               	movwf	(??_sprintf+0)+0
 11803  0B2B  0833               	movf	(??_sprintf+0)+0,w
 11804  0B2C  00B7               	movwf	(sprintf@prec)
 11805                           	line	1469
 11806  0B2D  2B6E               	goto	l11479
 11807                           	
 11808  0B2E                     l7112:	
 11809                           	line	1484
 11810                           	
 11811  0B2E                     l11473:	
 11812  0B2E  300A               	movlw	low(0Ah)
 11813  0B2F  00A8               	movwf	(?___lwmod)
 11814  0B30  3000               	movlw	high(0Ah)
 11815  0B31  00A9               	movwf	((?___lwmod))+1
 11816  0B32  0837               	movf	(sprintf@prec),w
 11817  0B33  00B3               	movwf	(??_sprintf+0)+0
 11818  0B34  0733               	addwf	(??_sprintf+0)+0,w
 11819  0B35  3E01               	addlw	low((_dpowers-__stringbase))
 11820  0B36  0084               	movwf	fsr0
 11821  0B37  160A  118A  200A   	fcall	stringdir
              120A  158A         
 11822  0B3C  00A0               	movwf	(?___lwdiv)
 11823  0B3D  160A  118A  200A   	fcall	stringdir
              120A  158A         
 11824  0B42  00A1               	movwf	(?___lwdiv+1)
 11825  0B43  083A               	movf	(sprintf@_val+1),w
 11826  0B44  01A3               	clrf	1+(?___lwdiv)+02h
 11827  0B45  07A3               	addwf	1+(?___lwdiv)+02h
 11828  0B46  0839               	movf	(sprintf@_val),w
 11829  0B47  01A2               	clrf	0+(?___lwdiv)+02h
 11830  0B48  07A2               	addwf	0+(?___lwdiv)+02h
 11831                           
 11832  0B49  160A  118A  20F5   	fcall	___lwdiv
              120A  158A         
 11833  0B4E  1283               	bcf	status, 5	;RP0=0, select bank0
 11834  0B4F  1303               	bcf	status, 6	;RP1=0, select bank0
 11835  0B50  0821               	movf	(1+(?___lwdiv)),w
 11836  0B51  01AB               	clrf	1+(?___lwmod)+02h
 11837  0B52  07AB               	addwf	1+(?___lwmod)+02h
 11838  0B53  0820               	movf	(0+(?___lwdiv)),w
 11839  0B54  01AA               	clrf	0+(?___lwmod)+02h
 11840  0B55  07AA               	addwf	0+(?___lwmod)+02h
 11841                           
 11842  0B56  160A  158A  2544   	fcall	___lwmod
              120A  158A         
 11843  0B5B  1283               	bcf	status, 5	;RP0=0, select bank0
 11844  0B5C  1303               	bcf	status, 6	;RP1=0, select bank0
 11845  0B5D  0828               	movf	(0+(?___lwmod)),w
 11846  0B5E  3E30               	addlw	030h
 11847  0B5F  00B4               	movwf	(??_sprintf+1)+0
 11848  0B60  0834               	movf	(??_sprintf+1)+0,w
 11849  0B61  00C0               	movwf	(sprintf@c)
 11850                           	line	1516
 11851                           	
 11852  0B62                     l11475:	
 11853  0B62  0840               	movf	(sprintf@c),w
 11854  0B63  00B3               	movwf	(??_sprintf+0)+0
 11855  0B64  083D               	movf	(sprintf@sp),w
 11856  0B65  0084               	movwf	fsr0
 11857  0B66  0833               	movf	(??_sprintf+0)+0,w
 11858  0B67  1383               	bcf	status, 7	;select IRP bank0
 11859  0B68  0080               	movwf	indf
 11860                           	
 11861  0B69                     l11477:	
 11862  0B69  3001               	movlw	(01h)
 11863  0B6A  00B3               	movwf	(??_sprintf+0)+0
 11864  0B6B  0833               	movf	(??_sprintf+0)+0,w
 11865  0B6C  07BD               	addwf	(sprintf@sp),f
 11866  0B6D  2B6E               	goto	l11479
 11867                           	line	1517
 11868                           	
 11869  0B6E                     l7111:	
 11870                           	line	1469
 11871                           	
 11872  0B6E                     l11479:	
 11873  0B6E  30FF               	movlw	(-1)
 11874  0B6F  00B3               	movwf	(??_sprintf+0)+0
 11875  0B70  0833               	movf	(??_sprintf+0)+0,w
 11876  0B71  07B7               	addwf	(sprintf@prec),f
 11877  0B72  0837               	movf	((sprintf@prec)),w
 11878  0B73  3AFF               	xorlw	-1
 11879  0B74  1D03               	skipz
 11880  0B75  2B77               	goto	u4931
 11881  0B76  2B78               	goto	u4930
 11882  0B77                     u4931:
 11883  0B77  2B2E               	goto	l11473
 11884  0B78                     u4930:
 11885  0B78  2B7A               	goto	l11481
 11886                           	
 11887  0B79                     l7113:	
 11888  0B79  2B7A               	goto	l11481
 11889                           	line	1525
 11890                           	
 11891  0B7A                     l7087:	
 11892                           	line	540
 11893                           	
 11894  0B7A                     l11481:	
 11895  0B7A  3001               	movlw	01h
 11896  0B7B  1283               	bcf	status, 5	;RP0=0, select bank0
 11897  0B7C  1303               	bcf	status, 6	;RP1=0, select bank0
 11898  0B7D  07AE               	addwf	(sprintf@f),f
 11899  0B7E  30FF               	movlw	-01h
 11900  0B7F  072E               	addwf	(sprintf@f),w
 11901  0B80  0084               	movwf	fsr0
 11902  0B81  160A  118A  200A   	fcall	stringdir
              120A  158A         
 11903  0B86  00B3               	movwf	(??_sprintf+0)+0
 11904  0B87  0833               	movf	(??_sprintf+0)+0,w
 11905  0B88  00C0               	movwf	(sprintf@c)
 11906  0B89  08C0               	movf	((sprintf@c)),f
 11907  0B8A  1D03               	skipz
 11908  0B8B  2B8D               	goto	u4941
 11909  0B8C  2B8E               	goto	u4940
 11910  0B8D                     u4941:
 11911  0B8D  29EA               	goto	l11399
 11912  0B8E                     u4940:
 11913  0B8E  2B90               	goto	l11483
 11914                           	
 11915  0B8F                     l7114:	
 11916  0B8F  2B90               	goto	l11483
 11917                           	line	1527
 11918                           	
 11919  0B90                     l7095:	
 11920                           	line	1530
 11921                           	
 11922  0B90                     l11483:	
 11923  0B90  1283               	bcf	status, 5	;RP0=0, select bank0
 11924  0B91  1303               	bcf	status, 6	;RP1=0, select bank0
 11925  0B92  083D               	movf	(sprintf@sp),w
 11926  0B93  0084               	movwf	fsr0
 11927  0B94  1383               	bcf	status, 7	;select IRP bank0
 11928  0B95  0180               	clrf	indf
 11929  0B96  2B97               	goto	l7115
 11930                           	line	1532
 11931                           	
 11932  0B97                     l11485:	
 11933                           	line	1533
 11934                           ;	Return value of _sprintf is never used
 11935                           	
 11936  0B97                     l7115:	
 11937  0B97  0008               	return
 11938                           	opt stack 0
 11939                           GLOBAL	__end_of_sprintf
 11940  0B98                     	__end_of_sprintf:
 11941 ;; =============== function _sprintf ends ============
 11942                           
 11943                           	signat	_sprintf,4698
 11944                           	global	_RobotDrive
 11945                           psect	text1116,local,class=CODE,delta=2
 11946                           global __ptext1116
 11947  1C8C                     __ptext1116:
 11948                           
 11949 ;; *************** function _RobotDrive *****************
 11950 ;; Defined at:
 11951 ;;		line 121 in file "E:\Aldnoah.Zero\Assignment3\robot.c"
 11952 ;; Parameters:    Size  Location     Type
 11953 ;;  speed           2    9[BANK0 ] int 
 11954 ;;  radius          2   11[BANK0 ] int 
 11955 ;; Auto vars:     Size  Location     Type
 11956 ;;  radiushighBy    1   17[BANK0 ] unsigned char 
 11957 ;;  radiuslowByt    1   16[BANK0 ] unsigned char 
 11958 ;;  speedhighByt    1   15[BANK0 ] unsigned char 
 11959 ;;  speedlowByte    1   14[BANK0 ] unsigned char 
 11960 ;; Return value:  Size  Location     Type
 11961 ;;		None               void
 11962 ;; Registers used:
 11963 ;;		wreg, fsr0l, fsr0h, status,2, status,0, pclath, cstack
 11964 ;; Tracked objects:
 11965 ;;		On entry : 0/0
 11966 ;;		On exit  : 0/0
 11967 ;;		Unchanged: 0/0
 11968 ;; Data sizes:     COMMON   BANK0   BANK1   BANK3   BANK2
 11969 ;;      Params:         0       4       0       0       0
 11970 ;;      Locals:         0       4       0       0       0
 11971 ;;      Temps:          0       1       0       0       0
 11972 ;;      Totals:         0       9       0       0       0
 11973 ;;Total ram usage:        9 bytes
 11974 ;; Hardware stack levels used:    1
 11975 ;; Hardware stack levels required when called:    3
 11976 ;; This function calls:
 11977 ;;		_ser_putch
 11978 ;; This function is called by:
 11979 ;;		_FindVictim
 11980 ;;		_robotFollow
 11981 ;;		_robot_turnInPlace
 11982 ;;		_robot_turnArc
 11983 ;;		_robotMoveSpeed
 11984 ;; This function uses a non-reentrant model
 11985 ;;
 11986                           psect	text1116
 11987                           	file	"E:\Aldnoah.Zero\Assignment3\robot.c"
 11988                           	line	121
 11989                           	global	__size_of_RobotDrive
 11990  0039                     	__size_of_RobotDrive	equ	__end_of_RobotDrive-_RobotDrive
 11991                           	
 11992  1C8C                     _RobotDrive:	
 11993                           	opt	stack 2
 11994                           ; Regs used in _RobotDrive: [wreg-fsr0h+status,2+status,0+pclath+cstack]
 11995                           	line	123
 11996                           	
 11997  1C8C                     l11381:	
 11998                           ;robot.c: 123: unsigned char speedlowByte = (unsigned char)(speed);
 11999  1C8C  1283               	bcf	status, 5	;RP0=0, select bank0
 12000  1C8D  1303               	bcf	status, 6	;RP1=0, select bank0
 12001  1C8E  0829               	movf	(RobotDrive@speed),w
 12002  1C8F  00AD               	movwf	(??_RobotDrive+0)+0
 12003  1C90  082D               	movf	(??_RobotDrive+0)+0,w
 12004  1C91  00AE               	movwf	(RobotDrive@speedlowByte)
 12005                           	line	124
 12006                           	
 12007  1C92                     l11383:	
 12008                           ;robot.c: 124: unsigned char speedhighByte = (unsigned char)(speed >> 8);
 12009  1C92  082A               	movf	(RobotDrive@speed+1),w
 12010  1C93  00AD               	movwf	(??_RobotDrive+0)+0
 12011  1C94  082D               	movf	(??_RobotDrive+0)+0,w
 12012  1C95  00AF               	movwf	(RobotDrive@speedhighByte)
 12013                           	line	125
 12014                           	
 12015  1C96                     l11385:	
 12016                           ;robot.c: 125: unsigned char radiuslowByte = (unsigned char)(radius);
 12017  1C96  082B               	movf	(RobotDrive@radius),w
 12018  1C97  00AD               	movwf	(??_RobotDrive+0)+0
 12019  1C98  082D               	movf	(??_RobotDrive+0)+0,w
 12020  1C99  00B0               	movwf	(RobotDrive@radiuslowByte)
 12021                           	line	126
 12022                           ;robot.c: 126: unsigned char radiushighByte = (unsigned char)(radius >> 8);
 12023  1C9A  082C               	movf	(RobotDrive@radius+1),w
 12024  1C9B  00AD               	movwf	(??_RobotDrive+0)+0
 12025  1C9C  082D               	movf	(??_RobotDrive+0)+0,w
 12026  1C9D  00B1               	movwf	(RobotDrive@radiushighByte)
 12027                           	line	128
 12028                           	
 12029  1C9E                     l11387:	
 12030                           ;robot.c: 128: ser_putch(137);
 12031  1C9E  3089               	movlw	(089h)
 12032  1C9F  160A  158A  23FB   	fcall	_ser_putch
              160A  158A         
 12033                           	line	130
 12034                           	
 12035  1CA4                     l11389:	
 12036                           ;robot.c: 130: ser_putch(speedhighByte);
 12037  1CA4  1283               	bcf	status, 5	;RP0=0, select bank0
 12038  1CA5  1303               	bcf	status, 6	;RP1=0, select bank0
 12039  1CA6  082F               	movf	(RobotDrive@speedhighByte),w
 12040  1CA7  160A  158A  23FB   	fcall	_ser_putch
              160A  158A         
 12041                           	line	132
 12042                           	
 12043  1CAC                     l11391:	
 12044                           ;robot.c: 132: ser_putch(speedlowByte);
 12045  1CAC  1283               	bcf	status, 5	;RP0=0, select bank0
 12046  1CAD  1303               	bcf	status, 6	;RP1=0, select bank0
 12047  1CAE  082E               	movf	(RobotDrive@speedlowByte),w
 12048  1CAF  160A  158A  23FB   	fcall	_ser_putch
              160A  158A         
 12049                           	line	134
 12050                           	
 12051  1CB4                     l11393:	
 12052                           ;robot.c: 134: ser_putch(radiushighByte);
 12053  1CB4  1283               	bcf	status, 5	;RP0=0, select bank0
 12054  1CB5  1303               	bcf	status, 6	;RP1=0, select bank0
 12055  1CB6  0831               	movf	(RobotDrive@radiushighByte),w
 12056  1CB7  160A  158A  23FB   	fcall	_ser_putch
              160A  158A         
 12057                           	line	136
 12058                           	
 12059  1CBC                     l11395:	
 12060                           ;robot.c: 136: ser_putch(radiuslowByte);
 12061  1CBC  1283               	bcf	status, 5	;RP0=0, select bank0
 12062  1CBD  1303               	bcf	status, 6	;RP1=0, select bank0
 12063  1CBE  0830               	movf	(RobotDrive@radiuslowByte),w
 12064  1CBF  160A  158A  23FB   	fcall	_ser_putch
              160A  158A         
 12065                           	line	137
 12066                           	
 12067  1CC4                     l6222:	
 12068  1CC4  0008               	return
 12069                           	opt stack 0
 12070                           GLOBAL	__end_of_RobotDrive
 12071  1CC5                     	__end_of_RobotDrive:
 12072 ;; =============== function _RobotDrive ends ============
 12073                           
 12074                           	signat	_RobotDrive,8312
 12075                           	global	_rotate
 12076                           psect	text1117,local,class=CODE,delta=2
 12077                           global __ptext1117
 12078  1DD7                     __ptext1117:
 12079                           
 12080 ;; *************** function _rotate *****************
 12081 ;; Defined at:
 12082 ;;		line 57 in file "E:\Aldnoah.Zero\Assignment3\steppermotor.c"
 12083 ;; Parameters:    Size  Location     Type
 12084 ;;  numsteps        2    3[BANK0 ] unsigned int 
 12085 ;;  direction       1    5[BANK0 ] unsigned char 
 12086 ;; Auto vars:     Size  Location     Type
 12087 ;;  i               2    8[BANK0 ] unsigned int 
 12088 ;; Return value:  Size  Location     Type
 12089 ;;		None               void
 12090 ;; Registers used:
 12091 ;;		wreg, status,2, status,0, pclath, cstack
 12092 ;; Tracked objects:
 12093 ;;		On entry : 0/0
 12094 ;;		On exit  : 0/0
 12095 ;;		Unchanged: 0/0
 12096 ;; Data sizes:     COMMON   BANK0   BANK1   BANK3   BANK2
 12097 ;;      Params:         0       3       0       0       0
 12098 ;;      Locals:         0       2       0       0       0
 12099 ;;      Temps:          0       2       0       0       0
 12100 ;;      Totals:         0       7       0       0       0
 12101 ;;Total ram usage:        7 bytes
 12102 ;; Hardware stack levels used:    1
 12103 ;; Hardware stack levels required when called:    3
 12104 ;; This function calls:
 12105 ;;		_spi_transfer
 12106 ;; This function is called by:
 12107 ;;		_Init_Follow_IR
 12108 ;;		_calibrateIR
 12109 ;;		_robotFollow
 12110 ;;		_robot_turnArc
 12111 ;; This function uses a non-reentrant model
 12112 ;;
 12113                           psect	text1117
 12114                           	file	"E:\Aldnoah.Zero\Assignment3\steppermotor.c"
 12115                           	line	57
 12116                           	global	__size_of_rotate
 12117  0067                     	__size_of_rotate	equ	__end_of_rotate-_rotate
 12118                           	
 12119  1DD7                     _rotate:	
 12120                           	opt	stack 2
 12121                           ; Regs used in _rotate: [wreg+status,2+status,0+pclath+cstack]
 12122                           	line	59
 12123                           	
 12124  1DD7                     l11349:	
 12125                           ;steppermotor.c: 59: RC0 = 1; RC1 = 1;;
 12126  1DD7  1283               	bcf	status, 5	;RP0=0, select bank0
 12127  1DD8  1303               	bcf	status, 6	;RP1=0, select bank0
 12128  1DD9  1407               	bsf	(56/8),(56)&7
 12129  1DDA  1487               	bsf	(57/8),(57)&7
 12130                           	line	60
 12131                           	
 12132  1DDB                     l11351:	
 12133                           ;steppermotor.c: 60: if (direction == 0)
 12134  1DDB  08A5               	movf	(rotate@direction),f
 12135  1DDC  1D03               	skipz
 12136  1DDD  2DDF               	goto	u4771
 12137  1DDE  2DE0               	goto	u4770
 12138  1DDF                     u4771:
 12139  1DDF  2DE7               	goto	l11355
 12140  1DE0                     u4770:
 12141                           	line	61
 12142                           	
 12143  1DE0                     l11353:	
 12144                           ;steppermotor.c: 61: spi_transfer(0b00001011);
 12145  1DE0  300B               	movlw	(0Bh)
 12146  1DE1  160A  158A  2214   	fcall	_spi_transfer
              160A  158A         
 12147  1DE6  2DEE               	goto	l11357
 12148                           	line	62
 12149                           	
 12150  1DE7                     l3830:	
 12151                           	line	63
 12152                           	
 12153  1DE7                     l11355:	
 12154                           ;steppermotor.c: 62: else
 12155                           ;steppermotor.c: 63: spi_transfer(0b00001001);
 12156  1DE7  3009               	movlw	(09h)
 12157  1DE8  160A  158A  2214   	fcall	_spi_transfer
              160A  158A         
 12158  1DED  2DEE               	goto	l11357
 12159                           	
 12160  1DEE                     l3831:	
 12161                           	line	64
 12162                           	
 12163  1DEE                     l11357:	
 12164                           ;steppermotor.c: 64: RC0 = 0; RC1 = 0;;
 12165  1DEE  1283               	bcf	status, 5	;RP0=0, select bank0
 12166  1DEF  1303               	bcf	status, 6	;RP1=0, select bank0
 12167  1DF0  1007               	bcf	(56/8),(56)&7
 12168                           	
 12169  1DF1                     l11359:	
 12170  1DF1  1087               	bcf	(57/8),(57)&7
 12171                           	line	65
 12172                           	
 12173  1DF2                     l11361:	
 12174                           ;steppermotor.c: 65: for (unsigned int i = 0; i < numsteps; i++)
 12175  1DF2  01A8               	clrf	(rotate@i)
 12176  1DF3  01A9               	clrf	(rotate@i+1)
 12177  1DF4  2E22               	goto	l3832
 12178                           	line	66
 12179                           	
 12180  1DF5                     l3833:	
 12181                           	line	67
 12182                           ;steppermotor.c: 66: {
 12183                           ;steppermotor.c: 67: RC2 = 1; _nop(); RC2 = 0;;
 12184  1DF5  1507               	bsf	(58/8),(58)&7
 12185  1DF6  0000               	nop
 12186  1DF7  1283               	bcf	status, 5	;RP0=0, select bank0
 12187  1DF8  1303               	bcf	status, 6	;RP1=0, select bank0
 12188  1DF9  1107               	bcf	(58/8),(58)&7
 12189                           	line	68
 12190                           	
 12191  1DFA                     l11363:	
 12192                           ;steppermotor.c: 68: if (direction)
 12193  1DFA  0825               	movf	(rotate@direction),w
 12194  1DFB  1D03               	skipz
 12195  1DFC  2DFE               	goto	u4780
 12196  1DFD  2E07               	goto	l11367
 12197  1DFE                     u4780:
 12198                           	line	69
 12199                           	
 12200  1DFE                     l11365:	
 12201                           ;steppermotor.c: 69: totalSteps++;
 12202  1DFE  3001               	movlw	low(01h)
 12203  1DFF  1683               	bsf	status, 5	;RP0=1, select bank1
 12204  1E00  1303               	bcf	status, 6	;RP1=0, select bank1
 12205  1E01  07BC               	addwf	(_totalSteps)^080h,f
 12206  1E02  1803               	skipnc
 12207  1E03  0ABD               	incf	(_totalSteps+1)^080h,f
 12208  1E04  3000               	movlw	high(01h)
 12209  1E05  07BD               	addwf	(_totalSteps+1)^080h,f
 12210  1E06  2E0F               	goto	l3835
 12211                           	line	70
 12212                           	
 12213  1E07                     l3834:	
 12214                           	line	71
 12215                           	
 12216  1E07                     l11367:	
 12217                           ;steppermotor.c: 70: else
 12218                           ;steppermotor.c: 71: totalSteps--;
 12219  1E07  30FF               	movlw	low(-1)
 12220  1E08  1683               	bsf	status, 5	;RP0=1, select bank1
 12221  1E09  1303               	bcf	status, 6	;RP1=0, select bank1
 12222  1E0A  07BC               	addwf	(_totalSteps)^080h,f
 12223  1E0B  1803               	skipnc
 12224  1E0C  0ABD               	incf	(_totalSteps+1)^080h,f
 12225  1E0D  30FF               	movlw	high(-1)
 12226  1E0E  07BD               	addwf	(_totalSteps+1)^080h,f
 12227                           	
 12228  1E0F                     l3835:	
 12229                           	line	72
 12230                           ;steppermotor.c: 72: _delay((unsigned long)((15)*(20000000/4000.0)));
 12231                           	opt asmopt_off
 12232  1E0F  3062               movlw	98
 12233  1E10  1283               	bcf	status, 5	;RP0=0, select bank0
 12234  1E11  1303               	bcf	status, 6	;RP1=0, select bank0
 12235  1E12  00A7               movwf	((??_rotate+0)+0+1),f
 12236  1E13  3065               	movlw	101
 12237  1E14  00A6               movwf	((??_rotate+0)+0),f
 12238  1E15                     u5777:
 12239  1E15  0BA6               	decfsz	((??_rotate+0)+0),f
 12240  1E16  2E15               	goto	u5777
 12241  1E17  0BA7               	decfsz	((??_rotate+0)+0+1),f
 12242  1E18  2E15               	goto	u5777
 12243  1E19  2E1A               	nop2
 12244                           opt asmopt_on
 12245                           
 12246                           	line	65
 12247  1E1A  3001               	movlw	low(01h)
 12248  1E1B  1283               	bcf	status, 5	;RP0=0, select bank0
 12249  1E1C  1303               	bcf	status, 6	;RP1=0, select bank0
 12250  1E1D  07A8               	addwf	(rotate@i),f
 12251  1E1E  1803               	skipnc
 12252  1E1F  0AA9               	incf	(rotate@i+1),f
 12253  1E20  3000               	movlw	high(01h)
 12254  1E21  07A9               	addwf	(rotate@i+1),f
 12255                           	
 12256  1E22                     l3832:	
 12257  1E22  0824               	movf	(rotate@numsteps+1),w
 12258  1E23  0229               	subwf	(rotate@i+1),w
 12259  1E24  1D03               	skipz
 12260  1E25  2E28               	goto	u4795
 12261  1E26  0823               	movf	(rotate@numsteps),w
 12262  1E27  0228               	subwf	(rotate@i),w
 12263  1E28                     u4795:
 12264  1E28  1C03               	skipc
 12265  1E29  2E2B               	goto	u4791
 12266  1E2A  2E2C               	goto	u4790
 12267  1E2B                     u4791:
 12268  1E2B  2DF5               	goto	l3833
 12269  1E2C                     u4790:
 12270                           	
 12271  1E2C                     l3836:	
 12272                           	line	74
 12273                           ;steppermotor.c: 73: }
 12274                           ;steppermotor.c: 74: RC0 = 1; RC1 = 1;;
 12275  1E2C  1407               	bsf	(56/8),(56)&7
 12276  1E2D  1487               	bsf	(57/8),(57)&7
 12277                           	line	75
 12278                           	
 12279  1E2E                     l11369:	
 12280                           ;steppermotor.c: 75: spi_transfer(0b00000000);
 12281  1E2E  3000               	movlw	(0)
 12282  1E2F  160A  158A  2214   	fcall	_spi_transfer
              160A  158A         
 12283                           	line	76
 12284                           	
 12285  1E34                     l11371:	
 12286                           ;steppermotor.c: 76: RC0 = 0; RC1 = 0;;
 12287  1E34  1283               	bcf	status, 5	;RP0=0, select bank0
 12288  1E35  1303               	bcf	status, 6	;RP1=0, select bank0
 12289  1E36  1007               	bcf	(56/8),(56)&7
 12290                           	
 12291  1E37                     l11373:	
 12292  1E37  1087               	bcf	(57/8),(57)&7
 12293                           	line	77
 12294                           	
 12295  1E38                     l11375:	
 12296                           ;steppermotor.c: 77: RC2 = 1; _nop(); RC2 = 0;;
 12297  1E38  1507               	bsf	(58/8),(58)&7
 12298                           	
 12299  1E39                     l11377:	
 12300  1E39  0000               	nop
 12301                           	
 12302  1E3A                     l11379:	
 12303  1E3A  1283               	bcf	status, 5	;RP0=0, select bank0
 12304  1E3B  1303               	bcf	status, 6	;RP1=0, select bank0
 12305  1E3C  1107               	bcf	(58/8),(58)&7
 12306                           	line	78
 12307                           	
 12308  1E3D                     l3837:	
 12309  1E3D  0008               	return
 12310                           	opt stack 0
 12311                           GLOBAL	__end_of_rotate
 12312  1E3E                     	__end_of_rotate:
 12313 ;; =============== function _rotate ends ============
 12314                           
 12315                           	signat	_rotate,8312
 12316                           	global	_robotLoadSong
 12317                           psect	text1118,local,class=CODE,delta=2
 12318                           global __ptext1118
 12319  080F                     __ptext1118:
 12320                           
 12321 ;; *************** function _robotLoadSong *****************
 12322 ;; Defined at:
 12323 ;;		line 621 in file "E:\Aldnoah.Zero\Assignment3\robot.c"
 12324 ;; Parameters:    Size  Location     Type
 12325 ;;		None
 12326 ;; Auto vars:     Size  Location     Type
 12327 ;;		None
 12328 ;; Return value:  Size  Location     Type
 12329 ;;		None               void
 12330 ;; Registers used:
 12331 ;;		wreg, fsr0l, fsr0h, status,2, status,0, pclath, cstack
 12332 ;; Tracked objects:
 12333 ;;		On entry : 0/0
 12334 ;;		On exit  : 0/0
 12335 ;;		Unchanged: 0/0
 12336 ;; Data sizes:     COMMON   BANK0   BANK1   BANK3   BANK2
 12337 ;;      Params:         0       0       0       0       0
 12338 ;;      Locals:         0       0       0       0       0
 12339 ;;      Temps:          0       0       0       0       0
 12340 ;;      Totals:         0       0       0       0       0
 12341 ;;Total ram usage:        0 bytes
 12342 ;; Hardware stack levels used:    1
 12343 ;; Hardware stack levels required when called:    3
 12344 ;; This function calls:
 12345 ;;		_ser_putch
 12346 ;; This function is called by:
 12347 ;;		_main
 12348 ;; This function uses a non-reentrant model
 12349 ;;
 12350                           psect	text1118
 12351                           	file	"E:\Aldnoah.Zero\Assignment3\robot.c"
 12352                           	line	621
 12353                           	global	__size_of_robotLoadSong
 12354  0055                     	__size_of_robotLoadSong	equ	__end_of_robotLoadSong-_robotLoadSong
 12355                           	
 12356  080F                     _robotLoadSong:	
 12357                           	opt	stack 4
 12358                           ; Regs used in _robotLoadSong: [wreg-fsr0h+status,2+status,0+pclath+cstack]
 12359                           	line	622
 12360                           	
 12361  080F                     l11347:	
 12362                           ;robot.c: 622: ser_putch(140);
 12363  080F  308C               	movlw	(08Ch)
 12364  0810  160A  158A  23FB   	fcall	_ser_putch
              120A  158A         
 12365                           	line	623
 12366                           ;robot.c: 623: ser_putch(0);
 12367  0815  3000               	movlw	(0)
 12368  0816  160A  158A  23FB   	fcall	_ser_putch
              120A  158A         
 12369                           	line	624
 12370                           ;robot.c: 624: ser_putch(2);
 12371  081B  3002               	movlw	(02h)
 12372  081C  160A  158A  23FB   	fcall	_ser_putch
              120A  158A         
 12373                           	line	625
 12374                           ;robot.c: 625: ser_putch(72);
 12375  0821  3048               	movlw	(048h)
 12376  0822  160A  158A  23FB   	fcall	_ser_putch
              120A  158A         
 12377                           	line	626
 12378                           ;robot.c: 626: ser_putch(16);
 12379  0827  3010               	movlw	(010h)
 12380  0828  160A  158A  23FB   	fcall	_ser_putch
              120A  158A         
 12381                           	line	627
 12382                           ;robot.c: 627: ser_putch(84);
 12383  082D  3054               	movlw	(054h)
 12384  082E  160A  158A  23FB   	fcall	_ser_putch
              120A  158A         
 12385                           	line	628
 12386                           ;robot.c: 628: ser_putch(16);
 12387  0833  3010               	movlw	(010h)
 12388  0834  160A  158A  23FB   	fcall	_ser_putch
              120A  158A         
 12389                           	line	630
 12390                           ;robot.c: 630: ser_putch(140);
 12391  0839  308C               	movlw	(08Ch)
 12392  083A  160A  158A  23FB   	fcall	_ser_putch
              120A  158A         
 12393                           	line	631
 12394                           ;robot.c: 631: ser_putch(1);
 12395  083F  3001               	movlw	(01h)
 12396  0840  160A  158A  23FB   	fcall	_ser_putch
              120A  158A         
 12397                           	line	632
 12398                           ;robot.c: 632: ser_putch(2);
 12399  0845  3002               	movlw	(02h)
 12400  0846  160A  158A  23FB   	fcall	_ser_putch
              120A  158A         
 12401                           	line	633
 12402                           ;robot.c: 633: ser_putch(84);
 12403  084B  3054               	movlw	(054h)
 12404  084C  160A  158A  23FB   	fcall	_ser_putch
              120A  158A         
 12405                           	line	634
 12406                           ;robot.c: 634: ser_putch(16);
 12407  0851  3010               	movlw	(010h)
 12408  0852  160A  158A  23FB   	fcall	_ser_putch
              120A  158A         
 12409                           	line	635
 12410                           ;robot.c: 635: ser_putch(72);
 12411  0857  3048               	movlw	(048h)
 12412  0858  160A  158A  23FB   	fcall	_ser_putch
              120A  158A         
 12413                           	line	636
 12414                           ;robot.c: 636: ser_putch(16);
 12415  085D  3010               	movlw	(010h)
 12416  085E  160A  158A  23FB   	fcall	_ser_putch
              120A  158A         
 12417                           	line	637
 12418                           	
 12419  0863                     l6342:	
 12420  0863  0008               	return
 12421                           	opt stack 0
 12422                           GLOBAL	__end_of_robotLoadSong
 12423  0864                     	__end_of_robotLoadSong:
 12424 ;; =============== function _robotLoadSong ends ============
 12425                           
 12426                           	signat	_robotLoadSong,88
 12427                           	global	_robo_init
 12428                           psect	text1119,local,class=CODE,delta=2
 12429                           global __ptext1119
 12430  1A98                     __ptext1119:
 12431                           
 12432 ;; *************** function _robo_init *****************
 12433 ;; Defined at:
 12434 ;;		line 45 in file "E:\Aldnoah.Zero\Assignment3\robot.c"
 12435 ;; Parameters:    Size  Location     Type
 12436 ;;		None
 12437 ;; Auto vars:     Size  Location     Type
 12438 ;;		None
 12439 ;; Return value:  Size  Location     Type
 12440 ;;		None               void
 12441 ;; Registers used:
 12442 ;;		wreg, fsr0l, fsr0h, status,2, status,0, pclath, cstack
 12443 ;; Tracked objects:
 12444 ;;		On entry : 0/0
 12445 ;;		On exit  : 0/0
 12446 ;;		Unchanged: 0/0
 12447 ;; Data sizes:     COMMON   BANK0   BANK1   BANK3   BANK2
 12448 ;;      Params:         0       0       0       0       0
 12449 ;;      Locals:         0       0       0       0       0
 12450 ;;      Temps:          0       0       0       0       0
 12451 ;;      Totals:         0       0       0       0       0
 12452 ;;Total ram usage:        0 bytes
 12453 ;; Hardware stack levels used:    1
 12454 ;; Hardware stack levels required when called:    3
 12455 ;; This function calls:
 12456 ;;		_ser_putch
 12457 ;; This function is called by:
 12458 ;;		_init
 12459 ;; This function uses a non-reentrant model
 12460 ;;
 12461                           psect	text1119
 12462                           	file	"E:\Aldnoah.Zero\Assignment3\robot.c"
 12463                           	line	45
 12464                           	global	__size_of_robo_init
 12465  0019                     	__size_of_robo_init	equ	__end_of_robo_init-_robo_init
 12466                           	
 12467  1A98                     _robo_init:	
 12468                           	opt	stack 3
 12469                           ; Regs used in _robo_init: [wreg-fsr0h+status,2+status,0+pclath+cstack]
 12470                           	line	46
 12471                           	
 12472  1A98                     l11345:	
 12473                           ;robot.c: 46: ser_putch(128);
 12474  1A98  3080               	movlw	(080h)
 12475  1A99  160A  158A  23FB   	fcall	_ser_putch
              160A  158A         
 12476                           	line	47
 12477                           ;robot.c: 47: ser_putch(132);
 12478  1A9E  3084               	movlw	(084h)
 12479  1A9F  160A  158A  23FB   	fcall	_ser_putch
              160A  158A         
 12480                           	line	48
 12481                           ;robot.c: 48: ser_putch(150);
 12482  1AA4  3096               	movlw	(096h)
 12483  1AA5  160A  158A  23FB   	fcall	_ser_putch
              160A  158A         
 12484                           	line	49
 12485                           ;robot.c: 49: ser_putch(0);
 12486  1AAA  3000               	movlw	(0)
 12487  1AAB  160A  158A  23FB   	fcall	_ser_putch
              160A  158A         
 12488                           	line	50
 12489                           	
 12490  1AB0                     l6211:	
 12491  1AB0  0008               	return
 12492                           	opt stack 0
 12493                           GLOBAL	__end_of_robo_init
 12494  1AB1                     	__end_of_robo_init:
 12495 ;; =============== function _robo_init ends ============
 12496                           
 12497                           	signat	_robo_init,88
 12498                           	global	_lcd_write_data
 12499                           psect	text1120,local,class=CODE,delta=2
 12500                           global __ptext1120
 12501  1A01                     __ptext1120:
 12502                           
 12503 ;; *************** function _lcd_write_data *****************
 12504 ;; Defined at:
 12505 ;;		line 30 in file "E:\Aldnoah.Zero\Assignment3\lcd.c"
 12506 ;; Parameters:    Size  Location     Type
 12507 ;;  databyte        1    wreg     unsigned char 
 12508 ;; Auto vars:     Size  Location     Type
 12509 ;;  databyte        1    2[BANK0 ] unsigned char 
 12510 ;; Return value:  Size  Location     Type
 12511 ;;		None               void
 12512 ;; Registers used:
 12513 ;;		wreg
 12514 ;; Tracked objects:
 12515 ;;		On entry : 0/0
 12516 ;;		On exit  : 0/0
 12517 ;;		Unchanged: 0/0
 12518 ;; Data sizes:     COMMON   BANK0   BANK1   BANK3   BANK2
 12519 ;;      Params:         0       0       0       0       0
 12520 ;;      Locals:         0       1       0       0       0
 12521 ;;      Temps:          0       2       0       0       0
 12522 ;;      Totals:         0       3       0       0       0
 12523 ;;Total ram usage:        3 bytes
 12524 ;; Hardware stack levels used:    1
 12525 ;; Hardware stack levels required when called:    2
 12526 ;; This function calls:
 12527 ;;		Nothing
 12528 ;; This function is called by:
 12529 ;;		_lcd_write_string
 12530 ;;		_lcd_write_2_digit_bcd
 12531 ;;		_lcd_write_3_digit_bcd
 12532 ;; This function uses a non-reentrant model
 12533 ;;
 12534                           psect	text1120
 12535                           	file	"E:\Aldnoah.Zero\Assignment3\lcd.c"
 12536                           	line	30
 12537                           	global	__size_of_lcd_write_data
 12538  0013                     	__size_of_lcd_write_data	equ	__end_of_lcd_write_data-_lcd_write_data
 12539                           	
 12540  1A01                     _lcd_write_data:	
 12541                           	opt	stack 2
 12542                           ; Regs used in _lcd_write_data: [wreg]
 12543                           ;lcd_write_data@databyte stored from wreg
 12544  1A01  1283               	bcf	status, 5	;RP0=0, select bank0
 12545  1A02  1303               	bcf	status, 6	;RP1=0, select bank0
 12546  1A03  00A2               	movwf	(lcd_write_data@databyte)
 12547                           	line	31
 12548                           	
 12549  1A04                     l11337:	
 12550                           ;lcd.c: 31: RE2 = 0;
 12551  1A04  1109               	bcf	(74/8),(74)&7
 12552                           	line	32
 12553                           ;lcd.c: 32: RE1 = 0;
 12554  1A05  1089               	bcf	(73/8),(73)&7
 12555                           	line	33
 12556                           ;lcd.c: 33: RE0 = 1;
 12557  1A06  1409               	bsf	(72/8),(72)&7
 12558                           	line	34
 12559                           	
 12560  1A07                     l11339:	
 12561                           ;lcd.c: 34: PORTD = databyte;
 12562  1A07  0822               	movf	(lcd_write_data@databyte),w
 12563  1A08  0088               	movwf	(8)	;volatile
 12564                           	line	35
 12565                           	
 12566  1A09                     l11341:	
 12567                           ;lcd.c: 35: RE2 = 1;
 12568  1A09  1509               	bsf	(74/8),(74)&7
 12569                           	line	36
 12570                           	
 12571  1A0A                     l11343:	
 12572                           ;lcd.c: 36: RE2 = 0;
 12573  1A0A  1109               	bcf	(74/8),(74)&7
 12574                           	line	37
 12575                           ;lcd.c: 37: _delay((unsigned long)((1)*(20000000/4000.0)));
 12576                           	opt asmopt_off
 12577  1A0B  3007               movlw	7
 12578  1A0C  00A1               movwf	((??_lcd_write_data+0)+0+1),f
 12579  1A0D  307D               	movlw	125
 12580  1A0E  00A0               movwf	((??_lcd_write_data+0)+0),f
 12581  1A0F                     u5787:
 12582  1A0F  0BA0               	decfsz	((??_lcd_write_data+0)+0),f
 12583  1A10  2A0F               	goto	u5787
 12584  1A11  0BA1               	decfsz	((??_lcd_write_data+0)+0+1),f
 12585  1A12  2A0F               	goto	u5787
 12586                           opt asmopt_on
 12587                           
 12588                           	line	38
 12589                           	
 12590  1A13                     l1402:	
 12591  1A13  0008               	return
 12592                           	opt stack 0
 12593                           GLOBAL	__end_of_lcd_write_data
 12594  1A14                     	__end_of_lcd_write_data:
 12595 ;; =============== function _lcd_write_data ends ============
 12596                           
 12597                           	signat	_lcd_write_data,4216
 12598                           	global	_lcd_write_control
 12599                           psect	text1121,local,class=CODE,delta=2
 12600                           global __ptext1121
 12601  1A28                     __ptext1121:
 12602                           
 12603 ;; *************** function _lcd_write_control *****************
 12604 ;; Defined at:
 12605 ;;		line 18 in file "E:\Aldnoah.Zero\Assignment3\lcd.c"
 12606 ;; Parameters:    Size  Location     Type
 12607 ;;  databyte        1    wreg     unsigned char 
 12608 ;; Auto vars:     Size  Location     Type
 12609 ;;  databyte        1    2[BANK0 ] unsigned char 
 12610 ;; Return value:  Size  Location     Type
 12611 ;;		None               void
 12612 ;; Registers used:
 12613 ;;		wreg
 12614 ;; Tracked objects:
 12615 ;;		On entry : 0/0
 12616 ;;		On exit  : 0/0
 12617 ;;		Unchanged: 0/0
 12618 ;; Data sizes:     COMMON   BANK0   BANK1   BANK3   BANK2
 12619 ;;      Params:         0       0       0       0       0
 12620 ;;      Locals:         0       1       0       0       0
 12621 ;;      Temps:          0       2       0       0       0
 12622 ;;      Totals:         0       3       0       0       0
 12623 ;;Total ram usage:        3 bytes
 12624 ;; Hardware stack levels used:    1
 12625 ;; Hardware stack levels required when called:    2
 12626 ;; This function calls:
 12627 ;;		Nothing
 12628 ;; This function is called by:
 12629 ;;		_lcd_set_cursor
 12630 ;;		_lcd_init
 12631 ;;		_UpdateDisplay
 12632 ;; This function uses a non-reentrant model
 12633 ;;
 12634                           psect	text1121
 12635                           	file	"E:\Aldnoah.Zero\Assignment3\lcd.c"
 12636                           	line	18
 12637                           	global	__size_of_lcd_write_control
 12638  0014                     	__size_of_lcd_write_control	equ	__end_of_lcd_write_control-_lcd_write_control
 12639                           	
 12640  1A28                     _lcd_write_control:	
 12641                           	opt	stack 2
 12642                           ; Regs used in _lcd_write_control: [wreg]
 12643                           ;lcd_write_control@databyte stored from wreg
 12644  1A28  1283               	bcf	status, 5	;RP0=0, select bank0
 12645  1A29  1303               	bcf	status, 6	;RP1=0, select bank0
 12646  1A2A  00A2               	movwf	(lcd_write_control@databyte)
 12647                           	line	19
 12648                           	
 12649  1A2B                     l11329:	
 12650                           ;lcd.c: 19: RE2 = 0;
 12651  1A2B  1109               	bcf	(74/8),(74)&7
 12652                           	line	20
 12653                           ;lcd.c: 20: RE1 = 0;
 12654  1A2C  1089               	bcf	(73/8),(73)&7
 12655                           	line	21
 12656                           ;lcd.c: 21: RE0 = 0;
 12657  1A2D  1009               	bcf	(72/8),(72)&7
 12658                           	line	22
 12659                           	
 12660  1A2E                     l11331:	
 12661                           ;lcd.c: 22: PORTD = databyte;
 12662  1A2E  0822               	movf	(lcd_write_control@databyte),w
 12663  1A2F  0088               	movwf	(8)	;volatile
 12664                           	line	23
 12665                           	
 12666  1A30                     l11333:	
 12667                           ;lcd.c: 23: RE2 = 1;
 12668  1A30  1509               	bsf	(74/8),(74)&7
 12669                           	line	24
 12670                           	
 12671  1A31                     l11335:	
 12672                           ;lcd.c: 24: RE2 = 0;
 12673  1A31  1109               	bcf	(74/8),(74)&7
 12674                           	line	25
 12675                           ;lcd.c: 25: _delay((unsigned long)((2)*(20000000/4000.0)));
 12676                           	opt asmopt_off
 12677  1A32  300D               movlw	13
 12678  1A33  00A1               movwf	((??_lcd_write_control+0)+0+1),f
 12679  1A34  30FB               	movlw	251
 12680  1A35  00A0               movwf	((??_lcd_write_control+0)+0),f
 12681  1A36                     u5797:
 12682  1A36  0BA0               	decfsz	((??_lcd_write_control+0)+0),f
 12683  1A37  2A36               	goto	u5797
 12684  1A38  0BA1               	decfsz	((??_lcd_write_control+0)+0+1),f
 12685  1A39  2A36               	goto	u5797
 12686  1A3A  2A3B               	nop2
 12687                           opt asmopt_on
 12688                           
 12689                           	line	26
 12690                           	
 12691  1A3B                     l1399:	
 12692  1A3B  0008               	return
 12693                           	opt stack 0
 12694                           GLOBAL	__end_of_lcd_write_control
 12695  1A3C                     	__end_of_lcd_write_control:
 12696 ;; =============== function _lcd_write_control ends ============
 12697                           
 12698                           	signat	_lcd_write_control,4216
 12699                           	global	_init_adc
 12700                           psect	text1122,local,class=CODE,delta=2
 12701                           global __ptext1122
 12702  1A3C                     __ptext1122:
 12703                           
 12704 ;; *************** function _init_adc *****************
 12705 ;; Defined at:
 12706 ;;		line 61 in file "E:\Aldnoah.Zero\Assignment3\adc.c"
 12707 ;; Parameters:    Size  Location     Type
 12708 ;;		None
 12709 ;; Auto vars:     Size  Location     Type
 12710 ;;		None
 12711 ;; Return value:  Size  Location     Type
 12712 ;;		None               void
 12713 ;; Registers used:
 12714 ;;		wreg, status,2
 12715 ;; Tracked objects:
 12716 ;;		On entry : 0/0
 12717 ;;		On exit  : 0/0
 12718 ;;		Unchanged: 0/0
 12719 ;; Data sizes:     COMMON   BANK0   BANK1   BANK3   BANK2
 12720 ;;      Params:         0       0       0       0       0
 12721 ;;      Locals:         0       0       0       0       0
 12722 ;;      Temps:          0       1       0       0       0
 12723 ;;      Totals:         0       1       0       0       0
 12724 ;;Total ram usage:        1 bytes
 12725 ;; Hardware stack levels used:    1
 12726 ;; Hardware stack levels required when called:    2
 12727 ;; This function calls:
 12728 ;;		Nothing
 12729 ;; This function is called by:
 12730 ;;		_init
 12731 ;; This function uses a non-reentrant model
 12732 ;;
 12733                           psect	text1122
 12734                           	file	"E:\Aldnoah.Zero\Assignment3\adc.c"
 12735                           	line	61
 12736                           	global	__size_of_init_adc
 12737  0016                     	__size_of_init_adc	equ	__end_of_init_adc-_init_adc
 12738                           	
 12739  1A3C                     _init_adc:	
 12740                           	opt	stack 4
 12741                           ; Regs used in _init_adc: [wreg+status,2]
 12742                           	line	63
 12743                           	
 12744  1A3C                     l11319:	
 12745                           ;adc.c: 63: PORTA = 0;
 12746  1A3C  1283               	bcf	status, 5	;RP0=0, select bank0
 12747  1A3D  1303               	bcf	status, 6	;RP1=0, select bank0
 12748  1A3E  0185               	clrf	(5)	;volatile
 12749                           	line	64
 12750                           	
 12751  1A3F                     l11321:	
 12752                           ;adc.c: 64: TRISA = 0b00111111;
 12753  1A3F  303F               	movlw	(03Fh)
 12754  1A40  1683               	bsf	status, 5	;RP0=1, select bank1
 12755  1A41  1303               	bcf	status, 6	;RP1=0, select bank1
 12756  1A42  0085               	movwf	(133)^080h	;volatile
 12757                           	line	67
 12758                           	
 12759  1A43                     l11323:	
 12760                           ;adc.c: 67: ADCON0 = 0b10100001;
 12761  1A43  30A1               	movlw	(0A1h)
 12762  1A44  1283               	bcf	status, 5	;RP0=0, select bank0
 12763  1A45  1303               	bcf	status, 6	;RP1=0, select bank0
 12764  1A46  009F               	movwf	(31)	;volatile
 12765                           	line	68
 12766                           	
 12767  1A47                     l11325:	
 12768                           ;adc.c: 68: ADCON1 = 0b0000010;
 12769  1A47  3002               	movlw	(02h)
 12770  1A48  1683               	bsf	status, 5	;RP0=1, select bank1
 12771  1A49  1303               	bcf	status, 6	;RP1=0, select bank1
 12772  1A4A  009F               	movwf	(159)^080h	;volatile
 12773                           	line	70
 12774                           	
 12775  1A4B                     l11327:	
 12776                           ;adc.c: 70: _delay((unsigned long)((50)*(20000000/4000000.0)));
 12777                           	opt asmopt_off
 12778  1A4B  3053               movlw	83
 12779  1A4C  1283               	bcf	status, 5	;RP0=0, select bank0
 12780  1A4D  1303               	bcf	status, 6	;RP1=0, select bank0
 12781  1A4E  00A0               movwf	(??_init_adc+0)+0,f
 12782  1A4F                     u5807:
 12783  1A4F  0BA0               decfsz	(??_init_adc+0)+0,f
 12784  1A50  2A4F               	goto	u5807
 12785                           opt asmopt_on
 12786                           
 12787                           	line	72
 12788                           	
 12789  1A51                     l700:	
 12790  1A51  0008               	return
 12791                           	opt stack 0
 12792                           GLOBAL	__end_of_init_adc
 12793  1A52                     	__end_of_init_adc:
 12794 ;; =============== function _init_adc ends ============
 12795                           
 12796                           	signat	_init_adc,88
 12797                           	global	_adc_read_channel
 12798                           psect	text1123,local,class=CODE,delta=2
 12799                           global __ptext1123
 12800  1CC5                     __ptext1123:
 12801                           
 12802 ;; *************** function _adc_read_channel *****************
 12803 ;; Defined at:
 12804 ;;		line 20 in file "E:\Aldnoah.Zero\Assignment3\adc.c"
 12805 ;; Parameters:    Size  Location     Type
 12806 ;;  channel         1    wreg     unsigned char 
 12807 ;; Auto vars:     Size  Location     Type
 12808 ;;  channel         1    7[BANK0 ] unsigned char 
 12809 ;; Return value:  Size  Location     Type
 12810 ;;                  1    wreg      unsigned char 
 12811 ;; Registers used:
 12812 ;;		wreg, fsr0l, fsr0h, status,2, status,0, pclath, cstack
 12813 ;; Tracked objects:
 12814 ;;		On entry : 0/0
 12815 ;;		On exit  : 0/0
 12816 ;;		Unchanged: 0/0
 12817 ;; Data sizes:     COMMON   BANK0   BANK1   BANK3   BANK2
 12818 ;;      Params:         0       0       0       0       0
 12819 ;;      Locals:         0       1       0       0       0
 12820 ;;      Temps:          0       1       0       0       0
 12821 ;;      Totals:         0       2       0       0       0
 12822 ;;Total ram usage:        2 bytes
 12823 ;; Hardware stack levels used:    1
 12824 ;; Hardware stack levels required when called:    3
 12825 ;; This function calls:
 12826 ;;		_adc_read
 12827 ;; This function is called by:
 12828 ;;		_readDistance
 12829 ;; This function uses a non-reentrant model
 12830 ;;
 12831                           psect	text1123
 12832                           	file	"E:\Aldnoah.Zero\Assignment3\adc.c"
 12833                           	line	20
 12834                           	global	__size_of_adc_read_channel
 12835  003B                     	__size_of_adc_read_channel	equ	__end_of_adc_read_channel-_adc_read_channel
 12836                           	
 12837  1CC5                     _adc_read_channel:	
 12838                           	opt	stack 0
 12839                           ; Regs used in _adc_read_channel: [wreg-fsr0h+status,2+status,0+pclath+cstack]
 12840                           ;adc_read_channel@channel stored from wreg
 12841  1CC5  1283               	bcf	status, 5	;RP0=0, select bank0
 12842  1CC6  1303               	bcf	status, 6	;RP1=0, select bank0
 12843  1CC7  00A7               	movwf	(adc_read_channel@channel)
 12844                           	line	21
 12845                           	
 12846  1CC8                     l11303:	
 12847                           ;adc.c: 21: switch(channel)
 12848  1CC8  2CE1               	goto	l11311
 12849                           	line	23
 12850                           ;adc.c: 22: {
 12851                           ;adc.c: 23: case 0:
 12852                           	
 12853  1CC9                     l690:	
 12854                           	line	24
 12855                           ;adc.c: 24: CHS0 = 0;
 12856  1CC9  119F               	bcf	(251/8),(251)&7
 12857                           	line	25
 12858                           ;adc.c: 25: CHS1 = 0;
 12859  1CCA  121F               	bcf	(252/8),(252)&7
 12860                           	line	26
 12861                           ;adc.c: 26: CHS2 = 0;
 12862  1CCB  129F               	bcf	(253/8),(253)&7
 12863                           	line	27
 12864                           ;adc.c: 27: break;
 12865  1CCC  2CF2               	goto	l11313
 12866                           	line	28
 12867                           ;adc.c: 28: case 1:
 12868                           	
 12869  1CCD                     l692:	
 12870                           	line	29
 12871                           ;adc.c: 29: CHS0 = 1;
 12872  1CCD  159F               	bsf	(251/8),(251)&7
 12873                           	line	30
 12874                           ;adc.c: 30: CHS1 = 0;
 12875  1CCE  121F               	bcf	(252/8),(252)&7
 12876                           	line	31
 12877                           ;adc.c: 31: CHS2 = 0;
 12878  1CCF  129F               	bcf	(253/8),(253)&7
 12879                           	line	32
 12880                           ;adc.c: 32: break;
 12881  1CD0  2CF2               	goto	l11313
 12882                           	line	33
 12883                           ;adc.c: 33: case 2:
 12884                           	
 12885  1CD1                     l693:	
 12886                           	line	34
 12887                           ;adc.c: 34: CHS0 = 0;
 12888  1CD1  119F               	bcf	(251/8),(251)&7
 12889                           	line	35
 12890                           ;adc.c: 35: CHS1 = 1;
 12891  1CD2  161F               	bsf	(252/8),(252)&7
 12892                           	line	36
 12893                           ;adc.c: 36: CHS2 = 0;
 12894  1CD3  129F               	bcf	(253/8),(253)&7
 12895                           	line	37
 12896                           ;adc.c: 37: break;
 12897  1CD4  2CF2               	goto	l11313
 12898                           	line	38
 12899                           ;adc.c: 38: case 3:
 12900                           	
 12901  1CD5                     l694:	
 12902                           	line	39
 12903                           ;adc.c: 39: CHS0 = 1;
 12904  1CD5  159F               	bsf	(251/8),(251)&7
 12905                           	line	40
 12906                           ;adc.c: 40: CHS1 = 1;
 12907  1CD6  161F               	bsf	(252/8),(252)&7
 12908                           	line	41
 12909                           ;adc.c: 41: CHS2 = 0;
 12910  1CD7  129F               	bcf	(253/8),(253)&7
 12911                           	line	42
 12912                           ;adc.c: 42: break;
 12913  1CD8  2CF2               	goto	l11313
 12914                           	line	43
 12915                           ;adc.c: 43: case 4:
 12916                           	
 12917  1CD9                     l695:	
 12918                           	line	44
 12919                           ;adc.c: 44: CHS0 = 0;
 12920  1CD9  119F               	bcf	(251/8),(251)&7
 12921                           	line	45
 12922                           ;adc.c: 45: CHS1 = 0;
 12923  1CDA  121F               	bcf	(252/8),(252)&7
 12924                           	line	46
 12925                           ;adc.c: 46: CHS2 = 1;
 12926  1CDB  169F               	bsf	(253/8),(253)&7
 12927                           	line	47
 12928                           ;adc.c: 47: break;
 12929  1CDC  2CF2               	goto	l11313
 12930                           	line	50
 12931                           ;adc.c: 50: default:
 12932                           	
 12933  1CDD                     l696:	
 12934                           	line	51
 12935                           	
 12936  1CDD                     l11305:	
 12937                           ;adc.c: 51: return 0;
 12938  1CDD  3000               	movlw	(0)
 12939  1CDE  2CFF               	goto	l697
 12940                           	
 12941  1CDF                     l11307:	
 12942  1CDF  2CFF               	goto	l697
 12943                           	line	52
 12944                           	
 12945  1CE0                     l11309:	
 12946                           ;adc.c: 52: }
 12947  1CE0  2CF2               	goto	l11313
 12948                           	line	21
 12949                           	
 12950  1CE1                     l689:	
 12951                           	
 12952  1CE1                     l11311:	
 12953  1CE1  0827               	movf	(adc_read_channel@channel),w
 12954                           	; Switch size 1, requested type "space"
 12955                           ; Number of cases is 5, Range of values is 0 to 4
 12956                           ; switch strategies available:
 12957                           ; Name         Instructions Cycles
 12958                           ; simple_byte           16     9 (average)
 12959                           ; direct_byte           23     8 (fixed)
 12960                           ; jumptable            260     6 (fixed)
 12961                           ; rangetable             9     6 (fixed)
 12962                           ; spacedrange           16     9 (fixed)
 12963                           ; locatedrange           5     3 (fixed)
 12964                           ;	Chosen strategy is simple_byte
 12965                           
 12966                           	opt asmopt_off
 12967  1CE2  3A00               	xorlw	0^0	; case 0
 12968  1CE3  1903               	skipnz
 12969  1CE4  2CC9               	goto	l690
 12970  1CE5  3A01               	xorlw	1^0	; case 1
 12971  1CE6  1903               	skipnz
 12972  1CE7  2CCD               	goto	l692
 12973  1CE8  3A03               	xorlw	2^1	; case 2
 12974  1CE9  1903               	skipnz
 12975  1CEA  2CD1               	goto	l693
 12976  1CEB  3A01               	xorlw	3^2	; case 3
 12977  1CEC  1903               	skipnz
 12978  1CED  2CD5               	goto	l694
 12979  1CEE  3A07               	xorlw	4^3	; case 4
 12980  1CEF  1903               	skipnz
 12981  1CF0  2CD9               	goto	l695
 12982  1CF1  2CDD               	goto	l11305
 12983                           	opt asmopt_on
 12984                           
 12985                           	line	52
 12986                           	
 12987  1CF2                     l691:	
 12988                           	line	54
 12989                           	
 12990  1CF2                     l11313:	
 12991                           ;adc.c: 54: _delay((unsigned long)((50)*(20000000/4000000.0)));
 12992                           	opt asmopt_off
 12993  1CF2  3053               movlw	83
 12994  1CF3  00A6               movwf	(??_adc_read_channel+0)+0,f
 12995  1CF4                     u5817:
 12996  1CF4  0BA6               decfsz	(??_adc_read_channel+0)+0,f
 12997  1CF5  2CF4               	goto	u5817
 12998                           opt asmopt_on
 12999                           
 13000                           	line	56
 13001                           	
 13002  1CF6                     l11315:	
 13003                           ;adc.c: 56: return adc_read();
 13004  1CF6  160A  158A  22F9   	fcall	_adc_read
              160A  158A         
 13005  1CFB  1283               	bcf	status, 5	;RP0=0, select bank0
 13006  1CFC  1303               	bcf	status, 6	;RP1=0, select bank0
 13007  1CFD  0820               	movf	(0+(?_adc_read)),w
 13008  1CFE  2CFF               	goto	l697
 13009                           	
 13010  1CFF                     l11317:	
 13011                           	line	58
 13012                           	
 13013  1CFF                     l697:	
 13014  1CFF  0008               	return
 13015                           	opt stack 0
 13016                           GLOBAL	__end_of_adc_read_channel
 13017  1D00                     	__end_of_adc_read_channel:
 13018 ;; =============== function _adc_read_channel ends ============
 13019                           
 13020                           	signat	_adc_read_channel,4217
 13021                           	global	___awmod
 13022                           psect	text1124,local,class=CODE,delta=2
 13023                           global __ptext1124
 13024  1E3E                     __ptext1124:
 13025                           
 13026 ;; *************** function ___awmod *****************
 13027 ;; Defined at:
 13028 ;;		line 5 in file "C:\Program Files\HI-TECH Software\PICC\9.83\sources\awmod.c"
 13029 ;; Parameters:    Size  Location     Type
 13030 ;;  divisor         2    0[BANK0 ] int 
 13031 ;;  dividend        2    2[BANK0 ] int 
 13032 ;; Auto vars:     Size  Location     Type
 13033 ;;  sign            1    6[BANK0 ] unsigned char 
 13034 ;;  counter         1    5[BANK0 ] unsigned char 
 13035 ;; Return value:  Size  Location     Type
 13036 ;;                  2    0[BANK0 ] int 
 13037 ;; Registers used:
 13038 ;;		wreg, status,2, status,0
 13039 ;; Tracked objects:
 13040 ;;		On entry : 0/0
 13041 ;;		On exit  : 0/0
 13042 ;;		Unchanged: 0/0
 13043 ;; Data sizes:     COMMON   BANK0   BANK1   BANK3   BANK2
 13044 ;;      Params:         0       4       0       0       0
 13045 ;;      Locals:         0       2       0       0       0
 13046 ;;      Temps:          0       1       0       0       0
 13047 ;;      Totals:         0       7       0       0       0
 13048 ;;Total ram usage:        7 bytes
 13049 ;; Hardware stack levels used:    1
 13050 ;; Hardware stack levels required when called:    2
 13051 ;; This function calls:
 13052 ;;		Nothing
 13053 ;; This function is called by:
 13054 ;;		_UpdateDisplay
 13055 ;; This function uses a non-reentrant model
 13056 ;;
 13057                           psect	text1124
 13058                           	file	"C:\Program Files\HI-TECH Software\PICC\9.83\sources\awmod.c"
 13059                           	line	5
 13060                           	global	__size_of___awmod
 13061  0068                     	__size_of___awmod	equ	__end_of___awmod-___awmod
 13062                           	
 13063  1E3E                     ___awmod:	
 13064                           	opt	stack 3
 13065                           ; Regs used in ___awmod: [wreg+status,2+status,0]
 13066                           	line	8
 13067                           	
 13068  1E3E                     l11247:	
 13069  1E3E  1283               	bcf	status, 5	;RP0=0, select bank0
 13070  1E3F  1303               	bcf	status, 6	;RP1=0, select bank0
 13071  1E40  01A6               	clrf	(___awmod@sign)
 13072                           	line	9
 13073  1E41  1FA3               	btfss	(___awmod@dividend+1),7
 13074  1E42  2E44               	goto	u4621
 13075  1E43  2E45               	goto	u4620
 13076  1E44                     u4621:
 13077  1E44  2E4E               	goto	l11251
 13078  1E45                     u4620:
 13079                           	line	10
 13080                           	
 13081  1E45                     l11249:	
 13082  1E45  09A2               	comf	(___awmod@dividend),f
 13083  1E46  09A3               	comf	(___awmod@dividend+1),f
 13084  1E47  0AA2               	incf	(___awmod@dividend),f
 13085  1E48  1903               	skipnz
 13086  1E49  0AA3               	incf	(___awmod@dividend+1),f
 13087                           	line	11
 13088  1E4A  01A6               	clrf	(___awmod@sign)
 13089  1E4B  1403               	bsf	status,0
 13090  1E4C  0DA6               	rlf	(___awmod@sign),f
 13091  1E4D  2E4E               	goto	l11251
 13092                           	line	12
 13093                           	
 13094  1E4E                     l8011:	
 13095                           	line	13
 13096                           	
 13097  1E4E                     l11251:	
 13098  1E4E  1FA1               	btfss	(___awmod@divisor+1),7
 13099  1E4F  2E51               	goto	u4631
 13100  1E50  2E52               	goto	u4630
 13101  1E51                     u4631:
 13102  1E51  2E58               	goto	l11255
 13103  1E52                     u4630:
 13104                           	line	14
 13105                           	
 13106  1E52                     l11253:	
 13107  1E52  09A0               	comf	(___awmod@divisor),f
 13108  1E53  09A1               	comf	(___awmod@divisor+1),f
 13109  1E54  0AA0               	incf	(___awmod@divisor),f
 13110  1E55  1903               	skipnz
 13111  1E56  0AA1               	incf	(___awmod@divisor+1),f
 13112  1E57  2E58               	goto	l11255
 13113                           	
 13114  1E58                     l8012:	
 13115                           	line	15
 13116                           	
 13117  1E58                     l11255:	
 13118  1E58  0821               	movf	(___awmod@divisor+1),w
 13119  1E59  0420               	iorwf	(___awmod@divisor),w
 13120  1E5A  1903               	skipnz
 13121  1E5B  2E5D               	goto	u4641
 13122  1E5C  2E5E               	goto	u4640
 13123  1E5D                     u4641:
 13124  1E5D  2E94               	goto	l11273
 13125  1E5E                     u4640:
 13126                           	line	16
 13127                           	
 13128  1E5E                     l11257:	
 13129  1E5E  01A5               	clrf	(___awmod@counter)
 13130  1E5F  1403               	bsf	status,0
 13131  1E60  0DA5               	rlf	(___awmod@counter),f
 13132                           	line	17
 13133  1E61  2E6E               	goto	l11263
 13134                           	
 13135  1E62                     l8015:	
 13136                           	line	18
 13137                           	
 13138  1E62                     l11259:	
 13139  1E62  3001               	movlw	01h
 13140                           	
 13141  1E63                     u4655:
 13142  1E63  1003               	clrc
 13143  1E64  0DA0               	rlf	(___awmod@divisor),f
 13144  1E65  0DA1               	rlf	(___awmod@divisor+1),f
 13145  1E66  3EFF               	addlw	-1
 13146  1E67  1D03               	skipz
 13147  1E68  2E63               	goto	u4655
 13148                           	line	19
 13149                           	
 13150  1E69                     l11261:	
 13151  1E69  3001               	movlw	(01h)
 13152  1E6A  00A4               	movwf	(??___awmod+0)+0
 13153  1E6B  0824               	movf	(??___awmod+0)+0,w
 13154  1E6C  07A5               	addwf	(___awmod@counter),f
 13155  1E6D  2E6E               	goto	l11263
 13156                           	line	20
 13157                           	
 13158  1E6E                     l8014:	
 13159                           	line	17
 13160                           	
 13161  1E6E                     l11263:	
 13162  1E6E  1FA1               	btfss	(___awmod@divisor+1),(15)&7
 13163  1E6F  2E71               	goto	u4661
 13164  1E70  2E72               	goto	u4660
 13165  1E71                     u4661:
 13166  1E71  2E62               	goto	l11259
 13167  1E72                     u4660:
 13168  1E72  2E74               	goto	l11265
 13169                           	
 13170  1E73                     l8016:	
 13171  1E73  2E74               	goto	l11265
 13172                           	line	21
 13173                           	
 13174  1E74                     l8017:	
 13175                           	line	22
 13176                           	
 13177  1E74                     l11265:	
 13178  1E74  0821               	movf	(___awmod@divisor+1),w
 13179  1E75  0223               	subwf	(___awmod@dividend+1),w
 13180  1E76  1D03               	skipz
 13181  1E77  2E7A               	goto	u4675
 13182  1E78  0820               	movf	(___awmod@divisor),w
 13183  1E79  0222               	subwf	(___awmod@dividend),w
 13184  1E7A                     u4675:
 13185  1E7A  1C03               	skipc
 13186  1E7B  2E7D               	goto	u4671
 13187  1E7C  2E7E               	goto	u4670
 13188  1E7D                     u4671:
 13189  1E7D  2E85               	goto	l11269
 13190  1E7E                     u4670:
 13191                           	line	23
 13192                           	
 13193  1E7E                     l11267:	
 13194  1E7E  0820               	movf	(___awmod@divisor),w
 13195  1E7F  02A2               	subwf	(___awmod@dividend),f
 13196  1E80  0821               	movf	(___awmod@divisor+1),w
 13197  1E81  1C03               	skipc
 13198  1E82  03A3               	decf	(___awmod@dividend+1),f
 13199  1E83  02A3               	subwf	(___awmod@dividend+1),f
 13200  1E84  2E85               	goto	l11269
 13201                           	
 13202  1E85                     l8018:	
 13203                           	line	24
 13204                           	
 13205  1E85                     l11269:	
 13206  1E85  3001               	movlw	01h
 13207                           	
 13208  1E86                     u4685:
 13209  1E86  1003               	clrc
 13210  1E87  0CA1               	rrf	(___awmod@divisor+1),f
 13211  1E88  0CA0               	rrf	(___awmod@divisor),f
 13212  1E89  3EFF               	addlw	-1
 13213  1E8A  1D03               	skipz
 13214  1E8B  2E86               	goto	u4685
 13215                           	line	25
 13216                           	
 13217  1E8C                     l11271:	
 13218  1E8C  3001               	movlw	low(01h)
 13219  1E8D  02A5               	subwf	(___awmod@counter),f
 13220  1E8E  1D03               	btfss	status,2
 13221  1E8F  2E91               	goto	u4691
 13222  1E90  2E92               	goto	u4690
 13223  1E91                     u4691:
 13224  1E91  2E74               	goto	l11265
 13225  1E92                     u4690:
 13226  1E92  2E94               	goto	l11273
 13227                           	
 13228  1E93                     l8019:	
 13229  1E93  2E94               	goto	l11273
 13230                           	line	26
 13231                           	
 13232  1E94                     l8013:	
 13233                           	line	27
 13234                           	
 13235  1E94                     l11273:	
 13236  1E94  0826               	movf	(___awmod@sign),w
 13237  1E95  1D03               	skipz
 13238  1E96  2E98               	goto	u4700
 13239  1E97  2E9E               	goto	l11277
 13240  1E98                     u4700:
 13241                           	line	28
 13242                           	
 13243  1E98                     l11275:	
 13244  1E98  09A2               	comf	(___awmod@dividend),f
 13245  1E99  09A3               	comf	(___awmod@dividend+1),f
 13246  1E9A  0AA2               	incf	(___awmod@dividend),f
 13247  1E9B  1903               	skipnz
 13248  1E9C  0AA3               	incf	(___awmod@dividend+1),f
 13249  1E9D  2E9E               	goto	l11277
 13250                           	
 13251  1E9E                     l8020:	
 13252                           	line	29
 13253                           	
 13254  1E9E                     l11277:	
 13255  1E9E  0823               	movf	(___awmod@dividend+1),w
 13256  1E9F  01A1               	clrf	(?___awmod+1)
 13257  1EA0  07A1               	addwf	(?___awmod+1)
 13258  1EA1  0822               	movf	(___awmod@dividend),w
 13259  1EA2  01A0               	clrf	(?___awmod)
 13260  1EA3  07A0               	addwf	(?___awmod)
 13261                           
 13262  1EA4  2EA5               	goto	l8021
 13263                           	
 13264  1EA5                     l11279:	
 13265                           	line	30
 13266                           	
 13267  1EA5                     l8021:	
 13268  1EA5  0008               	return
 13269                           	opt stack 0
 13270                           GLOBAL	__end_of___awmod
 13271  1EA6                     	__end_of___awmod:
 13272 ;; =============== function ___awmod ends ============
 13273                           
 13274                           	signat	___awmod,8314
 13275                           	global	___awdiv
 13276                           psect	text1125,local,class=CODE,delta=2
 13277                           global __ptext1125
 13278  1F8A                     __ptext1125:
 13279                           
 13280 ;; *************** function ___awdiv *****************
 13281 ;; Defined at:
 13282 ;;		line 5 in file "C:\Program Files\HI-TECH Software\PICC\9.83\sources\awdiv.c"
 13283 ;; Parameters:    Size  Location     Type
 13284 ;;  divisor         2    0[BANK0 ] int 
 13285 ;;  dividend        2    2[BANK0 ] int 
 13286 ;; Auto vars:     Size  Location     Type
 13287 ;;  quotient        2    7[BANK0 ] int 
 13288 ;;  sign            1    6[BANK0 ] unsigned char 
 13289 ;;  counter         1    5[BANK0 ] unsigned char 
 13290 ;; Return value:  Size  Location     Type
 13291 ;;                  2    0[BANK0 ] int 
 13292 ;; Registers used:
 13293 ;;		wreg, status,2, status,0
 13294 ;; Tracked objects:
 13295 ;;		On entry : 0/0
 13296 ;;		On exit  : 0/0
 13297 ;;		Unchanged: 0/0
 13298 ;; Data sizes:     COMMON   BANK0   BANK1   BANK3   BANK2
 13299 ;;      Params:         0       4       0       0       0
 13300 ;;      Locals:         0       4       0       0       0
 13301 ;;      Temps:          0       1       0       0       0
 13302 ;;      Totals:         0       9       0       0       0
 13303 ;;Total ram usage:        9 bytes
 13304 ;; Hardware stack levels used:    1
 13305 ;; Hardware stack levels required when called:    2
 13306 ;; This function calls:
 13307 ;;		Nothing
 13308 ;; This function is called by:
 13309 ;;		_UpdateDisplay
 13310 ;;		_robot_turnArc
 13311 ;; This function uses a non-reentrant model
 13312 ;;
 13313                           psect	text1125
 13314                           	file	"C:\Program Files\HI-TECH Software\PICC\9.83\sources\awdiv.c"
 13315                           	line	5
 13316                           	global	__size_of___awdiv
 13317  0076                     	__size_of___awdiv	equ	__end_of___awdiv-___awdiv
 13318                           	
 13319  1F8A                     ___awdiv:	
 13320                           	opt	stack 3
 13321                           ; Regs used in ___awdiv: [wreg+status,2+status,0]
 13322                           	line	9
 13323                           	
 13324  1F8A                     l11207:	
 13325  1F8A  1283               	bcf	status, 5	;RP0=0, select bank0
 13326  1F8B  1303               	bcf	status, 6	;RP1=0, select bank0
 13327  1F8C  01A6               	clrf	(___awdiv@sign)
 13328                           	line	10
 13329  1F8D  1FA1               	btfss	(___awdiv@divisor+1),7
 13330  1F8E  2F90               	goto	u4521
 13331  1F8F  2F91               	goto	u4520
 13332  1F90                     u4521:
 13333  1F90  2F9A               	goto	l11211
 13334  1F91                     u4520:
 13335                           	line	11
 13336                           	
 13337  1F91                     l11209:	
 13338  1F91  09A0               	comf	(___awdiv@divisor),f
 13339  1F92  09A1               	comf	(___awdiv@divisor+1),f
 13340  1F93  0AA0               	incf	(___awdiv@divisor),f
 13341  1F94  1903               	skipnz
 13342  1F95  0AA1               	incf	(___awdiv@divisor+1),f
 13343                           	line	12
 13344  1F96  01A6               	clrf	(___awdiv@sign)
 13345  1F97  1403               	bsf	status,0
 13346  1F98  0DA6               	rlf	(___awdiv@sign),f
 13347  1F99  2F9A               	goto	l11211
 13348                           	line	13
 13349                           	
 13350  1F9A                     l7943:	
 13351                           	line	14
 13352                           	
 13353  1F9A                     l11211:	
 13354  1F9A  1FA3               	btfss	(___awdiv@dividend+1),7
 13355  1F9B  2F9D               	goto	u4531
 13356  1F9C  2F9E               	goto	u4530
 13357  1F9D                     u4531:
 13358  1F9D  2FA8               	goto	l11217
 13359  1F9E                     u4530:
 13360                           	line	15
 13361                           	
 13362  1F9E                     l11213:	
 13363  1F9E  09A2               	comf	(___awdiv@dividend),f
 13364  1F9F  09A3               	comf	(___awdiv@dividend+1),f
 13365  1FA0  0AA2               	incf	(___awdiv@dividend),f
 13366  1FA1  1903               	skipnz
 13367  1FA2  0AA3               	incf	(___awdiv@dividend+1),f
 13368                           	line	16
 13369                           	
 13370  1FA3                     l11215:	
 13371  1FA3  3001               	movlw	(01h)
 13372  1FA4  00A4               	movwf	(??___awdiv+0)+0
 13373  1FA5  0824               	movf	(??___awdiv+0)+0,w
 13374  1FA6  06A6               	xorwf	(___awdiv@sign),f
 13375  1FA7  2FA8               	goto	l11217
 13376                           	line	17
 13377                           	
 13378  1FA8                     l7944:	
 13379                           	line	18
 13380                           	
 13381  1FA8                     l11217:	
 13382  1FA8  01A7               	clrf	(___awdiv@quotient)
 13383  1FA9  01A8               	clrf	(___awdiv@quotient+1)
 13384                           	line	19
 13385                           	
 13386  1FAA                     l11219:	
 13387  1FAA  0821               	movf	(___awdiv@divisor+1),w
 13388  1FAB  0420               	iorwf	(___awdiv@divisor),w
 13389  1FAC  1903               	skipnz
 13390  1FAD  2FAF               	goto	u4541
 13391  1FAE  2FB0               	goto	u4540
 13392  1FAF                     u4541:
 13393  1FAF  2FEE               	goto	l11239
 13394  1FB0                     u4540:
 13395                           	line	20
 13396                           	
 13397  1FB0                     l11221:	
 13398  1FB0  01A5               	clrf	(___awdiv@counter)
 13399  1FB1  1403               	bsf	status,0
 13400  1FB2  0DA5               	rlf	(___awdiv@counter),f
 13401                           	line	21
 13402  1FB3  2FC0               	goto	l11227
 13403                           	
 13404  1FB4                     l7947:	
 13405                           	line	22
 13406                           	
 13407  1FB4                     l11223:	
 13408  1FB4  3001               	movlw	01h
 13409                           	
 13410  1FB5                     u4555:
 13411  1FB5  1003               	clrc
 13412  1FB6  0DA0               	rlf	(___awdiv@divisor),f
 13413  1FB7  0DA1               	rlf	(___awdiv@divisor+1),f
 13414  1FB8  3EFF               	addlw	-1
 13415  1FB9  1D03               	skipz
 13416  1FBA  2FB5               	goto	u4555
 13417                           	line	23
 13418                           	
 13419  1FBB                     l11225:	
 13420  1FBB  3001               	movlw	(01h)
 13421  1FBC  00A4               	movwf	(??___awdiv+0)+0
 13422  1FBD  0824               	movf	(??___awdiv+0)+0,w
 13423  1FBE  07A5               	addwf	(___awdiv@counter),f
 13424  1FBF  2FC0               	goto	l11227
 13425                           	line	24
 13426                           	
 13427  1FC0                     l7946:	
 13428                           	line	21
 13429                           	
 13430  1FC0                     l11227:	
 13431  1FC0  1FA1               	btfss	(___awdiv@divisor+1),(15)&7
 13432  1FC1  2FC3               	goto	u4561
 13433  1FC2  2FC4               	goto	u4560
 13434  1FC3                     u4561:
 13435  1FC3  2FB4               	goto	l11223
 13436  1FC4                     u4560:
 13437  1FC4  2FC6               	goto	l11229
 13438                           	
 13439  1FC5                     l7948:	
 13440  1FC5  2FC6               	goto	l11229
 13441                           	line	25
 13442                           	
 13443  1FC6                     l7949:	
 13444                           	line	26
 13445                           	
 13446  1FC6                     l11229:	
 13447  1FC6  3001               	movlw	01h
 13448                           	
 13449  1FC7                     u4575:
 13450  1FC7  1003               	clrc
 13451  1FC8  0DA7               	rlf	(___awdiv@quotient),f
 13452  1FC9  0DA8               	rlf	(___awdiv@quotient+1),f
 13453  1FCA  3EFF               	addlw	-1
 13454  1FCB  1D03               	skipz
 13455  1FCC  2FC7               	goto	u4575
 13456                           	line	27
 13457  1FCD  0821               	movf	(___awdiv@divisor+1),w
 13458  1FCE  0223               	subwf	(___awdiv@dividend+1),w
 13459  1FCF  1D03               	skipz
 13460  1FD0  2FD3               	goto	u4585
 13461  1FD1  0820               	movf	(___awdiv@divisor),w
 13462  1FD2  0222               	subwf	(___awdiv@dividend),w
 13463  1FD3                     u4585:
 13464  1FD3  1C03               	skipc
 13465  1FD4  2FD6               	goto	u4581
 13466  1FD5  2FD7               	goto	u4580
 13467  1FD6                     u4581:
 13468  1FD6  2FDF               	goto	l11235
 13469  1FD7                     u4580:
 13470                           	line	28
 13471                           	
 13472  1FD7                     l11231:	
 13473  1FD7  0820               	movf	(___awdiv@divisor),w
 13474  1FD8  02A2               	subwf	(___awdiv@dividend),f
 13475  1FD9  0821               	movf	(___awdiv@divisor+1),w
 13476  1FDA  1C03               	skipc
 13477  1FDB  03A3               	decf	(___awdiv@dividend+1),f
 13478  1FDC  02A3               	subwf	(___awdiv@dividend+1),f
 13479                           	line	29
 13480                           	
 13481  1FDD                     l11233:	
 13482  1FDD  1427               	bsf	(___awdiv@quotient)+(0/8),(0)&7
 13483  1FDE  2FDF               	goto	l11235
 13484                           	line	30
 13485                           	
 13486  1FDF                     l7950:	
 13487                           	line	31
 13488                           	
 13489  1FDF                     l11235:	
 13490  1FDF  3001               	movlw	01h
 13491                           	
 13492  1FE0                     u4595:
 13493  1FE0  1003               	clrc
 13494  1FE1  0CA1               	rrf	(___awdiv@divisor+1),f
 13495  1FE2  0CA0               	rrf	(___awdiv@divisor),f
 13496  1FE3  3EFF               	addlw	-1
 13497  1FE4  1D03               	skipz
 13498  1FE5  2FE0               	goto	u4595
 13499                           	line	32
 13500                           	
 13501  1FE6                     l11237:	
 13502  1FE6  3001               	movlw	low(01h)
 13503  1FE7  02A5               	subwf	(___awdiv@counter),f
 13504  1FE8  1D03               	btfss	status,2
 13505  1FE9  2FEB               	goto	u4601
 13506  1FEA  2FEC               	goto	u4600
 13507  1FEB                     u4601:
 13508  1FEB  2FC6               	goto	l11229
 13509  1FEC                     u4600:
 13510  1FEC  2FEE               	goto	l11239
 13511                           	
 13512  1FED                     l7951:	
 13513  1FED  2FEE               	goto	l11239
 13514                           	line	33
 13515                           	
 13516  1FEE                     l7945:	
 13517                           	line	34
 13518                           	
 13519  1FEE                     l11239:	
 13520  1FEE  0826               	movf	(___awdiv@sign),w
 13521  1FEF  1D03               	skipz
 13522  1FF0  2FF2               	goto	u4610
 13523  1FF1  2FF8               	goto	l11243
 13524  1FF2                     u4610:
 13525                           	line	35
 13526                           	
 13527  1FF2                     l11241:	
 13528  1FF2  09A7               	comf	(___awdiv@quotient),f
 13529  1FF3  09A8               	comf	(___awdiv@quotient+1),f
 13530  1FF4  0AA7               	incf	(___awdiv@quotient),f
 13531  1FF5  1903               	skipnz
 13532  1FF6  0AA8               	incf	(___awdiv@quotient+1),f
 13533  1FF7  2FF8               	goto	l11243
 13534                           	
 13535  1FF8                     l7952:	
 13536                           	line	36
 13537                           	
 13538  1FF8                     l11243:	
 13539  1FF8  0828               	movf	(___awdiv@quotient+1),w
 13540  1FF9  01A1               	clrf	(?___awdiv+1)
 13541  1FFA  07A1               	addwf	(?___awdiv+1)
 13542  1FFB  0827               	movf	(___awdiv@quotient),w
 13543  1FFC  01A0               	clrf	(?___awdiv)
 13544  1FFD  07A0               	addwf	(?___awdiv)
 13545                           
 13546  1FFE  2FFF               	goto	l7953
 13547                           	
 13548  1FFF                     l11245:	
 13549                           	line	37
 13550                           	
 13551  1FFF                     l7953:	
 13552  1FFF  0008               	return
 13553                           	opt stack 0
 13554                           GLOBAL	__end_of___awdiv
 13555  2000                     	__end_of___awdiv:
 13556 ;; =============== function ___awdiv ends ============
 13557                           
 13558                           	signat	___awdiv,8314
 13559                           	global	___lwmod
 13560                           psect	text1126,local,class=CODE,delta=2
 13561                           global __ptext1126
 13562  1D44                     __ptext1126:
 13563                           
 13564 ;; *************** function ___lwmod *****************
 13565 ;; Defined at:
 13566 ;;		line 5 in file "C:\Program Files\HI-TECH Software\PICC\9.83\sources\lwmod.c"
 13567 ;; Parameters:    Size  Location     Type
 13568 ;;  divisor         2    8[BANK0 ] unsigned int 
 13569 ;;  dividend        2   10[BANK0 ] unsigned int 
 13570 ;; Auto vars:     Size  Location     Type
 13571 ;;  counter         1   13[BANK0 ] unsigned char 
 13572 ;; Return value:  Size  Location     Type
 13573 ;;                  2    8[BANK0 ] unsigned int 
 13574 ;; Registers used:
 13575 ;;		wreg, status,2, status,0
 13576 ;; Tracked objects:
 13577 ;;		On entry : 0/0
 13578 ;;		On exit  : 0/0
 13579 ;;		Unchanged: 0/0
 13580 ;; Data sizes:     COMMON   BANK0   BANK1   BANK3   BANK2
 13581 ;;      Params:         0       4       0       0       0
 13582 ;;      Locals:         0       1       0       0       0
 13583 ;;      Temps:          0       1       0       0       0
 13584 ;;      Totals:         0       6       0       0       0
 13585 ;;Total ram usage:        6 bytes
 13586 ;; Hardware stack levels used:    1
 13587 ;; Hardware stack levels required when called:    2
 13588 ;; This function calls:
 13589 ;;		Nothing
 13590 ;; This function is called by:
 13591 ;;		_sprintf
 13592 ;; This function uses a non-reentrant model
 13593 ;;
 13594                           psect	text1126
 13595                           	file	"C:\Program Files\HI-TECH Software\PICC\9.83\sources\lwmod.c"
 13596                           	line	5
 13597                           	global	__size_of___lwmod
 13598  0046                     	__size_of___lwmod	equ	__end_of___lwmod-___lwmod
 13599                           	
 13600  1D44                     ___lwmod:	
 13601                           	opt	stack 2
 13602                           ; Regs used in ___lwmod: [wreg+status,2+status,0]
 13603                           	line	8
 13604                           	
 13605  1D44                     l11185:	
 13606  1D44  1283               	bcf	status, 5	;RP0=0, select bank0
 13607  1D45  1303               	bcf	status, 6	;RP1=0, select bank0
 13608  1D46  0829               	movf	(___lwmod@divisor+1),w
 13609  1D47  0428               	iorwf	(___lwmod@divisor),w
 13610  1D48  1903               	skipnz
 13611  1D49  2D4B               	goto	u4461
 13612  1D4A  2D4C               	goto	u4460
 13613  1D4B                     u4461:
 13614  1D4B  2D82               	goto	l11203
 13615  1D4C                     u4460:
 13616                           	line	9
 13617                           	
 13618  1D4C                     l11187:	
 13619  1D4C  01AD               	clrf	(___lwmod@counter)
 13620  1D4D  1403               	bsf	status,0
 13621  1D4E  0DAD               	rlf	(___lwmod@counter),f
 13622                           	line	10
 13623  1D4F  2D5C               	goto	l11193
 13624                           	
 13625  1D50                     l7821:	
 13626                           	line	11
 13627                           	
 13628  1D50                     l11189:	
 13629  1D50  3001               	movlw	01h
 13630                           	
 13631  1D51                     u4475:
 13632  1D51  1003               	clrc
 13633  1D52  0DA8               	rlf	(___lwmod@divisor),f
 13634  1D53  0DA9               	rlf	(___lwmod@divisor+1),f
 13635  1D54  3EFF               	addlw	-1
 13636  1D55  1D03               	skipz
 13637  1D56  2D51               	goto	u4475
 13638                           	line	12
 13639                           	
 13640  1D57                     l11191:	
 13641  1D57  3001               	movlw	(01h)
 13642  1D58  00AC               	movwf	(??___lwmod+0)+0
 13643  1D59  082C               	movf	(??___lwmod+0)+0,w
 13644  1D5A  07AD               	addwf	(___lwmod@counter),f
 13645  1D5B  2D5C               	goto	l11193
 13646                           	line	13
 13647                           	
 13648  1D5C                     l7820:	
 13649                           	line	10
 13650                           	
 13651  1D5C                     l11193:	
 13652  1D5C  1FA9               	btfss	(___lwmod@divisor+1),(15)&7
 13653  1D5D  2D5F               	goto	u4481
 13654  1D5E  2D60               	goto	u4480
 13655  1D5F                     u4481:
 13656  1D5F  2D50               	goto	l11189
 13657  1D60                     u4480:
 13658  1D60  2D62               	goto	l11195
 13659                           	
 13660  1D61                     l7822:	
 13661  1D61  2D62               	goto	l11195
 13662                           	line	14
 13663                           	
 13664  1D62                     l7823:	
 13665                           	line	15
 13666                           	
 13667  1D62                     l11195:	
 13668  1D62  0829               	movf	(___lwmod@divisor+1),w
 13669  1D63  022B               	subwf	(___lwmod@dividend+1),w
 13670  1D64  1D03               	skipz
 13671  1D65  2D68               	goto	u4495
 13672  1D66  0828               	movf	(___lwmod@divisor),w
 13673  1D67  022A               	subwf	(___lwmod@dividend),w
 13674  1D68                     u4495:
 13675  1D68  1C03               	skipc
 13676  1D69  2D6B               	goto	u4491
 13677  1D6A  2D6C               	goto	u4490
 13678  1D6B                     u4491:
 13679  1D6B  2D73               	goto	l11199
 13680  1D6C                     u4490:
 13681                           	line	16
 13682                           	
 13683  1D6C                     l11197:	
 13684  1D6C  0828               	movf	(___lwmod@divisor),w
 13685  1D6D  02AA               	subwf	(___lwmod@dividend),f
 13686  1D6E  0829               	movf	(___lwmod@divisor+1),w
 13687  1D6F  1C03               	skipc
 13688  1D70  03AB               	decf	(___lwmod@dividend+1),f
 13689  1D71  02AB               	subwf	(___lwmod@dividend+1),f
 13690  1D72  2D73               	goto	l11199
 13691                           	
 13692  1D73                     l7824:	
 13693                           	line	17
 13694                           	
 13695  1D73                     l11199:	
 13696  1D73  3001               	movlw	01h
 13697                           	
 13698  1D74                     u4505:
 13699  1D74  1003               	clrc
 13700  1D75  0CA9               	rrf	(___lwmod@divisor+1),f
 13701  1D76  0CA8               	rrf	(___lwmod@divisor),f
 13702  1D77  3EFF               	addlw	-1
 13703  1D78  1D03               	skipz
 13704  1D79  2D74               	goto	u4505
 13705                           	line	18
 13706                           	
 13707  1D7A                     l11201:	
 13708  1D7A  3001               	movlw	low(01h)
 13709  1D7B  02AD               	subwf	(___lwmod@counter),f
 13710  1D7C  1D03               	btfss	status,2
 13711  1D7D  2D7F               	goto	u4511
 13712  1D7E  2D80               	goto	u4510
 13713  1D7F                     u4511:
 13714  1D7F  2D62               	goto	l11195
 13715  1D80                     u4510:
 13716  1D80  2D82               	goto	l11203
 13717                           	
 13718  1D81                     l7825:	
 13719  1D81  2D82               	goto	l11203
 13720                           	line	19
 13721                           	
 13722  1D82                     l7819:	
 13723                           	line	20
 13724                           	
 13725  1D82                     l11203:	
 13726  1D82  082B               	movf	(___lwmod@dividend+1),w
 13727  1D83  01A9               	clrf	(?___lwmod+1)
 13728  1D84  07A9               	addwf	(?___lwmod+1)
 13729  1D85  082A               	movf	(___lwmod@dividend),w
 13730  1D86  01A8               	clrf	(?___lwmod)
 13731  1D87  07A8               	addwf	(?___lwmod)
 13732                           
 13733  1D88  2D89               	goto	l7826
 13734                           	
 13735  1D89                     l11205:	
 13736                           	line	21
 13737                           	
 13738  1D89                     l7826:	
 13739  1D89  0008               	return
 13740                           	opt stack 0
 13741                           GLOBAL	__end_of___lwmod
 13742  1D8A                     	__end_of___lwmod:
 13743 ;; =============== function ___lwmod ends ============
 13744                           
 13745                           	signat	___lwmod,8314
 13746                           	global	___lwdiv
 13747                           psect	text1127,local,class=CODE,delta=2
 13748                           global __ptext1127
 13749  10F5                     __ptext1127:
 13750                           
 13751 ;; *************** function ___lwdiv *****************
 13752 ;; Defined at:
 13753 ;;		line 5 in file "C:\Program Files\HI-TECH Software\PICC\9.83\sources\lwdiv.c"
 13754 ;; Parameters:    Size  Location     Type
 13755 ;;  divisor         2    0[BANK0 ] unsigned int 
 13756 ;;  dividend        2    2[BANK0 ] unsigned int 
 13757 ;; Auto vars:     Size  Location     Type
 13758 ;;  quotient        2    5[BANK0 ] unsigned int 
 13759 ;;  counter         1    7[BANK0 ] unsigned char 
 13760 ;; Return value:  Size  Location     Type
 13761 ;;                  2    0[BANK0 ] unsigned int 
 13762 ;; Registers used:
 13763 ;;		wreg, status,2, status,0
 13764 ;; Tracked objects:
 13765 ;;		On entry : 0/0
 13766 ;;		On exit  : 0/0
 13767 ;;		Unchanged: 0/0
 13768 ;; Data sizes:     COMMON   BANK0   BANK1   BANK3   BANK2
 13769 ;;      Params:         0       4       0       0       0
 13770 ;;      Locals:         0       3       0       0       0
 13771 ;;      Temps:          0       1       0       0       0
 13772 ;;      Totals:         0       8       0       0       0
 13773 ;;Total ram usage:        8 bytes
 13774 ;; Hardware stack levels used:    1
 13775 ;; Hardware stack levels required when called:    2
 13776 ;; This function calls:
 13777 ;;		Nothing
 13778 ;; This function is called by:
 13779 ;;		_readAvgDistance
 13780 ;;		_sprintf
 13781 ;; This function uses a non-reentrant model
 13782 ;;
 13783                           psect	text1127
 13784                           	file	"C:\Program Files\HI-TECH Software\PICC\9.83\sources\lwdiv.c"
 13785                           	line	5
 13786                           	global	__size_of___lwdiv
 13787  0050                     	__size_of___lwdiv	equ	__end_of___lwdiv-___lwdiv
 13788                           	
 13789  10F5                     ___lwdiv:	
 13790                           	opt	stack 2
 13791                           ; Regs used in ___lwdiv: [wreg+status,2+status,0]
 13792                           	line	9
 13793                           	
 13794  10F5                     l11159:	
 13795  10F5  1283               	bcf	status, 5	;RP0=0, select bank0
 13796  10F6  1303               	bcf	status, 6	;RP1=0, select bank0
 13797  10F7  01A5               	clrf	(___lwdiv@quotient)
 13798  10F8  01A6               	clrf	(___lwdiv@quotient+1)
 13799                           	line	10
 13800                           	
 13801  10F9                     l11161:	
 13802  10F9  0821               	movf	(___lwdiv@divisor+1),w
 13803  10FA  0420               	iorwf	(___lwdiv@divisor),w
 13804  10FB  1903               	skipnz
 13805  10FC  28FE               	goto	u4391
 13806  10FD  28FF               	goto	u4390
 13807  10FE                     u4391:
 13808  10FE  293D               	goto	l11181
 13809  10FF                     u4390:
 13810                           	line	11
 13811                           	
 13812  10FF                     l11163:	
 13813  10FF  01A7               	clrf	(___lwdiv@counter)
 13814  1100  1403               	bsf	status,0
 13815  1101  0DA7               	rlf	(___lwdiv@counter),f
 13816                           	line	12
 13817  1102  290F               	goto	l11169
 13818                           	
 13819  1103                     l7811:	
 13820                           	line	13
 13821                           	
 13822  1103                     l11165:	
 13823  1103  3001               	movlw	01h
 13824                           	
 13825  1104                     u4405:
 13826  1104  1003               	clrc
 13827  1105  0DA0               	rlf	(___lwdiv@divisor),f
 13828  1106  0DA1               	rlf	(___lwdiv@divisor+1),f
 13829  1107  3EFF               	addlw	-1
 13830  1108  1D03               	skipz
 13831  1109  2904               	goto	u4405
 13832                           	line	14
 13833                           	
 13834  110A                     l11167:	
 13835  110A  3001               	movlw	(01h)
 13836  110B  00A4               	movwf	(??___lwdiv+0)+0
 13837  110C  0824               	movf	(??___lwdiv+0)+0,w
 13838  110D  07A7               	addwf	(___lwdiv@counter),f
 13839  110E  290F               	goto	l11169
 13840                           	line	15
 13841                           	
 13842  110F                     l7810:	
 13843                           	line	12
 13844                           	
 13845  110F                     l11169:	
 13846  110F  1FA1               	btfss	(___lwdiv@divisor+1),(15)&7
 13847  1110  2912               	goto	u4411
 13848  1111  2913               	goto	u4410
 13849  1112                     u4411:
 13850  1112  2903               	goto	l11165
 13851  1113                     u4410:
 13852  1113  2915               	goto	l11171
 13853                           	
 13854  1114                     l7812:	
 13855  1114  2915               	goto	l11171
 13856                           	line	16
 13857                           	
 13858  1115                     l7813:	
 13859                           	line	17
 13860                           	
 13861  1115                     l11171:	
 13862  1115  3001               	movlw	01h
 13863                           	
 13864  1116                     u4425:
 13865  1116  1003               	clrc
 13866  1117  0DA5               	rlf	(___lwdiv@quotient),f
 13867  1118  0DA6               	rlf	(___lwdiv@quotient+1),f
 13868  1119  3EFF               	addlw	-1
 13869  111A  1D03               	skipz
 13870  111B  2916               	goto	u4425
 13871                           	line	18
 13872  111C  0821               	movf	(___lwdiv@divisor+1),w
 13873  111D  0223               	subwf	(___lwdiv@dividend+1),w
 13874  111E  1D03               	skipz
 13875  111F  2922               	goto	u4435
 13876  1120  0820               	movf	(___lwdiv@divisor),w
 13877  1121  0222               	subwf	(___lwdiv@dividend),w
 13878  1122                     u4435:
 13879  1122  1C03               	skipc
 13880  1123  2925               	goto	u4431
 13881  1124  2926               	goto	u4430
 13882  1125                     u4431:
 13883  1125  292E               	goto	l11177
 13884  1126                     u4430:
 13885                           	line	19
 13886                           	
 13887  1126                     l11173:	
 13888  1126  0820               	movf	(___lwdiv@divisor),w
 13889  1127  02A2               	subwf	(___lwdiv@dividend),f
 13890  1128  0821               	movf	(___lwdiv@divisor+1),w
 13891  1129  1C03               	skipc
 13892  112A  03A3               	decf	(___lwdiv@dividend+1),f
 13893  112B  02A3               	subwf	(___lwdiv@dividend+1),f
 13894                           	line	20
 13895                           	
 13896  112C                     l11175:	
 13897  112C  1425               	bsf	(___lwdiv@quotient)+(0/8),(0)&7
 13898  112D  292E               	goto	l11177
 13899                           	line	21
 13900                           	
 13901  112E                     l7814:	
 13902                           	line	22
 13903                           	
 13904  112E                     l11177:	
 13905  112E  3001               	movlw	01h
 13906                           	
 13907  112F                     u4445:
 13908  112F  1003               	clrc
 13909  1130  0CA1               	rrf	(___lwdiv@divisor+1),f
 13910  1131  0CA0               	rrf	(___lwdiv@divisor),f
 13911  1132  3EFF               	addlw	-1
 13912  1133  1D03               	skipz
 13913  1134  292F               	goto	u4445
 13914                           	line	23
 13915                           	
 13916  1135                     l11179:	
 13917  1135  3001               	movlw	low(01h)
 13918  1136  02A7               	subwf	(___lwdiv@counter),f
 13919  1137  1D03               	btfss	status,2
 13920  1138  293A               	goto	u4451
 13921  1139  293B               	goto	u4450
 13922  113A                     u4451:
 13923  113A  2915               	goto	l11171
 13924  113B                     u4450:
 13925  113B  293D               	goto	l11181
 13926                           	
 13927  113C                     l7815:	
 13928  113C  293D               	goto	l11181
 13929                           	line	24
 13930                           	
 13931  113D                     l7809:	
 13932                           	line	25
 13933                           	
 13934  113D                     l11181:	
 13935  113D  0826               	movf	(___lwdiv@quotient+1),w
 13936  113E  01A1               	clrf	(?___lwdiv+1)
 13937  113F  07A1               	addwf	(?___lwdiv+1)
 13938  1140  0825               	movf	(___lwdiv@quotient),w
 13939  1141  01A0               	clrf	(?___lwdiv)
 13940  1142  07A0               	addwf	(?___lwdiv)
 13941                           
 13942  1143  2944               	goto	l7816
 13943                           	
 13944  1144                     l11183:	
 13945                           	line	26
 13946                           	
 13947  1144                     l7816:	
 13948  1144  0008               	return
 13949                           	opt stack 0
 13950                           GLOBAL	__end_of___lwdiv
 13951  1145                     	__end_of___lwdiv:
 13952 ;; =============== function ___lwdiv ends ============
 13953                           
 13954                           	signat	___lwdiv,8314
 13955                           	global	___wmul
 13956                           psect	text1128,local,class=CODE,delta=2
 13957                           global __ptext1128
 13958  1B77                     __ptext1128:
 13959                           
 13960 ;; *************** function ___wmul *****************
 13961 ;; Defined at:
 13962 ;;		line 3 in file "C:\Program Files\HI-TECH Software\PICC\9.83\sources\wmul.c"
 13963 ;; Parameters:    Size  Location     Type
 13964 ;;  multiplier      2    0[BANK0 ] unsigned int 
 13965 ;;  multiplicand    2    2[BANK0 ] unsigned int 
 13966 ;; Auto vars:     Size  Location     Type
 13967 ;;  product         2    4[BANK0 ] unsigned int 
 13968 ;; Return value:  Size  Location     Type
 13969 ;;                  2    0[BANK0 ] unsigned int 
 13970 ;; Registers used:
 13971 ;;		wreg, status,2, status,0
 13972 ;; Tracked objects:
 13973 ;;		On entry : 0/0
 13974 ;;		On exit  : 0/0
 13975 ;;		Unchanged: 0/0
 13976 ;; Data sizes:     COMMON   BANK0   BANK1   BANK3   BANK2
 13977 ;;      Params:         0       4       0       0       0
 13978 ;;      Locals:         0       2       0       0       0
 13979 ;;      Temps:          0       0       0       0       0
 13980 ;;      Totals:         0       6       0       0       0
 13981 ;;Total ram usage:        6 bytes
 13982 ;; Hardware stack levels used:    1
 13983 ;; Hardware stack levels required when called:    2
 13984 ;; This function calls:
 13985 ;;		Nothing
 13986 ;; This function is called by:
 13987 ;;		_abs
 13988 ;;		_sprintf
 13989 ;; This function uses a non-reentrant model
 13990 ;;
 13991                           psect	text1128
 13992                           	file	"C:\Program Files\HI-TECH Software\PICC\9.83\sources\wmul.c"
 13993                           	line	3
 13994                           	global	__size_of___wmul
 13995  002C                     	__size_of___wmul	equ	__end_of___wmul-___wmul
 13996                           	
 13997  1B77                     ___wmul:	
 13998                           	opt	stack 2
 13999                           ; Regs used in ___wmul: [wreg+status,2+status,0]
 14000                           	line	4
 14001                           	
 14002  1B77                     l11147:	
 14003  1B77  1283               	bcf	status, 5	;RP0=0, select bank0
 14004  1B78  1303               	bcf	status, 6	;RP1=0, select bank0
 14005  1B79  01A4               	clrf	(___wmul@product)
 14006  1B7A  01A5               	clrf	(___wmul@product+1)
 14007  1B7B  2B7C               	goto	l11149
 14008                           	line	6
 14009                           	
 14010  1B7C                     l7803:	
 14011                           	line	7
 14012                           	
 14013  1B7C                     l11149:	
 14014  1B7C  1C20               	btfss	(___wmul@multiplier),(0)&7
 14015  1B7D  2B7F               	goto	u4351
 14016  1B7E  2B80               	goto	u4350
 14017  1B7F                     u4351:
 14018  1B7F  2B86               	goto	l7804
 14019  1B80                     u4350:
 14020                           	line	8
 14021                           	
 14022  1B80                     l11151:	
 14023  1B80  0822               	movf	(___wmul@multiplicand),w
 14024  1B81  07A4               	addwf	(___wmul@product),f
 14025  1B82  1803               	skipnc
 14026  1B83  0AA5               	incf	(___wmul@product+1),f
 14027  1B84  0823               	movf	(___wmul@multiplicand+1),w
 14028  1B85  07A5               	addwf	(___wmul@product+1),f
 14029                           	
 14030  1B86                     l7804:	
 14031                           	line	9
 14032  1B86  3001               	movlw	01h
 14033                           	
 14034  1B87                     u4365:
 14035  1B87  1003               	clrc
 14036  1B88  0DA2               	rlf	(___wmul@multiplicand),f
 14037  1B89  0DA3               	rlf	(___wmul@multiplicand+1),f
 14038  1B8A  3EFF               	addlw	-1
 14039  1B8B  1D03               	skipz
 14040  1B8C  2B87               	goto	u4365
 14041                           	line	10
 14042                           	
 14043  1B8D                     l11153:	
 14044  1B8D  3001               	movlw	01h
 14045                           	
 14046  1B8E                     u4375:
 14047  1B8E  1003               	clrc
 14048  1B8F  0CA1               	rrf	(___wmul@multiplier+1),f
 14049  1B90  0CA0               	rrf	(___wmul@multiplier),f
 14050  1B91  3EFF               	addlw	-1
 14051  1B92  1D03               	skipz
 14052  1B93  2B8E               	goto	u4375
 14053                           	line	11
 14054  1B94  0821               	movf	((___wmul@multiplier+1)),w
 14055  1B95  0420               	iorwf	((___wmul@multiplier)),w
 14056  1B96  1D03               	skipz
 14057  1B97  2B99               	goto	u4381
 14058  1B98  2B9A               	goto	u4380
 14059  1B99                     u4381:
 14060  1B99  2B7C               	goto	l11149
 14061  1B9A                     u4380:
 14062  1B9A  2B9B               	goto	l11155
 14063                           	
 14064  1B9B                     l7805:	
 14065                           	line	12
 14066                           	
 14067  1B9B                     l11155:	
 14068  1B9B  0825               	movf	(___wmul@product+1),w
 14069  1B9C  01A1               	clrf	(?___wmul+1)
 14070  1B9D  07A1               	addwf	(?___wmul+1)
 14071  1B9E  0824               	movf	(___wmul@product),w
 14072  1B9F  01A0               	clrf	(?___wmul)
 14073  1BA0  07A0               	addwf	(?___wmul)
 14074                           
 14075  1BA1  2BA2               	goto	l7806
 14076                           	
 14077  1BA2                     l11157:	
 14078                           	line	13
 14079                           	
 14080  1BA2                     l7806:	
 14081  1BA2  0008               	return
 14082                           	opt stack 0
 14083                           GLOBAL	__end_of___wmul
 14084  1BA3                     	__end_of___wmul:
 14085 ;; =============== function ___wmul ends ============
 14086                           
 14087                           	signat	___wmul,8314
 14088                           	global	_isdigit
 14089                           psect	text1129,local,class=CODE,delta=2
 14090                           global __ptext1129
 14091  1A68                     __ptext1129:
 14092                           
 14093 ;; *************** function _isdigit *****************
 14094 ;; Defined at:
 14095 ;;		line 13 in file "C:\Program Files\HI-TECH Software\PICC\9.83\sources\isdigit.c"
 14096 ;; Parameters:    Size  Location     Type
 14097 ;;  c               1    wreg     unsigned char 
 14098 ;; Auto vars:     Size  Location     Type
 14099 ;;  c               1    1[BANK0 ] unsigned char 
 14100 ;; Return value:  Size  Location     Type
 14101 ;;		None               void
 14102 ;; Registers used:
 14103 ;;		wreg, status,2, status,0
 14104 ;; Tracked objects:
 14105 ;;		On entry : 0/0
 14106 ;;		On exit  : 0/0
 14107 ;;		Unchanged: 0/0
 14108 ;; Data sizes:     COMMON   BANK0   BANK1   BANK3   BANK2
 14109 ;;      Params:         0       0       0       0       0
 14110 ;;      Locals:         0       2       0       0       0
 14111 ;;      Temps:          0       0       0       0       0
 14112 ;;      Totals:         0       2       0       0       0
 14113 ;;Total ram usage:        2 bytes
 14114 ;; Hardware stack levels used:    1
 14115 ;; Hardware stack levels required when called:    2
 14116 ;; This function calls:
 14117 ;;		Nothing
 14118 ;; This function is called by:
 14119 ;;		_sprintf
 14120 ;; This function uses a non-reentrant model
 14121 ;;
 14122                           psect	text1129
 14123                           	file	"C:\Program Files\HI-TECH Software\PICC\9.83\sources\isdigit.c"
 14124                           	global	__size_of_isdigit
 14125  0017                     	__size_of_isdigit	equ	__end_of_isdigit-_isdigit
 14126                           	
 14127  1A68                     _isdigit:	
 14128                           	opt	stack 2
 14129                           ; Regs used in _isdigit: [wreg+status,2+status,0]
 14130                           ;isdigit@c stored from wreg
 14131  1A68  1283               	bcf	status, 5	;RP0=0, select bank0
 14132  1A69  1303               	bcf	status, 6	;RP1=0, select bank0
 14133  1A6A  00A1               	movwf	(isdigit@c)
 14134                           	line	14
 14135                           	
 14136  1A6B                     l11135:	
 14137  1A6B  01A0               	clrf	(_isdigit$8696)
 14138                           	
 14139  1A6C                     l11137:	
 14140  1A6C  303A               	movlw	(03Ah)
 14141  1A6D  0221               	subwf	(isdigit@c),w
 14142  1A6E  1803               	skipnc
 14143  1A6F  2A71               	goto	u4331
 14144  1A70  2A72               	goto	u4330
 14145  1A71                     u4331:
 14146  1A71  2A7C               	goto	l11143
 14147  1A72                     u4330:
 14148                           	
 14149  1A72                     l11139:	
 14150  1A72  3030               	movlw	(030h)
 14151  1A73  0221               	subwf	(isdigit@c),w
 14152  1A74  1C03               	skipc
 14153  1A75  2A77               	goto	u4341
 14154  1A76  2A78               	goto	u4340
 14155  1A77                     u4341:
 14156  1A77  2A7C               	goto	l11143
 14157  1A78                     u4340:
 14158                           	
 14159  1A78                     l11141:	
 14160  1A78  01A0               	clrf	(_isdigit$8696)
 14161  1A79  1403               	bsf	status,0
 14162  1A7A  0DA0               	rlf	(_isdigit$8696),f
 14163  1A7B  2A7C               	goto	l11143
 14164                           	
 14165  1A7C                     l7793:	
 14166                           	
 14167  1A7C                     l11143:	
 14168  1A7C  0C20               	rrf	(_isdigit$8696),w
 14169                           	
 14170  1A7D  2A7E               	goto	l7794
 14171                           	
 14172  1A7E                     l11145:	
 14173                           	line	15
 14174                           	
 14175  1A7E                     l7794:	
 14176  1A7E  0008               	return
 14177                           	opt stack 0
 14178                           GLOBAL	__end_of_isdigit
 14179  1A7F                     	__end_of_isdigit:
 14180 ;; =============== function _isdigit ends ============
 14181                           
 14182                           	signat	_isdigit,4216
 14183                           	global	_ser_isrx
 14184                           psect	text1130,local,class=CODE,delta=2
 14185                           global __ptext1130
 14186  1A7F                     __ptext1130:
 14187                           
 14188 ;; *************** function _ser_isrx *****************
 14189 ;; Defined at:
 14190 ;;		line 45 in file "E:\Aldnoah.Zero\Assignment3\ser.c"
 14191 ;; Parameters:    Size  Location     Type
 14192 ;;		None
 14193 ;; Auto vars:     Size  Location     Type
 14194 ;;		None
 14195 ;; Return value:  Size  Location     Type
 14196 ;;		None               void
 14197 ;; Registers used:
 14198 ;;		wreg, status,2, status,0
 14199 ;; Tracked objects:
 14200 ;;		On entry : 0/0
 14201 ;;		On exit  : 0/0
 14202 ;;		Unchanged: 0/0
 14203 ;; Data sizes:     COMMON   BANK0   BANK1   BANK3   BANK2
 14204 ;;      Params:         0       0       0       0       0
 14205 ;;      Locals:         0       0       0       0       0
 14206 ;;      Temps:          0       0       0       0       0
 14207 ;;      Totals:         0       0       0       0       0
 14208 ;;Total ram usage:        0 bytes
 14209 ;; Hardware stack levels used:    1
 14210 ;; Hardware stack levels required when called:    2
 14211 ;; This function calls:
 14212 ;;		Nothing
 14213 ;; This function is called by:
 14214 ;;		_ser_getch
 14215 ;; This function uses a non-reentrant model
 14216 ;;
 14217                           psect	text1130
 14218                           	file	"E:\Aldnoah.Zero\Assignment3\ser.c"
 14219                           	line	45
 14220                           	global	__size_of_ser_isrx
 14221  0019                     	__size_of_ser_isrx	equ	__end_of_ser_isrx-_ser_isrx
 14222                           	
 14223  1A7F                     _ser_isrx:	
 14224                           	opt	stack 2
 14225                           ; Regs used in _ser_isrx: [wreg+status,2+status,0]
 14226                           	line	46
 14227                           	
 14228  1A7F                     l11087:	
 14229                           ;ser.c: 46: if(OERR) {
 14230  1A7F  1283               	bcf	status, 5	;RP0=0, select bank0
 14231  1A80  1303               	bcf	status, 6	;RP1=0, select bank0
 14232  1A81  1C98               	btfss	(193/8),(193)&7
 14233  1A82  2A84               	goto	u4261
 14234  1A83  2A85               	goto	u4260
 14235  1A84                     u4261:
 14236  1A84  2A8A               	goto	l11095
 14237  1A85                     u4260:
 14238                           	line	47
 14239                           	
 14240  1A85                     l11089:	
 14241                           ;ser.c: 47: CREN = 0;
 14242  1A85  1218               	bcf	(196/8),(196)&7
 14243                           	line	48
 14244                           ;ser.c: 48: CREN = 1;
 14245  1A86  1618               	bsf	(196/8),(196)&7
 14246                           	line	49
 14247                           	
 14248  1A87                     l11091:	
 14249                           ;ser.c: 49: return 0;
 14250  1A87  1003               	clrc
 14251                           	
 14252  1A88  2A97               	goto	l7042
 14253                           	
 14254  1A89                     l11093:	
 14255  1A89  2A97               	goto	l7042
 14256                           	line	50
 14257                           	
 14258  1A8A                     l7041:	
 14259                           	line	51
 14260                           	
 14261  1A8A                     l11095:	
 14262                           ;ser.c: 50: }
 14263                           ;ser.c: 51: return (rxiptr!=rxoptr);
 14264  1A8A  1683               	bsf	status, 5	;RP0=1, select bank1
 14265  1A8B  1303               	bcf	status, 6	;RP1=0, select bank1
 14266  1A8C  0854               	movf	(_rxiptr)^080h,w	;volatile
 14267  1A8D  0655               	xorwf	(_rxoptr)^080h,w	;volatile
 14268  1A8E  1D03               	skipz
 14269  1A8F  2A91               	goto	u4271
 14270  1A90  2A92               	goto	u4270
 14271  1A91                     u4271:
 14272  1A91  2A94               	goto	l11099
 14273  1A92                     u4270:
 14274                           	
 14275  1A92                     l11097:	
 14276  1A92  1003               	clrc
 14277                           	
 14278  1A93  2A97               	goto	l7042
 14279                           	
 14280  1A94                     l10849:	
 14281                           	
 14282  1A94                     l11099:	
 14283  1A94  1403               	setc
 14284                           	
 14285  1A95  2A97               	goto	l7042
 14286                           	
 14287  1A96                     l10851:	
 14288  1A96  2A97               	goto	l7042
 14289                           	
 14290  1A97                     l11101:	
 14291                           	line	52
 14292                           	
 14293  1A97                     l7042:	
 14294  1A97  0008               	return
 14295                           	opt stack 0
 14296                           GLOBAL	__end_of_ser_isrx
 14297  1A98                     	__end_of_ser_isrx:
 14298 ;; =============== function _ser_isrx ends ============
 14299                           
 14300                           	signat	_ser_isrx,88
 14301                           	global	_spi_transfer
 14302                           psect	text1131,local,class=CODE,delta=2
 14303                           global __ptext1131
 14304  1A14                     __ptext1131:
 14305                           
 14306 ;; *************** function _spi_transfer *****************
 14307 ;; Defined at:
 14308 ;;		line 40 in file "E:\Aldnoah.Zero\Assignment3\steppermotor.c"
 14309 ;; Parameters:    Size  Location     Type
 14310 ;;  data            1    wreg     unsigned char 
 14311 ;; Auto vars:     Size  Location     Type
 14312 ;;  data            1    2[BANK0 ] unsigned char 
 14313 ;;  temp            1    1[BANK0 ] unsigned char 
 14314 ;; Return value:  Size  Location     Type
 14315 ;;                  1    wreg      unsigned char 
 14316 ;; Registers used:
 14317 ;;		wreg
 14318 ;; Tracked objects:
 14319 ;;		On entry : 0/0
 14320 ;;		On exit  : 0/0
 14321 ;;		Unchanged: 0/0
 14322 ;; Data sizes:     COMMON   BANK0   BANK1   BANK3   BANK2
 14323 ;;      Params:         0       0       0       0       0
 14324 ;;      Locals:         0       2       0       0       0
 14325 ;;      Temps:          0       1       0       0       0
 14326 ;;      Totals:         0       3       0       0       0
 14327 ;;Total ram usage:        3 bytes
 14328 ;; Hardware stack levels used:    1
 14329 ;; Hardware stack levels required when called:    2
 14330 ;; This function calls:
 14331 ;;		Nothing
 14332 ;; This function is called by:
 14333 ;;		_rotate
 14334 ;; This function uses a non-reentrant model
 14335 ;;
 14336                           psect	text1131
 14337                           	file	"E:\Aldnoah.Zero\Assignment3\steppermotor.c"
 14338                           	line	40
 14339                           	global	__size_of_spi_transfer
 14340  0014                     	__size_of_spi_transfer	equ	__end_of_spi_transfer-_spi_transfer
 14341                           	
 14342  1A14                     _spi_transfer:	
 14343                           	opt	stack 2
 14344                           ; Regs used in _spi_transfer: [wreg]
 14345                           ;spi_transfer@data stored from wreg
 14346  1A14  1283               	bcf	status, 5	;RP0=0, select bank0
 14347  1A15  1303               	bcf	status, 6	;RP1=0, select bank0
 14348  1A16  00A2               	movwf	(spi_transfer@data)
 14349                           	line	41
 14350                           	
 14351  1A17                     l11077:	
 14352                           ;steppermotor.c: 41: unsigned char temp = 0;
 14353  1A17  01A1               	clrf	(spi_transfer@temp)
 14354                           	line	43
 14355                           ;steppermotor.c: 43: SSPIF = 0;
 14356  1A18  118C               	bcf	(99/8),(99)&7
 14357                           	line	44
 14358                           	
 14359  1A19                     l11079:	
 14360                           ;steppermotor.c: 44: SSPBUF = data;
 14361  1A19  0822               	movf	(spi_transfer@data),w
 14362  1A1A  0093               	movwf	(19)	;volatile
 14363                           	line	46
 14364                           ;steppermotor.c: 46: while (SSPIF == 0);
 14365  1A1B  2A1C               	goto	l3824
 14366                           	
 14367  1A1C                     l3825:	
 14368                           	
 14369  1A1C                     l3824:	
 14370  1A1C  1D8C               	btfss	(99/8),(99)&7
 14371  1A1D  2A1F               	goto	u4251
 14372  1A1E  2A20               	goto	u4250
 14373  1A1F                     u4251:
 14374  1A1F  2A1C               	goto	l3824
 14375  1A20                     u4250:
 14376  1A20  2A21               	goto	l11081
 14377                           	
 14378  1A21                     l3826:	
 14379                           	line	47
 14380                           	
 14381  1A21                     l11081:	
 14382                           ;steppermotor.c: 47: temp = SSPBUF;
 14383  1A21  0813               	movf	(19),w	;volatile
 14384  1A22  00A0               	movwf	(??_spi_transfer+0)+0
 14385  1A23  0820               	movf	(??_spi_transfer+0)+0,w
 14386  1A24  00A1               	movwf	(spi_transfer@temp)
 14387                           	line	48
 14388                           	
 14389  1A25                     l11083:	
 14390                           ;steppermotor.c: 48: SSPIF = 0;
 14391  1A25  118C               	bcf	(99/8),(99)&7
 14392  1A26  2A27               	goto	l3827
 14393                           	line	50
 14394                           	
 14395  1A27                     l11085:	
 14396                           	line	51
 14397                           ;steppermotor.c: 50: return temp;
 14398                           ;	Return value of _spi_transfer is never used
 14399                           	
 14400  1A27                     l3827:	
 14401  1A27  0008               	return
 14402                           	opt stack 0
 14403                           GLOBAL	__end_of_spi_transfer
 14404  1A28                     	__end_of_spi_transfer:
 14405 ;; =============== function _spi_transfer ends ============
 14406                           
 14407                           	signat	_spi_transfer,4217
 14408                           	global	_ser_putch
 14409                           psect	text1132,local,class=CODE,delta=2
 14410                           global __ptext1132
 14411  1BFB                     __ptext1132:
 14412                           
 14413 ;; *************** function _ser_putch *****************
 14414 ;; Defined at:
 14415 ;;		line 70 in file "E:\Aldnoah.Zero\Assignment3\ser.c"
 14416 ;; Parameters:    Size  Location     Type
 14417 ;;  c               1    wreg     unsigned char 
 14418 ;; Auto vars:     Size  Location     Type
 14419 ;;  c               1    1[BANK0 ] unsigned char 
 14420 ;; Return value:  Size  Location     Type
 14421 ;;		None               void
 14422 ;; Registers used:
 14423 ;;		wreg, fsr0l, fsr0h, status,2, status,0
 14424 ;; Tracked objects:
 14425 ;;		On entry : 0/0
 14426 ;;		On exit  : 0/0
 14427 ;;		Unchanged: 0/0
 14428 ;; Data sizes:     COMMON   BANK0   BANK1   BANK3   BANK2
 14429 ;;      Params:         0       0       0       0       0
 14430 ;;      Locals:         0       1       0       0       0
 14431 ;;      Temps:          0       1       0       0       0
 14432 ;;      Totals:         0       2       0       0       0
 14433 ;;Total ram usage:        2 bytes
 14434 ;; Hardware stack levels used:    1
 14435 ;; Hardware stack levels required when called:    2
 14436 ;; This function calls:
 14437 ;;		Nothing
 14438 ;; This function is called by:
 14439 ;;		_GoHome
 14440 ;;		_FindVictim
 14441 ;;		_ChargeMode
 14442 ;;		_robo_init
 14443 ;;		_robot_read
 14444 ;;		_RobotDrive
 14445 ;;		_robotTurn
 14446 ;;		_robotFollow
 14447 ;;		_robot_turnInPlace
 14448 ;;		_RobotBattRead
 14449 ;;		_robotLoadSong
 14450 ;;		_ser_puts
 14451 ;;		_ser_puts2
 14452 ;;		_ser_puthex
 14453 ;; This function uses a non-reentrant model
 14454 ;;
 14455                           psect	text1132
 14456                           	file	"E:\Aldnoah.Zero\Assignment3\ser.c"
 14457                           	line	70
 14458                           	global	__size_of_ser_putch
 14459  002D                     	__size_of_ser_putch	equ	__end_of_ser_putch-_ser_putch
 14460                           	
 14461  1BFB                     _ser_putch:	
 14462                           	opt	stack 3
 14463                           ; Regs used in _ser_putch: [wreg-fsr0h+status,2+status,0]
 14464                           ;ser_putch@c stored from wreg
 14465  1BFB  1283               	bcf	status, 5	;RP0=0, select bank0
 14466  1BFC  1303               	bcf	status, 6	;RP1=0, select bank0
 14467  1BFD  00A1               	movwf	(ser_putch@c)
 14468                           	line	71
 14469                           	
 14470  1BFE                     l11065:	
 14471                           ;ser.c: 71: while (((txiptr+1) & (16-1))==txoptr)
 14472  1BFE  2C00               	goto	l11067
 14473                           	
 14474  1BFF                     l7052:	
 14475                           	line	72
 14476                           ;ser.c: 72: continue;
 14477  1BFF  2C00               	goto	l11067
 14478                           	
 14479  1C00                     l7051:	
 14480                           	line	71
 14481                           	
 14482  1C00                     l11067:	
 14483  1C00  1683               	bsf	status, 5	;RP0=1, select bank1
 14484  1C01  1303               	bcf	status, 6	;RP1=0, select bank1
 14485  1C02  0859               	movf	(_txiptr)^080h,w	;volatile
 14486  1C03  3E01               	addlw	01h
 14487  1C04  390F               	andlw	0Fh
 14488  1C05  065A               	xorwf	(_txoptr)^080h,w	;volatile
 14489  1C06  1903               	skipnz
 14490  1C07  2C09               	goto	u4241
 14491  1C08  2C0A               	goto	u4240
 14492  1C09                     u4241:
 14493  1C09  2C00               	goto	l11067
 14494  1C0A                     u4240:
 14495                           	
 14496  1C0A                     l7053:	
 14497                           	line	73
 14498                           ;ser.c: 73: GIE=0;
 14499  1C0A  138B               	bcf	(95/8),(95)&7
 14500                           	line	74
 14501                           	
 14502  1C0B                     l11069:	
 14503                           ;ser.c: 74: txfifo[txiptr] = c;
 14504  1C0B  1283               	bcf	status, 5	;RP0=0, select bank0
 14505  1C0C  1303               	bcf	status, 6	;RP1=0, select bank0
 14506  1C0D  0821               	movf	(ser_putch@c),w
 14507  1C0E  00A0               	movwf	(??_ser_putch+0)+0
 14508  1C0F  1683               	bsf	status, 5	;RP0=1, select bank1
 14509  1C10  1303               	bcf	status, 6	;RP1=0, select bank1
 14510  1C11  0859               	movf	(_txiptr)^080h,w
 14511  1C12  3EB0               	addlw	_txfifo&0ffh
 14512  1C13  0084               	movwf	fsr0
 14513  1C14  1283               	bcf	status, 5	;RP0=0, select bank0
 14514  1C15  1303               	bcf	status, 6	;RP1=0, select bank0
 14515  1C16  0820               	movf	(??_ser_putch+0)+0,w
 14516  1C17  1783               	bsf	status, 7	;select IRP bank3
 14517  1C18  0080               	movwf	indf
 14518                           	line	75
 14519                           	
 14520  1C19                     l11071:	
 14521                           ;ser.c: 75: txiptr=(txiptr+1) & (16-1);
 14522  1C19  1683               	bsf	status, 5	;RP0=1, select bank1
 14523  1C1A  1303               	bcf	status, 6	;RP1=0, select bank1
 14524  1C1B  0859               	movf	(_txiptr)^080h,w	;volatile
 14525  1C1C  3E01               	addlw	01h
 14526  1C1D  390F               	andlw	0Fh
 14527  1C1E  1283               	bcf	status, 5	;RP0=0, select bank0
 14528  1C1F  1303               	bcf	status, 6	;RP1=0, select bank0
 14529  1C20  00A0               	movwf	(??_ser_putch+0)+0
 14530  1C21  0820               	movf	(??_ser_putch+0)+0,w
 14531  1C22  1683               	bsf	status, 5	;RP0=1, select bank1
 14532  1C23  1303               	bcf	status, 6	;RP1=0, select bank1
 14533  1C24  00D9               	movwf	(_txiptr)^080h	;volatile
 14534                           	line	76
 14535                           	
 14536  1C25                     l11073:	
 14537                           ;ser.c: 76: TXIE=1;
 14538  1C25  160C               	bsf	(1124/8)^080h,(1124)&7
 14539                           	line	77
 14540                           	
 14541  1C26                     l11075:	
 14542                           ;ser.c: 77: GIE=1;
 14543  1C26  178B               	bsf	(95/8),(95)&7
 14544                           	line	78
 14545                           	
 14546  1C27                     l7054:	
 14547  1C27  0008               	return
 14548                           	opt stack 0
 14549                           GLOBAL	__end_of_ser_putch
 14550  1C28                     	__end_of_ser_putch:
 14551 ;; =============== function _ser_putch ends ============
 14552                           
 14553                           	signat	_ser_putch,4216
 14554                           	global	_Menu
 14555                           psect	text1133,local,class=CODE,delta=2
 14556                           global __ptext1133
 14557  07B6                     __ptext1133:
 14558                           
 14559 ;; *************** function _Menu *****************
 14560 ;; Defined at:
 14561 ;;		line 100 in file "E:\Aldnoah.Zero\Assignment3\HMI.c"
 14562 ;; Parameters:    Size  Location     Type
 14563 ;;  BTN_input       1    wreg     unsigned char 
 14564 ;; Auto vars:     Size  Location     Type
 14565 ;;  BTN_input       1    0[BANK0 ] unsigned char 
 14566 ;; Return value:  Size  Location     Type
 14567 ;;                  1    wreg      unsigned char 
 14568 ;; Registers used:
 14569 ;;		wreg, fsr0l, fsr0h, status,2, status,0
 14570 ;; Tracked objects:
 14571 ;;		On entry : 0/0
 14572 ;;		On exit  : 0/0
 14573 ;;		Unchanged: 0/0
 14574 ;; Data sizes:     COMMON   BANK0   BANK1   BANK3   BANK2
 14575 ;;      Params:         0       0       0       0       0
 14576 ;;      Locals:         0       1       0       0       0
 14577 ;;      Temps:          0       0       0       0       0
 14578 ;;      Totals:         0       1       0       0       0
 14579 ;;Total ram usage:        1 bytes
 14580 ;; Hardware stack levels used:    1
 14581 ;; Hardware stack levels required when called:    2
 14582 ;; This function calls:
 14583 ;;		Nothing
 14584 ;; This function is called by:
 14585 ;;		_main
 14586 ;; This function uses a non-reentrant model
 14587 ;;
 14588                           psect	text1133
 14589                           	file	"E:\Aldnoah.Zero\Assignment3\HMI.c"
 14590                           	line	100
 14591                           	global	__size_of_Menu
 14592  0047                     	__size_of_Menu	equ	__end_of_Menu-_Menu
 14593                           	
 14594  07B6                     _Menu:	
 14595                           	opt	stack 5
 14596                           ; Regs used in _Menu: [wreg-fsr0h+status,2+status,0]
 14597                           ;Menu@BTN_input stored from wreg
 14598  07B6  1283               	bcf	status, 5	;RP0=0, select bank0
 14599  07B7  1303               	bcf	status, 6	;RP1=0, select bank0
 14600  07B8  00A0               	movwf	(Menu@BTN_input)
 14601                           	line	101
 14602                           	
 14603  07B9                     l11041:	
 14604                           ;HMI.c: 101: switch (BTN_input)
 14605  07B9  2FE8               	goto	l11059
 14606                           	line	103
 14607                           ;HMI.c: 102: {
 14608                           ;HMI.c: 103: case 1:
 14609                           	
 14610  07BA                     l4648:	
 14611                           	line	105
 14612                           ;HMI.c: 105: break;
 14613  07BA  2FFA               	goto	l11061
 14614                           	line	106
 14615                           ;HMI.c: 106: case 2:
 14616                           	
 14617  07BB                     l4650:	
 14618                           	line	108
 14619                           ;HMI.c: 108: break;
 14620  07BB  2FFA               	goto	l11061
 14621                           	line	109
 14622                           ;HMI.c: 109: case 3:
 14623                           	
 14624  07BC                     l4651:	
 14625                           	line	110
 14626                           	
 14627  07BC                     l11043:	
 14628                           ;HMI.c: 110: pos--;
 14629  07BC  30FF               	movlw	low(-1)
 14630  07BD  1683               	bsf	status, 5	;RP0=1, select bank1
 14631  07BE  1303               	bcf	status, 6	;RP1=0, select bank1
 14632  07BF  07B8               	addwf	(_pos)^080h,f
 14633  07C0  1803               	skipnc
 14634  07C1  0AB9               	incf	(_pos+1)^080h,f
 14635  07C2  30FF               	movlw	high(-1)
 14636  07C3  07B9               	addwf	(_pos+1)^080h,f
 14637                           	line	111
 14638                           	
 14639  07C4                     l11045:	
 14640                           ;HMI.c: 111: if (pos < 0)
 14641  07C4  1FB9               	btfss	(_pos+1)^080h,7
 14642  07C5  2FC7               	goto	u4221
 14643  07C6  2FC8               	goto	u4220
 14644  07C7                     u4221:
 14645  07C7  2FFA               	goto	l11061
 14646  07C8                     u4220:
 14647                           	line	112
 14648                           	
 14649  07C8                     l11047:	
 14650                           ;HMI.c: 112: pos = 6 - 1;
 14651  07C8  3005               	movlw	low(05h)
 14652  07C9  00B8               	movwf	(_pos)^080h
 14653  07CA  3000               	movlw	high(05h)
 14654  07CB  00B9               	movwf	((_pos)^080h)+1
 14655  07CC  2FFA               	goto	l11061
 14656                           	
 14657  07CD                     l4652:	
 14658                           	line	114
 14659                           ;HMI.c: 114: break;
 14660  07CD  2FFA               	goto	l11061
 14661                           	line	115
 14662                           ;HMI.c: 115: case 4:
 14663                           	
 14664  07CE                     l4653:	
 14665                           	line	116
 14666                           	
 14667  07CE                     l11049:	
 14668                           ;HMI.c: 116: pos++;
 14669  07CE  3001               	movlw	low(01h)
 14670  07CF  1683               	bsf	status, 5	;RP0=1, select bank1
 14671  07D0  1303               	bcf	status, 6	;RP1=0, select bank1
 14672  07D1  07B8               	addwf	(_pos)^080h,f
 14673  07D2  1803               	skipnc
 14674  07D3  0AB9               	incf	(_pos+1)^080h,f
 14675  07D4  3000               	movlw	high(01h)
 14676  07D5  07B9               	addwf	(_pos+1)^080h,f
 14677                           	line	117
 14678                           ;HMI.c: 117: if (pos == 6)
 14679  07D6  3006               	movlw	06h
 14680  07D7  0638               	xorwf	(_pos)^080h,w
 14681  07D8  0439               	iorwf	(_pos+1)^080h,w
 14682  07D9  1D03               	skipz
 14683  07DA  2FDC               	goto	u4231
 14684  07DB  2FDD               	goto	u4230
 14685  07DC                     u4231:
 14686  07DC  2FFA               	goto	l11061
 14687  07DD                     u4230:
 14688                           	line	118
 14689                           	
 14690  07DD                     l11051:	
 14691                           ;HMI.c: 118: pos = 0;
 14692  07DD  01B8               	clrf	(_pos)^080h
 14693  07DE  01B9               	clrf	(_pos+1)^080h
 14694  07DF  2FFA               	goto	l11061
 14695                           	
 14696  07E0                     l4654:	
 14697                           	line	120
 14698                           ;HMI.c: 120: break;
 14699  07E0  2FFA               	goto	l11061
 14700                           	line	121
 14701                           ;HMI.c: 121: case 5:
 14702                           	
 14703  07E1                     l4655:	
 14704                           	line	122
 14705                           	
 14706  07E1                     l11053:	
 14707                           ;HMI.c: 122: return pos;
 14708  07E1  1683               	bsf	status, 5	;RP0=1, select bank1
 14709  07E2  1303               	bcf	status, 6	;RP1=0, select bank1
 14710  07E3  0838               	movf	(_pos)^080h,w
 14711  07E4  2FFC               	goto	l4656
 14712                           	
 14713  07E5                     l11055:	
 14714  07E5  2FFC               	goto	l4656
 14715                           	line	125
 14716                           ;HMI.c: 125: default:
 14717                           	
 14718  07E6                     l4657:	
 14719                           	line	127
 14720                           ;HMI.c: 127: break;
 14721  07E6  2FFA               	goto	l11061
 14722                           	line	128
 14723                           	
 14724  07E7                     l11057:	
 14725                           ;HMI.c: 128: }
 14726  07E7  2FFA               	goto	l11061
 14727                           	line	101
 14728                           	
 14729  07E8                     l4647:	
 14730                           	
 14731  07E8                     l11059:	
 14732  07E8  1283               	bcf	status, 5	;RP0=0, select bank0
 14733  07E9  0820               	movf	(Menu@BTN_input),w
 14734                           	; Switch size 1, requested type "space"
 14735                           ; Number of cases is 5, Range of values is 1 to 5
 14736                           ; switch strategies available:
 14737                           ; Name         Instructions Cycles
 14738                           ; simple_byte           16     9 (average)
 14739                           ; direct_byte           26    11 (fixed)
 14740                           ; jumptable            263     9 (fixed)
 14741                           ;	Chosen strategy is simple_byte
 14742                           
 14743                           	opt asmopt_off
 14744  07EA  3A01               	xorlw	1^0	; case 1
 14745  07EB  1903               	skipnz
 14746  07EC  2FFA               	goto	l11061
 14747  07ED  3A03               	xorlw	2^1	; case 2
 14748  07EE  1903               	skipnz
 14749  07EF  2FFA               	goto	l11061
 14750  07F0  3A01               	xorlw	3^2	; case 3
 14751  07F1  1903               	skipnz
 14752  07F2  2FBC               	goto	l11043
 14753  07F3  3A07               	xorlw	4^3	; case 4
 14754  07F4  1903               	skipnz
 14755  07F5  2FCE               	goto	l11049
 14756  07F6  3A01               	xorlw	5^4	; case 5
 14757  07F7  1903               	skipnz
 14758  07F8  2FE1               	goto	l11053
 14759  07F9  2FFA               	goto	l11061
 14760                           	opt asmopt_on
 14761                           
 14762                           	line	128
 14763                           	
 14764  07FA                     l4649:	
 14765                           	line	129
 14766                           	
 14767  07FA                     l11061:	
 14768                           ;HMI.c: 129: return 255;
 14769  07FA  30FF               	movlw	(0FFh)
 14770  07FB  2FFC               	goto	l4656
 14771                           	
 14772  07FC                     l11063:	
 14773                           	line	130
 14774                           	
 14775  07FC                     l4656:	
 14776  07FC  0008               	return
 14777                           	opt stack 0
 14778                           GLOBAL	__end_of_Menu
 14779  07FD                     	__end_of_Menu:
 14780 ;; =============== function _Menu ends ============
 14781                           
 14782                           	signat	_Menu,4217
 14783                           	global	_ser_init
 14784                           psect	text1134,local,class=CODE,delta=2
 14785                           global __ptext1134
 14786  1B22                     __ptext1134:
 14787                           
 14788 ;; *************** function _ser_init *****************
 14789 ;; Defined at:
 14790 ;;		line 113 in file "E:\Aldnoah.Zero\Assignment3\ser.c"
 14791 ;; Parameters:    Size  Location     Type
 14792 ;;		None
 14793 ;; Auto vars:     Size  Location     Type
 14794 ;;		None
 14795 ;; Return value:  Size  Location     Type
 14796 ;;		None               void
 14797 ;; Registers used:
 14798 ;;		wreg, status,2, status,0
 14799 ;; Tracked objects:
 14800 ;;		On entry : 0/0
 14801 ;;		On exit  : 0/0
 14802 ;;		Unchanged: 0/0
 14803 ;; Data sizes:     COMMON   BANK0   BANK1   BANK3   BANK2
 14804 ;;      Params:         0       0       0       0       0
 14805 ;;      Locals:         0       0       0       0       0
 14806 ;;      Temps:          0       1       0       0       0
 14807 ;;      Totals:         0       1       0       0       0
 14808 ;;Total ram usage:        1 bytes
 14809 ;; Hardware stack levels used:    1
 14810 ;; Hardware stack levels required when called:    2
 14811 ;; This function calls:
 14812 ;;		Nothing
 14813 ;; This function is called by:
 14814 ;;		_init
 14815 ;; This function uses a non-reentrant model
 14816 ;;
 14817                           psect	text1134
 14818                           	file	"E:\Aldnoah.Zero\Assignment3\ser.c"
 14819                           	line	113
 14820                           	global	__size_of_ser_init
 14821  002A                     	__size_of_ser_init	equ	__end_of_ser_init-_ser_init
 14822                           	
 14823  1B22                     _ser_init:	
 14824                           	opt	stack 4
 14825                           ; Regs used in _ser_init: [wreg+status,2+status,0]
 14826                           	line	114
 14827                           	
 14828  1B22                     l11015:	
 14829                           ;ser.c: 114: TRISC |= 0b10000000;
 14830  1B22  1683               	bsf	status, 5	;RP0=1, select bank1
 14831  1B23  1303               	bcf	status, 6	;RP1=0, select bank1
 14832  1B24  1787               	bsf	(135)^080h+(7/8),(7)&7	;volatile
 14833                           	line	115
 14834                           	
 14835  1B25                     l11017:	
 14836                           ;ser.c: 115: TRISC &= 0b10111111;
 14837  1B25  30BF               	movlw	(0BFh)
 14838  1B26  1283               	bcf	status, 5	;RP0=0, select bank0
 14839  1B27  1303               	bcf	status, 6	;RP1=0, select bank0
 14840  1B28  00A0               	movwf	(??_ser_init+0)+0
 14841  1B29  0820               	movf	(??_ser_init+0)+0,w
 14842  1B2A  1683               	bsf	status, 5	;RP0=1, select bank1
 14843  1B2B  1303               	bcf	status, 6	;RP1=0, select bank1
 14844  1B2C  0587               	andwf	(135)^080h,f	;volatile
 14845                           	line	116
 14846                           	
 14847  1B2D                     l11019:	
 14848                           ;ser.c: 116: BRGH=1;
 14849  1B2D  1518               	bsf	(1218/8)^080h,(1218)&7
 14850                           	line	118
 14851                           	
 14852  1B2E                     l11021:	
 14853                           ;ser.c: 118: SPBRG=20;
 14854  1B2E  3014               	movlw	(014h)
 14855  1B2F  0099               	movwf	(153)^080h	;volatile
 14856                           	line	121
 14857                           	
 14858  1B30                     l11023:	
 14859                           ;ser.c: 121: TX9=0;
 14860  1B30  1318               	bcf	(1222/8)^080h,(1222)&7
 14861                           	line	122
 14862                           	
 14863  1B31                     l11025:	
 14864                           ;ser.c: 122: RX9=0;
 14865  1B31  1283               	bcf	status, 5	;RP0=0, select bank0
 14866  1B32  1303               	bcf	status, 6	;RP1=0, select bank0
 14867  1B33  1318               	bcf	(198/8),(198)&7
 14868                           	line	124
 14869                           	
 14870  1B34                     l11027:	
 14871                           ;ser.c: 124: SYNC=0;
 14872  1B34  1683               	bsf	status, 5	;RP0=1, select bank1
 14873  1B35  1303               	bcf	status, 6	;RP1=0, select bank1
 14874  1B36  1218               	bcf	(1220/8)^080h,(1220)&7
 14875                           	line	125
 14876                           	
 14877  1B37                     l11029:	
 14878                           ;ser.c: 125: SPEN=1;
 14879  1B37  1283               	bcf	status, 5	;RP0=0, select bank0
 14880  1B38  1303               	bcf	status, 6	;RP1=0, select bank0
 14881  1B39  1798               	bsf	(199/8),(199)&7
 14882                           	line	126
 14883                           	
 14884  1B3A                     l11031:	
 14885                           ;ser.c: 126: CREN=1;
 14886  1B3A  1618               	bsf	(196/8),(196)&7
 14887                           	line	127
 14888                           	
 14889  1B3B                     l11033:	
 14890                           ;ser.c: 127: TXIE=0;
 14891  1B3B  1683               	bsf	status, 5	;RP0=1, select bank1
 14892  1B3C  1303               	bcf	status, 6	;RP1=0, select bank1
 14893  1B3D  120C               	bcf	(1124/8)^080h,(1124)&7
 14894                           	line	128
 14895                           	
 14896  1B3E                     l11035:	
 14897                           ;ser.c: 128: RCIE=1;
 14898  1B3E  168C               	bsf	(1125/8)^080h,(1125)&7
 14899                           	line	129
 14900                           	
 14901  1B3F                     l11037:	
 14902                           ;ser.c: 129: TXEN=1;
 14903  1B3F  1698               	bsf	(1221/8)^080h,(1221)&7
 14904                           	line	132
 14905                           	
 14906  1B40                     l11039:	
 14907                           ;ser.c: 132: rxiptr=rxoptr=txiptr=txoptr=0;
 14908  1B40  3000               	movlw	(0)
 14909  1B41  00DA               	movwf	(_txoptr)^080h	;volatile
 14910  1B42  00D9               	movwf	(_txiptr)^080h	;volatile
 14911  1B43  00D5               	movwf	(_rxoptr)^080h	;volatile
 14912  1B44  1283               	bcf	status, 5	;RP0=0, select bank0
 14913  1B45  1303               	bcf	status, 6	;RP1=0, select bank0
 14914  1B46  00A0               	movwf	(??_ser_init+0)+0
 14915  1B47  0820               	movf	(??_ser_init+0)+0,w
 14916  1B48  1683               	bsf	status, 5	;RP0=1, select bank1
 14917  1B49  1303               	bcf	status, 6	;RP1=0, select bank1
 14918  1B4A  00D4               	movwf	(_rxiptr)^080h	;volatile
 14919                           	line	133
 14920                           	
 14921  1B4B                     l7076:	
 14922  1B4B  0008               	return
 14923                           	opt stack 0
 14924                           GLOBAL	__end_of_ser_init
 14925  1B4C                     	__end_of_ser_init:
 14926 ;; =============== function _ser_init ends ============
 14927                           
 14928                           	signat	_ser_init,88
 14929                           	global	_adc_read
 14930                           psect	text1135,local,class=CODE,delta=2
 14931                           global __ptext1135
 14932  1AF9                     __ptext1135:
 14933                           
 14934 ;; *************** function _adc_read *****************
 14935 ;; Defined at:
 14936 ;;		line 76 in file "E:\Aldnoah.Zero\Assignment3\adc.c"
 14937 ;; Parameters:    Size  Location     Type
 14938 ;;		None
 14939 ;; Auto vars:     Size  Location     Type
 14940 ;;  adc_value       2    4[BANK0 ] volatile unsigned int 
 14941 ;; Return value:  Size  Location     Type
 14942 ;;                  2    0[BANK0 ] unsigned int 
 14943 ;; Registers used:
 14944 ;;		wreg, status,2, status,0
 14945 ;; Tracked objects:
 14946 ;;		On entry : 0/0
 14947 ;;		On exit  : 0/0
 14948 ;;		Unchanged: 0/0
 14949 ;; Data sizes:     COMMON   BANK0   BANK1   BANK3   BANK2
 14950 ;;      Params:         0       2       0       0       0
 14951 ;;      Locals:         0       2       0       0       0
 14952 ;;      Temps:          0       2       0       0       0
 14953 ;;      Totals:         0       6       0       0       0
 14954 ;;Total ram usage:        6 bytes
 14955 ;; Hardware stack levels used:    1
 14956 ;; Hardware stack levels required when called:    2
 14957 ;; This function calls:
 14958 ;;		Nothing
 14959 ;; This function is called by:
 14960 ;;		_adc_read_channel
 14961 ;; This function uses a non-reentrant model
 14962 ;;
 14963                           psect	text1135
 14964                           	file	"E:\Aldnoah.Zero\Assignment3\adc.c"
 14965                           	line	76
 14966                           	global	__size_of_adc_read
 14967  0029                     	__size_of_adc_read	equ	__end_of_adc_read-_adc_read
 14968                           	
 14969  1AF9                     _adc_read:	
 14970                           	opt	stack 0
 14971                           ; Regs used in _adc_read: [wreg+status,2+status,0]
 14972                           	line	79
 14973                           	
 14974  1AF9                     l10857:	
 14975                           ;adc.c: 77: volatile unsigned int adc_value;
 14976                           ;adc.c: 79: ADRESH = 0;
 14977  1AF9  1283               	bcf	status, 5	;RP0=0, select bank0
 14978  1AFA  1303               	bcf	status, 6	;RP1=0, select bank0
 14979  1AFB  019E               	clrf	(30)	;volatile
 14980                           	line	81
 14981                           	
 14982  1AFC                     l10859:	
 14983                           ;adc.c: 81: GO = 1;
 14984  1AFC  151F               	bsf	(250/8),(250)&7
 14985                           	line	82
 14986                           ;adc.c: 82: while(GO) continue;
 14987  1AFD  2AFE               	goto	l703
 14988                           	
 14989  1AFE                     l704:	
 14990                           	
 14991  1AFE                     l703:	
 14992  1AFE  191F               	btfsc	(250/8),(250)&7
 14993  1AFF  2B01               	goto	u3881
 14994  1B00  2B02               	goto	u3880
 14995  1B01                     u3881:
 14996  1B01  2AFE               	goto	l703
 14997  1B02                     u3880:
 14998                           	
 14999  1B02                     l705:	
 15000                           	line	83
 15001                           # 83 "E:\Aldnoah.Zero\Assignment3\adc.c"
 15002  1B02  0000               nop ;#
 15003                           	line	84
 15004                           # 84 "E:\Aldnoah.Zero\Assignment3\adc.c"
 15005  1B03  0000               nop ;#
 15006                           	line	85
 15007                           # 85 "E:\Aldnoah.Zero\Assignment3\adc.c"
 15008  1B04  0000               nop ;#
 15009                           psect	text1135
 15010                           	line	88
 15011                           	
 15012  1B05                     l10861:	
 15013                           ;adc.c: 88: adc_value = ADRESH;
 15014  1B05  1283               	bcf	status, 5	;RP0=0, select bank0
 15015  1B06  1303               	bcf	status, 6	;RP1=0, select bank0
 15016  1B07  081E               	movf	(30),w	;volatile
 15017  1B08  00A2               	movwf	(??_adc_read+0)+0
 15018  1B09  01A3               	clrf	(??_adc_read+0)+0+1
 15019  1B0A  0822               	movf	0+(??_adc_read+0)+0,w
 15020  1B0B  00A4               	movwf	(adc_read@adc_value)	;volatile
 15021  1B0C  0823               	movf	1+(??_adc_read+0)+0,w
 15022  1B0D  00A5               	movwf	(adc_read@adc_value+1)	;volatile
 15023                           	line	89
 15024                           ;adc.c: 89: adc_value <<= 1;
 15025  1B0E  3001               	movlw	01h
 15026                           	
 15027  1B0F                     u3895:
 15028  1B0F  1003               	clrc
 15029  1B10  0DA4               	rlf	(adc_read@adc_value),f	;volatile
 15030  1B11  0DA5               	rlf	(adc_read@adc_value+1),f	;volatile
 15031  1B12  3EFF               	addlw	-1
 15032  1B13  1D03               	skipz
 15033  1B14  2B0F               	goto	u3895
 15034                           	line	90
 15035                           ;adc.c: 90: adc_value |= (ADRESL >> 15);
 15036  1B15  1683               	bsf	status, 5	;RP0=1, select bank1
 15037  1B16  1303               	bcf	status, 6	;RP1=0, select bank1
 15038  1B17  081E               	movf	(158)^080h,w	;volatile
 15039                           	line	93
 15040                           	
 15041  1B18                     l10863:	
 15042                           ;adc.c: 93: return (adc_value);
 15043  1B18  1283               	bcf	status, 5	;RP0=0, select bank0
 15044  1B19  1303               	bcf	status, 6	;RP1=0, select bank0
 15045  1B1A  0825               	movf	(adc_read@adc_value+1),w	;volatile
 15046  1B1B  01A1               	clrf	(?_adc_read+1)
 15047  1B1C  07A1               	addwf	(?_adc_read+1)
 15048  1B1D  0824               	movf	(adc_read@adc_value),w	;volatile
 15049  1B1E  01A0               	clrf	(?_adc_read)
 15050  1B1F  07A0               	addwf	(?_adc_read)
 15051                           
 15052  1B20  2B21               	goto	l706
 15053                           	
 15054  1B21                     l10865:	
 15055                           	line	94
 15056                           	
 15057  1B21                     l706:	
 15058  1B21  0008               	return
 15059                           	opt stack 0
 15060                           GLOBAL	__end_of_adc_read
 15061  1B22                     	__end_of_adc_read:
 15062 ;; =============== function _adc_read ends ============
 15063                           
 15064                           	signat	_adc_read,90
 15065                           	global	_isr1
 15066                           psect	text1136,local,class=CODE,delta=2
 15067                           global __ptext1136
 15068  12E9                     __ptext1136:
 15069                           
 15070 ;; *************** function _isr1 *****************
 15071 ;; Defined at:
 15072 ;;		line 109 in file "E:\Aldnoah.Zero\Assignment3\Main.c"
 15073 ;; Parameters:    Size  Location     Type
 15074 ;;		None
 15075 ;; Auto vars:     Size  Location     Type
 15076 ;;		None
 15077 ;; Return value:  Size  Location     Type
 15078 ;;		None               void
 15079 ;; Registers used:
 15080 ;;		wreg, fsr0l, fsr0h, status,2, status,0, pclath, cstack
 15081 ;; Tracked objects:
 15082 ;;		On entry : 0/0
 15083 ;;		On exit  : 0/0
 15084 ;;		Unchanged: 0/0
 15085 ;; Data sizes:     COMMON   BANK0   BANK1   BANK3   BANK2
 15086 ;;      Params:         0       0       0       0       0
 15087 ;;      Locals:         0       0       0       0       0
 15088 ;;      Temps:          5       0       0       0       0
 15089 ;;      Totals:         5       0       0       0       0
 15090 ;;Total ram usage:        5 bytes
 15091 ;; Hardware stack levels used:    1
 15092 ;; Hardware stack levels required when called:    1
 15093 ;; This function calls:
 15094 ;;		i1___lwmod
 15095 ;;		_ReadButtons
 15096 ;; This function is called by:
 15097 ;;		Interrupt level 1
 15098 ;; This function uses a non-reentrant model
 15099 ;;
 15100                           psect	text1136
 15101                           	file	"E:\Aldnoah.Zero\Assignment3\Main.c"
 15102                           	line	109
 15103                           	global	__size_of_isr1
 15104  00AA                     	__size_of_isr1	equ	__end_of_isr1-_isr1
 15105                           	
 15106  12E9                     _isr1:	
 15107                           	opt	stack 0
 15108                           ; Regs used in _isr1: [wreg-fsr0h+status,2+status,0+pclath+cstack]
 15109                           psect	intentry,class=CODE,delta=2
 15110                           global __pintentry
 15111  0004                     __pintentry:
 15112                           global interrupt_function
 15113  0004                     interrupt_function:
 15114                           	global saved_w
 15115  007E                     	saved_w	set	btemp+0
 15116  0004  00FE               	movwf	saved_w
 15117  0005  0E03               	swapf	status,w
 15118  0006  00F9               	movwf	(??_isr1+1)
 15119  0007  0804               	movf	fsr0,w
 15120  0008  00FA               	movwf	(??_isr1+2)
 15121  0009  080A               	movf	pclath,w
 15122  000A  00FB               	movwf	(??_isr1+3)
 15123  000B  1283               	bcf	status, 5	;RP0=0, select bank0
 15124  000C  1303               	bcf	status, 6	;RP1=0, select bank0
 15125  000D  087F               	movf	btemp+1,w
 15126  000E  00FC               	movwf	(??_isr1+4)
 15127  000F  160A  118A  2AE9   	ljmp	_isr1
 15128                           psect	text1136
 15129                           	line	110
 15130                           	
 15131  12E9                     i1l10893:	
 15132                           ;Main.c: 110: if(TMR0IF)
 15133  12E9  1D0B               	btfss	(90/8),(90)&7
 15134  12EA  2AEC               	goto	u393_21
 15135  12EB  2AED               	goto	u393_20
 15136  12EC                     u393_21:
 15137  12EC  2B40               	goto	i1l10915
 15138  12ED                     u393_20:
 15139                           	line	112
 15140                           	
 15141  12ED                     i1l10895:	
 15142                           ;Main.c: 111: {
 15143                           ;Main.c: 112: TMR0IF = 0;
 15144  12ED  110B               	bcf	(90/8),(90)&7
 15145                           	line	113
 15146                           	
 15147  12EE                     i1l10897:	
 15148                           ;Main.c: 113: TMR0 = 100;
 15149  12EE  3064               	movlw	(064h)
 15150  12EF  0081               	movwf	(1)	;volatile
 15151                           	line	115
 15152                           ;Main.c: 115: RTC_Counter++;
 15153  12F0  3001               	movlw	low(01h)
 15154  12F1  1683               	bsf	status, 5	;RP0=1, select bank1
 15155  12F2  1303               	bcf	status, 6	;RP1=0, select bank1
 15156  12F3  07AA               	addwf	(_RTC_Counter)^080h,f	;volatile
 15157  12F4  1803               	skipnc
 15158  12F5  0AAB               	incf	(_RTC_Counter+1)^080h,f	;volatile
 15159  12F6  3000               	movlw	high(01h)
 15160  12F7  07AB               	addwf	(_RTC_Counter+1)^080h,f	;volatile
 15161                           	line	118
 15162                           	
 15163  12F8                     i1l10899:	
 15164                           ;Main.c: 118: RTC_FLAG_1MS = 1;
 15165  12F8  1770               	bsf	(_RTC_FLAG_1MS/8),(_RTC_FLAG_1MS)&7
 15166                           	line	119
 15167                           	
 15168  12F9                     i1l10901:	
 15169                           ;Main.c: 119: if(RTC_Counter % 250 == 0)
 15170  12F9  30FA               	movlw	low(0FAh)
 15171  12FA  00F2               	movwf	(?i1___lwmod)
 15172  12FB  3000               	movlw	high(0FAh)
 15173  12FC  00F3               	movwf	((?i1___lwmod))+1
 15174  12FD  082B               	movf	(_RTC_Counter+1)^080h,w	;volatile
 15175  12FE  01F5               	clrf	1+(?i1___lwmod)+02h
 15176  12FF  07F5               	addwf	1+(?i1___lwmod)+02h
 15177  1300  082A               	movf	(_RTC_Counter)^080h,w	;volatile
 15178  1301  01F4               	clrf	0+(?i1___lwmod)+02h
 15179  1302  07F4               	addwf	0+(?i1___lwmod)+02h
 15180                           
 15181  1303  160A  158A  2500   	fcall	i1___lwmod
              160A  118A         
 15182  1308  0873               	movf	((1+(?i1___lwmod))),w
 15183  1309  0472               	iorwf	((0+(?i1___lwmod))),w
 15184  130A  1D03               	skipz
 15185  130B  2B0D               	goto	u394_21
 15186  130C  2B0E               	goto	u394_20
 15187  130D                     u394_21:
 15188  130D  2B10               	goto	i1l10905
 15189  130E                     u394_20:
 15190                           	line	121
 15191                           	
 15192  130E                     i1l10903:	
 15193                           ;Main.c: 120: {
 15194                           ;Main.c: 121: RTC_FLAG_250MS = 1;
 15195  130E  17F0               	bsf	(_RTC_FLAG_250MS/8),(_RTC_FLAG_250MS)&7
 15196  130F  2B10               	goto	i1l10905
 15197                           	line	122
 15198                           	
 15199  1310                     i1l2281:	
 15200                           	line	123
 15201                           	
 15202  1310                     i1l10905:	
 15203                           ;Main.c: 122: }
 15204                           ;Main.c: 123: if(RTC_Counter % 500 == 0)
 15205  1310  30F4               	movlw	low(01F4h)
 15206  1311  00F2               	movwf	(?i1___lwmod)
 15207  1312  3001               	movlw	high(01F4h)
 15208  1313  00F3               	movwf	((?i1___lwmod))+1
 15209  1314  1683               	bsf	status, 5	;RP0=1, select bank1
 15210  1315  1303               	bcf	status, 6	;RP1=0, select bank1
 15211  1316  082B               	movf	(_RTC_Counter+1)^080h,w	;volatile
 15212  1317  01F5               	clrf	1+(?i1___lwmod)+02h
 15213  1318  07F5               	addwf	1+(?i1___lwmod)+02h
 15214  1319  082A               	movf	(_RTC_Counter)^080h,w	;volatile
 15215  131A  01F4               	clrf	0+(?i1___lwmod)+02h
 15216  131B  07F4               	addwf	0+(?i1___lwmod)+02h
 15217                           
 15218  131C  160A  158A  2500   	fcall	i1___lwmod
              160A  118A         
 15219  1321  0873               	movf	((1+(?i1___lwmod))),w
 15220  1322  0472               	iorwf	((0+(?i1___lwmod))),w
 15221  1323  1D03               	skipz
 15222  1324  2B26               	goto	u395_21
 15223  1325  2B27               	goto	u395_20
 15224  1326                     u395_21:
 15225  1326  2B2D               	goto	i1l10911
 15226  1327                     u395_20:
 15227                           	line	125
 15228                           	
 15229  1327                     i1l10907:	
 15230                           ;Main.c: 124: {
 15231                           ;Main.c: 125: RTC_FLAG_500MS = 1;
 15232  1327  1471               	bsf	(_RTC_FLAG_500MS/8),(_RTC_FLAG_500MS)&7
 15233                           	line	126
 15234                           	
 15235  1328                     i1l10909:	
 15236                           ;Main.c: 126: RB0 ^= 0x01;
 15237  1328  1283               	bcf	status, 5	;RP0=0, select bank0
 15238  1329  1303               	bcf	status, 6	;RP1=0, select bank0
 15239  132A  3001               	movlw	1<<((48)&7)
 15240  132B  0686               	xorwf	((48)/8),f
 15241  132C  2B2D               	goto	i1l10911
 15242                           	line	127
 15243                           	
 15244  132D                     i1l2282:	
 15245                           	line	128
 15246                           	
 15247  132D                     i1l10911:	
 15248                           ;Main.c: 127: }
 15249                           ;Main.c: 128: if (buttonPressed == 0)
 15250  132D  1683               	bsf	status, 5	;RP0=1, select bank1
 15251  132E  1303               	bcf	status, 6	;RP1=0, select bank1
 15252  132F  08CF               	movf	(_buttonPressed)^080h,f
 15253  1330  1D03               	skipz	;volatile
 15254  1331  2B33               	goto	u396_21
 15255  1332  2B34               	goto	u396_20
 15256  1333                     u396_21:
 15257  1333  2B40               	goto	i1l10915
 15258  1334                     u396_20:
 15259                           	line	130
 15260                           	
 15261  1334                     i1l10913:	
 15262                           ;Main.c: 129: {
 15263                           ;Main.c: 130: buttonPressed = ReadButtons();
 15264  1334  160A  118A  2393   	fcall	_ReadButtons
              160A  118A         
 15265  1339  00F8               	movwf	(??_isr1+0)+0
 15266  133A  0878               	movf	(??_isr1+0)+0,w
 15267  133B  1683               	bsf	status, 5	;RP0=1, select bank1
 15268  133C  1303               	bcf	status, 6	;RP1=0, select bank1
 15269  133D  00CF               	movwf	(_buttonPressed)^080h	;volatile
 15270  133E  2B40               	goto	i1l10915
 15271                           	line	131
 15272                           	
 15273  133F                     i1l2283:	
 15274  133F  2B40               	goto	i1l10915
 15275                           	line	132
 15276                           	
 15277  1340                     i1l2280:	
 15278                           	line	133
 15279                           	
 15280  1340                     i1l10915:	
 15281                           ;Main.c: 131: }
 15282                           ;Main.c: 132: }
 15283                           ;Main.c: 133: if (RCIF) { rxfifo[rxiptr]=RCREG; ser_tmp=(rxiptr+1) & (16-1); if (ser_tmp
                                 !=rxoptr) rxiptr=ser_tmp; } if (TXIF && TXIE) { TXREG = txfifo[txoptr]; ++txoptr; txoptr
                                  &= (16-1); if (txoptr==txiptr) { TXIE = 0; } };
 15284  1340  1283               	bcf	status, 5	;RP0=0, select bank0
 15285  1341  1E8C               	btfss	(101/8),(101)&7
 15286  1342  2B44               	goto	u397_21
 15287  1343  2B45               	goto	u397_20
 15288  1344                     u397_21:
 15289  1344  2B61               	goto	i1l10925
 15290  1345                     u397_20:
 15291                           	
 15292  1345                     i1l10917:	
 15293  1345  081A               	movf	(26),w	;volatile
 15294  1346  00F8               	movwf	(??_isr1+0)+0
 15295  1347  1683               	bsf	status, 5	;RP0=1, select bank1
 15296  1348  1303               	bcf	status, 6	;RP1=0, select bank1
 15297  1349  0854               	movf	(_rxiptr)^080h,w
 15298  134A  3EA0               	addlw	_rxfifo&0ffh
 15299  134B  0084               	movwf	fsr0
 15300  134C  0878               	movf	(??_isr1+0)+0,w
 15301  134D  1783               	bsf	status, 7	;select IRP bank3
 15302  134E  0080               	movwf	indf
 15303                           	
 15304  134F                     i1l10919:	
 15305  134F  0854               	movf	(_rxiptr)^080h,w	;volatile
 15306  1350  3E01               	addlw	01h
 15307  1351  390F               	andlw	0Fh
 15308  1352  00F8               	movwf	(??_isr1+0)+0
 15309  1353  0878               	movf	(??_isr1+0)+0,w
 15310  1354  00D6               	movwf	(_ser_tmp)^080h
 15311                           	
 15312  1355                     i1l10921:	
 15313  1355  0856               	movf	(_ser_tmp)^080h,w
 15314  1356  0655               	xorwf	(_rxoptr)^080h,w	;volatile
 15315  1357  1903               	skipnz
 15316  1358  2B5A               	goto	u398_21
 15317  1359  2B5B               	goto	u398_20
 15318  135A                     u398_21:
 15319  135A  2B61               	goto	i1l10925
 15320  135B                     u398_20:
 15321                           	
 15322  135B                     i1l10923:	
 15323  135B  0856               	movf	(_ser_tmp)^080h,w
 15324  135C  00F8               	movwf	(??_isr1+0)+0
 15325  135D  0878               	movf	(??_isr1+0)+0,w
 15326  135E  00D4               	movwf	(_rxiptr)^080h	;volatile
 15327  135F  2B61               	goto	i1l10925
 15328                           	
 15329  1360                     i1l2285:	
 15330  1360  2B61               	goto	i1l10925
 15331                           	
 15332  1361                     i1l2284:	
 15333                           	
 15334  1361                     i1l10925:	
 15335  1361  1283               	bcf	status, 5	;RP0=0, select bank0
 15336  1362  1E0C               	btfss	(100/8),(100)&7
 15337  1363  2B65               	goto	u399_21
 15338  1364  2B66               	goto	u399_20
 15339  1365                     u399_21:
 15340  1365  2B87               	goto	i1l2288
 15341  1366                     u399_20:
 15342                           	
 15343  1366                     i1l10927:	
 15344  1366  1683               	bsf	status, 5	;RP0=1, select bank1
 15345  1367  1303               	bcf	status, 6	;RP1=0, select bank1
 15346  1368  1E0C               	btfss	(1124/8)^080h,(1124)&7
 15347  1369  2B6B               	goto	u400_21
 15348  136A  2B6C               	goto	u400_20
 15349  136B                     u400_21:
 15350  136B  2B87               	goto	i1l2288
 15351  136C                     u400_20:
 15352                           	
 15353  136C                     i1l10929:	
 15354  136C  085A               	movf	(_txoptr)^080h,w
 15355  136D  3EB0               	addlw	_txfifo&0ffh
 15356  136E  0084               	movwf	fsr0
 15357  136F  1783               	bsf	status, 7	;select IRP bank3
 15358  1370  0800               	movf	indf,w
 15359  1371  1283               	bcf	status, 5	;RP0=0, select bank0
 15360  1372  1303               	bcf	status, 6	;RP1=0, select bank0
 15361  1373  0099               	movwf	(25)	;volatile
 15362                           	
 15363  1374                     i1l10931:	
 15364  1374  3001               	movlw	(01h)
 15365  1375  00F8               	movwf	(??_isr1+0)+0
 15366  1376  0878               	movf	(??_isr1+0)+0,w
 15367  1377  1683               	bsf	status, 5	;RP0=1, select bank1
 15368  1378  1303               	bcf	status, 6	;RP1=0, select bank1
 15369  1379  07DA               	addwf	(_txoptr)^080h,f	;volatile
 15370                           	
 15371  137A                     i1l10933:	
 15372  137A  300F               	movlw	(0Fh)
 15373  137B  00F8               	movwf	(??_isr1+0)+0
 15374  137C  0878               	movf	(??_isr1+0)+0,w
 15375  137D  05DA               	andwf	(_txoptr)^080h,f	;volatile
 15376                           	
 15377  137E                     i1l10935:	
 15378  137E  085A               	movf	(_txoptr)^080h,w	;volatile
 15379  137F  0659               	xorwf	(_txiptr)^080h,w	;volatile
 15380  1380  1D03               	skipz
 15381  1381  2B83               	goto	u401_21
 15382  1382  2B84               	goto	u401_20
 15383  1383                     u401_21:
 15384  1383  2B87               	goto	i1l2288
 15385  1384                     u401_20:
 15386                           	
 15387  1384                     i1l10937:	
 15388  1384  120C               	bcf	(1124/8)^080h,(1124)&7
 15389  1385  2B87               	goto	i1l2288
 15390                           	
 15391  1386                     i1l2287:	
 15392  1386  2B87               	goto	i1l2288
 15393                           	
 15394  1387                     i1l2286:	
 15395                           	line	134
 15396                           	
 15397  1387                     i1l2288:	
 15398  1387  087C               	movf	(??_isr1+4),w
 15399  1388  1283               	bcf	status, 5	;RP0=0, select bank0
 15400  1389  00FF               	movwf	btemp+1
 15401  138A  087B               	movf	(??_isr1+3),w
 15402  138B  008A               	movwf	pclath
 15403  138C  087A               	movf	(??_isr1+2),w
 15404  138D  0084               	movwf	fsr0
 15405  138E  0E79               	swapf	(??_isr1+1)^0FFFFFF80h,w
 15406  138F  0083               	movwf	status
 15407  1390  0EFE               	swapf	saved_w,f
 15408  1391  0E7E               	swapf	saved_w,w
 15409  1392  0009               	retfie
 15410                           	opt stack 0
 15411                           GLOBAL	__end_of_isr1
 15412  1393                     	__end_of_isr1:
 15413 ;; =============== function _isr1 ends ============
 15414                           
 15415                           	signat	_isr1,88
 15416                           	global	i1___lwmod
 15417                           psect	text1137,local,class=CODE,delta=2
 15418                           global __ptext1137
 15419  1D00                     __ptext1137:
 15420                           
 15421 ;; *************** function i1___lwmod *****************
 15422 ;; Defined at:
 15423 ;;		line 5 in file "C:\Program Files\HI-TECH Software\PICC\9.83\sources\lwmod.c"
 15424 ;; Parameters:    Size  Location     Type
 15425 ;;  __lwmod         2    0[COMMON] unsigned int 
 15426 ;;  __lwmod         2    2[COMMON] unsigned int 
 15427 ;; Auto vars:     Size  Location     Type
 15428 ;;  __lwmod         1    5[COMMON] unsigned char 
 15429 ;; Return value:  Size  Location     Type
 15430 ;;                  2    0[COMMON] unsigned int 
 15431 ;; Registers used:
 15432 ;;		wreg, status,2, status,0
 15433 ;; Tracked objects:
 15434 ;;		On entry : 0/0
 15435 ;;		On exit  : 0/0
 15436 ;;		Unchanged: 0/0
 15437 ;; Data sizes:     COMMON   BANK0   BANK1   BANK3   BANK2
 15438 ;;      Params:         4       0       0       0       0
 15439 ;;      Locals:         1       0       0       0       0
 15440 ;;      Temps:          1       0       0       0       0
 15441 ;;      Totals:         6       0       0       0       0
 15442 ;;Total ram usage:        6 bytes
 15443 ;; Hardware stack levels used:    1
 15444 ;; This function calls:
 15445 ;;		Nothing
 15446 ;; This function is called by:
 15447 ;;		_isr1
 15448 ;; This function uses a non-reentrant model
 15449 ;;
 15450                           psect	text1137
 15451                           	file	"C:\Program Files\HI-TECH Software\PICC\9.83\sources\lwmod.c"
 15452                           	line	5
 15453                           	global	__size_ofi1___lwmod
 15454  0044                     	__size_ofi1___lwmod	equ	__end_ofi1___lwmod-i1___lwmod
 15455                           	
 15456  1D00                     i1___lwmod:	
 15457                           	opt	stack 0
 15458                           ; Regs used in i1___lwmod: [wreg+status,2+status,0]
 15459                           	line	8
 15460                           	
 15461  1D00                     i1l11281:	
 15462  1D00  0873               	movf	(i1___lwmod@divisor+1),w
 15463  1D01  0472               	iorwf	(i1___lwmod@divisor),w
 15464  1D02  1903               	skipnz
 15465  1D03  2D05               	goto	u471_21
 15466  1D04  2D06               	goto	u471_20
 15467  1D05                     u471_21:
 15468  1D05  2D3C               	goto	i1l11299
 15469  1D06                     u471_20:
 15470                           	line	9
 15471                           	
 15472  1D06                     i1l11283:	
 15473  1D06  01F7               	clrf	(i1___lwmod@counter)
 15474  1D07  1403               	bsf	status,0
 15475  1D08  0DF7               	rlf	(i1___lwmod@counter),f
 15476                           	line	10
 15477  1D09  2D16               	goto	i1l11289
 15478                           	
 15479  1D0A                     i1l7821:	
 15480                           	line	11
 15481                           	
 15482  1D0A                     i1l11285:	
 15483  1D0A  3001               	movlw	01h
 15484                           	
 15485  1D0B                     u472_25:
 15486  1D0B  1003               	clrc
 15487  1D0C  0DF2               	rlf	(i1___lwmod@divisor),f
 15488  1D0D  0DF3               	rlf	(i1___lwmod@divisor+1),f
 15489  1D0E  3EFF               	addlw	-1
 15490  1D0F  1D03               	skipz
 15491  1D10  2D0B               	goto	u472_25
 15492                           	line	12
 15493                           	
 15494  1D11                     i1l11287:	
 15495  1D11  3001               	movlw	(01h)
 15496  1D12  00F6               	movwf	(??i1___lwmod+0)+0
 15497  1D13  0876               	movf	(??i1___lwmod+0)+0,w
 15498  1D14  07F7               	addwf	(i1___lwmod@counter),f
 15499  1D15  2D16               	goto	i1l11289
 15500                           	line	13
 15501                           	
 15502  1D16                     i1l7820:	
 15503                           	line	10
 15504                           	
 15505  1D16                     i1l11289:	
 15506  1D16  1FF3               	btfss	(i1___lwmod@divisor+1),(15)&7
 15507  1D17  2D19               	goto	u473_21
 15508  1D18  2D1A               	goto	u473_20
 15509  1D19                     u473_21:
 15510  1D19  2D0A               	goto	i1l11285
 15511  1D1A                     u473_20:
 15512  1D1A  2D1C               	goto	i1l11291
 15513                           	
 15514  1D1B                     i1l7822:	
 15515  1D1B  2D1C               	goto	i1l11291
 15516                           	line	14
 15517                           	
 15518  1D1C                     i1l7823:	
 15519                           	line	15
 15520                           	
 15521  1D1C                     i1l11291:	
 15522  1D1C  0873               	movf	(i1___lwmod@divisor+1),w
 15523  1D1D  0275               	subwf	(i1___lwmod@dividend+1),w
 15524  1D1E  1D03               	skipz
 15525  1D1F  2D22               	goto	u474_25
 15526  1D20  0872               	movf	(i1___lwmod@divisor),w
 15527  1D21  0274               	subwf	(i1___lwmod@dividend),w
 15528  1D22                     u474_25:
 15529  1D22  1C03               	skipc
 15530  1D23  2D25               	goto	u474_21
 15531  1D24  2D26               	goto	u474_20
 15532  1D25                     u474_21:
 15533  1D25  2D2D               	goto	i1l11295
 15534  1D26                     u474_20:
 15535                           	line	16
 15536                           	
 15537  1D26                     i1l11293:	
 15538  1D26  0872               	movf	(i1___lwmod@divisor),w
 15539  1D27  02F4               	subwf	(i1___lwmod@dividend),f
 15540  1D28  0873               	movf	(i1___lwmod@divisor+1),w
 15541  1D29  1C03               	skipc
 15542  1D2A  03F5               	decf	(i1___lwmod@dividend+1),f
 15543  1D2B  02F5               	subwf	(i1___lwmod@dividend+1),f
 15544  1D2C  2D2D               	goto	i1l11295
 15545                           	
 15546  1D2D                     i1l7824:	
 15547                           	line	17
 15548                           	
 15549  1D2D                     i1l11295:	
 15550  1D2D  3001               	movlw	01h
 15551                           	
 15552  1D2E                     u475_25:
 15553  1D2E  1003               	clrc
 15554  1D2F  0CF3               	rrf	(i1___lwmod@divisor+1),f
 15555  1D30  0CF2               	rrf	(i1___lwmod@divisor),f
 15556  1D31  3EFF               	addlw	-1
 15557  1D32  1D03               	skipz
 15558  1D33  2D2E               	goto	u475_25
 15559                           	line	18
 15560                           	
 15561  1D34                     i1l11297:	
 15562  1D34  3001               	movlw	low(01h)
 15563  1D35  02F7               	subwf	(i1___lwmod@counter),f
 15564  1D36  1D03               	btfss	status,2
 15565  1D37  2D39               	goto	u476_21
 15566  1D38  2D3A               	goto	u476_20
 15567  1D39                     u476_21:
 15568  1D39  2D1C               	goto	i1l11291
 15569  1D3A                     u476_20:
 15570  1D3A  2D3C               	goto	i1l11299
 15571                           	
 15572  1D3B                     i1l7825:	
 15573  1D3B  2D3C               	goto	i1l11299
 15574                           	line	19
 15575                           	
 15576  1D3C                     i1l7819:	
 15577                           	line	20
 15578                           	
 15579  1D3C                     i1l11299:	
 15580  1D3C  0875               	movf	(i1___lwmod@dividend+1),w
 15581  1D3D  01F3               	clrf	(?i1___lwmod+1)
 15582  1D3E  07F3               	addwf	(?i1___lwmod+1)
 15583  1D3F  0874               	movf	(i1___lwmod@dividend),w
 15584  1D40  01F2               	clrf	(?i1___lwmod)
 15585  1D41  07F2               	addwf	(?i1___lwmod)
 15586                           
 15587  1D42  2D43               	goto	i1l7826
 15588                           	
 15589  1D43                     i1l11301:	
 15590                           	line	21
 15591                           	
 15592  1D43                     i1l7826:	
 15593  1D43  0008               	return
 15594                           	opt stack 0
 15595                           GLOBAL	__end_ofi1___lwmod
 15596  1D44                     	__end_ofi1___lwmod:
 15597 ;; =============== function i1___lwmod ends ============
 15598                           
 15599                           	signat	i1___lwmod,90
 15600                           	global	_ReadButtons
 15601                           psect	text1138,local,class=CODE,delta=2
 15602                           global __ptext1138
 15603  1393                     __ptext1138:
 15604                           
 15605 ;; *************** function _ReadButtons *****************
 15606 ;; Defined at:
 15607 ;;		line 58 in file "E:\Aldnoah.Zero\Assignment3\HMI.c"
 15608 ;; Parameters:    Size  Location     Type
 15609 ;;		None
 15610 ;; Auto vars:     Size  Location     Type
 15611 ;;		None
 15612 ;; Return value:  Size  Location     Type
 15613 ;;                  1    wreg      unsigned char 
 15614 ;; Registers used:
 15615 ;;		wreg, status,2, status,0
 15616 ;; Tracked objects:
 15617 ;;		On entry : 0/0
 15618 ;;		On exit  : 0/0
 15619 ;;		Unchanged: 0/0
 15620 ;; Data sizes:     COMMON   BANK0   BANK1   BANK3   BANK2
 15621 ;;      Params:         0       0       0       0       0
 15622 ;;      Locals:         0       0       0       0       0
 15623 ;;      Temps:          1       0       0       0       0
 15624 ;;      Totals:         1       0       0       0       0
 15625 ;;Total ram usage:        1 bytes
 15626 ;; Hardware stack levels used:    1
 15627 ;; This function calls:
 15628 ;;		Nothing
 15629 ;; This function is called by:
 15630 ;;		_isr1
 15631 ;; This function uses a non-reentrant model
 15632 ;;
 15633                           psect	text1138
 15634                           	file	"E:\Aldnoah.Zero\Assignment3\HMI.c"
 15635                           	line	58
 15636                           	global	__size_of_ReadButtons
 15637  00C1                     	__size_of_ReadButtons	equ	__end_of_ReadButtons-_ReadButtons
 15638                           	
 15639  1393                     _ReadButtons:	
 15640                           	opt	stack 0
 15641                           ; Regs used in _ReadButtons: [wreg+status,2+status,0]
 15642                           	line	60
 15643                           	
 15644  1393                     i1l10939:	
 15645                           ;HMI.c: 60: if(!RB2) { UpDebounceCount++; if(UpDebounceCount >= 10 & UpReleased) { UpPre
                                 ssed = 1; UpReleased = 0; } } else { UpDebounceCount = 0; UpReleased = 1; } if(!RB3) { D
                                 ownDebounceCount++; if(DownDebounceCount >= 10 & DownReleased) { DownPressed = 1; Down
 15646  1393  1283               	bcf	status, 5	;RP0=0, select bank0
 15647  1394  1303               	bcf	status, 6	;RP1=0, select bank0
 15648  1395  1906               	btfsc	(50/8),(50)&7
 15649  1396  2B98               	goto	u402_21
 15650  1397  2B99               	goto	u402_20
 15651  1398                     u402_21:
 15652  1398  2BAD               	goto	i1l4624
 15653  1399                     u402_20:
 15654                           	
 15655  1399                     i1l10941:	
 15656  1399  3001               	movlw	(01h)
 15657  139A  00F2               	movwf	(??_ReadButtons+0)+0
 15658  139B  0872               	movf	(??_ReadButtons+0)+0,w
 15659  139C  1683               	bsf	status, 5	;RP0=1, select bank1
 15660  139D  1303               	bcf	status, 6	;RP1=0, select bank1
 15661  139E  07CC               	addwf	(_UpDebounceCount)^080h,f	;volatile
 15662                           	
 15663  139F                     i1l10943:	
 15664  139F  300A               	movlw	(0Ah)
 15665  13A0  024C               	subwf	(_UpDebounceCount)^080h,w	;volatile
 15666  13A1  1C03               	skipc
 15667  13A2  2BA4               	goto	u403_21
 15668  13A3  2BA5               	goto	u403_20
 15669  13A4                     u403_21:
 15670  13A4  2BB1               	goto	i1l4626
 15671  13A5                     u403_20:
 15672                           	
 15673  13A5                     i1l10945:	
 15674  13A5  1E71               	btfss	(_UpReleased/8),(_UpReleased)&7
 15675  13A6  2BA8               	goto	u404_21
 15676  13A7  2BA9               	goto	u404_20
 15677  13A8                     u404_21:
 15678  13A8  2BB1               	goto	i1l4626
 15679  13A9                     u404_20:
 15680                           	
 15681  13A9                     i1l10947:	
 15682  13A9  15F1               	bsf	(_UpPressed/8),(_UpPressed)&7
 15683  13AA  1271               	bcf	(_UpReleased/8),(_UpReleased)&7
 15684  13AB  2BB1               	goto	i1l4626
 15685                           	
 15686  13AC                     i1l4625:	
 15687  13AC  2BB1               	goto	i1l4626
 15688                           	
 15689  13AD                     i1l4624:	
 15690  13AD  1683               	bsf	status, 5	;RP0=1, select bank1
 15691  13AE  1303               	bcf	status, 6	;RP1=0, select bank1
 15692  13AF  01CC               	clrf	(_UpDebounceCount)^080h	;volatile
 15693  13B0  1671               	bsf	(_UpReleased/8),(_UpReleased)&7
 15694                           	
 15695  13B1                     i1l4626:	
 15696  13B1  1283               	bcf	status, 5	;RP0=0, select bank0
 15697  13B2  1303               	bcf	status, 6	;RP1=0, select bank0
 15698  13B3  1986               	btfsc	(51/8),(51)&7
 15699  13B4  2BB6               	goto	u405_21
 15700  13B5  2BB7               	goto	u405_20
 15701  13B6                     u405_21:
 15702  13B6  2BCB               	goto	i1l4627
 15703  13B7                     u405_20:
 15704                           	
 15705  13B7                     i1l10949:	
 15706  13B7  3001               	movlw	(01h)
 15707  13B8  00F2               	movwf	(??_ReadButtons+0)+0
 15708  13B9  0872               	movf	(??_ReadButtons+0)+0,w
 15709  13BA  1683               	bsf	status, 5	;RP0=1, select bank1
 15710  13BB  1303               	bcf	status, 6	;RP1=0, select bank1
 15711  13BC  07C6               	addwf	(_DownDebounceCount)^080h,f	;volatile
 15712                           	
 15713  13BD                     i1l10951:	
 15714  13BD  300A               	movlw	(0Ah)
 15715  13BE  0246               	subwf	(_DownDebounceCount)^080h,w	;volatile
 15716  13BF  1C03               	skipc
 15717  13C0  2BC2               	goto	u406_21
 15718  13C1  2BC3               	goto	u406_20
 15719  13C2                     u406_21:
 15720  13C2  2BCF               	goto	i1l4629
 15721  13C3                     u406_20:
 15722                           	
 15723  13C3                     i1l10953:	
 15724  13C3  1DF0               	btfss	(_DownReleased/8),(_DownReleased)&7
 15725  13C4  2BC6               	goto	u407_21
 15726  13C5  2BC7               	goto	u407_20
 15727  13C6                     u407_21:
 15728  13C6  2BCF               	goto	i1l4629
 15729  13C7                     u407_20:
 15730                           	
 15731  13C7                     i1l10955:	
 15732  13C7  1570               	bsf	(_DownPressed/8),(_DownPressed)&7
 15733  13C8  11F0               	bcf	(_DownReleased/8),(_DownReleased)&7
 15734  13C9  2BCF               	goto	i1l4629
 15735                           	
 15736  13CA                     i1l4628:	
 15737  13CA  2BCF               	goto	i1l4629
 15738                           	
 15739  13CB                     i1l4627:	
 15740  13CB  1683               	bsf	status, 5	;RP0=1, select bank1
 15741  13CC  1303               	bcf	status, 6	;RP1=0, select bank1
 15742  13CD  01C6               	clrf	(_DownDebounceCount)^080h	;volatile
 15743  13CE  15F0               	bsf	(_DownReleased/8),(_DownReleased)&7
 15744                           	
 15745  13CF                     i1l4629:	
 15746  13CF  1283               	bcf	status, 5	;RP0=0, select bank0
 15747  13D0  1303               	bcf	status, 6	;RP1=0, select bank0
 15748  13D1  1A06               	btfsc	(52/8),(52)&7
 15749  13D2  2BD4               	goto	u408_21
 15750  13D3  2BD5               	goto	u408_20
 15751  13D4                     u408_21:
 15752  13D4  2BE9               	goto	i1l4630
 15753  13D5                     u408_20:
 15754                           	
 15755  13D5                     i1l10957:	
 15756  13D5  3001               	movlw	(01h)
 15757  13D6  00F2               	movwf	(??_ReadButtons+0)+0
 15758  13D7  0872               	movf	(??_ReadButtons+0)+0,w
 15759  13D8  1683               	bsf	status, 5	;RP0=1, select bank1
 15760  13D9  1303               	bcf	status, 6	;RP1=0, select bank1
 15761  13DA  07C8               	addwf	(_LeftDebounceCount)^080h,f	;volatile
 15762                           	
 15763  13DB                     i1l10959:	
 15764  13DB  300A               	movlw	(0Ah)
 15765  13DC  0248               	subwf	(_LeftDebounceCount)^080h,w	;volatile
 15766  13DD  1C03               	skipc
 15767  13DE  2BE0               	goto	u409_21
 15768  13DF  2BE1               	goto	u409_20
 15769  13E0                     u409_21:
 15770  13E0  2BED               	goto	i1l4632
 15771  13E1                     u409_20:
 15772                           	
 15773  13E1                     i1l10961:	
 15774  13E1  1EF0               	btfss	(_LeftReleased/8),(_LeftReleased)&7
 15775  13E2  2BE4               	goto	u410_21
 15776  13E3  2BE5               	goto	u410_20
 15777  13E4                     u410_21:
 15778  13E4  2BED               	goto	i1l4632
 15779  13E5                     u410_20:
 15780                           	
 15781  13E5                     i1l10963:	
 15782  13E5  1670               	bsf	(_LeftPressed/8),(_LeftPressed)&7
 15783  13E6  12F0               	bcf	(_LeftReleased/8),(_LeftReleased)&7
 15784  13E7  2BED               	goto	i1l4632
 15785                           	
 15786  13E8                     i1l4631:	
 15787  13E8  2BED               	goto	i1l4632
 15788                           	
 15789  13E9                     i1l4630:	
 15790  13E9  1683               	bsf	status, 5	;RP0=1, select bank1
 15791  13EA  1303               	bcf	status, 6	;RP1=0, select bank1
 15792  13EB  01C8               	clrf	(_LeftDebounceCount)^080h	;volatile
 15793  13EC  16F0               	bsf	(_LeftReleased/8),(_LeftReleased)&7
 15794                           	
 15795  13ED                     i1l4632:	
 15796  13ED  1283               	bcf	status, 5	;RP0=0, select bank0
 15797  13EE  1303               	bcf	status, 6	;RP1=0, select bank0
 15798  13EF  1A86               	btfsc	(53/8),(53)&7
 15799  13F0  2BF2               	goto	u411_21
 15800  13F1  2BF3               	goto	u411_20
 15801  13F2                     u411_21:
 15802  13F2  2C07               	goto	i1l4633
 15803  13F3                     u411_20:
 15804                           	
 15805  13F3                     i1l10965:	
 15806  13F3  3001               	movlw	(01h)
 15807  13F4  00F2               	movwf	(??_ReadButtons+0)+0
 15808  13F5  0872               	movf	(??_ReadButtons+0)+0,w
 15809  13F6  1683               	bsf	status, 5	;RP0=1, select bank1
 15810  13F7  1303               	bcf	status, 6	;RP1=0, select bank1
 15811  13F8  07CA               	addwf	(_RightDebounceCount)^080h,f	;volatile
 15812                           	
 15813  13F9                     i1l10967:	
 15814  13F9  300A               	movlw	(0Ah)
 15815  13FA  024A               	subwf	(_RightDebounceCount)^080h,w	;volatile
 15816  13FB  1C03               	skipc
 15817  13FC  2BFE               	goto	u412_21
 15818  13FD  2BFF               	goto	u412_20
 15819  13FE                     u412_21:
 15820  13FE  2C0B               	goto	i1l4635
 15821  13FF                     u412_20:
 15822                           	
 15823  13FF                     i1l10969:	
 15824  13FF  1D71               	btfss	(_RightReleased/8),(_RightReleased)&7
 15825  1400  2C02               	goto	u413_21
 15826  1401  2C03               	goto	u413_20
 15827  1402                     u413_21:
 15828  1402  2C0B               	goto	i1l4635
 15829  1403                     u413_20:
 15830                           	
 15831  1403                     i1l10971:	
 15832  1403  14F1               	bsf	(_RightPressed/8),(_RightPressed)&7
 15833  1404  1171               	bcf	(_RightReleased/8),(_RightReleased)&7
 15834  1405  2C0B               	goto	i1l4635
 15835                           	
 15836  1406                     i1l4634:	
 15837  1406  2C0B               	goto	i1l4635
 15838                           	
 15839  1407                     i1l4633:	
 15840  1407  1683               	bsf	status, 5	;RP0=1, select bank1
 15841  1408  1303               	bcf	status, 6	;RP1=0, select bank1
 15842  1409  01CA               	clrf	(_RightDebounceCount)^080h	;volatile
 15843  140A  1571               	bsf	(_RightReleased/8),(_RightReleased)&7
 15844                           	
 15845  140B                     i1l4635:	
 15846  140B  1283               	bcf	status, 5	;RP0=0, select bank0
 15847  140C  1303               	bcf	status, 6	;RP1=0, select bank0
 15848  140D  1B06               	btfsc	(54/8),(54)&7
 15849  140E  2C10               	goto	u414_21
 15850  140F  2C11               	goto	u414_20
 15851  1410                     u414_21:
 15852  1410  2C25               	goto	i1l4636
 15853  1411                     u414_20:
 15854                           	
 15855  1411                     i1l10973:	
 15856  1411  3001               	movlw	(01h)
 15857  1412  00F2               	movwf	(??_ReadButtons+0)+0
 15858  1413  0872               	movf	(??_ReadButtons+0)+0,w
 15859  1414  1683               	bsf	status, 5	;RP0=1, select bank1
 15860  1415  1303               	bcf	status, 6	;RP1=0, select bank1
 15861  1416  07C3               	addwf	(_CenterDebounceCount)^080h,f	;volatile
 15862                           	
 15863  1417                     i1l10975:	
 15864  1417  300A               	movlw	(0Ah)
 15865  1418  0243               	subwf	(_CenterDebounceCount)^080h,w	;volatile
 15866  1419  1C03               	skipc
 15867  141A  2C1C               	goto	u415_21
 15868  141B  2C1D               	goto	u415_20
 15869  141C                     u415_21:
 15870  141C  2C29               	goto	i1l4638
 15871  141D                     u415_20:
 15872                           	
 15873  141D                     i1l10977:	
 15874  141D  1CF0               	btfss	(_CenterReleased/8),(_CenterReleased)&7
 15875  141E  2C20               	goto	u416_21
 15876  141F  2C21               	goto	u416_20
 15877  1420                     u416_21:
 15878  1420  2C29               	goto	i1l4638
 15879  1421                     u416_20:
 15880                           	
 15881  1421                     i1l10979:	
 15882  1421  1470               	bsf	(_CenterPressed/8),(_CenterPressed)&7
 15883  1422  10F0               	bcf	(_CenterReleased/8),(_CenterReleased)&7
 15884  1423  2C29               	goto	i1l4638
 15885                           	
 15886  1424                     i1l4637:	
 15887  1424  2C29               	goto	i1l4638
 15888                           	
 15889  1425                     i1l4636:	
 15890  1425  1683               	bsf	status, 5	;RP0=1, select bank1
 15891  1426  1303               	bcf	status, 6	;RP1=0, select bank1
 15892  1427  01C3               	clrf	(_CenterDebounceCount)^080h	;volatile
 15893  1428  14F0               	bsf	(_CenterReleased/8),(_CenterReleased)&7
 15894                           	
 15895  1429                     i1l4638:	
 15896                           	line	62
 15897                           ;HMI.c: 62: if(UpPressed)
 15898  1429  1DF1               	btfss	(_UpPressed/8),(_UpPressed)&7
 15899  142A  2C2C               	goto	u417_21
 15900  142B  2C2D               	goto	u417_20
 15901  142C                     u417_21:
 15902  142C  2C31               	goto	i1l4639
 15903  142D                     u417_20:
 15904                           	line	64
 15905                           	
 15906  142D                     i1l10981:	
 15907                           ;HMI.c: 63: {
 15908                           ;HMI.c: 64: UpPressed = 0;
 15909  142D  11F1               	bcf	(_UpPressed/8),(_UpPressed)&7
 15910                           	line	65
 15911                           	
 15912  142E                     i1l10983:	
 15913                           ;HMI.c: 65: return 1;
 15914  142E  3001               	movlw	(01h)
 15915  142F  2C53               	goto	i1l4640
 15916                           	
 15917  1430                     i1l10985:	
 15918  1430  2C53               	goto	i1l4640
 15919                           	line	67
 15920                           	
 15921  1431                     i1l4639:	
 15922                           	line	69
 15923                           ;HMI.c: 67: }
 15924                           ;HMI.c: 69: if(DownPressed)
 15925  1431  1D70               	btfss	(_DownPressed/8),(_DownPressed)&7
 15926  1432  2C34               	goto	u418_21
 15927  1433  2C35               	goto	u418_20
 15928  1434                     u418_21:
 15929  1434  2C39               	goto	i1l4641
 15930  1435                     u418_20:
 15931                           	line	71
 15932                           	
 15933  1435                     i1l10987:	
 15934                           ;HMI.c: 70: {
 15935                           ;HMI.c: 71: DownPressed = 0;
 15936  1435  1170               	bcf	(_DownPressed/8),(_DownPressed)&7
 15937                           	line	72
 15938                           	
 15939  1436                     i1l10989:	
 15940                           ;HMI.c: 72: return 2;
 15941  1436  3002               	movlw	(02h)
 15942  1437  2C53               	goto	i1l4640
 15943                           	
 15944  1438                     i1l10991:	
 15945  1438  2C53               	goto	i1l4640
 15946                           	line	74
 15947                           	
 15948  1439                     i1l4641:	
 15949                           	line	75
 15950                           ;HMI.c: 74: }
 15951                           ;HMI.c: 75: if(LeftPressed)
 15952  1439  1E70               	btfss	(_LeftPressed/8),(_LeftPressed)&7
 15953  143A  2C3C               	goto	u419_21
 15954  143B  2C3D               	goto	u419_20
 15955  143C                     u419_21:
 15956  143C  2C41               	goto	i1l4642
 15957  143D                     u419_20:
 15958                           	line	77
 15959                           	
 15960  143D                     i1l10993:	
 15961                           ;HMI.c: 76: {
 15962                           ;HMI.c: 77: LeftPressed = 0;
 15963  143D  1270               	bcf	(_LeftPressed/8),(_LeftPressed)&7
 15964                           	line	78
 15965                           	
 15966  143E                     i1l10995:	
 15967                           ;HMI.c: 78: return 3;
 15968  143E  3003               	movlw	(03h)
 15969  143F  2C53               	goto	i1l4640
 15970                           	
 15971  1440                     i1l10997:	
 15972  1440  2C53               	goto	i1l4640
 15973                           	line	80
 15974                           	
 15975  1441                     i1l4642:	
 15976                           	line	81
 15977                           ;HMI.c: 80: }
 15978                           ;HMI.c: 81: if(RightPressed)
 15979  1441  1CF1               	btfss	(_RightPressed/8),(_RightPressed)&7
 15980  1442  2C44               	goto	u420_21
 15981  1443  2C45               	goto	u420_20
 15982  1444                     u420_21:
 15983  1444  2C49               	goto	i1l4643
 15984  1445                     u420_20:
 15985                           	line	83
 15986                           	
 15987  1445                     i1l10999:	
 15988                           ;HMI.c: 82: {
 15989                           ;HMI.c: 83: RightPressed = 0;
 15990  1445  10F1               	bcf	(_RightPressed/8),(_RightPressed)&7
 15991                           	line	84
 15992                           	
 15993  1446                     i1l11001:	
 15994                           ;HMI.c: 84: return 4;
 15995  1446  3004               	movlw	(04h)
 15996  1447  2C53               	goto	i1l4640
 15997                           	
 15998  1448                     i1l11003:	
 15999  1448  2C53               	goto	i1l4640
 16000                           	line	86
 16001                           	
 16002  1449                     i1l4643:	
 16003                           	line	88
 16004                           ;HMI.c: 86: }
 16005                           ;HMI.c: 88: if(CenterPressed)
 16006  1449  1C70               	btfss	(_CenterPressed/8),(_CenterPressed)&7
 16007  144A  2C4C               	goto	u421_21
 16008  144B  2C4D               	goto	u421_20
 16009  144C                     u421_21:
 16010  144C  2C51               	goto	i1l11011
 16011  144D                     u421_20:
 16012                           	line	90
 16013                           	
 16014  144D                     i1l11005:	
 16015                           ;HMI.c: 89: {
 16016                           ;HMI.c: 90: CenterPressed = 0;
 16017  144D  1070               	bcf	(_CenterPressed/8),(_CenterPressed)&7
 16018                           	line	91
 16019                           	
 16020  144E                     i1l11007:	
 16021                           ;HMI.c: 91: return 5;
 16022  144E  3005               	movlw	(05h)
 16023  144F  2C53               	goto	i1l4640
 16024                           	
 16025  1450                     i1l11009:	
 16026  1450  2C53               	goto	i1l4640
 16027                           	line	93
 16028                           	
 16029  1451                     i1l4644:	
 16030                           	line	94
 16031                           	
 16032  1451                     i1l11011:	
 16033                           ;HMI.c: 93: }
 16034                           ;HMI.c: 94: return 0;
 16035  1451  3000               	movlw	(0)
 16036  1452  2C53               	goto	i1l4640
 16037                           	
 16038  1453                     i1l11013:	
 16039                           	line	95
 16040                           	
 16041  1453                     i1l4640:	
 16042  1453  0008               	return
 16043                           	opt stack 0
 16044                           GLOBAL	__end_of_ReadButtons
 16045  1454                     	__end_of_ReadButtons:
 16046 ;; =============== function _ReadButtons ends ============
 16047                           
 16048                           	signat	_ReadButtons,89
 16049                           psect	text1139,local,class=CODE,delta=2
 16050                           global __ptext1139
 16051  0000                     __ptext1139:
 16052                           	global	btemp
 16053  007E                     	btemp set 07Eh
 16054                           
 16055                           	DABS	1,126,2	;btemp
 16056                           	global	wtemp0
 16057  007E                     	wtemp0 set btemp


HI-TECH Software PICC Macro Assembler V9.83 build 10920 
Symbol Table                                                                                   Fri May 22 19:43:40 2015

   RobotDrive@radiuslowByte 0030   __end_of_lcd_write_control 1A3C             ??_UpdateDisplay 0041  
                         pc 0002                          _GO 00FA                          _RD 0C60  
                        _WR 0C61                ___awdiv@sign 0026                  _IRdistance 00A8  
                        fsr 0004         ___wmul@multiplicand 0022                         l700 1A51  
                       l703 1AFE                         l704 1AFE                         l705 1B02  
                       l706 1B21                         l690 1CC9                         l691 1CF2  
                       l692 1CCD                         l693 1CD1                         l694 1CD5  
                       l695 1CD9                         l696 1CDD                         l689 1CE1  
                       l697 1CFF                         _GIE 005F                         _RB0 0030  
                       _RC0 0038                         _RB2 0032                         _RC1 0039  
                       _RB3 0033                         _RC2 003A                         _RB4 0034  
                       _RB5 0035                         _RE0 0048                         _RB6 0036  
                       _RE1 0049                         _RE2 004A                         _RX9 00C6  
                       _TX9 04C6                         _abs 1C57   __end_of_robot_turnInPlace 15ED  
                       _pos 00B8                         fsr0 0004                         indf 0000  
              ___awmod@sign 0026            ??_robotMoveSpeed 005B                  _BattCharge 00A0  
           ?_lcd_set_cursor 0072                        ?_abs 0026                        l1402 1A13  
                      l1410 1BFA                        l1411 1BFA                        l2300 14AD  
                      l1405 1A00                        l2301 14C0                        l2302 14C9  
                      l2303 14D2                        l1408 1BE9                        l2312 1AD1  
                      l2320 089C                        l2304 14F1                        l1409 1BD0  
                      l2321 09BB                        l2305 14F5                        l2330 0900  
                      l2322 089D                        l2306 14FB                        l3123 115E  
                      l2323 09D7                        l2331 090D                        l2315 0891  
                      l2307 151C                        l3124 1194                        l2332 091C  
                      l2324 08BC                        l2316 0865                        l2308 151D  
                      l1429 1B76                        l3125 1180                        l2333 093D  
                      l2325 08C5                        l2317 089B                        l2309 151D  
                      l3126 11BB                        l2334 095E                        l2326 08DA  
                      l2318 0875                        l2342 0D71                        l2350 0C13  
                      l2319 09D8                        l2335 096A                        l2327 08E3  
                      l2351 0C32                        l2343 0B99                        l2336 097C  
                      l2328 08E5                        l2344 0D54                        l2352 0CAB  
                      l3129 1A67                        l2361 1EC6                        l2337 099B  
                      l2329 08E6                        l2353 0CCB                        l2345 0B9A  
                      l2370 1F15                        l2362 1ED1                        l2338 09E1  
                      l2346 0D70                        l2354 0CD4                        l2291 1C56  
                      l2363 1F00                        l2371 1EFE                        l2339 09E1  
                      l2355 0D02                        l2347 0BB9                        l2372 1F14  
                      l2364 1ED2                        l2380 1DD4                        l2356 0D34  
                      l2348 0C09                        l2373 1F15                        l2365 1F13  
                      l2381 1DAC                        l2357 0D7A                        l2349 0C12  
                      l2366 1ED4                        l2382 1DAE                        l2358 0D7A  
                      l2294 146A                        l1399 1A3B                        l2367 1ED6  
                      l2383 1DB0                        l2295 1491                        l2368 1EE8  
                      l2384 1DB2                        l2376 1D99                        l2296 14A6  
                      l2369 1EF8                        l2385 1DD6                        l2377 1DA9  
                      l2297 14FD                        l2378 1DC1                        l2386 1DBE  
                      l2298 14A7                        l2387 1DD5                        l2379 1DAA  
                      l2299 1513                        l2388 1DD6                        l6211 1AB0  
                      l7100 0A8C                        l6300 02AC                        l7101 0A97  
                      l6301 02C3                        l3830 1DE7                        l6222 1CC4  
                      l7110 0B29                        l7102 0ABF                        l6214 1783  
                      l6310 0472                        l6302 02DA                        l3831 1DEE  
                      l7111 0B6E                        l7103 0AB4                        l6215 17FF  
                      l6311 0395                        l6303 02FA                        l3824 1A1C  
                      l3832 1E22                        l7112 0B2E                        l7104 0AD1  
                      l6216 17AF                        l6312 03B1                        l6304 0319  
                      l6320 16B8                        l6240 05C2                        l6232 04A6  
                      l3825 1A1C                        l7041 1A8A                        l3833 1DF5  
                      l7113 0B79                        l7105 0AF2                        l6225 1F44  
                      l6217 17FE                        l6313 03CF                        l6305 034A  
                      l6321 1620                        l6241 05A8                        l6233 04C8  
                      l4650 07BB                        l3826 1A21                        l7042 1A97  
                      l3834 1E07                        l7114 0B8F                        l7106 0AF7  
                      l6226 1F89                        l6218 17FD                        l6314 0488  
                      l6306 0357                        l6322 162D                        l6250 0662  
                      l6242 05C1                        l6234 04E0                        l4651 07BC  
                      l7051 1C00                        l3827 1A27                        l8011 1E4E  
                      l3835 1E0F                        l7115 0B97                        l7107 0B17  
                      l6227 1F69                        l6219 17FF                        l6331 126B  
                      l6307 043D                        l6323 163C                        l6251 079F  
                      l6243 0677                        l6235 04F8                        l4652 07CD  
                      l7052 1BFF                        l8020 1E9E                        l8012 1E58  
                      l3836 1E2C                        l7108 0AFE                        l6228 1F88  
                      l6332 12DD                        l6308 0358                        l6324 16DD  
                      l6252 0676                        l6244 0664                        l6236 0558  
                      l4653 07CE                        l7053 1C0A                        l8021 1EA5  
                      l8013 1E94                        l3837 1E3D                        l7109 0B16  
                      l7045 1BA5                        l6229 1F89                        l6333 12E8  
                      l6309 0379                        l6317 1683                        l6253 0698  
                      l6237 053E                        l4654 07E0                        l7054 1C27  
                      l8014 1E6E                        l6342 0863                        l7046 1BA4  
                      l4662 0FEF                        l4670 0EEA                        l6318 1603  
                      l6254 06B4                        l6246 05FE                        l6238 0557  
                      l6262 15D6                        l6270 15A5                        l4647 07E8  
                      l4655 07E1                        l8015 1E62                        l7047 1BAE  
                      l4671 0F4E                        l4663 0D94                        l6327 12A8  
                      l6319 1613                        l6255 06D0                        l6247 0625  
                      l6239 0677                        l6271 15BD                        l6263 1521  
                      l4656 07FC                        l4648 07BA                        l8016 1E73  
                      l7048 1BCE                        l6336 1244                        l4672 0EF6  
                      l4664 0DFB                        l6328 1259                        l6280 012D  
                      l6256 06EE                        l6248 0645                        l6264 15EC  
                      l6272 15D4                        l4649 07FA                        l4657 07E6  
                      l8017 1E74                        l4673 0F02                        l4665 0E0E  
                      l6329 126F                        l6281 00E3                        l6257 0787  
                      l6249 0659                        l6265 1539                        l6273 15EC  
                      l8018 1E85                        l7090 0A53                        l4666 0FFF  
                      l4674 0F0E                        l6290 0186                        l6282 012D  
                      l6258 079E                        l6266 1549                        l8019 1E93  
                      l7091 0A14                        l6339 1C8B                        l4675 0F1A  
                      l4667 0E56                        l6291 01A4                        l6283 011A  
                      l6259 07B5                        l6267 1561                        l7076 1B4B  
                      l7092 0A52                        l4676 0F26                        l4668 0EA1  
                      l6292 0221                        l6276 0041                        l6268 1571  
                      l7093 0A59                        l4677 0F60                        l4669 0F33  
                      l6293 031B                        l6285 0118                        l6277 0050  
                      l6269 1581                        l7094 0A54                        l4678 0FED  
                      l6294 0227                        l6286 0222                        l6278 0064  
                      l7095 0B90                        l7087 0B7A                        l4679 0FFF  
                      l6295 0334                        l6287 012C                        l6279 00A5  
                      l7096 0A55                        l7088 09EA                        l6296 0250  
                      l6288 014E                        l7097 0A56                        l7089 09FC  
                      l6297 0267                        l6289 016A                        l7098 0A70  
                      l6298 027E                        l7099 0A57                        l6299 0295  
                      l7810 110F                        l7803 1B7C                        l7811 1103  
                      l7804 1B86                        l7812 1114                        l7820 1D5C  
                      l7805 1B9B                        l7813 1115                        l7821 1D50  
                      l7806 1BA2                        l7814 112E                        l7822 1D61  
                      l7815 113C                        l7823 1D62                        l7816 1144  
                      l7824 1D73                        l7809 113D                        l7825 1D81  
                      l7826 1D89                        l7819 1D82                        l7950 1FDF  
                      l7951 1FED                        l7943 1F9A                        l7952 1FF8  
                      l7944 1FA8                        l7793 1A7C                        l7953 1FFF  
                      l7945 1FEE                        l7794 1A7E                        l7946 1FC0  
                      l7947 1FB4                        l7948 1FC5                        l7949 1FC6  
                      _CHS0 00FB                        _CHS1 00FC                        _CHS2 00FD  
                      STR_1 1083                        STR_2 107A                        STR_3 1095  
                      STR_4 109E                        STR_5 108C                        STR_6 1071  
                      STR_7 10C7                        STR_8 10CB                        STR_9 10B3  
                      _BRGH 04C2                        _CREN 00C4                        u5000 1760  
                      u5001 175F                        u5010 178A                        u5011 1789  
                      u4220 07C8                        u5020 17B6                        u5100 1266  
                      u4221 07C7                        u5021 17B5                        u5101 1265  
                      u4230 07DD                        u5030 115C                        u5110 126A  
                      u4231 07DC                        u5031 115B                        u4240 1C0A  
                      u5040 1174                        u5120 12DC                        u5200 0139  
                      u4241 1C09                        u5041 1173                        u5121 12DB  
                      u4250 1A20                        u4330 1A72                        u4410 1113  
                      u5050 1193                        u5210 0152                        u5130 0034  
                      u4251 1A1F                        u4331 1A71                        u4411 1112  
                      u5051 1192                        u5035 1158                        u5131 0033  
                      u4260 1A85                        u4340 1A78                        u5060 0D85  
                      u5300 03B7                        u5220 016E                        u5140 007B  
                      u4261 1A84                        u4341 1A77                        u4405 1104  
                      u5125 12D8                        u5301 03B6                        u5141 007A  
                      u4270 1A92                        u4350 1B80                        u4430 1126  
                      u4510 1D80                        u5070 0DE8                        u5310 0471  
                      u5230 018C                        u5150 0093                        u4271 1A91  
                      u4351 1B7F                        u4431 1125                        u4511 1D7F  
                      u5055 118F                        u5071 0DE7                        u5311 0470  
                      u5231 018B                        u5151 0092                        u4600 1FEC  
                      u4520 1F91                        u5080 1ECA                        u5240 02E2  
                      u5160 00B7                        u5320 160F                        u5400 050F  
                      u4425 1116                        u4505 1D74                        u4601 1FEB  
                      u4521 1F90                        u5081 1EC9                        u5241 02E1  
                      u5161 00B6                        u5145 0077                        u5401 050E  
                      u4450 113B                        u4610 1FF2                        u4530 1F9E  
                      u5090 1D9D                        u5250 0301                        u5170 00D3  
                      u5330 1617                        u5410 0526                        u4451 113A  
                      u4435 1122                        u4531 1F9D                        u5075 0DE4  
                      u5091 1D9C                        u5315 046D                        u5251 0300  
                      u5171 00D2                        u5155 008F                        u5411 0525  
                      _PEIE 005E                        u4380 1B9A                        u4460 1D4C  
                      u4540 1FB0                        u4700 1E98                        u4620 1E45  
                      u5260 033B                        u5180 00FF                        u5340 1624  
                      u5500 0605                        u5420 052C                        u4381 1B99  
                      u4365 1B87                        u4445 112F                        u4461 1D4B  
                      u4541 1FAF                        u4621 1E44                        u5261 033A  
                      u5181 00FE                        u5165 00B3                        u5501 0604  
                      u5421 052B                        u5405 050B                        u4390 10FF  
                      u4630 1E52                        u5270 0364                        u5190 0117  
                      u5350 1633                        u5510 0650                        u5430 0545  
                      u4375 1B8E                        u4391 10FE                        u4631 1E51  
                      u5191 0116                        u5175 00CF                        u5351 1632  
                      u5511 064F                        u5431 0544                        u5415 0522  
                      u4480 1D60                        u4560 1FC4                        u4640 1E5E  
                      u4800 09F0                        u5280 037D                        u5360 16B7  
                      u5520 0683                        u5440 056A                        u5600 08F4  
                      u4481 1D5F                        u4561 1FC3                        u4641 1E5D  
                      u4801 09EF                        u5185 00FB                        u5361 16B6  
                      u5441 0569                        u5601 08F3                        u4490 1D6C  
                      u4810 0A0F                        u5290 0399                        u5530 069C  
                      u5450 058E                        u5370 04BB                        u5610 0907  
                      u4491 1D6B                        u4475 1D51                        u4555 1FB5  
                      u4811 0A0E                        u5195 0113                        u5451 058D  
                      u5371 04BA                        u5611 0906                        _RCIE 0465  
                      u4580 1FD7                        u4660 1E72                        u4900 0AFD  
                      u4820 0A51                        u5540 06B8                        u5460 0596  
                      u5380 04D7                        u5620 0915                        u5700 1497  
                      _RCIF 0065                        u4581 1FD6                        u4661 1E71  
                      u4901 0AFC                        u4821 0A50                        u5365 16B3  
                      u5461 0595                        u5445 0566                        u5381 04D6  
                      u5621 0914                        u4670 1E7E                        u4910 0B15  
                      u4830 0A82                        u5550 06D6                        u5470 05AF  
                      u5390 04EF                        u5630 094B                        u5710 14EB  
                      u4495 1D68                        u4575 1FC7                        u4671 1E7D  
                      u4655 1E63                        u4911 0B14                        u4831 0A81  
                      u5551 06D5                        u5471 05AE                        u5455 058A  
                      u5391 04EE                        u5375 04B7                        u5631 094A  
                      u3880 1B02                        u4920 0B1D                        u4840 0A95  
                      u5560 0736                        u5480 05E6                        u5640 0964  
                      u3881 1B01                        u4585 1FD3                        u4921 0B1C  
                      u4841 0A94                        u5561 0735                        u5481 05E5  
                      u5385 04D3                        u5641 0963                        u4690 1E92  
                      u4770 1DE0                        u4930 0B78                        u4850 0AB2  
                      u5570 075C                        u5490 05FD                        u5650 0971  
                      u4595 1FE0                        u4691 1E91                        u4675 1E7A  
                      u4771 1DDF                        u4931 0B77                        u4851 0AB1  
                      u5571 075B                        u5491 05FC                        u5395 04EB  
                      u5651 0970                        u4780 1DFE                        u4940 0B8E  
                      u4860 0ABE                        u5580 15AD                        u5660 09E0  
                      u4685 1E86                        u4941 0B8D                        u4861 0ABD  
                      u5565 0732                        u5485 05E2                        u5581 15AC  
                      u5661 09DF                        u4790 1E2C                        u4870 0AC5  
                      u4950 1BAE                        u5590 15C4                        u5670 0BC1  
                      u3895 1B0F                        u5807 1A4F                        u4791 1E2B  
                      u4871 0AC4                        u4855 0AAE                        u4951 1BAD  
                      u5575 0758                        u5495 05F9                        u5591 15C3  
                      u5727 0BD8                        u5671 0BC0                        u4880 0ACB  
                      u4960 1F25                        u5680 0D79                        u5817 1CF4  
                      u4881 0ACA                        u4961 1F24                        u5681 0D78  
                      u5737 0C43                        u4890 0AE4                        u4970 1F4A  
                      u5690 146E                        _OERR 00C1                        u4795 1E28  
                      u4891 0AE3                        u4971 1F49                        u5747 1ABE  
                      u5691 146D                        u4965 1F21                        u5757 11D2  
                      u4990 1BF9                        u4895 0AE0                        u4991 1BF8  
                      u5767 11FF                        u5777 1E15                        u4985 1C6C  
                      u5787 1A0F                        u5797 1A36                        _TMR0 0001  
                _ChargeMode 1D8A                        _SPEN 00C7                        _TXIE 0464  
                      _WREN 0C62                        _TXEN 04C5                        _TXIF 0064  
                      _SYNC 04C4                        _Menu 07B6      __end_of_lcd_write_data 1A14  
                      abs@v 0026                        _isr1 12E9                        _main 1454  
                      _init 1C28                        btemp 007E              _CenterReleased 0381  
                      start 0012             ??_robot_turnArc 0059               ??_ReadButtons 0072  
          ??_robotTurnSpeed 005B                       ??_abs 0028       readAvgDistance@tempIR 0032  
                     ?_Menu 0072                       l11021 1B2E                       l11101 1A97  
                     l11031 1B3A                       l11023 1B30                       l11015 1B22  
                     l11033 1B3B                       l11025 1B31                       l11017 1B25  
                     l11041 07B9                       l11201 1D7A                       l12001 162D  
                     l11035 1B3E                       l11027 1B34                       l11019 1B2D  
                     l11051 07DD                       l11043 07BC                       l11203 1D82  
                     l11211 1F9A                       l12011 165D                       l12003 1633  
                     l11037 1B3F                       l11029 1B37                       l11053 07E1  
                     l11045 07C4                       l11061 07FA                       l11141 1A78  
                     l11205 1D89                       l11221 1FB0                       l11213 1F9E  
                     l12013 1669                       l12005 163C                       l12021 16B8  
                     l12101 0659                       l11039 1B40                       l11063 07FC  
                     l11055 07E5                       l11047 07C8                       l11071 1C19  
                     l11143 1A7C                       l11135 1A6B                       l11151 1B80  
                     l11231 1FD7                       l11223 1FB4                       l11215 1FA3  
                     l11207 1F8A                       l11311 1CE1                       l11303 1CC8  
                     l12023 16C9                       l12015 1677                       l12007 1645  
                     l12031 1AC5                       l12111 0692                       l12103 0663  
                     l11057 07E7                       l11049 07CE                       l11073 1C25  
                     l11065 1BFE                       l11081 1A21                       l11145 1A7E  
                     l11137 1A6C                       l11153 1B8D                       l11161 10F9  
                     l11241 1FF2                       l11233 1FDD                       l11225 1FBB  
                     l11217 1FA8                       l11209 1F91                       l11305 1CDD  
                     l11313 1CF2                       l11321 1A3F                       l11401 09F0  
                     l12025 16CE                       l12017 167D                       l12009 1650  
                     l12121 06B8                       l12113 0698                       l12105 0664  
                     l12041 04A6                       l12033 0489                       l12201 089D  
                     l11059 07E8                       l11075 1C26                       l11067 1C00  
                     l11083 1A25                       l11091 1A87                       l11139 1A72  
                     l11155 1B9B                       l11147 1B77                       l11171 1115  
                     l11163 10FF                       l11243 1FF8                       l11235 1FDF  
                     l11227 1FC0                       l11219 1FAA                       l11251 1E4E  
                     l11315 1CF6                       l11307 1CDF                       l11323 1A43  
                     l11331 1A2E                       l11411 0A0F                       l11403 09F7  
                     l12019 1683                       l12027 1AB1                       l12131 06EE  
                     l12123 06C7                       l12115 069C                       l12107 067D  
                     l12051 04EF                       l12043 04BB                       l12035 048D  
                     l12211 08E6                       l12203 08BC                       l11069 1C0B  
                     l11085 1A27                       l11077 1A17                       l11093 1A89  
                     l11157 1BA2                       l11149 1B7C                       l11173 1126  
                     l11165 1103                       l11181 113D                       l11245 1FFF  
                     l11237 1FE6                       l11229 1FC6                       l11261 1E69  
                     l11253 1E52                       l11317 1CFF                       l11309 1CE0  
                     l11325 1A47                       l11333 1A30                       l11341 1A09  
                     l11413 0A14                       l11421 0A59                       l11405 09FC  
                     l11501 1BCE                       l12029 1AB6                       l12141 0736  
                     l12133 06F7                       l12125 06D0                       l12117 06AB  
                     l12109 0683                       l12061 052C                       l12053 04F8  
                     l12045 04C8                       l12037 0493                       l12221 090D  
                     l12213 08EE                       l12205 08C5                       l12301 0CCB  
                     l11079 1A19                       l11095 1A8A                       l11087 1A7F  
                     l11183 1144                       l11175 112C                       l11167 110A  
                     l11159 10F5                       l11191 1D57                       l11239 1FEE  
                     l11271 1E8C                       l11263 1E6E                       l11255 1E58  
                     l11247 1E3E                       l11327 1A4B                       l11319 1A3C  
                     l11335 1A31                       l11343 1A0A                       l11351 1DDB  
                     l11431 0A86                       l11423 0A70                       l11415 0A3D  
                     l11407 09FE                       l11503 1F16                       l11511 1C57  
                     l12151 0798                       l12143 075C                       l12135 0702  
                     l12127 06D6                       l12119 06B4                       l12071 058E  
                     l12063 053E                       l12055 04FD                       l12047 04D7  
                     l12039 04A2                       l12231 0945                       l12223 0915  
                     l12215 08F4                       l12207 08D1                       l12311 0D02  
                     l12303 0CD4                       l11097 1A92                       l11089 1A85  
                     l11177 112E                       l11169 110F                       l11193 1D5C  
                     l11185 1D44                       l11265 1E74                       l11257 1E5E  
                     l11273 1E94                       l11249 1E45                       l11329 1A2B  
                     l11337 1A04                       l11345 1A98                       l11361 1DF2  
                     l11353 1DE0                       l11441 0AB3                       l11433 0A8C  
                     l11425 0A7A                       l11417 0A41                       l11409 09FF  
                     l11505 1F25                       l11513 1C8B                       l11521 1BD0  
                     l11601 1C35                       l12145 077A                       l12137 070F  
                     l12129 06E5                       l12153 079F                       l12081 05E6  
                     l12073 0596                       l12065 0545                       l12057 050F  
                     l12049 04E0                       l12161 1530                       l12241 096A  
                     l12233 094B                       l12225 091C                       l12217 0900  
                     l12209 08DA                       l12321 0D53                       l12313 0D0A  
                     l12305 0CDC                       l11099 1A94                       l11179 1135  
                     l11195 1D62                       l11187 1D4C                       l11275 1E98  
                     l11267 1E7E                       l11259 1E62                       l11339 1A07  
                     l11347 080F                       l11371 1E34                       l11363 1DFA  
                     l11355 1DE7                       l11451 0ACB                       l11443 0AB4  
                     l11435 0A8F                       l11427 0A7E                       l11419 0A58  
                     l11507 1F4A                       l11515 19F9                       l11523 1BE0  
                     l11531 1B53                       l11611 1C49                       l11603 1C37  
                     l12155 07B0                       l12147 077E                       l12139 071B  
                     l12091 0625                       l12083 05FE                       l12075 05A8  
                     l12059 0526                       l12067 0558                       l12171 1571  
                     l12163 1539                       l12243 0971                       l12235 095A  
                     l12227 0921                       l12219 0907                       l12251 09D8  
                     l12315 0D15                       l12307 0CE1                       l12323 0D54  
                     l12331 145D                       l11197 1D6C                       l11189 1D50  
                     l11277 1E9E                       l11269 1E85                       l11373 1E37  
                     l11365 1DFE                       l11357 1DEE                       l11349 1DD7  
                     l11381 1C8C                       l11461 0B05                       l11453 0AE4  
                     l11445 0AB8                       l11437 0A96                       l11429 0A82  
                     l11509 1F69                       l11517 19FA                       l11525 1BE9  
                     l11541 1B64                       l11533 1B54                       l11613 1C4E  
                     l11605 1C3B                       l11621 1145                       l11701 0F60  
                     l12149 0787                       l12093 0631                       l12085 0605  
                     l12077 05AF                       l12069 056A                       l12181 15AD  
                     l12173 1581                       l12165 1549                       l12157 1520  
                     l12245 099B                       l12237 095E                       l12229 093D  
                     l12317 0D1A                       l12309 0CE6                       l12261 0BD0  
                     l12325 0D71                       l12253 0B98                       l12341 146E  
                     l12333 145E                       l11199 1D73                       l11279 1EA5  
                     l11375 1E38                       l11367 1E07                       l11359 1DF1  
                     l11391 1CAC                       l11383 1C92                       l11471 0B29  
                     l11463 0B09                       l11455 0AF2                       l11447 0ABF  
                     l11439 0A97                       l11519 1BCF                       l11543 1B6A  
                     l11535 1B57                       l11527 1B4C                       l11551 1760  
                     l11615 1C53                       l11607 1C3F                       l11631 1174  
                     l11623 114F                       l11711 0FE1                       l11703 0F66  
                     l12407 0F3A                       l12095 0636                       l12087 0613  
                     l12079 05C2                       l12183 15BD                       l12175 158D  
                     l12167 1558                       l12159 1521                       l12247 09BA  
                     l12239 0964                       l12191 0864                       l12319 0D34  
                     l12271 0C13                       l12263 0BDF                       l12255 0B9A  
                     l12343 146F                       l12351 1491                       l12335 145F  
                     l12327 1454                       l11377 1E39                       l11369 1E2E  
                     l11393 1CB4                       l11385 1C96                       l11473 0B2E  
                     l11465 0B17                       l11457 0AF7                       l11449 0AC5  
                     l11481 0B7A                       l11545 1B70                       l11537 1B58  
                     l11529 1B50                       l11553 1783                       l11561 11BC  
                     l11617 1C54                       l11609 1C44                       l11633 1186  
                     l11625 115D                       l11713 0FEE                       l11705 0F8B  
                     l11641 0D94                       l11721 1EA6                       l11801 12DD  
                     l12097 0645                       l12089 0618                       l12185 15C4  
                     l12177 1595                       l12169 1561                       l12249 09BB  
                     l12193 0865                       l12281 0C3B                       l12273 0C1F  
                     l12265 0BE7                       l12257 0BB9                       l12361 14B5  
                     l12353 1497                       l12345 1475                       l12337 1464  
                     l12329 145C                       l10851 1A96                       l11379 1E3A  
                     l11395 1CBC                       l11387 1C9E                       l11475 0B62  
                     l11467 0B1D                       l11459 0AFE                       l11483 0B90  
                     l11491 1BAF                       l11539 1B5E                       l11555 178A  
                     l11547 16E1                       l11571 11E1                       l11563 11C0  
                     l11619 1C55                       l11635 1194                       l11627 115E  
                     l11707 0F9C                       l11651 0DE8                       l11643 0D9A  
                     l11715 0FEF                       l11731 1ECB                       l11723 1EAB  
                     l11811 0034                       l11803 0015                       l12099 0650  
                     l12187 15D5                       l12179 15A5                       l12195 0875  
                     l12291 0C8F                       l12283 0C4A                       l12275 0C2E  
                     l12267 0BE8                       l12259 0BC1                       l12371 14D8  
                     l12363 14BA                       l12355 14A4                       l12347 147A  
                     l12339 146A                       l10861 1B05                       l11389 1CA4  
                     l11485 0B97                       l11477 0B69                       l11469 0B24  
                     l11397 09E5                       l11493 1BBB                       l11557 17AF  
                     l11549 1759                       l11581 1217                       l11573 11ED  
                     l11565 11C6                       l11637 11B5                       l11629 116B  
                     l11709 0FBD                       l11661 0E56                       l11653 0DFB  
                     l11645 0DC2                       l11741 1EF8                       l11733 1ED6  
                     l11725 1EB7                       l11901 02A5                       l11821 0069  
                     l11813 0041                       l11805 001D                       l12189 15D6  
                     l12197 0890                       l12293 0CAB                       l12285 0C59  
                     l12277 0C32                       l12269 0C09                       l12381 14FC  
                     l12373 14E0                       l12365 14C0                       l12357 14A7  
                     l12349 148B                       l10863 1B18                       l11479 0B6E  
                     l11399 09EA                       l11495 1BC1                       l11487 1BA3  
                     l11559 17B6                       l11583 1220                       l11575 11F3  
                     l11567 11CC                       l11591 1A60                       l11671 0E95  
                     l11663 0E62                       l11655 0E0E                       l11647 0DD3  
                     l11639 0D7B                       l11743 1EFA                       l11735 1EE4  
                     l11751 1F00                       l11727 1EC6                       l11911 02DA  
                     l11903 02AC                       l11831 00D3                       l11823 007B  
                     l11815 0050                       l11807 002C                       l12199 0891  
                     l12295 0CB7                       l12287 0C7B                       l12279 0C3A  
                     l12375 14EB                       l12367 14C9                       l12359 14AD  
                     l12383 14FD                  _FindVictim 0B98                       l10865 1B21  
                     l10857 1AF9                       l10849 1A94                       l11497 1BC9  
                     l11489 1BA5                       l11585 122B                       l11577 11F9  
                     l11569 11D7                       l11593 1A67                       l11681 0EEA  
                     l11673 0EA1                       l11665 0E6D                       l11657 0E14  
                     l11649 0DD9                       l11745 1EFB                       l11737 1EE8  
                     l11729 1ECA                       l11761 1D9E                       l11753 1D8A  
                     l11921 0312                       l11913 02E2                       l11905 02BC  
                     l11841 0133                       l11833 00E3                       l11825 0093  
                     l11817 0055                       l11809 002F                       l12297 0CBF  
                     l12289 0C8A                       l12377 14F1                       l12369 14D3  
                     l12385 1513                       l10859 1AFC                       l11499 1BCA  
                     l11587 1238                       l11579 1204                       l11595 1C28  
                     l11691 0F26                       l11683 0EF6                       l11675 0EAD  
                     l11667 0E7E                       l11659 0E2B                       l11747 1EFD  
                     l11739 1EF4                       l11771 1DC0                       l11763 1DB2  
                     l11755 1D92                       l11931 034A                       l11923 031A  
                     l11915 02F3                       l11907 02C3                       l11851 0161  
                     l11843 0139                       l11835 00FF                       l11827 00A5  
                     l11819 0064                       l12299 0CC2                       l12379 14F5  
                     l11589 1A52                       l11597 1C2B                       l11693 0F32  
                     l11685 0F02                       l11677 0EB8                       l11669 0E84  
                     l11749 1EFF                       l11765 1DB8                       l11773 1DC1  
                     l11757 1D99                       l11781 125F                       l11941 0379  
                     l11933 0358                       l11917 02FA                       l11909 02D3  
                     l11925 031B                       l11861 018C                       l11853 016A  
                     l11845 0148                       l11837 0119                       l11829 00B7  
                     l11599 1C2D                       l11687 0F0E                       l11695 0F33  
                     l11679 0EE3                       l11767 1DBB                       l11759 1D9D  
                     l11791 1283                       l11783 1266                       l11775 1245  
                     l11951 03A8                       l11943 037D                       l11935 035E  
                     l11919 0301                       l11927 0334                       l11871 01C5  
                     l11863 019B                       l11855 016E                       l11847 014E  
                     l11839 011A                       l11689 0F1A                       l11697 0F4E  
                     l11769 1DBD                       l11793 1290                       l11785 126B  
                     l11777 124D                       l11961 03D8                       l11953 03B1  
                     l11945 038C                       l11937 0364                       l11929 033B  
                     l11873 01D1                       l11865 01A4                       l11857 017D  
                     l11849 0152                       l11881 0222                       l11699 0F54  
                     l11795 129C                       l11787 126F                       l11779 1259  
                     l11971 041D                       l11963 03E3                       l11955 03B7  
                     l11947 0395                       l11939 0373                       l11891 0267  
                     l11883 0227                       l11875 01DF                       l11867 01AD  
                     l11859 0186                       l11797 12A2                       l11789 1278  
                     l11981 0483                       l11973 0429                       l11965 03F0  
                     l11957 03C6                       l11949 0399                       l11893 0277  
                     l11885 0249                       l11877 01E8                       l11869 01B8  
      __size_of_calibrateIR 0070                       l11799 12A8                       l11975 0437  
                     l11967 03FC                       l11959 03CF                       l11895 027E  
                     l11887 0250                       l11879 021B                       l11991 160F  
                     l11983 15ED                       l11969 0410                       l11977 043D  
                     l11897 028E                       l11889 0260                       l11993 1613  
                     l11985 15F1                       l11979 0472                       l11899 0295  
                     l11995 1617                       l11987 1603                       l11997 1620  
                     l11989 1609                       l11999 1624                       ?_isr1 0072  
                     ?_main 0072                       ?_init 0072             __end_of___awdiv 2000  
                     _EEADR 010D                       STR_10 10BF                       STR_11 10CF  
                     STR_20 10D6                       STR_12 10C3                       STR_21 10D9  
                     STR_13 104A                       STR_22 10D3                       STR_14 103A  
                     STR_23 10DC                       STR_15 10B7                       STR_24 10DF  
                     STR_16 10A6                       STR_25 10D3                       STR_17 10BB  
                     STR_26 1068                       STR_18 101A                       STR_19 10AE  
                     STR_27 102A                       STR_28 1059             __end_of___awmod 1EA6  
                     _CARRY 0018             ___awdiv@divisor 0020             __end_of___lwdiv 1145  
           __end_of___lwmod 1D8A             ___awdiv@counter 0025                       _RCREG 001A  
                     _SPBRG 0099                       _PORTA 0005                       _PORTD 0008  
                     _PORTE 0009                       _TRISA 0085                       _TRISB 0086  
                     _TRISC 0087                       _TRISD 0088                       _TRISE 0089  
                     _SSPIF 0063                       _TXREG 0019                       _Disp1 00A4  
                     _Disp2 00A6      lcd_write_data@databyte 0022          i1___lwmod@dividend 0074  
           __end_of_isdigit 1A7F                       _total 00BA              __pbitbssCOMMON 0380  
                     pclath 000A                 _turnlowByte 00D8             ?_lcd_write_data 0072  
         ?_adc_read_channel 0072                       status 0003                       wtemp0 007E  
           __end_of_sprintf 0B98          __size_ofi1___lwmod 0044          ??_adc_read_channel 0026  
          ?_readAvgDistance 0072            robotFollow@temp1 0068            robotFollow@speed 0060  
              __end_of_Menu 07FD  __size_of_lcd_write_control 0014            _shortMenuStrings 00E1  
              __end_of_isr1 1393                __end_of_main 1520                __end_of_init 1C57  
           rotate@direction 0025              _Init_Follow_IR 1AB1                      ??_Menu 0020  
             ?_readDistance 0028      readAvgDistance@fullval 002E       __end_of_RobotBattRead 1245  
                    ??_isr1 0078                      ??_main 006E                      ??_init 0023  
       __end_of_ReadButtons 1454  __size_of_robot_turnInPlace 00CD               Menu@BTN_input 0020  
                    _ADCON0 001F                      _ADCON1 009F                      _ADRESH 001E  
                    _ADRESL 009E                      _EEDATA 010C                      _EECON1 018C  
                    _EECON2 018D            ___awdiv@dividend 0022            __end_of_adc_read 1B22  
               ?_ChargeMode 0072                      i1l2280 1340                      i1l2281 1310  
                    i1l2282 132D                      i1l2283 133F                      i1l2284 1361  
                    i1l2285 1360                      i1l2286 1387                      i1l2287 1386  
                    i1l2288 1387                      i1l4630 13E9                      i1l4631 13E8  
                    i1l4640 1453                      i1l4632 13ED                      i1l4624 13AD  
                    i1l4641 1439                      i1l4633 1407                      i1l4625 13AC  
                    i1l4642 1441                      i1l4634 1406                      i1l4626 13B1  
                    i1l4643 1449                      i1l4635 140B                      i1l4627 13CB  
                    i1l4644 1451                      i1l4636 1425                      i1l4628 13CA  
                    i1l4637 1424                      i1l4629 13CF                      i1l4638 1429  
                    i1l4639 1431                      i1l7820 1D16                      i1l7821 1D0A  
                    i1l7822 1D1B                      i1l7823 1D1C                      i1l7824 1D2D  
                    u400_20 136C                      i1l7825 1D3B                      u400_21 136B  
                    i1l7826 1D43                      i1l7819 1D3C                      u401_20 1384  
                    u401_21 1383                      u410_20 13E5                      u402_20 1399  
                    u410_21 13E4                      u402_21 1398                      u411_20 13F3  
                    u403_20 13A5                      u411_21 13F2                      u403_21 13A4  
                    u420_20 1445                      u412_20 13FF                      u404_20 13A9  
                    u420_21 1444                      u412_21 13FE                      u404_21 13A8  
                    u421_20 144D                      u413_20 1403                      u405_20 13B7  
                    u421_21 144C                      u413_21 1402                      u405_21 13B6  
                    u414_20 1411                      u406_20 13C3                      u414_21 1410  
                    u406_21 13C2                      u415_20 141D                      u407_20 13C7  
                    u415_21 141C                      u407_21 13C6                      u416_20 1421  
                    u408_20 13D5                      u416_21 1420                      u408_21 13D4  
                    u417_20 142D                      u409_20 13E1                      u417_21 142C  
                    u409_21 13E0                      u418_20 1435                      u418_21 1434  
                    u419_20 143D                      u419_21 143C                 _DistLowByte 00C5  
                    u471_20 1D06                      u471_21 1D05                      u472_25 1D0B  
                    u473_20 1D1A                      u393_20 12ED                      u473_21 1D19  
                    u393_21 12EC                      u474_20 1D26                      u394_20 130E  
                    u474_21 1D25                      u394_21 130D                      u474_25 1D22  
                    u395_20 1327                      u395_21 1326                      u475_25 1D2E  
                    u476_20 1D3A                      u396_20 1334                      u476_21 1D39  
                    u396_21 1333                      u397_20 1345                      u397_21 1344  
                    u398_20 135B                      u398_21 135A                      u399_20 1366  
                    u399_21 1365                      _TMR0IE 005D                      _TMR0IF 005A  
                    _SSPCON 0014                      _SSPBUF 0013                      _GoHome 0864  
                _UpReleased 038C            __end_of_lcd_init 1B77                      _adcVal 00AE  
           _UpDebounceCount 00CC      __end_of_Init_Follow_IR 1AD2             RobotDrive@speed 0029  
                _RobotDrive 1C8C                      ___wmul 1B77                   ??___awdiv 0024  
                 ??___awmod 0024                _turnhighByte 00D7                   ??___lwdiv 0024  
                 ??___lwmod 002C            __end_of_init_adc 1A52              ??_readDistance 002A  
          ___awdiv@quotient 0027             ___awmod@divisor 0020    __end_of_lcd_write_string 1BFB  
               ?_FindVictim 0072             ___awmod@counter 0025                ?_robotFollow 0060  
                    _rotate 1DD7                      _rxfifo 01A0                      clrloop 19EF  
                    _txfifo 01B0                      _rxiptr 00D4                      _rxoptr 00D5  
               _BumpSensors 00C2                      _txiptr 00D9                      _txoptr 00DA  
     robotFollow@hysterysis 006A            __end_of_ser_init 1B4C            __end_of_ser_isrx 1A98  
         __end_ofi1___lwmod 1D44                   ??_isdigit 0020                      saved_w 007E  
              _AngleLowByte 00C1                 _LeftPressed 0384      RobotDrive@speedlowByte 002E  
                 ??_sprintf 0033                 _DownPressed 0382           lcd_write_string@s 0027  
              _CliffSensors 00C4              __pcstackCOMMON 0072             ?_Init_Follow_IR 0072  
              __pidataBANK1 0803                 _ReadButtons 1393                 _FoundVictim 00C7  
       __size_of_ChargeMode 004D            ??_lcd_set_cursor 0023                sprintf@width 003E  
             _buttonPressed 00CF                  __pbssBANK1 00A0                  __pbssBANK3 0190  
         _DownDebounceCount 00C6         __size_of_FindVictim 01E3                     ?_GoHome 0072  
        _RightDebounceCount 00CA                  __pmaintext 1454                 ?_RobotDrive 0029  
                   ?___wmul 0020       __end_of_robotLoadSong 0864                  __pintentry 0004  
              _DistHighByte 007D                  __ptext1100 1245                  __ptext1101 1D8A  
                __ptext1110 1BCF                  __ptext1102 1EA6                  __ptext1111 19F6  
                __ptext1103 0D7B                  __ptext1120 1A01                  __ptext1112 1C57  
                __ptext1104 1145                  __ptext1121 1A28                  __ptext1113 1F16  
                __ptext1105 1C28       __end_of_UpdateDisplay 1000                  __ptext1130 1A7F  
                __ptext1122 1A3C                  __ptext1114 1BA3                  __ptext1106 1A52  
                __ptext1131 1A14                  __ptext1123 1CC5                  __ptext1115 09E2  
                __ptext1107 11BC                  __ptext1132 1BFB                  __ptext1124 1E3E  
                __ptext1116 1C8C                  __ptext1108 16DE                  __ptext1133 07B6  
                __ptext1125 1F8A                  __ptext1117 1DD7                  __ptext1109 1B4C  
                __ptext1134 1B22                  __ptext1126 1D44                  __ptext1118 080F  
                __ptext1135 1AF9                  __ptext1127 10F5                  __ptext1119 1A98  
                __ptext1136 12E9                  __ptext1128 1B77                  __ptext1137 1D00  
                __ptext1129 1A68                  __ptext1138 1393                  __ptext1139 0000  
                __ptext1093 0B98                  __ptext1094 0864                  __ptext1095 1520  
                __ptext1096 0489                  __ptext1097 1AB1                  __ptext1098 15ED  
                __ptext1099 0015          __size_of_ser_getch 002C                   ?_adc_read 0020  
                   ?_rotate 0023          __size_of_ser_putch 002D          __size_of_robo_init 0019  
                   i1l11001 1446                     i1l11011 1451                     i1l11003 1448  
                   i1l11013 1453                     i1l11005 144D                     i1l11007 144E  
                   i1l11009 1450                     i1l11301 1D43                     i1l11281 1D00  
                   i1l11291 1D1C                     i1l11283 1D06                     i1l11293 1D26  
                   i1l11285 1D0A                     i1l10901 12F9                     i1l11295 1D2D  
                   i1l11287 1D11                     i1l10911 132D                     i1l10903 130E  
                   i1l11297 1D34                     i1l11289 1D16                     i1l10921 1355  
                   i1l10913 1334                     i1l10905 1310                     i1l11299 1D3C  
                   i1l10931 1374                     i1l10923 135B                     i1l10907 1327  
                   i1l10915 1340                     i1l10941 1399                     i1l10933 137A  
                   i1l10917 1345                     i1l10925 1361                     i1l10909 1328  
                   i1l10951 13BD                     i1l10943 139F                     i1l10935 137E  
                   i1l10927 1366                     i1l10919 134F                     i1l10961 13E1  
                   i1l10953 13C3                     i1l10945 13A5                     i1l10937 1384  
                   i1l10929 136C                     i1l10971 1403                     i1l10963 13E5  
                   i1l10955 13C7                     i1l10947 13A9                     i1l10939 1393  
                   i1l10981 142D                     i1l10973 1411                     i1l10965 13F3  
                   i1l10957 13D5                     i1l10949 13B7                     i1l10893 12E9  
                   i1l10991 1438                     i1l10983 142E                     i1l10975 1417  
                   i1l10967 13F9                     i1l10959 13DB                     i1l10895 12ED  
                   i1l10993 143D                     i1l10985 1430                     i1l10977 141D  
                   i1l10969 13FF                     i1l10897 12EE                     i1l10995 143E  
                   i1l10987 1435                     i1l10979 1421                     i1l10899 12F8  
                   i1l10997 1440                     i1l10989 1436                     i1l10999 1445  
        __size_of_robotTurn 0074            ??_lcd_write_data 0020                   ?_lcd_init 0072  
                   _SSPSTAT 0094        __end_of_readDistance 1A68                   ?_init_adc 0072  
           __size_of_GoHome 017E                   ?_ser_init 0072                   ?_ser_isrx 0072  
     __end_of_robot_turnArc 0489            RobotDrive@radius 002B               ??_calibrateIR 0057  
                   ___awdiv 1F8A                     ___awmod 1E3E             __size_of___wmul 002C  
                   ___lwdiv 10F5                     ___lwmod 1D44   __size_of_adc_read_channel 003B  
                ??_adc_read 0022             __size_of_rotate 0067                     _dpowers 1010  
              __size_of_abs 0035       UpdateDisplay@tempDist 0055                     _isdigit 1A68  
      __size_of_robotFollow 032D            ___awmod@dividend 0022                     _lowByte 00D3  
                   _ser_tmp 00D6                     _sprintf 09E2                  ??_lcd_init 0023  
       __size_of_RobotDrive 0039        end_of_initialization 1AF5               _AngleHighByte 00C0  
              ??_ChargeMode 0057          robot_read@readType 0023           __end_of_ser_getch 1BCF  
                   init_ram 10E6                  ??_init_adc 0020     __size_of_robotMoveSpeed 00F1  
         __end_of_ser_putch 1C28     RobotDrive@speedhighByte 002F           __end_of_robo_init 1AB1  
              _LeftReleased 0385           __end_of_robotTurn 1F8A                  ??_ser_init 0020  
                ??_ser_isrx 0020                     rotate@i 0028                _DownReleased 0383  
             _RightReleased 038A    __size_of_readAvgDistance 0077                  _robot_read 16DE  
              ??_FindVictim 006B          RobotBattRead@temp1 0024           ?_lcd_write_string 0027  
        __end_of_ChargeMode 1DD7          robot_turnArc@temp1 0060          robot_turnArc@speed 0057  
       __end_of_calibrateIR 1F16          ??_lcd_write_string 0029                 AT25256A@CS0 0038  
               AT25256A@CS1 0039           adc_read@adc_value 0024     __size_of_robotTurnSpeed 00A4  
                 i1___lwmod 1D00                  _totalSteps 00BC                  main@choice 00E7  
             ?_spi_transfer 0072            ??_Init_Follow_IR 0057                   _BattState 00A2  
    __size_of_RobotBattRead 0089          __end_of_FindVictim 0D7B              __end_of_GoHome 09E2  
               _VwallSensor 00CE               _CenterPressed 0380                ?_ReadButtons 0072  
            __end_of___wmul 1BA3           i1___lwmod@divisor 0072           i1___lwmod@counter 0077  
            __end_of_rotate 1E3E         start_initialization 1AD2      UpdateDisplay@LCDOutput 0045  
               __end_of_abs 1C8C       __size_of_readDistance 0016                  ?i1___lwmod 0072  
        _TotalDistTravelled 00AC              ??_spi_transfer 0020                    ??_GoHome 006B  
     lcd_set_cursor@address 0023      robot_turnArc@AdcTarget 005E                   _UpPressed 038B  
              ??_RobotDrive 002D              _RTC_FLAG_250MS 0387              _RTC_FLAG_500MS 0388  
                  ??___wmul 0024              rotate@numsteps 0023                 _calibrateIR 1EA6  
               __pdataBANK1 00DB            _adc_read_channel 1CC5                 ?_robot_read 0072  
                  ??_rotate 0026                _readDistance 1A52               _RobotBattRead 11BC  
         __size_of_adc_read 0029                 __pbssCOMMON 007D           ??_readAvgDistance 002E  
             __pcstackBANK0 0020               __pcstackBANK1 00E7                _isdigit$8696 0020  
    robotMoveSpeed@distance 0057          __end_of_RobotDrive 1CC5           __size_of_lcd_init 002B  
            _robotMoveSpeed 15ED                 sprintf@_val 0039                 sprintf@flag 0038  
               sprintf@prec 0037            readAvgDistance@i 0034            readAvgDistance@j 0030  
         __size_of_init_adc 0016            ___lwdiv@dividend 0022                 _angleTurned 00B0  
                  ?___awdiv 0020                    ?___awmod 0020           __size_of_ser_init 002A  
         __size_of_ser_isrx 0019                    ?___lwdiv 0020                    ?___lwmod 0028  
                 __pstrings 1000                   _dist_high 00B4              ?_RobotBattRead 0072  
       readDistance@readVal 002C                    ?_isdigit 0072              _robotTurnSpeed 1245  
       robotTurnSpeed@angle 0057                   _followDir 00D1         robotTurnSpeed@temp1 005E  
       robotTurnSpeed@speed 0059                  ser_getch@c 0021            ___lwdiv@quotient 0025  
               ??i1___lwmod 0076                    ?_sprintf 002E      __end_of_robotMoveSpeed 16DE  
    __size_of_robotLoadSong 0055     __size_of_lcd_set_cursor 000B           interrupt_function 0004  
    __size_of_UpdateDisplay 0285              ___wmul@product 0024         __size_of_robot_read 0122  
                ser_putch@c 0021                   _ser_getch 1BA3                   _ser_putch 1BFB  
                 _robo_init 1A98                   _robotTurn 1F16                _RightPressed 0389  
   robot_turnArc@turnTarget 005C        __size_of_ReadButtons 00C1               ??_robotFollow 0064  
      __end_of_spi_transfer 1A28      __end_of_robotTurnSpeed 12E9                 __stringbase 100F  
         ___wmul@multiplier 0020            spi_transfer@data 0022            spi_transfer@temp 0021  
    __size_of_robot_turnArc 0474           _LeftDebounceCount 00C8             ?_robotMoveSpeed 0057  
 __size_of_lcd_write_string 002C     __size_of_lcd_write_data 0013                  ?_ser_getch 0072  
                ?_ser_putch 0072     adc_read_channel@channel 0027                    _RobotPos 00CB  
                ?_robo_init 0072                   init_fetch 10E2                  ?_robotTurn 0022  
          __size_of___awdiv 0076             ??_RobotBattRead 0022            __size_of___awmod 0068  
             _robotLoadSong 080F            __size_of___lwdiv 0050            __size_of___lwmod 0046  
             _UpdateDisplay 0D7B                    _adc_read 1AF9             ?_robotTurnSpeed 0057  
               _currentMenu 00D0            __size_of_isdigit 0017             ___lwdiv@divisor 0020  
       __end_of_robotFollow 07B6             ___lwdiv@counter 0027                 _menuStrings 00DB  
                  _highByte 00D2                    _lcd_init 1B4C                    _dist_low 00B6  
          __size_of_sprintf 01B6    __end_of_adc_read_channel 1D00   lcd_write_control@databyte 0022  
             __size_of_Menu 0047                    _init_adc 1A3C               __size_of_isr1 00AA  
             __size_of_main 00CC               __size_of_init 002F                    clear_ram 19EE  
                  _ser_init 1B22        robotFollow@AdcTarget 0062                    _ser_isrx 1A7F  
             _robot_turnArc 0015             _readAvgDistance 1145                ?_calibrateIR 0072  
            ?_robotLoadSong 0072              ?_UpdateDisplay 0072                ??_robot_read 0022  
              _VictimSensor 00CD         _CenterDebounceCount 00C3                _RTC_FLAG_1MS 0386  
        UpdateDisplay@F1260 0190                    isdigit@c 0021                    intlevel1 0000  
            _lcd_set_cursor 19F6                   sprintf@ap 0036                   sprintf@sp 003D  
            robotTurn@angle 0022            ___lwmod@dividend 002A          __end_of_robot_read 1800  
                 stringcode 100A                 ??_ser_getch 0020                 ??_ser_putch 0020  
             _distTravelled 00B2              ?_robot_turnArc 0057                 ??_robo_init 0022  
     __size_of_spi_transfer 0014                 ??_robotTurn 0024           _lcd_write_control 1A28  
   __size_of_Init_Follow_IR 0021                 _robotFollow 0489          ?_lcd_write_control 0072  
                _OPTION_REG 0081                    sprintf@c 0040                    sprintf@f 002E  
       robotMoveSpeed@temp1 005E         robotMoveSpeed@speed 0059             ___lwmod@divisor 0028  
                _ROBOTerror 00C9             ___lwmod@counter 002D                    stringdir 100A  
                  stringtab 1000           _robot_turnInPlace 1520         ??_lcd_write_control 0020  
    __end_of_lcd_set_cursor 1A01          ?_robot_turnInPlace 0072                _trackingDist 00BE  
          _lcd_write_string 1BCF    RobotDrive@radiushighByte 0031                _spi_transfer 1A14  
               _RTC_Counter 00AA         ??_robot_turnInPlace 0060     __end_of_readAvgDistance 11BC  
            _lcd_write_data 1A01             ??_robotLoadSong 0022  
