opt subtitle "HI-TECH Software Omniscient Code Generator (Lite mode) build 10920"

opt pagewidth 120

	opt lm

	processor	16F877A
clrc	macro
	bcf	3,0
	endm
clrz	macro
	bcf	3,2
	endm
setc	macro
	bsf	3,0
	endm
setz	macro
	bsf	3,2
	endm
skipc	macro
	btfss	3,0
	endm
skipz	macro
	btfss	3,2
	endm
skipnc	macro
	btfsc	3,0
	endm
skipnz	macro
	btfsc	3,2
	endm
indf	equ	0
indf0	equ	0
pc	equ	2
pcl	equ	2
status	equ	3
fsr	equ	4
fsr0	equ	4
c	equ	1
z	equ	0
pclath	equ	10
# 35 "E:\Aldnoah.Zero\Assignment3\Main.c"
	psect config,class=CONFIG,delta=2 ;#
# 35 "E:\Aldnoah.Zero\Assignment3\Main.c"
	dw 0xFFFE & 0xFFFB & 0xFFFF & 0xFFBF & 0xFFF7 & 0xFFFF & 0xFF7F & 0xFFFF ;#
	FNCALL	_main,_init
	FNCALL	_main,_robot_read
	FNCALL	_main,_readAvgDistance
	FNCALL	_main,_UpdateDisplay
	FNCALL	_main,_Menu
	FNCALL	_main,_calibrateIR
	FNCALL	_main,_scan360
	FNCALL	_main,_rotate
	FNCALL	_main,_robotMove
	FNCALL	_main,_robotTurn
	FNCALL	_main,_ChargeMode
	FNCALL	_robotMove,_ser_putch
	FNCALL	_robotMove,_robot_read
	FNCALL	_robotMove,_UpdateDisplay
	FNCALL	_scan360,_readAvgDistance
	FNCALL	_scan360,_rotate
	FNCALL	_scan360,_UpdateDisplay
	FNCALL	_ChargeMode,_ser_putch
	FNCALL	_ChargeMode,_UpdateDisplay
	FNCALL	_calibrateIR,_rotate
	FNCALL	_calibrateIR,_UpdateDisplay
	FNCALL	_readAvgDistance,_readDistance
	FNCALL	_readAvgDistance,___lwdiv
	FNCALL	_readAvgDistance,_ADCconvert
	FNCALL	_UpdateDisplay,_lcd_write_control
	FNCALL	_UpdateDisplay,_sprintf
	FNCALL	_UpdateDisplay,_lcd_set_cursor
	FNCALL	_UpdateDisplay,_lcd_write_string
	FNCALL	_UpdateDisplay,___awmod
	FNCALL	_init,_ser_init
	FNCALL	_init,_init_adc
	FNCALL	_init,_lcd_init
	FNCALL	_init,_robo_init
	FNCALL	_readDistance,_adc_read_channel
	FNCALL	_robot_read,_ser_putch
	FNCALL	_robot_read,_ser_getch
	FNCALL	_lcd_init,_lcd_write_control
	FNCALL	_lcd_write_string,_lcd_write_data
	FNCALL	_lcd_set_cursor,_lcd_write_control
	FNCALL	_ser_getch,_ser_isrx
	FNCALL	_sprintf,___lwdiv
	FNCALL	_sprintf,___lwmod
	FNCALL	_ADCconvert,___wmul
	FNCALL	_ADCconvert,___lwdiv
	FNCALL	_robotTurn,_ser_putch
	FNCALL	_rotate,_spi_transfer
	FNCALL	_robo_init,_ser_putch
	FNCALL	_adc_read_channel,_adc_read
	FNROOT	_main
	FNCALL	_isr1,i1___lwmod
	FNCALL	_isr1,_ReadButtons
	FNCALL	_ReadButtons,_Debounce
	FNCALL	intlevel1,_isr1
	global	intlevel1
	FNROOT	intlevel1
	global	_menuStrings
	global	_shortMenuStrings
	global	_current_step
psect	idataBANK1,class=CODE,space=0,delta=2
global __pidataBANK1
__pidataBANK1:
	file	"E:\Aldnoah.Zero\Assignment3\HMI.c"
	line	32

;initializer for _menuStrings
	retlw	(STR_1-__stringbase)&0ffh
	retlw	(STR_2-__stringbase)&0ffh
	retlw	(STR_3-__stringbase)&0ffh
	retlw	(STR_4-__stringbase)&0ffh
	retlw	(STR_5-__stringbase)&0ffh
	retlw	(STR_6-__stringbase)&0ffh
	line	33

;initializer for _shortMenuStrings
	retlw	(STR_7-__stringbase)&0ffh
	retlw	(STR_8-__stringbase)&0ffh
	retlw	(STR_9-__stringbase)&0ffh
	retlw	(STR_10-__stringbase)&0ffh
	retlw	(STR_11-__stringbase)&0ffh
	retlw	(STR_12-__stringbase)&0ffh
	file	"E:\Aldnoah.Zero\Assignment3\steppermotor.c"
	line	30

;initializer for _current_step
	retlw	03Ch
	global	_dpowers
psect	strings,class=STRING,delta=2
global __pstrings
__pstrings:
;	global	stringdir,stringtab,__stringbase
stringtab:
;	String table - string pointers are 1 byte each
	btfsc	(btemp+1),7
	ljmp	stringcode
	bcf	status,7
	btfsc	(btemp+1),0
	bsf	status,7
	movf	indf,w
	incf fsr
skipnz
incf btemp+1
	return
stringcode:stringdir:
movlw high(stringdir)
movwf pclath
movf fsr,w
incf fsr
	addwf pc
__stringbase:
	retlw	0
psect	strings
	file	"C:\Program Files\HI-TECH Software\PICC\9.83\lib\doprnt.c"
	line	350
_dpowers:
	retlw	01h
	retlw	0

	retlw	0Ah
	retlw	0

	retlw	064h
	retlw	0

	retlw	0E8h
	retlw	03h

	retlw	010h
	retlw	027h

	global	_dpowers
	global	_RTC_Counter
	global	_adcVal
	global	_BumpSensors
	global	_rxiptr
	global	_rxoptr
	global	_txiptr
	global	_txoptr
	global	UpdateDisplay@F1229
	global	_buttonPressed
	global	_CenterPressed
	global	_CenterReleased
	global	_DownPressed
	global	_DownReleased
	global	_LeftPressed
	global	_LeftReleased
	global	_RTC_FLAG_10MS
	global	_RTC_FLAG_1MS
	global	_RTC_FLAG_250MS
	global	_RTC_FLAG_500MS
	global	_RTC_FLAG_50MS
	global	_RightPressed
	global	_RightReleased
	global	_UpPressed
	global	_UpReleased
	global	_rxfifo
	global	_txfifo
	global	_distTravelled
	global	_dist_high
	global	_dist_low
	global	_distance
	global	_pos
	global	_test
	global	_total
	global	_totalSteps
	global	_CenterDebounceCount
	global	_DistHighByte
	global	_DistLowByte
	global	_DownDebounceCount
	global	_LeftDebounceCount
	global	_RightDebounceCount
	global	_UpDebounceCount
	global	_currentMenu
	global	_current_direction
	global	_highByte
	global	_lowByte
	global	_ser_tmp
	global	_serialInput
	global	_turnhighByte
	global	_turnlowByte
	global	_ADCON0
_ADCON0	set	31
	global	_ADRESH
_ADRESH	set	30
	global	_PORTA
_PORTA	set	5
	global	_PORTC
_PORTC	set	7
	global	_PORTD
_PORTD	set	8
	global	_PORTE
_PORTE	set	9
	global	_RCREG
_RCREG	set	26
	global	_SSPBUF
_SSPBUF	set	19
	global	_SSPCON
_SSPCON	set	20
	global	_TMR0
_TMR0	set	1
	global	_TXREG
_TXREG	set	25
	global	AT25256A@CS0
AT25256A@CS0	set	56
	global	AT25256A@CS1
AT25256A@CS1	set	57
	global	_CARRY
_CARRY	set	24
	global	_CHS0
_CHS0	set	251
	global	_CHS1
_CHS1	set	252
	global	_CHS2
_CHS2	set	253
	global	_CREN
_CREN	set	196
	global	_GIE
_GIE	set	95
	global	_GO
_GO	set	250
	global	_OERR
_OERR	set	193
	global	_PEIE
_PEIE	set	94
	global	_RB0
_RB0	set	48
	global	_RB2
_RB2	set	50
	global	_RB3
_RB3	set	51
	global	_RB4
_RB4	set	52
	global	_RB5
_RB5	set	53
	global	_RB6
_RB6	set	54
	global	_RC0
_RC0	set	56
	global	_RC1
_RC1	set	57
	global	_RC2
_RC2	set	58
	global	_RCIF
_RCIF	set	101
	global	_RE0
_RE0	set	72
	global	_RE1
_RE1	set	73
	global	_RE2
_RE2	set	74
	global	_RX9
_RX9	set	198
	global	_SPEN
_SPEN	set	199
	global	_SSPIF
_SSPIF	set	99
	global	_TMR0IE
_TMR0IE	set	93
	global	_TMR0IF
_TMR0IF	set	90
	global	_TXIF
_TXIF	set	100
	global	_ADCON1
_ADCON1	set	159
	global	_ADRESL
_ADRESL	set	158
	global	_OPTION_REG
_OPTION_REG	set	129
	global	_SPBRG
_SPBRG	set	153
	global	_SSPSTAT
_SSPSTAT	set	148
	global	_TRISA
_TRISA	set	133
	global	_TRISB
_TRISB	set	134
	global	_TRISC
_TRISC	set	135
	global	_TRISD
_TRISD	set	136
	global	_TRISE
_TRISE	set	137
	global	_BRGH
_BRGH	set	1218
	global	_RCIE
_RCIE	set	1125
	global	_SYNC
_SYNC	set	1220
	global	_TX9
_TX9	set	1222
	global	_TXEN
_TXEN	set	1221
	global	_TXIE
_TXIE	set	1124
	global	_EEADR
_EEADR	set	269
	global	_EEDATA
_EEDATA	set	268
	global	_EECON1
_EECON1	set	396
	global	_EECON2
_EECON2	set	397
	global	_RD
_RD	set	3168
	global	_WR
_WR	set	3169
	global	_WREN
_WREN	set	3170
	
STR_18:	
	retlw	32	;' '
	retlw	67	;'C'
	retlw	104	;'h'
	retlw	97	;'a'
	retlw	114	;'r'
	retlw	103	;'g'
	retlw	105	;'i'
	retlw	110	;'n'
	retlw	103	;'g'
	retlw	32	;' '
	retlw	77	;'M'
	retlw	111	;'o'
	retlw	100	;'d'
	retlw	101	;'e'
	retlw	32	;' '
	retlw	0
psect	strings
	
STR_14:	
	retlw	90	;'Z'
	retlw	101	;'e'
	retlw	114	;'r'
	retlw	111	;'o'
	retlw	32	;' '
	retlw	83	;'S'
	retlw	116	;'t'
	retlw	101	;'e'
	retlw	112	;'p'
	retlw	95	;'_'
	retlw	77	;'M'
	retlw	111	;'o'
	retlw	116	;'t'
	retlw	111	;'o'
	retlw	114	;'r'
	retlw	0
psect	strings
	
STR_13:	
	retlw	65	;'A'
	retlw	68	;'D'
	retlw	67	;'C'
	retlw	58	;':'
	retlw	37	;'%'
	retlw	100	;'d'
	retlw	32	;' '
	retlw	68	;'D'
	retlw	105	;'i'
	retlw	115	;'s'
	retlw	116	;'t'
	retlw	58	;':'
	retlw	37	;'%'
	retlw	100	;'d'
	retlw	0
psect	strings
	
STR_19:	
	retlw	32	;' '
	retlw	32	;' '
	retlw	69	;'E'
	retlw	88	;'X'
	retlw	73	;'I'
	retlw	84	;'T'
	retlw	32	;' '
	retlw	32	;' '
	retlw	0
psect	strings
	
STR_6:	
	retlw	32	;' '
	retlw	67	;'C'
	retlw	104	;'h'
	retlw	97	;'a'
	retlw	114	;'r'
	retlw	103	;'g'
	retlw	101	;'e'
	retlw	32	;' '
	retlw	0
psect	strings
	
STR_2:	
	retlw	83	;'S'
	retlw	99	;'c'
	retlw	97	;'a'
	retlw	110	;'n'
	retlw	95	;'_'
	retlw	51	;'3'
	retlw	54	;'6'
	retlw	48	;'0'
	retlw	0
psect	strings
	
STR_1:	
	retlw	67	;'C'
	retlw	97	;'a'
	retlw	108	;'l'
	retlw	105	;'i'
	retlw	98	;'b'
	retlw	95	;'_'
	retlw	73	;'I'
	retlw	82	;'R'
	retlw	0
psect	strings
	
STR_5:	
	retlw	70	;'F'
	retlw	108	;'l'
	retlw	119	;'w'
	retlw	95	;'_'
	retlw	87	;'W'
	retlw	97	;'a'
	retlw	108	;'l'
	retlw	108	;'l'
	retlw	0
psect	strings
	
STR_3:	
	retlw	68	;'D'
	retlw	114	;'r'
	retlw	105	;'i'
	retlw	118	;'v'
	retlw	101	;'e'
	retlw	95	;'_'
	retlw	50	;'2'
	retlw	109	;'m'
	retlw	0
psect	strings
	
STR_4:	
	retlw	68	;'D'
	retlw	114	;'r'
	retlw	105	;'i'
	retlw	118	;'v'
	retlw	101	;'e'
	retlw	95	;'_'
	retlw	76	;'L'
	retlw	0
psect	strings
	
STR_16:	
	retlw	67	;'C'
	retlw	79	;'O'
	retlw	78	;'N'
	retlw	70	;'F'
	retlw	73	;'I'
	retlw	82	;'R'
	retlw	77	;'M'
	retlw	0
psect	strings
	
STR_9:	
	retlw	68	;'D'
	retlw	114	;'r'
	retlw	50	;'2'
	retlw	0
psect	strings
	
STR_15:	
	retlw	60	;'<'
	retlw	60	;'<'
	retlw	60	;'<'
	retlw	0
psect	strings
	
STR_17:	
	retlw	62	;'>'
	retlw	62	;'>'
	retlw	62	;'>'
	retlw	0
psect	strings
	
STR_10:	
	retlw	68	;'D'
	retlw	114	;'r'
	retlw	76	;'L'
	retlw	0
psect	strings
	
STR_12:	
	retlw	67	;'C'
	retlw	104	;'h'
	retlw	103	;'g'
	retlw	0
psect	strings
	
STR_7:	
	retlw	67	;'C'
	retlw	97	;'a'
	retlw	108	;'l'
	retlw	0
psect	strings
	
STR_8:	
	retlw	83	;'S'
	retlw	99	;'c'
	retlw	110	;'n'
	retlw	0
psect	strings
	
STR_11:	
	retlw	70	;'F'
	retlw	108	;'l'
	retlw	119	;'w'
	retlw	0
psect	strings
	file	"Assignment3_AldnoahZero.as"
	line	#
psect cinit,class=CODE,delta=2
global start_initialization
start_initialization:

psect	bitbssCOMMON,class=COMMON,bit,space=1
global __pbitbssCOMMON
__pbitbssCOMMON:
_CenterPressed:
       ds      1

_CenterReleased:
       ds      1

_DownPressed:
       ds      1

_DownReleased:
       ds      1

_LeftPressed:
       ds      1

_LeftReleased:
       ds      1

_RTC_FLAG_10MS:
       ds      1

_RTC_FLAG_1MS:
       ds      1

_RTC_FLAG_250MS:
       ds      1

_RTC_FLAG_500MS:
       ds      1

_RTC_FLAG_50MS:
       ds      1

_RightPressed:
       ds      1

_RightReleased:
       ds      1

_UpPressed:
       ds      1

_UpReleased:
       ds      1

psect	bssCOMMON,class=COMMON,space=1
global __pbssCOMMON
__pbssCOMMON:
_buttonPressed:
       ds      1

psect	bssBANK0,class=BANK0,space=1
global __pbssBANK0
__pbssBANK0:
_RTC_Counter:
       ds      2

_adcVal:
       ds      2

_BumpSensors:
       ds      1

_rxiptr:
       ds      1

_rxoptr:
       ds      1

_txiptr:
       ds      1

_txoptr:
       ds      1

psect	bssBANK1,class=BANK1,space=1
global __pbssBANK1
__pbssBANK1:
_rxfifo:
       ds      16

_txfifo:
       ds      16

_distTravelled:
       ds      2

_dist_high:
       ds      2

_dist_low:
       ds      2

_distance:
       ds      2

_pos:
       ds      2

_test:
       ds      2

_total:
       ds      2

_totalSteps:
       ds      2

_CenterDebounceCount:
       ds      1

_DistHighByte:
       ds      1

_DistLowByte:
       ds      1

_DownDebounceCount:
       ds      1

_LeftDebounceCount:
       ds      1

_RightDebounceCount:
       ds      1

_UpDebounceCount:
       ds      1

_currentMenu:
       ds      1

_current_direction:
       ds      1

_highByte:
       ds      1

_lowByte:
       ds      1

_ser_tmp:
       ds      1

_serialInput:
       ds      1

_turnhighByte:
       ds      1

_turnlowByte:
       ds      1

psect	dataBANK1,class=BANK1,space=1
global __pdataBANK1
__pdataBANK1:
	file	"E:\Aldnoah.Zero\Assignment3\HMI.c"
	line	32
_menuStrings:
       ds      6

psect	dataBANK1
	file	"E:\Aldnoah.Zero\Assignment3\HMI.c"
	line	33
_shortMenuStrings:
       ds      6

psect	dataBANK1
	file	"E:\Aldnoah.Zero\Assignment3\steppermotor.c"
	line	30
_current_step:
       ds      1

psect	bssBANK3,class=BANK3,space=1
global __pbssBANK3
__pbssBANK3:
UpdateDisplay@F1229:
       ds      16

psect clrtext,class=CODE,delta=2
global clear_ram
;	Called with FSR containing the base address, and
;	W with the last address+1
clear_ram:
	clrwdt			;clear the watchdog before getting into this loop
clrloop:
	clrf	indf		;clear RAM location pointed to by FSR
	incf	fsr,f		;increment pointer
	xorwf	fsr,w		;XOR with final address
	btfsc	status,2	;have we reached the end yet?
	retlw	0		;all done for this memory range, return
	xorwf	fsr,w		;XOR again to restore value
	goto	clrloop		;do the next byte

; Clear objects allocated to BITCOMMON
psect cinit,class=CODE,delta=2
	clrf	((__pbitbssCOMMON/8)+0)&07Fh
	clrf	((__pbitbssCOMMON/8)+1)&07Fh
; Clear objects allocated to COMMON
psect cinit,class=CODE,delta=2
	clrf	((__pbssCOMMON)+0)&07Fh
; Clear objects allocated to BANK0
psect cinit,class=CODE,delta=2
	bcf	status, 7	;select IRP bank0
	movlw	low(__pbssBANK0)
	movwf	fsr
	movlw	low((__pbssBANK0)+09h)
	fcall	clear_ram
; Clear objects allocated to BANK1
psect cinit,class=CODE,delta=2
	movlw	low(__pbssBANK1)
	movwf	fsr
	movlw	low((__pbssBANK1)+03Fh)
	fcall	clear_ram
; Clear objects allocated to BANK3
psect cinit,class=CODE,delta=2
	bsf	status, 7	;select IRP bank2
	movlw	low(__pbssBANK3)
	movwf	fsr
	movlw	low((__pbssBANK3)+010h)
	fcall	clear_ram
global btemp
psect inittext,class=CODE,delta=2
global init_fetch,btemp
;	Called with low address in FSR and high address in W
init_fetch:
	movf btemp,w
	movwf pclath
	movf btemp+1,w
	movwf pc
global init_ram
;Called with:
;	high address of idata address in btemp 
;	low address of idata address in btemp+1 
;	low address of data in FSR
;	high address + 1 of data in btemp-1
init_ram:
	fcall init_fetch
	movwf indf,f
	incf fsr,f
	movf fsr,w
	xorwf btemp-1,w
	btfsc status,2
	retlw 0
	incf btemp+1,f
	btfsc status,2
	incf btemp,f
	goto init_ram
; Initialize objects allocated to BANK1
psect cinit,class=CODE,delta=2
global init_ram, __pidataBANK1
	bcf	status, 7	;select IRP bank0
	movlw low(__pdataBANK1+13)
	movwf btemp-1,f
	movlw high(__pidataBANK1)
	movwf btemp,f
	movlw low(__pidataBANK1)
	movwf btemp+1,f
	movlw low(__pdataBANK1)
	movwf fsr,f
	fcall init_ram
psect cinit,class=CODE,delta=2
global end_of_initialization

;End of C runtime variable initialization code

end_of_initialization:
clrf status
ljmp _main	;jump to C main() function
psect	cstackCOMMON,class=COMMON,space=1
global __pcstackCOMMON
__pcstackCOMMON:
	global	?_ser_init
?_ser_init:	; 0 bytes @ 0x0
	global	?_robo_init
?_robo_init:	; 0 bytes @ 0x0
	global	?_UpdateDisplay
?_UpdateDisplay:	; 0 bytes @ 0x0
	global	?_ser_putch
?_ser_putch:	; 0 bytes @ 0x0
	global	?_readAvgDistance
?_readAvgDistance:	; 0 bytes @ 0x0
	global	?_robot_read
?_robot_read:	; 0 bytes @ 0x0
	global	?_ADCconvert
?_ADCconvert:	; 0 bytes @ 0x0
	global	?_init_adc
?_init_adc:	; 0 bytes @ 0x0
	global	?_lcd_write_control
?_lcd_write_control:	; 0 bytes @ 0x0
	global	?_lcd_write_data
?_lcd_write_data:	; 0 bytes @ 0x0
	global	?_lcd_set_cursor
?_lcd_set_cursor:	; 0 bytes @ 0x0
	global	?_lcd_init
?_lcd_init:	; 0 bytes @ 0x0
	global	?_isr1
?_isr1:	; 0 bytes @ 0x0
	global	?_init
?_init:	; 0 bytes @ 0x0
	global	?_calibrateIR
?_calibrateIR:	; 0 bytes @ 0x0
	global	?_ChargeMode
?_ChargeMode:	; 0 bytes @ 0x0
	global	?_main
?_main:	; 0 bytes @ 0x0
	global	?_Debounce
?_Debounce:	; 0 bytes @ 0x0
	global	??_Debounce
??_Debounce:	; 0 bytes @ 0x0
	global	?_ser_isrx
?_ser_isrx:	; 1 bit 
	global	?_ReadButtons
?_ReadButtons:	; 1 bytes @ 0x0
	global	?_Menu
?_Menu:	; 1 bytes @ 0x0
	global	?_ser_getch
?_ser_getch:	; 1 bytes @ 0x0
	global	?_adc_read_channel
?_adc_read_channel:	; 1 bytes @ 0x0
	global	?_spi_transfer
?_spi_transfer:	; 1 bytes @ 0x0
	global	?i1___lwmod
?i1___lwmod:	; 2 bytes @ 0x0
	global	i1___lwmod@divisor
i1___lwmod@divisor:	; 2 bytes @ 0x0
	ds	1
	global	??_ReadButtons
??_ReadButtons:	; 0 bytes @ 0x1
	ds	1
	global	i1___lwmod@dividend
i1___lwmod@dividend:	; 2 bytes @ 0x2
	ds	2
	global	??i1___lwmod
??i1___lwmod:	; 0 bytes @ 0x4
	ds	1
	global	i1___lwmod@counter
i1___lwmod@counter:	; 1 bytes @ 0x5
	ds	1
	global	??_isr1
??_isr1:	; 0 bytes @ 0x6
	ds	5
psect	cstackBANK0,class=BANK0,space=1
global __pcstackBANK0
__pcstackBANK0:
	global	??_ser_init
??_ser_init:	; 0 bytes @ 0x0
	global	??_ser_putch
??_ser_putch:	; 0 bytes @ 0x0
	global	??_Menu
??_Menu:	; 0 bytes @ 0x0
	global	??_ser_getch
??_ser_getch:	; 0 bytes @ 0x0
	global	??_init_adc
??_init_adc:	; 0 bytes @ 0x0
	global	??_lcd_write_control
??_lcd_write_control:	; 0 bytes @ 0x0
	global	??_lcd_write_data
??_lcd_write_data:	; 0 bytes @ 0x0
	global	??_spi_transfer
??_spi_transfer:	; 0 bytes @ 0x0
	global	??_ser_isrx
??_ser_isrx:	; 0 bytes @ 0x0
	global	?_adc_read
?_adc_read:	; 2 bytes @ 0x0
	global	?___wmul
?___wmul:	; 2 bytes @ 0x0
	global	?___awmod
?___awmod:	; 2 bytes @ 0x0
	global	Menu@BTN_input
Menu@BTN_input:	; 1 bytes @ 0x0
	global	___wmul@multiplier
___wmul@multiplier:	; 2 bytes @ 0x0
	global	___awmod@divisor
___awmod@divisor:	; 2 bytes @ 0x0
	ds	1
	global	spi_transfer@temp
spi_transfer@temp:	; 1 bytes @ 0x1
	global	ser_getch@c
ser_getch@c:	; 1 bytes @ 0x1
	global	ser_putch@c
ser_putch@c:	; 1 bytes @ 0x1
	ds	1
	global	??_adc_read
??_adc_read:	; 0 bytes @ 0x2
	global	??_robo_init
??_robo_init:	; 0 bytes @ 0x2
	global	??_robot_read
??_robot_read:	; 0 bytes @ 0x2
	global	?_robotTurn
?_robotTurn:	; 0 bytes @ 0x2
	global	lcd_write_control@databyte
lcd_write_control@databyte:	; 1 bytes @ 0x2
	global	lcd_write_data@databyte
lcd_write_data@databyte:	; 1 bytes @ 0x2
	global	spi_transfer@data
spi_transfer@data:	; 1 bytes @ 0x2
	global	robotTurn@distance
robotTurn@distance:	; 2 bytes @ 0x2
	global	___wmul@multiplicand
___wmul@multiplicand:	; 2 bytes @ 0x2
	global	___awmod@dividend
___awmod@dividend:	; 2 bytes @ 0x2
	ds	1
	global	?_rotate
?_rotate:	; 0 bytes @ 0x3
	global	??_lcd_set_cursor
??_lcd_set_cursor:	; 0 bytes @ 0x3
	global	??_lcd_init
??_lcd_init:	; 0 bytes @ 0x3
	global	??_init
??_init:	; 0 bytes @ 0x3
	global	lcd_set_cursor@address
lcd_set_cursor@address:	; 1 bytes @ 0x3
	global	rotate@numsteps
rotate@numsteps:	; 2 bytes @ 0x3
	ds	1
	global	??_robotTurn
??_robotTurn:	; 0 bytes @ 0x4
	global	??___wmul
??___wmul:	; 0 bytes @ 0x4
	global	??___awmod
??___awmod:	; 0 bytes @ 0x4
	global	adc_read@adc_value
adc_read@adc_value:	; 2 bytes @ 0x4
	global	___wmul@product
___wmul@product:	; 2 bytes @ 0x4
	ds	1
	global	rotate@direction
rotate@direction:	; 1 bytes @ 0x5
	global	___awmod@counter
___awmod@counter:	; 1 bytes @ 0x5
	ds	1
	global	??_rotate
??_rotate:	; 0 bytes @ 0x6
	global	??_adc_read_channel
??_adc_read_channel:	; 0 bytes @ 0x6
	global	?___lwdiv
?___lwdiv:	; 2 bytes @ 0x6
	global	___awmod@sign
___awmod@sign:	; 1 bytes @ 0x6
	global	___lwdiv@divisor
___lwdiv@divisor:	; 2 bytes @ 0x6
	ds	1
	global	?_lcd_write_string
?_lcd_write_string:	; 0 bytes @ 0x7
	global	adc_read_channel@channel
adc_read_channel@channel:	; 1 bytes @ 0x7
	global	lcd_write_string@s
lcd_write_string@s:	; 2 bytes @ 0x7
	ds	1
	global	?_readDistance
?_readDistance:	; 2 bytes @ 0x8
	global	rotate@i
rotate@i:	; 2 bytes @ 0x8
	global	___lwdiv@dividend
___lwdiv@dividend:	; 2 bytes @ 0x8
	ds	1
	global	??_lcd_write_string
??_lcd_write_string:	; 0 bytes @ 0x9
	ds	1
	global	??_readDistance
??_readDistance:	; 0 bytes @ 0xA
	global	??___lwdiv
??___lwdiv:	; 0 bytes @ 0xA
	ds	1
	global	___lwdiv@quotient
___lwdiv@quotient:	; 2 bytes @ 0xB
	ds	1
	global	readDistance@fullval
readDistance@fullval:	; 2 bytes @ 0xC
	ds	1
	global	___lwdiv@counter
___lwdiv@counter:	; 1 bytes @ 0xD
	ds	1
	global	??_ADCconvert
??_ADCconvert:	; 0 bytes @ 0xE
	global	?___lwmod
?___lwmod:	; 2 bytes @ 0xE
	global	___lwmod@divisor
___lwmod@divisor:	; 2 bytes @ 0xE
	ds	2
	global	??_readAvgDistance
??_readAvgDistance:	; 0 bytes @ 0x10
	global	readAvgDistance@fullval
readAvgDistance@fullval:	; 2 bytes @ 0x10
	global	___lwmod@dividend
___lwmod@dividend:	; 2 bytes @ 0x10
	ds	2
	global	??___lwmod
??___lwmod:	; 0 bytes @ 0x12
	global	readAvgDistance@i
readAvgDistance@i:	; 2 bytes @ 0x12
	ds	1
	global	___lwmod@counter
___lwmod@counter:	; 1 bytes @ 0x13
	ds	1
	global	?_sprintf
?_sprintf:	; 2 bytes @ 0x14
	global	sprintf@f
sprintf@f:	; 1 bytes @ 0x14
	ds	5
	global	??_sprintf
??_sprintf:	; 0 bytes @ 0x19
	ds	3
	global	sprintf@ap
sprintf@ap:	; 1 bytes @ 0x1C
	ds	1
	global	sprintf@flag
sprintf@flag:	; 1 bytes @ 0x1D
	ds	1
	global	sprintf@prec
sprintf@prec:	; 1 bytes @ 0x1E
	ds	1
	global	sprintf@_val
sprintf@_val:	; 4 bytes @ 0x1F
	ds	4
	global	sprintf@sp
sprintf@sp:	; 1 bytes @ 0x23
	ds	1
	global	sprintf@c
sprintf@c:	; 1 bytes @ 0x24
	ds	1
	global	??_UpdateDisplay
??_UpdateDisplay:	; 0 bytes @ 0x25
	ds	4
	global	UpdateDisplay@adcOutput
UpdateDisplay@adcOutput:	; 16 bytes @ 0x29
	ds	16
	global	?_robotMove
?_robotMove:	; 0 bytes @ 0x39
	global	??_calibrateIR
??_calibrateIR:	; 0 bytes @ 0x39
	global	??_ChargeMode
??_ChargeMode:	; 0 bytes @ 0x39
	global	?_scan360
?_scan360:	; 2 bytes @ 0x39
	global	robotMove@distance
robotMove@distance:	; 2 bytes @ 0x39
	ds	2
	global	??_robotMove
??_robotMove:	; 0 bytes @ 0x3B
	global	??_scan360
??_scan360:	; 0 bytes @ 0x3B
	global	scan360@lowestVal
scan360@lowestVal:	; 2 bytes @ 0x3B
	ds	2
	global	scan360@lowestSteps
scan360@lowestSteps:	; 2 bytes @ 0x3D
	ds	2
	global	scan360@steps
scan360@steps:	; 2 bytes @ 0x3F
	ds	2
	global	??_main
??_main:	; 0 bytes @ 0x41
	ds	3
	global	main@shortwall
main@shortwall:	; 2 bytes @ 0x44
	ds	2
	global	main@choice
main@choice:	; 1 bytes @ 0x46
	ds	1
;;Data sizes: Strings 149, constant 10, data 13, bss 89, persistent 0 stack 0
;;Auto spaces:   Size  Autos    Used
;; COMMON          14     11      14
;; BANK0           80     71      80
;; BANK1           80      0      76
;; BANK3           96      0      16
;; BANK2           96      0       0

;;
;; Pointer list with targets:

;; ?i1___lwmod	unsigned int  size(1) Largest target is 0
;;
;; ?___awmod	int  size(1) Largest target is 0
;;
;; ?___wmul	unsigned int  size(1) Largest target is 0
;;
;; ?_readDistance	unsigned int  size(1) Largest target is 0
;;
;; ?___lwdiv	unsigned int  size(1) Largest target is 0
;;
;; ?_scan360	int  size(1) Largest target is 0
;;
;; ?___lwmod	unsigned int  size(1) Largest target is 0
;;
;; ?_adc_read	unsigned int  size(1) Largest target is 0
;;
;; sprintf@f	PTR const unsigned char  size(1) Largest target is 15
;;		 -> STR_13(CODE[15]), 
;;
;; sprintf@sp	PTR unsigned char  size(1) Largest target is 16
;;		 -> UpdateDisplay@adcOutput(BANK0[16]), 
;;
;; ?_sprintf	int  size(1) Largest target is 0
;;
;; sprintf@ap	PTR void [1] size(1) Largest target is 2
;;		 -> ?_sprintf(BANK0[2]), 
;;
;; S8143$_cp	PTR const unsigned char  size(1) Largest target is 0
;;
;; _val._str._cp	PTR const unsigned char  size(1) Largest target is 0
;;
;; shortMenuStrings	PTR const unsigned char [6] size(1) Largest target is 4
;;		 -> STR_12(CODE[4]), STR_11(CODE[4]), STR_10(CODE[4]), STR_9(CODE[4]), 
;;		 -> STR_8(CODE[4]), STR_7(CODE[4]), 
;;
;; menuStrings	PTR const unsigned char [6] size(1) Largest target is 9
;;		 -> STR_6(CODE[9]), STR_5(CODE[9]), STR_4(CODE[8]), STR_3(CODE[9]), 
;;		 -> STR_2(CODE[9]), STR_1(CODE[9]), 
;;
;; lcd_write_string@s	PTR unsigned char  size(2) Largest target is 16
;;		 -> STR_19(CODE[9]), STR_18(CODE[16]), STR_17(CODE[4]), STR_16(CODE[8]), 
;;		 -> STR_15(CODE[4]), STR_14(CODE[16]), UpdateDisplay@adcOutput(BANK0[16]), STR_12(CODE[4]), 
;;		 -> STR_11(CODE[4]), STR_10(CODE[4]), STR_9(CODE[4]), STR_8(CODE[4]), 
;;		 -> STR_7(CODE[4]), STR_6(CODE[9]), STR_5(CODE[9]), STR_4(CODE[8]), 
;;		 -> STR_3(CODE[9]), STR_2(CODE[9]), STR_1(CODE[9]), 
;;


;;
;; Critical Paths under _main in COMMON
;;
;;   None.
;;
;; Critical Paths under _isr1 in COMMON
;;
;;   _isr1->i1___lwmod
;;   _ReadButtons->_Debounce
;;
;; Critical Paths under _main in BANK0
;;
;;   _main->_scan360
;;   _robotMove->_UpdateDisplay
;;   _scan360->_UpdateDisplay
;;   _ChargeMode->_UpdateDisplay
;;   _calibrateIR->_UpdateDisplay
;;   _readAvgDistance->_ADCconvert
;;   _UpdateDisplay->_sprintf
;;   _readDistance->_adc_read_channel
;;   _robot_read->_ser_putch
;;   _robot_read->_ser_getch
;;   _lcd_init->_lcd_write_control
;;   _lcd_write_string->___awmod
;;   _lcd_set_cursor->_lcd_write_control
;;   _sprintf->___lwmod
;;   _ADCconvert->___lwdiv
;;   _robotTurn->_ser_putch
;;   _rotate->_spi_transfer
;;   _robo_init->_ser_putch
;;   _adc_read_channel->_adc_read
;;   ___lwmod->___lwdiv
;;   ___lwdiv->___wmul
;;
;; Critical Paths under _isr1 in BANK0
;;
;;   None.
;;
;; Critical Paths under _main in BANK1
;;
;;   None.
;;
;; Critical Paths under _isr1 in BANK1
;;
;;   None.
;;
;; Critical Paths under _main in BANK3
;;
;;   None.
;;
;; Critical Paths under _isr1 in BANK3
;;
;;   None.
;;
;; Critical Paths under _main in BANK2
;;
;;   None.
;;
;; Critical Paths under _isr1 in BANK2
;;
;;   None.

;;
;;Main: autosize = 0, tempsize = 3, incstack = 0, save=0
;;

;;
;;Call Graph Tables:
;;
;; ---------------------------------------------------------------------------------
;; (Depth) Function   	        Calls       Base Space   Used Autos Params    Refs
;; ---------------------------------------------------------------------------------
;; (0) _main                                                 6     6      0    8338
;;                                             65 BANK0      6     6      0
;;                               _init
;;                         _robot_read
;;                    _readAvgDistance
;;                      _UpdateDisplay
;;                               _Menu
;;                        _calibrateIR
;;                            _scan360
;;                             _rotate
;;                          _robotMove
;;                          _robotTurn
;;                         _ChargeMode
;; ---------------------------------------------------------------------------------
;; (1) _robotMove                                            4     2      2    1394
;;                                             57 BANK0      4     2      2
;;                          _ser_putch
;;                         _robot_read
;;                      _UpdateDisplay
;; ---------------------------------------------------------------------------------
;; (1) _scan360                                              8     6      2    2074
;;                                             57 BANK0      8     6      2
;;                    _readAvgDistance
;;                             _rotate
;;                      _UpdateDisplay
;; ---------------------------------------------------------------------------------
;; (1) _ChargeMode                                           1     1      0    1305
;;                                             57 BANK0      1     1      0
;;                          _ser_putch
;;                      _UpdateDisplay
;; ---------------------------------------------------------------------------------
;; (1) _calibrateIR                                          0     0      0    1381
;;                             _rotate
;;                      _UpdateDisplay
;; ---------------------------------------------------------------------------------
;; (2) _readAvgDistance                                      4     4      0     555
;;                                             16 BANK0      4     4      0
;;                       _readDistance
;;                            ___lwdiv
;;                         _ADCconvert
;; ---------------------------------------------------------------------------------
;; (2) _UpdateDisplay                                       20    20      0    1283
;;                                             37 BANK0     20    20      0
;;                  _lcd_write_control
;;                            _sprintf
;;                     _lcd_set_cursor
;;                   _lcd_write_string
;;                            ___awmod
;; ---------------------------------------------------------------------------------
;; (1) _init                                                 1     1      0      44
;;                                              3 BANK0      1     1      0
;;                           _ser_init
;;                           _init_adc
;;                           _lcd_init
;;                          _robo_init
;; ---------------------------------------------------------------------------------
;; (3) _readDistance                                         6     4      2      69
;;                                              8 BANK0      6     4      2
;;                   _adc_read_channel
;; ---------------------------------------------------------------------------------
;; (2) _robot_read                                           2     2      0      45
;;                                              2 BANK0      2     2      0
;;                          _ser_putch
;;                          _ser_getch
;; ---------------------------------------------------------------------------------
;; (2) _lcd_init                                             0     0      0      22
;;                  _lcd_write_control
;; ---------------------------------------------------------------------------------
;; (3) _lcd_write_string                                     2     0      2      67
;;                                              7 BANK0      2     0      2
;;                     _lcd_write_data
;;                            ___awmod (ARG)
;; ---------------------------------------------------------------------------------
;; (3) _lcd_set_cursor                                       1     1      0      45
;;                                              3 BANK0      1     1      0
;;                  _lcd_write_control
;; ---------------------------------------------------------------------------------
;; (3) _ser_getch                                            2     2      0      23
;;                                              0 BANK0      2     2      0
;;                           _ser_isrx
;; ---------------------------------------------------------------------------------
;; (3) _sprintf                                             17    12      5     798
;;                                             20 BANK0     17    12      5
;;                            ___lwdiv
;;                            ___lwmod
;; ---------------------------------------------------------------------------------
;; (3) _ADCconvert                                           2     2      0     254
;;                                             14 BANK0      2     2      0
;;                             ___wmul
;;                            ___lwdiv
;; ---------------------------------------------------------------------------------
;; (1) _robotTurn                                            3     1      2      88
;;                                              2 BANK0      3     1      2
;;                          _ser_putch
;; ---------------------------------------------------------------------------------
;; (1) _rotate                                               7     4      3      98
;;                                              3 BANK0      7     4      3
;;                       _spi_transfer
;; ---------------------------------------------------------------------------------
;; (2) _robo_init                                            0     0      0      22
;;                          _ser_putch
;; ---------------------------------------------------------------------------------
;; (4) _lcd_write_data                                       3     3      0      22
;;                                              0 BANK0      3     3      0
;; ---------------------------------------------------------------------------------
;; (4) _lcd_write_control                                    3     3      0      22
;;                                              0 BANK0      3     3      0
;; ---------------------------------------------------------------------------------
;; (2) _init_adc                                             1     1      0       0
;;                                              0 BANK0      1     1      0
;; ---------------------------------------------------------------------------------
;; (4) _adc_read_channel                                     2     2      0      46
;;                                              6 BANK0      2     2      0
;;                           _adc_read
;; ---------------------------------------------------------------------------------
;; (3) ___awmod                                              7     3      4     296
;;                                              0 BANK0      7     3      4
;; ---------------------------------------------------------------------------------
;; (4) ___lwmod                                              6     2      4     159
;;                                             14 BANK0      6     2      4
;;                            ___lwdiv (ARG)
;; ---------------------------------------------------------------------------------
;; (4) ___lwdiv                                              8     4      4     162
;;                                              6 BANK0      8     4      4
;;                             ___wmul (ARG)
;; ---------------------------------------------------------------------------------
;; (4) ___wmul                                               6     2      4      92
;;                                              0 BANK0      6     2      4
;; ---------------------------------------------------------------------------------
;; (4) _ser_isrx                                             0     0      0       0
;; ---------------------------------------------------------------------------------
;; (2) _spi_transfer                                         3     3      0      30
;;                                              0 BANK0      3     3      0
;; ---------------------------------------------------------------------------------
;; (1) _Menu                                                 1     1      0      22
;;                                              0 BANK0      1     1      0
;; ---------------------------------------------------------------------------------
;; (2) _ser_putch                                            2     2      0      22
;;                                              0 BANK0      2     2      0
;; ---------------------------------------------------------------------------------
;; (2) _ser_init                                             1     1      0       0
;;                                              0 BANK0      1     1      0
;; ---------------------------------------------------------------------------------
;; (5) _adc_read                                             6     4      2      24
;;                                              0 BANK0      6     4      2
;; ---------------------------------------------------------------------------------
;; Estimated maximum stack depth 5
;; ---------------------------------------------------------------------------------
;; (Depth) Function   	        Calls       Base Space   Used Autos Params    Refs
;; ---------------------------------------------------------------------------------
;; (6) _isr1                                                 5     5      0     521
;;                                              6 COMMON     5     5      0
;;                          i1___lwmod
;;                        _ReadButtons
;; ---------------------------------------------------------------------------------
;; (7) _ReadButtons                                          0     0      0       0
;;                           _Debounce
;; ---------------------------------------------------------------------------------
;; (7) i1___lwmod                                            6     2      4     521
;;                                              0 COMMON     6     2      4
;; ---------------------------------------------------------------------------------
;; (8) _Debounce                                             1     1      0       0
;;                                              0 COMMON     1     1      0
;; ---------------------------------------------------------------------------------
;; Estimated maximum stack depth 8
;; ---------------------------------------------------------------------------------

;; Call Graph Graphs:

;; _main (ROOT)
;;   _init
;;     _ser_init
;;     _init_adc
;;     _lcd_init
;;       _lcd_write_control
;;     _robo_init
;;       _ser_putch
;;   _robot_read
;;     _ser_putch
;;     _ser_getch
;;       _ser_isrx
;;   _readAvgDistance
;;     _readDistance
;;       _adc_read_channel
;;         _adc_read
;;     ___lwdiv
;;       ___wmul (ARG)
;;     _ADCconvert
;;       ___wmul
;;       ___lwdiv
;;         ___wmul (ARG)
;;   _UpdateDisplay
;;     _lcd_write_control
;;     _sprintf
;;       ___lwdiv
;;         ___wmul (ARG)
;;       ___lwmod
;;         ___lwdiv (ARG)
;;           ___wmul (ARG)
;;     _lcd_set_cursor
;;       _lcd_write_control
;;     _lcd_write_string
;;       _lcd_write_data
;;       ___awmod (ARG)
;;     ___awmod
;;   _Menu
;;   _calibrateIR
;;     _rotate
;;       _spi_transfer
;;     _UpdateDisplay
;;       _lcd_write_control
;;       _sprintf
;;         ___lwdiv
;;           ___wmul (ARG)
;;         ___lwmod
;;           ___lwdiv (ARG)
;;             ___wmul (ARG)
;;       _lcd_set_cursor
;;         _lcd_write_control
;;       _lcd_write_string
;;         _lcd_write_data
;;         ___awmod (ARG)
;;       ___awmod
;;   _scan360
;;     _readAvgDistance
;;       _readDistance
;;         _adc_read_channel
;;           _adc_read
;;       ___lwdiv
;;         ___wmul (ARG)
;;       _ADCconvert
;;         ___wmul
;;         ___lwdiv
;;           ___wmul (ARG)
;;     _rotate
;;       _spi_transfer
;;     _UpdateDisplay
;;       _lcd_write_control
;;       _sprintf
;;         ___lwdiv
;;           ___wmul (ARG)
;;         ___lwmod
;;           ___lwdiv (ARG)
;;             ___wmul (ARG)
;;       _lcd_set_cursor
;;         _lcd_write_control
;;       _lcd_write_string
;;         _lcd_write_data
;;         ___awmod (ARG)
;;       ___awmod
;;   _rotate
;;     _spi_transfer
;;   _robotMove
;;     _ser_putch
;;     _robot_read
;;       _ser_putch
;;       _ser_getch
;;         _ser_isrx
;;     _UpdateDisplay
;;       _lcd_write_control
;;       _sprintf
;;         ___lwdiv
;;           ___wmul (ARG)
;;         ___lwmod
;;           ___lwdiv (ARG)
;;             ___wmul (ARG)
;;       _lcd_set_cursor
;;         _lcd_write_control
;;       _lcd_write_string
;;         _lcd_write_data
;;         ___awmod (ARG)
;;       ___awmod
;;   _robotTurn
;;     _ser_putch
;;   _ChargeMode
;;     _ser_putch
;;     _UpdateDisplay
;;       _lcd_write_control
;;       _sprintf
;;         ___lwdiv
;;           ___wmul (ARG)
;;         ___lwmod
;;           ___lwdiv (ARG)
;;             ___wmul (ARG)
;;       _lcd_set_cursor
;;         _lcd_write_control
;;       _lcd_write_string
;;         _lcd_write_data
;;         ___awmod (ARG)
;;       ___awmod
;;
;; _isr1 (ROOT)
;;   i1___lwmod
;;   _ReadButtons
;;     _Debounce
;;

;; Address spaces:

;;Name               Size   Autos  Total    Cost      Usage
;;BANK3               60      0      10       9       16.7%
;;BITBANK3            60      0       0       8        0.0%
;;SFR3                 0      0       0       4        0.0%
;;BITSFR3              0      0       0       4        0.0%
;;BANK2               60      0       0      11        0.0%
;;BITBANK2            60      0       0      10        0.0%
;;SFR2                 0      0       0       5        0.0%
;;BITSFR2              0      0       0       5        0.0%
;;SFR1                 0      0       0       2        0.0%
;;BITSFR1              0      0       0       2        0.0%
;;BANK1               50      0      4C       7       95.0%
;;BITBANK1            50      0       0       6        0.0%
;;CODE                 0      0       0       0        0.0%
;;DATA                 0      0      C5      12        0.0%
;;ABS                  0      0      BA       3        0.0%
;;NULL                 0      0       0       0        0.0%
;;STACK                0      0       B       2        0.0%
;;BANK0               50     47      50       5      100.0%
;;BITBANK0            50      0       0       4        0.0%
;;SFR0                 0      0       0       1        0.0%
;;BITSFR0              0      0       0       1        0.0%
;;COMMON               E      B       E       1      100.0%
;;BITCOMMON            E      0       2       0       14.3%
;;EEDATA             100      0       0       0        0.0%

	global	_main
psect	maintext,global,class=CODE,delta=2
global __pmaintext
__pmaintext:

;; *************** function _main *****************
;; Defined at:
;;		line 297 in file "E:\Aldnoah.Zero\Assignment3\Main.c"
;; Parameters:    Size  Location     Type
;;		None
;; Auto vars:     Size  Location     Type
;;  shortwall       2   68[BANK0 ] int 
;;  choice          1   70[BANK0 ] unsigned char 
;; Return value:  Size  Location     Type
;;		None               void
;; Registers used:
;;		wreg, fsr0l, fsr0h, status,2, status,0, btemp+1, pclath, cstack
;; Tracked objects:
;;		On entry : 17F/0
;;		On exit  : 0/0
;;		Unchanged: 0/0
;; Data sizes:     COMMON   BANK0   BANK1   BANK3   BANK2
;;      Params:         0       0       0       0       0
;;      Locals:         0       3       0       0       0
;;      Temps:          0       3       0       0       0
;;      Totals:         0       6       0       0       0
;;Total ram usage:        6 bytes
;; Hardware stack levels required when called:    8
;; This function calls:
;;		_init
;;		_robot_read
;;		_readAvgDistance
;;		_UpdateDisplay
;;		_Menu
;;		_calibrateIR
;;		_scan360
;;		_rotate
;;		_robotMove
;;		_robotTurn
;;		_ChargeMode
;; This function is called by:
;;		Startup code after reset
;; This function uses a non-reentrant model
;;
psect	maintext
	file	"E:\Aldnoah.Zero\Assignment3\Main.c"
	line	297
	global	__size_of_main
	__size_of_main	equ	__end_of_main-_main
	
_main:	
	opt	stack 0
; Regs used in _main: [wreg-fsr0h+status,2+status,0+btemp+1+pclath+cstack]
	line	298
	
l11079:	
;Main.c: 298: unsigned char choice = 255;
	movlw	(0FFh)
	bcf	status, 5	;RP0=0, select bank0
	bcf	status, 6	;RP1=0, select bank0
	movwf	(??_main+0)+0
	movf	(??_main+0)+0,w
	movwf	(main@choice)
	line	299
	
l11081:	
;Main.c: 299: int shortwall = 0;
	clrf	(main@shortwall)
	clrf	(main@shortwall+1)
	line	303
	
l11083:	
;Main.c: 303: init();
	fcall	_init
	goto	l11085
	line	308
;Main.c: 308: while(1)
	
l2259:	
	line	312
	
l11085:	
;Main.c: 309: {
;Main.c: 312: if (RTC_FLAG_250MS == 1)
	btfss	(_RTC_FLAG_250MS/8),(_RTC_FLAG_250MS)&7
	goto	u4611
	goto	u4610
u4611:
	goto	l11117
u4610:
	line	314
	
l11087:	
;Main.c: 313: {
;Main.c: 314: RTC_FLAG_250MS = 0;
	bcf	(_RTC_FLAG_250MS/8),(_RTC_FLAG_250MS)&7
	line	315
	
l11089:	
;Main.c: 315: robot_read();
	fcall	_robot_read
	line	316
	
l11091:	
;Main.c: 316: readAvgDistance();
	fcall	_readAvgDistance
	line	317
	
l11093:	
;Main.c: 317: UpdateDisplay();
	fcall	_UpdateDisplay
	goto	l11117
	line	318
	
l2260:	
	line	320
;Main.c: 318: }
;Main.c: 320: switch (buttonPressed)
	goto	l11117
	line	322
;Main.c: 321: {
;Main.c: 322: case 1:
	
l2262:	
	line	323
	
l11095:	
;Main.c: 323: Menu(1);
	movlw	(01h)
	fcall	_Menu
	line	325
	
l11097:	
;Main.c: 325: buttonPressed = 0;
	clrf	(_buttonPressed)	;volatile
	line	327
;Main.c: 327: break;
	goto	l11141
	line	328
;Main.c: 328: case 2:
	
l2264:	
	line	329
	
l11099:	
;Main.c: 329: Menu(2);
	movlw	(02h)
	fcall	_Menu
	line	331
	
l11101:	
;Main.c: 331: buttonPressed = 0;
	clrf	(_buttonPressed)	;volatile
	line	333
;Main.c: 333: break;
	goto	l11141
	line	334
;Main.c: 334: case 3:
	
l2265:	
	line	335
	
l11103:	
;Main.c: 335: Menu(3);
	movlw	(03h)
	fcall	_Menu
	line	337
	
l11105:	
;Main.c: 337: buttonPressed = 0;
	clrf	(_buttonPressed)	;volatile
	line	339
;Main.c: 339: break;
	goto	l11141
	line	340
;Main.c: 340: case 4:
	
l2266:	
	line	341
	
l11107:	
;Main.c: 341: Menu(4);
	movlw	(04h)
	fcall	_Menu
	line	343
	
l11109:	
;Main.c: 343: buttonPressed = 0;
	clrf	(_buttonPressed)	;volatile
	line	345
;Main.c: 345: break;
	goto	l11141
	line	346
;Main.c: 346: case 5:
	
l2267:	
	line	347
	
l11111:	
;Main.c: 347: choice = Menu(5);
	movlw	(05h)
	fcall	_Menu
	bcf	status, 5	;RP0=0, select bank0
	bcf	status, 6	;RP1=0, select bank0
	movwf	(??_main+0)+0
	movf	(??_main+0)+0,w
	movwf	(main@choice)
	line	349
	
l11113:	
;Main.c: 349: buttonPressed = 0;
	clrf	(_buttonPressed)	;volatile
	line	351
;Main.c: 351: break;
	goto	l11141
	line	352
;Main.c: 352: default:
	
l2268:	
	line	353
;Main.c: 353: buttonPressed = 0;
	clrf	(_buttonPressed)	;volatile
	line	354
;Main.c: 354: break;
	goto	l11141
	line	355
	
l11115:	
;Main.c: 355: }
	goto	l11141
	line	320
	
l2261:	
	
l11117:	
	movf	(_buttonPressed),w	;volatile
	; Switch size 1, requested type "space"
; Number of cases is 5, Range of values is 1 to 5
; switch strategies available:
; Name         Instructions Cycles
; simple_byte           16     9 (average)
; direct_byte           26    11 (fixed)
; jumptable            263     9 (fixed)
;	Chosen strategy is simple_byte

	opt asmopt_off
	xorlw	1^0	; case 1
	skipnz
	goto	l11095
	xorlw	2^1	; case 2
	skipnz
	goto	l11099
	xorlw	3^2	; case 3
	skipnz
	goto	l11103
	xorlw	4^3	; case 4
	skipnz
	goto	l11107
	xorlw	5^4	; case 5
	skipnz
	goto	l11111
	goto	l2268
	opt asmopt_on

	line	355
	
l2263:	
	line	358
;Main.c: 358: switch (choice)
	goto	l11141
	line	360
;Main.c: 359: {
;Main.c: 360: case 0:
	
l2270:	
	line	361
	
l11119:	
;Main.c: 361: calibrateIR();
	fcall	_calibrateIR
	line	362
;Main.c: 362: break;
	goto	l11143
	line	363
;Main.c: 363: case 1:
	
l2272:	
	line	364
	
l11121:	
;Main.c: 364: shortwall = scan360();
	fcall	_scan360
	bcf	status, 5	;RP0=0, select bank0
	bcf	status, 6	;RP1=0, select bank0
	movf	(1+(?_scan360)),w
	clrf	(main@shortwall+1)
	addwf	(main@shortwall+1)
	movf	(0+(?_scan360)),w
	clrf	(main@shortwall)
	addwf	(main@shortwall)

	line	365
	
l11123:	
;Main.c: 365: rotate((400 - shortwall), 0);
	comf	(main@shortwall),w
	movwf	(??_main+0)+0
	comf	(main@shortwall+1),w
	movwf	((??_main+0)+0+1)
	incf	(??_main+0)+0,f
	skipnz
	incf	((??_main+0)+0+1),f
	movf	0+(??_main+0)+0,w
	addlw	low(0190h)
	movwf	(?_rotate)
	movf	1+(??_main+0)+0,w
	skipnc
	addlw	1
	addlw	high(0190h)
	movwf	1+(?_rotate)
	clrf	0+(?_rotate)+02h
	fcall	_rotate
	line	366
;Main.c: 366: break;
	goto	l11143
	line	367
;Main.c: 367: case 2:
	
l2273:	
	line	368
	
l11125:	
;Main.c: 368: _delay((unsigned long)((100)*(20000000/4000.0)));
	opt asmopt_off
movlw  3
	bcf	status, 5	;RP0=0, select bank0
	bcf	status, 6	;RP1=0, select bank0
movwf	((??_main+0)+0+2),f
movlw	138
movwf	((??_main+0)+0+1),f
	movlw	86
movwf	((??_main+0)+0),f
u4627:
	decfsz	((??_main+0)+0),f
	goto	u4627
	decfsz	((??_main+0)+0+1),f
	goto	u4627
	decfsz	((??_main+0)+0+2),f
	goto	u4627
	nop2
opt asmopt_on

	line	369
	
l11127:	
;Main.c: 369: robotMove(200);
	movlw	low(0C8h)
	bcf	status, 5	;RP0=0, select bank0
	bcf	status, 6	;RP1=0, select bank0
	movwf	(?_robotMove)
	movlw	high(0C8h)
	movwf	((?_robotMove))+1
	fcall	_robotMove
	line	372
;Main.c: 372: break;
	goto	l11143
	line	373
;Main.c: 373: case 3:
	
l2274:	
	line	374
	
l11129:	
;Main.c: 374: _delay((unsigned long)((100)*(20000000/4000.0)));
	opt asmopt_off
movlw  3
	bcf	status, 5	;RP0=0, select bank0
	bcf	status, 6	;RP1=0, select bank0
movwf	((??_main+0)+0+2),f
movlw	138
movwf	((??_main+0)+0+1),f
	movlw	86
movwf	((??_main+0)+0),f
u4637:
	decfsz	((??_main+0)+0),f
	goto	u4637
	decfsz	((??_main+0)+0+1),f
	goto	u4637
	decfsz	((??_main+0)+0+2),f
	goto	u4637
	nop2
opt asmopt_on

	line	375
	
l11131:	
;Main.c: 375: robotMove(1000);
	movlw	low(03E8h)
	bcf	status, 5	;RP0=0, select bank0
	bcf	status, 6	;RP1=0, select bank0
	movwf	(?_robotMove)
	movlw	high(03E8h)
	movwf	((?_robotMove))+1
	fcall	_robotMove
	line	376
	
l11133:	
;Main.c: 376: robotTurn(-90);
	movlw	low(-90)
	bcf	status, 5	;RP0=0, select bank0
	bcf	status, 6	;RP1=0, select bank0
	movwf	(?_robotTurn)
	movlw	high(-90)
	movwf	((?_robotTurn))+1
	fcall	_robotTurn
	line	377
	
l11135:	
;Main.c: 377: robotMove(1000);
	movlw	low(03E8h)
	bcf	status, 5	;RP0=0, select bank0
	bcf	status, 6	;RP1=0, select bank0
	movwf	(?_robotMove)
	movlw	high(03E8h)
	movwf	((?_robotMove))+1
	fcall	_robotMove
	line	378
;Main.c: 378: break;
	goto	l11143
	line	379
;Main.c: 379: case 4:
	
l2275:	
	line	381
;Main.c: 381: break;
	goto	l11143
	line	383
;Main.c: 383: case 5:
	
l2276:	
	line	384
	
l11137:	
;Main.c: 384: ChargeMode();
	fcall	_ChargeMode
	line	385
;Main.c: 385: break;
	goto	l11143
	line	386
;Main.c: 386: default:
	
l2277:	
	line	388
;Main.c: 388: break;
	goto	l11143
	line	389
	
l11139:	
;Main.c: 389: }
	goto	l11143
	line	358
	
l2269:	
	
l11141:	
	bcf	status, 5	;RP0=0, select bank0
	bcf	status, 6	;RP1=0, select bank0
	movf	(main@choice),w
	; Switch size 1, requested type "space"
; Number of cases is 6, Range of values is 0 to 5
; switch strategies available:
; Name         Instructions Cycles
; simple_byte           19    10 (average)
; direct_byte           26     8 (fixed)
; jumptable            260     6 (fixed)
; rangetable            10     6 (fixed)
; spacedrange           18     9 (fixed)
; locatedrange           6     3 (fixed)
;	Chosen strategy is simple_byte

	opt asmopt_off
	xorlw	0^0	; case 0
	skipnz
	goto	l11119
	xorlw	1^0	; case 1
	skipnz
	goto	l11121
	xorlw	2^1	; case 2
	skipnz
	goto	l11125
	xorlw	3^2	; case 3
	skipnz
	goto	l11129
	xorlw	4^3	; case 4
	skipnz
	goto	l11143
	xorlw	5^4	; case 5
	skipnz
	goto	l11137
	goto	l11143
	opt asmopt_on

	line	389
	
l2271:	
	line	390
	
l11143:	
;Main.c: 390: choice = 255;
	movlw	(0FFh)
	bcf	status, 5	;RP0=0, select bank0
	bcf	status, 6	;RP1=0, select bank0
	movwf	(??_main+0)+0
	movf	(??_main+0)+0,w
	movwf	(main@choice)
	goto	l11085
	line	391
	
l2278:	
	line	308
	goto	l11085
	
l2279:	
	line	392
	
l2280:	
	global	start
	ljmp	start
	opt stack 0
GLOBAL	__end_of_main
	__end_of_main:
;; =============== function _main ends ============

	signat	_main,88
	global	_robotMove
psect	text900,local,class=CODE,delta=2
global __ptext900
__ptext900:

;; *************** function _robotMove *****************
;; Defined at:
;;		line 40 in file "E:\Aldnoah.Zero\Assignment3\robot.c"
;; Parameters:    Size  Location     Type
;;  distance        2   57[BANK0 ] int 
;; Auto vars:     Size  Location     Type
;;		None
;; Return value:  Size  Location     Type
;;		None               void
;; Registers used:
;;		wreg, fsr0l, fsr0h, status,2, status,0, btemp+1, pclath, cstack
;; Tracked objects:
;;		On entry : 0/0
;;		On exit  : 0/0
;;		Unchanged: 0/0
;; Data sizes:     COMMON   BANK0   BANK1   BANK3   BANK2
;;      Params:         0       2       0       0       0
;;      Locals:         0       0       0       0       0
;;      Temps:          0       2       0       0       0
;;      Totals:         0       4       0       0       0
;;Total ram usage:        4 bytes
;; Hardware stack levels used:    1
;; Hardware stack levels required when called:    6
;; This function calls:
;;		_ser_putch
;;		_robot_read
;;		_UpdateDisplay
;; This function is called by:
;;		_main
;; This function uses a non-reentrant model
;;
psect	text900
	file	"E:\Aldnoah.Zero\Assignment3\robot.c"
	line	40
	global	__size_of_robotMove
	__size_of_robotMove	equ	__end_of_robotMove-_robotMove
	
_robotMove:	
	opt	stack 1
; Regs used in _robotMove: [wreg-fsr0h+status,2+status,0+btemp+1+pclath+cstack]
	line	41
	
l11057:	
;robot.c: 41: distTravelled =0;
	bsf	status, 5	;RP0=1, select bank1
	bcf	status, 6	;RP1=0, select bank1
	clrf	(_distTravelled)^080h
	clrf	(_distTravelled+1)^080h
	line	43
	
l11059:	
;robot.c: 43: if (distance >= 0)
	bcf	status, 5	;RP0=0, select bank0
	bcf	status, 6	;RP1=0, select bank0
	btfsc	(robotMove@distance+1),7
	goto	u4581
	goto	u4580
u4581:
	goto	l11063
u4580:
	line	45
	
l11061:	
;robot.c: 44: {
;robot.c: 45: ser_putch(137);
	movlw	(089h)
	fcall	_ser_putch
	line	47
;robot.c: 47: ser_putch(0);
	movlw	(0)
	fcall	_ser_putch
	line	49
;robot.c: 49: ser_putch(50);
	movlw	(032h)
	fcall	_ser_putch
	line	51
;robot.c: 51: ser_putch(128);
	movlw	(080h)
	fcall	_ser_putch
	line	53
;robot.c: 53: ser_putch(0);
	movlw	(0)
	fcall	_ser_putch
	line	54
;robot.c: 54: }
	goto	l11075
	line	55
	
l6011:	
	line	57
	
l11063:	
;robot.c: 55: else
;robot.c: 56: {
;robot.c: 57: ser_putch(137);
	movlw	(089h)
	fcall	_ser_putch
	line	59
;robot.c: 59: ser_putch(0xff);
	movlw	(0FFh)
	fcall	_ser_putch
	line	61
;robot.c: 61: ser_putch(0x38);
	movlw	(038h)
	fcall	_ser_putch
	line	63
;robot.c: 63: ser_putch(128);
	movlw	(080h)
	fcall	_ser_putch
	line	65
;robot.c: 65: ser_putch(0);
	movlw	(0)
	fcall	_ser_putch
	goto	l11075
	line	66
	
l6012:	
	line	69
;robot.c: 66: }
;robot.c: 69: while (distTravelled <= distance)
	goto	l11075
	
l6014:	
	line	71
	
l11065:	
;robot.c: 70: {
;robot.c: 71: robot_read();
	fcall	_robot_read
	line	72
	
l11067:	
;robot.c: 72: if (BumpSensors)
	bcf	status, 5	;RP0=0, select bank0
	bcf	status, 6	;RP1=0, select bank0
	movf	(_BumpSensors),w	;volatile
	skipz
	goto	u4590
	goto	l11071
u4590:
	goto	l11077
	line	73
	
l11069:	
;robot.c: 73: break;
	goto	l11077
	
l6015:	
	line	74
	
l11071:	
;robot.c: 74: distTravelled += DistLowByte;
	bsf	status, 5	;RP0=1, select bank1
	bcf	status, 6	;RP1=0, select bank1
	movf	(_DistLowByte)^080h,w	;volatile
	bcf	status, 5	;RP0=0, select bank0
	bcf	status, 6	;RP1=0, select bank0
	movwf	(??_robotMove+0)+0
	clrf	(??_robotMove+0)+0+1
	movf	0+(??_robotMove+0)+0,w
	bsf	status, 5	;RP0=1, select bank1
	bcf	status, 6	;RP1=0, select bank1
	addwf	(_distTravelled)^080h,f
	skipnc
	incf	(_distTravelled+1)^080h,f
	bcf	status, 5	;RP0=0, select bank0
	bcf	status, 6	;RP1=0, select bank0
	movf	1+(??_robotMove+0)+0,w
	bsf	status, 5	;RP0=1, select bank1
	bcf	status, 6	;RP1=0, select bank1
	addwf	(_distTravelled+1)^080h,f
	line	75
	
l11073:	
;robot.c: 75: UpdateDisplay();
	fcall	_UpdateDisplay
	goto	l11075
	line	76
	
l6013:	
	line	69
	
l11075:	
	bcf	status, 5	;RP0=0, select bank0
	bcf	status, 6	;RP1=0, select bank0
	movf	(robotMove@distance+1),w
	xorlw	80h
	movwf	(??_robotMove+0)+0
	bsf	status, 5	;RP0=1, select bank1
	bcf	status, 6	;RP1=0, select bank1
	movf	(_distTravelled+1)^080h,w
	xorlw	80h
	bcf	status, 5	;RP0=0, select bank0
	bcf	status, 6	;RP1=0, select bank0
	subwf	(??_robotMove+0)+0,w
	skipz
	goto	u4605
	bsf	status, 5	;RP0=1, select bank1
	bcf	status, 6	;RP1=0, select bank1
	movf	(_distTravelled)^080h,w
	bcf	status, 5	;RP0=0, select bank0
	bcf	status, 6	;RP1=0, select bank0
	subwf	(robotMove@distance),w
u4605:

	skipnc
	goto	u4601
	goto	u4600
u4601:
	goto	l11065
u4600:
	goto	l11077
	
l6016:	
	line	78
	
l11077:	
;robot.c: 76: }
;robot.c: 78: ser_putch(137);
	movlw	(089h)
	fcall	_ser_putch
	line	80
;robot.c: 80: ser_putch(0);
	movlw	(0)
	fcall	_ser_putch
	line	82
;robot.c: 82: ser_putch(0);
	movlw	(0)
	fcall	_ser_putch
	line	84
;robot.c: 84: ser_putch(0);
	movlw	(0)
	fcall	_ser_putch
	line	86
;robot.c: 86: ser_putch(0);
	movlw	(0)
	fcall	_ser_putch
	line	88
	
l6017:	
	return
	opt stack 0
GLOBAL	__end_of_robotMove
	__end_of_robotMove:
;; =============== function _robotMove ends ============

	signat	_robotMove,4216
	global	_scan360
psect	text901,local,class=CODE,delta=2
global __ptext901
__ptext901:

;; *************** function _scan360 *****************
;; Defined at:
;;		line 268 in file "E:\Aldnoah.Zero\Assignment3\Main.c"
;; Parameters:    Size  Location     Type
;;		None
;; Auto vars:     Size  Location     Type
;;  steps           2   63[BANK0 ] int 
;;  lowestSteps     2   61[BANK0 ] int 
;;  lowestVal       2   59[BANK0 ] int 
;; Return value:  Size  Location     Type
;;                  2   57[BANK0 ] int 
;; Registers used:
;;		wreg, fsr0l, fsr0h, status,2, status,0, btemp+1, pclath, cstack
;; Tracked objects:
;;		On entry : 0/0
;;		On exit  : 0/0
;;		Unchanged: 0/0
;; Data sizes:     COMMON   BANK0   BANK1   BANK3   BANK2
;;      Params:         0       2       0       0       0
;;      Locals:         0       6       0       0       0
;;      Temps:          0       0       0       0       0
;;      Totals:         0       8       0       0       0
;;Total ram usage:        8 bytes
;; Hardware stack levels used:    1
;; Hardware stack levels required when called:    7
;; This function calls:
;;		_readAvgDistance
;;		_rotate
;;		_UpdateDisplay
;; This function is called by:
;;		_main
;; This function uses a non-reentrant model
;;
psect	text901
	file	"E:\Aldnoah.Zero\Assignment3\Main.c"
	line	268
	global	__size_of_scan360
	__size_of_scan360	equ	__end_of_scan360-_scan360
	
_scan360:	
	opt	stack 0
; Regs used in _scan360: [wreg-fsr0h+status,2+status,0+btemp+1+pclath+cstack]
	line	269
	
l11027:	
;Main.c: 269: int lowestVal = 0, lowestSteps = 0;
	bcf	status, 5	;RP0=0, select bank0
	bcf	status, 6	;RP1=0, select bank0
	clrf	(scan360@lowestVal)
	clrf	(scan360@lowestVal+1)
	clrf	(scan360@lowestSteps)
	clrf	(scan360@lowestSteps+1)
	line	271
;Main.c: 271: for (int steps = 0; steps < 400; steps++)
	clrf	(scan360@steps)
	clrf	(scan360@steps+1)
	
l11029:	
	movf	(scan360@steps+1),w
	xorlw	80h
	movwf	btemp+1
	movlw	(high(0190h))^80h
	subwf	btemp+1,w
	skipz
	goto	u4545
	movlw	low(0190h)
	subwf	(scan360@steps),w
u4545:

	skipc
	goto	u4541
	goto	u4540
u4541:
	goto	l11033
u4540:
	goto	l11053
	
l11031:	
	goto	l11053
	line	272
	
l2252:	
	line	273
	
l11033:	
;Main.c: 272: {
;Main.c: 273: readAvgDistance();
	fcall	_readAvgDistance
	line	274
	
l11035:	
;Main.c: 274: if (adcVal > lowestVal)
	bcf	status, 5	;RP0=0, select bank0
	bcf	status, 6	;RP1=0, select bank0
	movf	(_adcVal+1),w	;volatile
	subwf	(scan360@lowestVal+1),w
	skipz
	goto	u4555
	movf	(_adcVal),w	;volatile
	subwf	(scan360@lowestVal),w
u4555:
	skipnc
	goto	u4551
	goto	u4550
u4551:
	goto	l11039
u4550:
	line	276
	
l11037:	
;Main.c: 275: {
;Main.c: 276: lowestVal = adcVal;
	movf	(_adcVal+1),w	;volatile
	clrf	(scan360@lowestVal+1)	;volatile
	addwf	(scan360@lowestVal+1)	;volatile
	movf	(_adcVal),w	;volatile
	clrf	(scan360@lowestVal)	;volatile
	addwf	(scan360@lowestVal)	;volatile

	line	277
;Main.c: 277: lowestSteps = steps;
	movf	(scan360@steps+1),w
	clrf	(scan360@lowestSteps+1)
	addwf	(scan360@lowestSteps+1)
	movf	(scan360@steps),w
	clrf	(scan360@lowestSteps)
	addwf	(scan360@lowestSteps)

	goto	l11039
	line	279
	
l2254:	
	line	280
	
l11039:	
;Main.c: 279: }
;Main.c: 280: rotate(1, 1);
	movlw	low(01h)
	movwf	(?_rotate)
	movlw	high(01h)
	movwf	((?_rotate))+1
	clrf	0+(?_rotate)+02h
	bsf	status,0
	rlf	0+(?_rotate)+02h,f
	fcall	_rotate
	line	282
	
l11041:	
;Main.c: 282: if (RTC_FLAG_250MS == 1)
	btfss	(_RTC_FLAG_250MS/8),(_RTC_FLAG_250MS)&7
	goto	u4561
	goto	u4560
u4561:
	goto	l11047
u4560:
	line	284
	
l11043:	
;Main.c: 283: {
;Main.c: 284: RTC_FLAG_250MS = 0;
	bcf	(_RTC_FLAG_250MS/8),(_RTC_FLAG_250MS)&7
	line	285
	
l11045:	
;Main.c: 285: UpdateDisplay();
	fcall	_UpdateDisplay
	goto	l11047
	line	286
	
l2255:	
	line	287
	
l11047:	
;Main.c: 286: }
;Main.c: 287: test = lowestSteps;
	bcf	status, 5	;RP0=0, select bank0
	bcf	status, 6	;RP1=0, select bank0
	movf	(scan360@lowestSteps+1),w
	bsf	status, 5	;RP0=1, select bank1
	bcf	status, 6	;RP1=0, select bank1
	clrf	(_test+1)^080h
	addwf	(_test+1)^080h
	bcf	status, 5	;RP0=0, select bank0
	bcf	status, 6	;RP1=0, select bank0
	movf	(scan360@lowestSteps),w
	bsf	status, 5	;RP0=1, select bank1
	bcf	status, 6	;RP1=0, select bank1
	clrf	(_test)^080h
	addwf	(_test)^080h

	line	271
	
l11049:	
	movlw	low(01h)
	bcf	status, 5	;RP0=0, select bank0
	bcf	status, 6	;RP1=0, select bank0
	addwf	(scan360@steps),f
	skipnc
	incf	(scan360@steps+1),f
	movlw	high(01h)
	addwf	(scan360@steps+1),f
	
l11051:	
	movf	(scan360@steps+1),w
	xorlw	80h
	movwf	btemp+1
	movlw	(high(0190h))^80h
	subwf	btemp+1,w
	skipz
	goto	u4575
	movlw	low(0190h)
	subwf	(scan360@steps),w
u4575:

	skipc
	goto	u4571
	goto	u4570
u4571:
	goto	l11033
u4570:
	goto	l11053
	
l2253:	
	line	290
	
l11053:	
;Main.c: 288: }
;Main.c: 290: return lowestSteps;
	bcf	status, 5	;RP0=0, select bank0
	bcf	status, 6	;RP1=0, select bank0
	movf	(scan360@lowestSteps+1),w
	clrf	(?_scan360+1)
	addwf	(?_scan360+1)
	movf	(scan360@lowestSteps),w
	clrf	(?_scan360)
	addwf	(?_scan360)

	goto	l2256
	
l11055:	
	line	291
	
l2256:	
	return
	opt stack 0
GLOBAL	__end_of_scan360
	__end_of_scan360:
;; =============== function _scan360 ends ============

	signat	_scan360,90
	global	_ChargeMode
psect	text902,local,class=CODE,delta=2
global __ptext902
__ptext902:

;; *************** function _ChargeMode *****************
;; Defined at:
;;		line 214 in file "E:\Aldnoah.Zero\Assignment3\Main.c"
;; Parameters:    Size  Location     Type
;;		None
;; Auto vars:     Size  Location     Type
;;		None
;; Return value:  Size  Location     Type
;;		None               void
;; Registers used:
;;		wreg, fsr0l, fsr0h, status,2, status,0, btemp+1, pclath, cstack
;; Tracked objects:
;;		On entry : 0/0
;;		On exit  : 0/0
;;		Unchanged: 0/0
;; Data sizes:     COMMON   BANK0   BANK1   BANK3   BANK2
;;      Params:         0       0       0       0       0
;;      Locals:         0       0       0       0       0
;;      Temps:          0       1       0       0       0
;;      Totals:         0       1       0       0       0
;;Total ram usage:        1 bytes
;; Hardware stack levels used:    1
;; Hardware stack levels required when called:    6
;; This function calls:
;;		_ser_putch
;;		_UpdateDisplay
;; This function is called by:
;;		_main
;; This function uses a non-reentrant model
;;
psect	text902
	file	"E:\Aldnoah.Zero\Assignment3\Main.c"
	line	214
	global	__size_of_ChargeMode
	__size_of_ChargeMode	equ	__end_of_ChargeMode-_ChargeMode
	
_ChargeMode:	
	opt	stack 1
; Regs used in _ChargeMode: [wreg-fsr0h+status,2+status,0+btemp+1+pclath+cstack]
	line	216
	
l11005:	
;Main.c: 216: currentMenu = 2;
	movlw	(02h)
	bcf	status, 5	;RP0=0, select bank0
	bcf	status, 6	;RP1=0, select bank0
	movwf	(??_ChargeMode+0)+0
	movf	(??_ChargeMode+0)+0,w
	bsf	status, 5	;RP0=1, select bank1
	bcf	status, 6	;RP1=0, select bank1
	movwf	(_currentMenu)^080h	;volatile
	line	217
	
l11007:	
;Main.c: 217: ser_putch(128);
	movlw	(080h)
	fcall	_ser_putch
	goto	l11009
	line	219
;Main.c: 219: while (1)
	
l2237:	
	line	221
	
l11009:	
;Main.c: 220: {
;Main.c: 221: if (RTC_FLAG_250MS == 1)
	btfss	(_RTC_FLAG_250MS/8),(_RTC_FLAG_250MS)&7
	goto	u4531
	goto	u4530
u4531:
	goto	l11025
u4530:
	line	223
	
l11011:	
;Main.c: 222: {
;Main.c: 223: RTC_FLAG_250MS = 0;
	bcf	(_RTC_FLAG_250MS/8),(_RTC_FLAG_250MS)&7
	line	224
	
l11013:	
;Main.c: 224: UpdateDisplay();
	fcall	_UpdateDisplay
	goto	l11025
	line	225
	
l2238:	
	line	226
;Main.c: 225: }
;Main.c: 226: switch (buttonPressed)
	goto	l11025
	line	228
;Main.c: 227: {
;Main.c: 228: case 1:
	
l2240:	
	line	231
;Main.c: 231: buttonPressed = 0;
	clrf	(_buttonPressed)	;volatile
	line	233
;Main.c: 233: break;
	goto	l11009
	line	234
;Main.c: 234: case 2:
	
l2242:	
	line	237
;Main.c: 237: buttonPressed = 0;
	clrf	(_buttonPressed)	;volatile
	line	239
;Main.c: 239: break;
	goto	l11009
	line	240
;Main.c: 240: case 3:
	
l2243:	
	line	243
;Main.c: 243: buttonPressed = 0;
	clrf	(_buttonPressed)	;volatile
	line	245
;Main.c: 245: break;
	goto	l11009
	line	246
;Main.c: 246: case 4:
	
l2244:	
	line	249
;Main.c: 249: buttonPressed = 0;
	clrf	(_buttonPressed)	;volatile
	line	251
;Main.c: 251: break;
	goto	l11009
	line	252
;Main.c: 252: case 5:
	
l2245:	
	line	253
	
l11015:	
;Main.c: 253: ser_putch(132);
	movlw	(084h)
	fcall	_ser_putch
	line	255
	
l11017:	
;Main.c: 255: buttonPressed = 0;
	clrf	(_buttonPressed)	;volatile
	line	256
	
l11019:	
;Main.c: 256: currentMenu = 0;
	bsf	status, 5	;RP0=1, select bank1
	bcf	status, 6	;RP1=0, select bank1
	clrf	(_currentMenu)^080h	;volatile
	goto	l2246
	line	257
	
l11021:	
;Main.c: 257: return;
	goto	l2246
	line	259
;Main.c: 259: default:
	
l2247:	
	line	260
;Main.c: 260: buttonPressed = 0;
	clrf	(_buttonPressed)	;volatile
	line	261
;Main.c: 261: break;
	goto	l11009
	line	262
	
l11023:	
;Main.c: 262: }
	goto	l11009
	line	226
	
l2239:	
	
l11025:	
	movf	(_buttonPressed),w	;volatile
	; Switch size 1, requested type "space"
; Number of cases is 5, Range of values is 1 to 5
; switch strategies available:
; Name         Instructions Cycles
; simple_byte           16     9 (average)
; direct_byte           26    11 (fixed)
; jumptable            263     9 (fixed)
;	Chosen strategy is simple_byte

	opt asmopt_off
	xorlw	1^0	; case 1
	skipnz
	goto	l2240
	xorlw	2^1	; case 2
	skipnz
	goto	l2242
	xorlw	3^2	; case 3
	skipnz
	goto	l2243
	xorlw	4^3	; case 4
	skipnz
	goto	l2244
	xorlw	5^4	; case 5
	skipnz
	goto	l11015
	goto	l2247
	opt asmopt_on

	line	262
	
l2241:	
	goto	l11009
	line	263
	
l2248:	
	line	219
	goto	l11009
	
l2249:	
	line	264
	
l2246:	
	return
	opt stack 0
GLOBAL	__end_of_ChargeMode
	__end_of_ChargeMode:
;; =============== function _ChargeMode ends ============

	signat	_ChargeMode,88
	global	_calibrateIR
psect	text903,local,class=CODE,delta=2
global __ptext903
__ptext903:

;; *************** function _calibrateIR *****************
;; Defined at:
;;		line 163 in file "E:\Aldnoah.Zero\Assignment3\Main.c"
;; Parameters:    Size  Location     Type
;;		None
;; Auto vars:     Size  Location     Type
;;		None
;; Return value:  Size  Location     Type
;;		None               void
;; Registers used:
;;		wreg, fsr0l, fsr0h, status,2, status,0, btemp+1, pclath, cstack
;; Tracked objects:
;;		On entry : 0/0
;;		On exit  : 0/0
;;		Unchanged: 0/0
;; Data sizes:     COMMON   BANK0   BANK1   BANK3   BANK2
;;      Params:         0       0       0       0       0
;;      Locals:         0       0       0       0       0
;;      Temps:          0       0       0       0       0
;;      Totals:         0       0       0       0       0
;;Total ram usage:        0 bytes
;; Hardware stack levels used:    1
;; Hardware stack levels required when called:    6
;; This function calls:
;;		_rotate
;;		_UpdateDisplay
;; This function is called by:
;;		_main
;; This function uses a non-reentrant model
;;
psect	text903
	file	"E:\Aldnoah.Zero\Assignment3\Main.c"
	line	163
	global	__size_of_calibrateIR
	__size_of_calibrateIR	equ	__end_of_calibrateIR-_calibrateIR
	
_calibrateIR:	
	opt	stack 1
; Regs used in _calibrateIR: [wreg-fsr0h+status,2+status,0+btemp+1+pclath+cstack]
	line	165
	
l10975:	
;Main.c: 165: currentMenu = 1;
	bsf	status, 5	;RP0=1, select bank1
	bcf	status, 6	;RP1=0, select bank1
	clrf	(_currentMenu)^080h	;volatile
	bsf	status,0
	rlf	(_currentMenu)^080h,f	;volatile
	line	166
	
l10977:	
;Main.c: 166: rotate(8, 0);
	movlw	low(08h)
	bcf	status, 5	;RP0=0, select bank0
	bcf	status, 6	;RP1=0, select bank0
	movwf	(?_rotate)
	movlw	high(08h)
	movwf	((?_rotate))+1
	clrf	0+(?_rotate)+02h
	fcall	_rotate
	goto	l10979
	line	167
;Main.c: 167: while (1)
	
l2222:	
	line	169
	
l10979:	
;Main.c: 168: {
;Main.c: 169: if (RTC_FLAG_250MS == 1)
	btfss	(_RTC_FLAG_250MS/8),(_RTC_FLAG_250MS)&7
	goto	u4521
	goto	u4520
u4521:
	goto	l11003
u4520:
	line	171
	
l10981:	
;Main.c: 170: {
;Main.c: 171: RTC_FLAG_250MS = 0;
	bcf	(_RTC_FLAG_250MS/8),(_RTC_FLAG_250MS)&7
	line	172
	
l10983:	
;Main.c: 172: UpdateDisplay();
	fcall	_UpdateDisplay
	goto	l11003
	line	173
	
l2223:	
	line	174
;Main.c: 173: }
;Main.c: 174: switch (buttonPressed)
	goto	l11003
	line	176
;Main.c: 175: {
;Main.c: 176: case 1:
	
l2225:	
	line	179
;Main.c: 179: buttonPressed = 0;
	clrf	(_buttonPressed)	;volatile
	line	181
;Main.c: 181: break;
	goto	l10979
	line	182
;Main.c: 182: case 2:
	
l2227:	
	line	185
;Main.c: 185: buttonPressed = 0;
	clrf	(_buttonPressed)	;volatile
	line	187
;Main.c: 187: break;
	goto	l10979
	line	188
;Main.c: 188: case 3:
	
l2228:	
	line	189
	
l10985:	
;Main.c: 189: rotate(1, 1);
	movlw	low(01h)
	bcf	status, 5	;RP0=0, select bank0
	bcf	status, 6	;RP1=0, select bank0
	movwf	(?_rotate)
	movlw	high(01h)
	movwf	((?_rotate))+1
	clrf	0+(?_rotate)+02h
	bsf	status,0
	rlf	0+(?_rotate)+02h,f
	fcall	_rotate
	line	191
	
l10987:	
;Main.c: 191: buttonPressed = 0;
	clrf	(_buttonPressed)	;volatile
	line	193
;Main.c: 193: break;
	goto	l10979
	line	194
;Main.c: 194: case 4:
	
l2229:	
	line	195
	
l10989:	
;Main.c: 195: rotate(1, 0);
	movlw	low(01h)
	bcf	status, 5	;RP0=0, select bank0
	bcf	status, 6	;RP1=0, select bank0
	movwf	(?_rotate)
	movlw	high(01h)
	movwf	((?_rotate))+1
	clrf	0+(?_rotate)+02h
	fcall	_rotate
	line	197
	
l10991:	
;Main.c: 197: buttonPressed = 0;
	clrf	(_buttonPressed)	;volatile
	line	199
;Main.c: 199: break;
	goto	l10979
	line	200
;Main.c: 200: case 5:
	
l2230:	
	line	201
	
l10993:	
;Main.c: 201: totalSteps = 0;
	bsf	status, 5	;RP0=1, select bank1
	bcf	status, 6	;RP1=0, select bank1
	clrf	(_totalSteps)^080h
	clrf	(_totalSteps+1)^080h
	line	203
	
l10995:	
;Main.c: 203: buttonPressed = 0;
	clrf	(_buttonPressed)	;volatile
	line	204
	
l10997:	
;Main.c: 204: currentMenu = 0;
	clrf	(_currentMenu)^080h	;volatile
	goto	l2231
	line	205
	
l10999:	
;Main.c: 205: return;
	goto	l2231
	line	207
;Main.c: 207: default:
	
l2232:	
	line	209
;Main.c: 209: break;
	goto	l10979
	line	210
	
l11001:	
;Main.c: 210: }
	goto	l10979
	line	174
	
l2224:	
	
l11003:	
	movf	(_buttonPressed),w	;volatile
	; Switch size 1, requested type "space"
; Number of cases is 5, Range of values is 1 to 5
; switch strategies available:
; Name         Instructions Cycles
; simple_byte           16     9 (average)
; direct_byte           26    11 (fixed)
; jumptable            263     9 (fixed)
;	Chosen strategy is simple_byte

	opt asmopt_off
	xorlw	1^0	; case 1
	skipnz
	goto	l2225
	xorlw	2^1	; case 2
	skipnz
	goto	l2227
	xorlw	3^2	; case 3
	skipnz
	goto	l10985
	xorlw	4^3	; case 4
	skipnz
	goto	l10989
	xorlw	5^4	; case 5
	skipnz
	goto	l10993
	goto	l10979
	opt asmopt_on

	line	210
	
l2226:	
	goto	l10979
	line	211
	
l2233:	
	line	167
	goto	l10979
	
l2234:	
	line	212
	
l2231:	
	return
	opt stack 0
GLOBAL	__end_of_calibrateIR
	__end_of_calibrateIR:
;; =============== function _calibrateIR ends ============

	signat	_calibrateIR,88
	global	_readAvgDistance
psect	text904,local,class=CODE,delta=2
global __ptext904
__ptext904:

;; *************** function _readAvgDistance *****************
;; Defined at:
;;		line 10 in file "E:\Aldnoah.Zero\Assignment3\infrared.c"
;; Parameters:    Size  Location     Type
;;		None
;; Auto vars:     Size  Location     Type
;;  i               2   18[BANK0 ] int 
;;  fullval         2   16[BANK0 ] unsigned int 
;; Return value:  Size  Location     Type
;;		None               void
;; Registers used:
;;		wreg, fsr0l, fsr0h, status,2, status,0, btemp+1, pclath, cstack
;; Tracked objects:
;;		On entry : 0/0
;;		On exit  : 0/0
;;		Unchanged: 0/0
;; Data sizes:     COMMON   BANK0   BANK1   BANK3   BANK2
;;      Params:         0       0       0       0       0
;;      Locals:         0       4       0       0       0
;;      Temps:          0       0       0       0       0
;;      Totals:         0       4       0       0       0
;;Total ram usage:        4 bytes
;; Hardware stack levels used:    1
;; Hardware stack levels required when called:    6
;; This function calls:
;;		_readDistance
;;		___lwdiv
;;		_ADCconvert
;; This function is called by:
;;		_scan360
;;		_main
;; This function uses a non-reentrant model
;;
psect	text904
	file	"E:\Aldnoah.Zero\Assignment3\infrared.c"
	line	10
	global	__size_of_readAvgDistance
	__size_of_readAvgDistance	equ	__end_of_readAvgDistance-_readAvgDistance
	
_readAvgDistance:	
	opt	stack 0
; Regs used in _readAvgDistance: [wreg-fsr0h+status,2+status,0+btemp+1+pclath+cstack]
	line	11
	
l10961:	
;infrared.c: 11: unsigned int fullval = 0;
	bcf	status, 5	;RP0=0, select bank0
	bcf	status, 6	;RP1=0, select bank0
	clrf	(readAvgDistance@fullval)
	clrf	(readAvgDistance@fullval+1)
	line	14
;infrared.c: 14: for (int i = 0; i < 10; i++)
	clrf	(readAvgDistance@i)
	clrf	(readAvgDistance@i+1)
	
l10963:	
	movf	(readAvgDistance@i+1),w
	xorlw	80h
	movwf	btemp+1
	movlw	(high(0Ah))^80h
	subwf	btemp+1,w
	skipz
	goto	u4505
	movlw	low(0Ah)
	subwf	(readAvgDistance@i),w
u4505:

	skipc
	goto	u4501
	goto	u4500
u4501:
	goto	l10967
u4500:
	goto	l10973
	
l10965:	
	goto	l10973
	line	15
	
l2983:	
	line	16
	
l10967:	
;infrared.c: 15: {
;infrared.c: 16: fullval += readDistance();
	fcall	_readDistance
	bcf	status, 5	;RP0=0, select bank0
	bcf	status, 6	;RP1=0, select bank0
	movf	(0+(?_readDistance)),w
	addwf	(readAvgDistance@fullval),f
	skipnc
	incf	(readAvgDistance@fullval+1),f
	movf	(1+(?_readDistance)),w
	addwf	(readAvgDistance@fullval+1),f
	line	14
	
l10969:	
	movlw	low(01h)
	addwf	(readAvgDistance@i),f
	skipnc
	incf	(readAvgDistance@i+1),f
	movlw	high(01h)
	addwf	(readAvgDistance@i+1),f
	
l10971:	
	movf	(readAvgDistance@i+1),w
	xorlw	80h
	movwf	btemp+1
	movlw	(high(0Ah))^80h
	subwf	btemp+1,w
	skipz
	goto	u4515
	movlw	low(0Ah)
	subwf	(readAvgDistance@i),w
u4515:

	skipc
	goto	u4511
	goto	u4510
u4511:
	goto	l10967
u4510:
	goto	l10973
	
l2984:	
	line	19
	
l10973:	
;infrared.c: 18: }
;infrared.c: 19: adcVal = fullval / 10;
	movlw	low(0Ah)
	bcf	status, 5	;RP0=0, select bank0
	bcf	status, 6	;RP1=0, select bank0
	movwf	(?___lwdiv)
	movlw	high(0Ah)
	movwf	((?___lwdiv))+1
	movf	(readAvgDistance@fullval+1),w
	clrf	1+(?___lwdiv)+02h
	addwf	1+(?___lwdiv)+02h
	movf	(readAvgDistance@fullval),w
	clrf	0+(?___lwdiv)+02h
	addwf	0+(?___lwdiv)+02h

	fcall	___lwdiv
	bcf	status, 5	;RP0=0, select bank0
	bcf	status, 6	;RP1=0, select bank0
	movf	(1+(?___lwdiv)),w
	clrf	(_adcVal+1)	;volatile
	addwf	(_adcVal+1)	;volatile
	movf	(0+(?___lwdiv)),w
	clrf	(_adcVal)	;volatile
	addwf	(_adcVal)	;volatile

	line	20
;infrared.c: 20: ADCconvert();
	fcall	_ADCconvert
	line	21
	
l2985:	
	return
	opt stack 0
GLOBAL	__end_of_readAvgDistance
	__end_of_readAvgDistance:
;; =============== function _readAvgDistance ends ============

	signat	_readAvgDistance,88
	global	_UpdateDisplay
psect	text905,local,class=CODE,delta=2
global __ptext905
__ptext905:

;; *************** function _UpdateDisplay *****************
;; Defined at:
;;		line 216 in file "E:\Aldnoah.Zero\Assignment3\HMI.c"
;; Parameters:    Size  Location     Type
;;		None
;; Auto vars:     Size  Location     Type
;;  adcOutput      16   41[BANK0 ] unsigned char [16]
;; Return value:  Size  Location     Type
;;		None               void
;; Registers used:
;;		wreg, fsr0l, fsr0h, status,2, status,0, btemp+1, pclath, cstack
;; Tracked objects:
;;		On entry : 0/0
;;		On exit  : 0/0
;;		Unchanged: 0/0
;; Data sizes:     COMMON   BANK0   BANK1   BANK3   BANK2
;;      Params:         0       0       0       0       0
;;      Locals:         0      16       0       0       0
;;      Temps:          0       4       0       0       0
;;      Totals:         0      20       0       0       0
;;Total ram usage:       20 bytes
;; Hardware stack levels used:    1
;; Hardware stack levels required when called:    5
;; This function calls:
;;		_lcd_write_control
;;		_sprintf
;;		_lcd_set_cursor
;;		_lcd_write_string
;;		___awmod
;; This function is called by:
;;		_calibrateIR
;;		_ChargeMode
;;		_scan360
;;		_main
;;		_robotMove
;; This function uses a non-reentrant model
;;
psect	text905
	file	"E:\Aldnoah.Zero\Assignment3\HMI.c"
	line	216
	global	__size_of_UpdateDisplay
	__size_of_UpdateDisplay	equ	__end_of_UpdateDisplay-_UpdateDisplay
	
_UpdateDisplay:	
	opt	stack 1
; Regs used in _UpdateDisplay: [wreg-fsr0h+status,2+status,0+btemp+1+pclath+cstack]
	line	217
	
l10917:	
;HMI.c: 217: char adcOutput[16] = "";
	movlw	(UpdateDisplay@adcOutput)&0ffh
	movwf	fsr0
	movlw	low(UpdateDisplay@F1229)
	bcf	status, 5	;RP0=0, select bank0
	bcf	status, 6	;RP1=0, select bank0
	movwf	(??_UpdateDisplay+0)+0
	movf	fsr0,w
	movwf	((??_UpdateDisplay+0)+0+1)
	movlw	16
	movwf	((??_UpdateDisplay+0)+0+2)
u4480:
	movf	(??_UpdateDisplay+0)+0,w
	movwf	fsr0
	bsf	status, 7	;select IRP bank3
	
	movf	indf,w
	movwf	((??_UpdateDisplay+0)+0+3)
	incf	(??_UpdateDisplay+0)+0,f
	movf	((??_UpdateDisplay+0)+0+1),w
	movwf	fsr0
	bcf	status, 7	;select IRP bank0
	
	movf	((??_UpdateDisplay+0)+0+3),w
	movwf	indf
	incf	((??_UpdateDisplay+0)+0+1),f
	decfsz	((??_UpdateDisplay+0)+0+2),f
	goto	u4480
	line	218
;HMI.c: 218: switch (currentMenu)
	goto	l10959
	line	221
;HMI.c: 219: {
;HMI.c: 221: case 0:
	
l4542:	
	line	224
	
l10919:	
;HMI.c: 224: lcd_write_control(0b00000001);
	movlw	(01h)
	fcall	_lcd_write_control
	line	226
	
l10921:	
;HMI.c: 226: sprintf(adcOutput,"ADC:%d Dist:%d",BumpSensors, distTravelled);
	movlw	((STR_13-__stringbase))&0ffh
	bcf	status, 5	;RP0=0, select bank0
	bcf	status, 6	;RP1=0, select bank0
	movwf	(??_UpdateDisplay+0)+0
	movf	(??_UpdateDisplay+0)+0,w
	movwf	(?_sprintf)
	movf	(_BumpSensors),w	;volatile
	movwf	(??_UpdateDisplay+1)+0
	clrf	(??_UpdateDisplay+1)+0+1
	movf	0+(??_UpdateDisplay+1)+0,w
	movwf	0+(?_sprintf)+01h
	movf	1+(??_UpdateDisplay+1)+0,w
	movwf	1+(?_sprintf)+01h
	bsf	status, 5	;RP0=1, select bank1
	bcf	status, 6	;RP1=0, select bank1
	movf	(_distTravelled+1)^080h,w
	bcf	status, 5	;RP0=0, select bank0
	bcf	status, 6	;RP1=0, select bank0
	clrf	1+(?_sprintf)+03h
	addwf	1+(?_sprintf)+03h
	bsf	status, 5	;RP0=1, select bank1
	bcf	status, 6	;RP1=0, select bank1
	movf	(_distTravelled)^080h,w
	bcf	status, 5	;RP0=0, select bank0
	bcf	status, 6	;RP1=0, select bank0
	clrf	0+(?_sprintf)+03h
	addwf	0+(?_sprintf)+03h

	movlw	(UpdateDisplay@adcOutput)&0ffh
	fcall	_sprintf
	line	229
	
l10923:	
;HMI.c: 229: lcd_set_cursor(0x00);
	movlw	(0)
	fcall	_lcd_set_cursor
	line	230
;HMI.c: 230: lcd_write_string(adcOutput);
	movlw	(UpdateDisplay@adcOutput&0ffh)
	bcf	status, 5	;RP0=0, select bank0
	bcf	status, 6	;RP1=0, select bank0
	movwf	(?_lcd_write_string)
	movlw	(0x0/2)
	movwf	(?_lcd_write_string+1)
	fcall	_lcd_write_string
	line	232
	
l10925:	
;HMI.c: 232: lcd_set_cursor(0x40);
	movlw	(040h)
	fcall	_lcd_set_cursor
	line	233
	
l10927:	
;HMI.c: 233: if (pos > 0)
	bsf	status, 5	;RP0=1, select bank1
	bcf	status, 6	;RP1=0, select bank1
	movf	(_pos+1)^080h,w
	xorlw	80h
	movwf	btemp+1
	movlw	(high(01h))^80h
	subwf	btemp+1,w
	skipz
	goto	u4495
	movlw	low(01h)
	subwf	(_pos)^080h,w
u4495:

	skipc
	goto	u4491
	goto	u4490
u4491:
	goto	l10931
u4490:
	line	234
	
l10929:	
;HMI.c: 234: lcd_write_string(shortMenuStrings[pos - 1]);
	bsf	status, 5	;RP0=1, select bank1
	bcf	status, 6	;RP1=0, select bank1
	movf	(_pos)^080h,w
	addlw	0FFh
	addlw	_shortMenuStrings&0ffh
	movwf	fsr0
	bcf	status, 7	;select IRP bank1
	movf	indf,w
	bcf	status, 5	;RP0=0, select bank0
	bcf	status, 6	;RP1=0, select bank0
	movwf	(?_lcd_write_string)
	movlw	80h
	movwf	(?_lcd_write_string+1)
	fcall	_lcd_write_string
	goto	l10933
	line	235
	
l4543:	
	line	236
	
l10931:	
;HMI.c: 235: else
;HMI.c: 236: lcd_write_string(shortMenuStrings[pos + 6 - 1]);
	bsf	status, 5	;RP0=1, select bank1
	bcf	status, 6	;RP1=0, select bank1
	movf	(_pos)^080h,w
	addlw	05h
	addlw	_shortMenuStrings&0ffh
	movwf	fsr0
	bcf	status, 7	;select IRP bank1
	movf	indf,w
	bcf	status, 5	;RP0=0, select bank0
	bcf	status, 6	;RP1=0, select bank0
	movwf	(?_lcd_write_string)
	movlw	80h
	movwf	(?_lcd_write_string+1)
	fcall	_lcd_write_string
	goto	l10933
	
l4544:	
	line	237
	
l10933:	
;HMI.c: 237: lcd_set_cursor(0x44);
	movlw	(044h)
	fcall	_lcd_set_cursor
	line	238
	
l10935:	
;HMI.c: 238: lcd_write_string(menuStrings[pos]);
	bsf	status, 5	;RP0=1, select bank1
	bcf	status, 6	;RP1=0, select bank1
	movf	(_pos)^080h,w
	addlw	_menuStrings&0ffh
	movwf	fsr0
	bcf	status, 7	;select IRP bank1
	movf	indf,w
	bcf	status, 5	;RP0=0, select bank0
	bcf	status, 6	;RP1=0, select bank0
	movwf	(?_lcd_write_string)
	movlw	80h
	movwf	(?_lcd_write_string+1)
	fcall	_lcd_write_string
	line	239
;HMI.c: 239: lcd_set_cursor(0x4D);
	movlw	(04Dh)
	fcall	_lcd_set_cursor
	line	240
	
l10937:	
;HMI.c: 240: lcd_write_string(shortMenuStrings[(pos + 1) % 6]);
	movlw	low(06h)
	bcf	status, 5	;RP0=0, select bank0
	bcf	status, 6	;RP1=0, select bank0
	movwf	(?___awmod)
	movlw	high(06h)
	movwf	((?___awmod))+1
	bsf	status, 5	;RP0=1, select bank1
	bcf	status, 6	;RP1=0, select bank1
	movf	(_pos)^080h,w
	addlw	low(01h)
	bcf	status, 5	;RP0=0, select bank0
	bcf	status, 6	;RP1=0, select bank0
	movwf	0+(?___awmod)+02h
	bsf	status, 5	;RP0=1, select bank1
	bcf	status, 6	;RP1=0, select bank1
	movf	(_pos+1)^080h,w
	skipnc
	addlw	1
	addlw	high(01h)
	bcf	status, 5	;RP0=0, select bank0
	bcf	status, 6	;RP1=0, select bank0
	movwf	1+0+(?___awmod)+02h
	fcall	___awmod
	bcf	status, 5	;RP0=0, select bank0
	bcf	status, 6	;RP1=0, select bank0
	movf	(0+(?___awmod)),w
	addlw	_shortMenuStrings&0ffh
	movwf	fsr0
	bcf	status, 7	;select IRP bank1
	movf	indf,w
	movwf	(?_lcd_write_string)
	movlw	80h
	movwf	(?_lcd_write_string+1)
	fcall	_lcd_write_string
	line	241
;HMI.c: 241: break;
	goto	l4549
	line	242
;HMI.c: 242: case 1:
	
l4546:	
	line	243
	
l10939:	
;HMI.c: 243: lcd_write_control(0b00000001);
	movlw	(01h)
	fcall	_lcd_write_control
	line	245
;HMI.c: 245: lcd_set_cursor(0x00);
	movlw	(0)
	fcall	_lcd_set_cursor
	line	246
	
l10941:	
;HMI.c: 246: lcd_write_string("Zero Step_Motor");
	movlw	low((STR_14-__stringbase))
	bcf	status, 5	;RP0=0, select bank0
	bcf	status, 6	;RP1=0, select bank0
	movwf	(?_lcd_write_string)
	movlw	80h
	movwf	(?_lcd_write_string+1)
	fcall	_lcd_write_string
	line	251
	
l10943:	
;HMI.c: 251: lcd_set_cursor(0x40);
	movlw	(040h)
	fcall	_lcd_set_cursor
	line	253
;HMI.c: 253: lcd_write_string("<<<");
	movlw	low((STR_15-__stringbase))
	bcf	status, 5	;RP0=0, select bank0
	bcf	status, 6	;RP1=0, select bank0
	movwf	(?_lcd_write_string)
	movlw	80h
	movwf	(?_lcd_write_string+1)
	fcall	_lcd_write_string
	line	256
	
l10945:	
;HMI.c: 256: lcd_set_cursor(0x44);
	movlw	(044h)
	fcall	_lcd_set_cursor
	line	257
	
l10947:	
;HMI.c: 257: lcd_write_string("CONFIRM");
	movlw	low((STR_16-__stringbase))
	bcf	status, 5	;RP0=0, select bank0
	bcf	status, 6	;RP1=0, select bank0
	movwf	(?_lcd_write_string)
	movlw	80h
	movwf	(?_lcd_write_string+1)
	fcall	_lcd_write_string
	line	258
;HMI.c: 258: lcd_set_cursor(0x4D);
	movlw	(04Dh)
	fcall	_lcd_set_cursor
	line	259
	
l10949:	
;HMI.c: 259: lcd_write_string(">>>");
	movlw	low((STR_17-__stringbase))
	bcf	status, 5	;RP0=0, select bank0
	bcf	status, 6	;RP1=0, select bank0
	movwf	(?_lcd_write_string)
	movlw	80h
	movwf	(?_lcd_write_string+1)
	fcall	_lcd_write_string
	line	260
;HMI.c: 260: break;
	goto	l4549
	line	261
;HMI.c: 261: case 2:
	
l4547:	
	line	262
	
l10951:	
;HMI.c: 262: lcd_write_control(0b00000001);
	movlw	(01h)
	fcall	_lcd_write_control
	line	264
;HMI.c: 264: lcd_set_cursor(0x00);
	movlw	(0)
	fcall	_lcd_set_cursor
	line	265
	
l10953:	
;HMI.c: 265: lcd_write_string(" Charging Mode ");
	movlw	low((STR_18-__stringbase))
	bcf	status, 5	;RP0=0, select bank0
	bcf	status, 6	;RP1=0, select bank0
	movwf	(?_lcd_write_string)
	movlw	80h
	movwf	(?_lcd_write_string+1)
	fcall	_lcd_write_string
	line	269
	
l10955:	
;HMI.c: 269: lcd_set_cursor(0x44);
	movlw	(044h)
	fcall	_lcd_set_cursor
	line	270
;HMI.c: 270: lcd_write_string("  EXIT  ");
	movlw	low((STR_19-__stringbase))
	bcf	status, 5	;RP0=0, select bank0
	bcf	status, 6	;RP1=0, select bank0
	movwf	(?_lcd_write_string)
	movlw	80h
	movwf	(?_lcd_write_string+1)
	fcall	_lcd_write_string
	line	272
;HMI.c: 272: break;
	goto	l4549
	line	274
;HMI.c: 274: default:
	
l4548:	
	line	276
;HMI.c: 276: break;
	goto	l4549
	line	279
	
l10957:	
;HMI.c: 279: }
	goto	l4549
	line	218
	
l4541:	
	
l10959:	
	bsf	status, 5	;RP0=1, select bank1
	bcf	status, 6	;RP1=0, select bank1
	movf	(_currentMenu)^080h,w	;volatile
	; Switch size 1, requested type "space"
; Number of cases is 3, Range of values is 0 to 2
; switch strategies available:
; Name         Instructions Cycles
; simple_byte           10     6 (average)
; direct_byte           17     8 (fixed)
; jumptable            260     6 (fixed)
; rangetable             7     6 (fixed)
; spacedrange           12     9 (fixed)
; locatedrange           3     3 (fixed)
;	Chosen strategy is simple_byte

	opt asmopt_off
	xorlw	0^0	; case 0
	skipnz
	goto	l10919
	xorlw	1^0	; case 1
	skipnz
	goto	l10939
	xorlw	2^1	; case 2
	skipnz
	goto	l10951
	goto	l4549
	opt asmopt_on

	line	279
	
l4545:	
	line	280
	
l4549:	
	return
	opt stack 0
GLOBAL	__end_of_UpdateDisplay
	__end_of_UpdateDisplay:
;; =============== function _UpdateDisplay ends ============

	signat	_UpdateDisplay,88
	global	_init
psect	text906,local,class=CODE,delta=2
global __ptext906
__ptext906:

;; *************** function _init *****************
;; Defined at:
;;		line 135 in file "E:\Aldnoah.Zero\Assignment3\Main.c"
;; Parameters:    Size  Location     Type
;;		None
;; Auto vars:     Size  Location     Type
;;		None
;; Return value:  Size  Location     Type
;;		None               void
;; Registers used:
;;		wreg, fsr0l, fsr0h, status,2, status,0, pclath, cstack
;; Tracked objects:
;;		On entry : 0/0
;;		On exit  : 0/0
;;		Unchanged: 0/0
;; Data sizes:     COMMON   BANK0   BANK1   BANK3   BANK2
;;      Params:         0       0       0       0       0
;;      Locals:         0       0       0       0       0
;;      Temps:          0       1       0       0       0
;;      Totals:         0       1       0       0       0
;;Total ram usage:        1 bytes
;; Hardware stack levels used:    1
;; Hardware stack levels required when called:    5
;; This function calls:
;;		_ser_init
;;		_init_adc
;;		_lcd_init
;;		_robo_init
;; This function is called by:
;;		_main
;; This function uses a non-reentrant model
;;
psect	text906
	file	"E:\Aldnoah.Zero\Assignment3\Main.c"
	line	135
	global	__size_of_init
	__size_of_init	equ	__end_of_init-_init
	
_init:	
	opt	stack 2
; Regs used in _init: [wreg-fsr0h+status,2+status,0+pclath+cstack]
	line	138
	
l10891:	
;Main.c: 138: buttonPressed = 0;
	clrf	(_buttonPressed)	;volatile
	line	142
	
l10893:	
;Main.c: 142: TRISC &= 0b10010000;
	movlw	(090h)
	bcf	status, 5	;RP0=0, select bank0
	bcf	status, 6	;RP1=0, select bank0
	movwf	(??_init+0)+0
	movf	(??_init+0)+0,w
	bsf	status, 5	;RP0=1, select bank1
	bcf	status, 6	;RP1=0, select bank1
	andwf	(135)^080h,f	;volatile
	line	144
	
l10895:	
;Main.c: 144: SSPSTAT = 0b01000000;
	movlw	(040h)
	movwf	(148)^080h	;volatile
	line	145
	
l10897:	
;Main.c: 145: SSPCON = 0b10100001;
	movlw	(0A1h)
	bcf	status, 5	;RP0=0, select bank0
	bcf	status, 6	;RP1=0, select bank0
	movwf	(20)	;volatile
	line	147
	
l10899:	
;Main.c: 147: OPTION_REG = 0b00000100;
	movlw	(04h)
	bsf	status, 5	;RP0=1, select bank1
	bcf	status, 6	;RP1=0, select bank1
	movwf	(129)^080h	;volatile
	line	148
	
l10901:	
;Main.c: 148: ser_init();
	fcall	_ser_init
	line	149
	
l10903:	
;Main.c: 149: init_adc();
	fcall	_init_adc
	line	150
	
l10905:	
;Main.c: 150: lcd_init();
	fcall	_lcd_init
	line	151
	
l10907:	
;Main.c: 151: robo_init();
	fcall	_robo_init
	line	152
	
l10909:	
;Main.c: 152: TRISB = 0b11111100;
	movlw	(0FCh)
	bsf	status, 5	;RP0=1, select bank1
	bcf	status, 6	;RP1=0, select bank1
	movwf	(134)^080h	;volatile
	line	154
	
l10911:	
;Main.c: 154: TMR0IE = 1;
	bsf	(93/8),(93)&7
	line	155
	
l10913:	
;Main.c: 155: PEIE=1;
	bsf	(94/8),(94)&7
	line	157
	
l10915:	
;Main.c: 157: (GIE = 1);
	bsf	(95/8),(95)&7
	line	158
	
l2219:	
	return
	opt stack 0
GLOBAL	__end_of_init
	__end_of_init:
;; =============== function _init ends ============

	signat	_init,88
	global	_readDistance
psect	text907,local,class=CODE,delta=2
global __ptext907
__ptext907:

;; *************** function _readDistance *****************
;; Defined at:
;;		line 24 in file "E:\Aldnoah.Zero\Assignment3\infrared.c"
;; Parameters:    Size  Location     Type
;;		None
;; Auto vars:     Size  Location     Type
;;  fullval         2   12[BANK0 ] unsigned int 
;; Return value:  Size  Location     Type
;;                  2    8[BANK0 ] unsigned int 
;; Registers used:
;;		wreg, fsr0l, fsr0h, status,2, status,0, pclath, cstack
;; Tracked objects:
;;		On entry : 0/0
;;		On exit  : 0/0
;;		Unchanged: 0/0
;; Data sizes:     COMMON   BANK0   BANK1   BANK3   BANK2
;;      Params:         0       2       0       0       0
;;      Locals:         0       2       0       0       0
;;      Temps:          0       2       0       0       0
;;      Totals:         0       6       0       0       0
;;Total ram usage:        6 bytes
;; Hardware stack levels used:    1
;; Hardware stack levels required when called:    5
;; This function calls:
;;		_adc_read_channel
;; This function is called by:
;;		_readAvgDistance
;; This function uses a non-reentrant model
;;
psect	text907
	file	"E:\Aldnoah.Zero\Assignment3\infrared.c"
	line	24
	global	__size_of_readDistance
	__size_of_readDistance	equ	__end_of_readDistance-_readDistance
	
_readDistance:	
	opt	stack 0
; Regs used in _readDistance: [wreg-fsr0h+status,2+status,0+pclath+cstack]
	line	27
	
l10885:	
;infrared.c: 25: unsigned int fullval ;
;infrared.c: 27: fullval = adc_read_channel(0);
	movlw	(0)
	fcall	_adc_read_channel
	bcf	status, 5	;RP0=0, select bank0
	bcf	status, 6	;RP1=0, select bank0
	movwf	(??_readDistance+0)+0
	clrf	(??_readDistance+0)+0+1
	movf	0+(??_readDistance+0)+0,w
	movwf	(readDistance@fullval)
	movf	1+(??_readDistance+0)+0,w
	movwf	(readDistance@fullval+1)
	line	29
	
l10887:	
;infrared.c: 29: return fullval;
	movf	(readDistance@fullval+1),w
	clrf	(?_readDistance+1)
	addwf	(?_readDistance+1)
	movf	(readDistance@fullval),w
	clrf	(?_readDistance)
	addwf	(?_readDistance)

	goto	l2988
	
l10889:	
	line	30
	
l2988:	
	return
	opt stack 0
GLOBAL	__end_of_readDistance
	__end_of_readDistance:
;; =============== function _readDistance ends ============

	signat	_readDistance,90
	global	_robot_read
psect	text908,local,class=CODE,delta=2
global __ptext908
__ptext908:

;; *************** function _robot_read *****************
;; Defined at:
;;		line 18 in file "E:\Aldnoah.Zero\Assignment3\robot.c"
;; Parameters:    Size  Location     Type
;;		None
;; Auto vars:     Size  Location     Type
;;		None
;; Return value:  Size  Location     Type
;;		None               void
;; Registers used:
;;		wreg, fsr0l, fsr0h, status,2, status,0, pclath, cstack
;; Tracked objects:
;;		On entry : 0/0
;;		On exit  : 0/0
;;		Unchanged: 0/0
;; Data sizes:     COMMON   BANK0   BANK1   BANK3   BANK2
;;      Params:         0       0       0       0       0
;;      Locals:         0       0       0       0       0
;;      Temps:          0       2       0       0       0
;;      Totals:         0       2       0       0       0
;;Total ram usage:        2 bytes
;; Hardware stack levels used:    1
;; Hardware stack levels required when called:    5
;; This function calls:
;;		_ser_putch
;;		_ser_getch
;; This function is called by:
;;		_main
;;		_robotMove
;; This function uses a non-reentrant model
;;
psect	text908
	file	"E:\Aldnoah.Zero\Assignment3\robot.c"
	line	18
	global	__size_of_robot_read
	__size_of_robot_read	equ	__end_of_robot_read-_robot_read
	
_robot_read:	
	opt	stack 1
; Regs used in _robot_read: [wreg-fsr0h+status,2+status,0+pclath+cstack]
	line	23
	
l10871:	
;robot.c: 23: ser_putch (142);
	movlw	(08Eh)
	fcall	_ser_putch
	line	24
;robot.c: 24: ser_putch (7);
	movlw	(07h)
	fcall	_ser_putch
	line	25
	
l10873:	
;robot.c: 25: _delay((unsigned long)((5)*(20000000/4000.0)));
	opt asmopt_off
movlw	33
	bcf	status, 5	;RP0=0, select bank0
	bcf	status, 6	;RP1=0, select bank0
movwf	((??_robot_read+0)+0+1),f
	movlw	118
movwf	((??_robot_read+0)+0),f
u4647:
	decfsz	((??_robot_read+0)+0),f
	goto	u4647
	decfsz	((??_robot_read+0)+0+1),f
	goto	u4647
	clrwdt
opt asmopt_on

	line	26
	
l10875:	
;robot.c: 26: BumpSensors = ser_getch();
	fcall	_ser_getch
	bcf	status, 5	;RP0=0, select bank0
	bcf	status, 6	;RP1=0, select bank0
	movwf	(??_robot_read+0)+0
	movf	(??_robot_read+0)+0,w
	movwf	(_BumpSensors)	;volatile
	line	27
	
l10877:	
;robot.c: 27: ser_putch (142);
	movlw	(08Eh)
	fcall	_ser_putch
	line	28
	
l10879:	
;robot.c: 28: ser_putch (19);
	movlw	(013h)
	fcall	_ser_putch
	line	29
;robot.c: 29: _delay((unsigned long)((5)*(20000000/4000.0)));
	opt asmopt_off
movlw	33
	bcf	status, 5	;RP0=0, select bank0
	bcf	status, 6	;RP1=0, select bank0
movwf	((??_robot_read+0)+0+1),f
	movlw	118
movwf	((??_robot_read+0)+0),f
u4657:
	decfsz	((??_robot_read+0)+0),f
	goto	u4657
	decfsz	((??_robot_read+0)+0+1),f
	goto	u4657
	clrwdt
opt asmopt_on

	line	30
	
l10881:	
;robot.c: 30: DistHighByte = ser_getch();
	fcall	_ser_getch
	bcf	status, 5	;RP0=0, select bank0
	bcf	status, 6	;RP1=0, select bank0
	movwf	(??_robot_read+0)+0
	movf	(??_robot_read+0)+0,w
	bsf	status, 5	;RP0=1, select bank1
	bcf	status, 6	;RP1=0, select bank1
	movwf	(_DistHighByte)^080h	;volatile
	line	31
	
l10883:	
;robot.c: 31: DistLowByte = ser_getch();
	fcall	_ser_getch
	bcf	status, 5	;RP0=0, select bank0
	bcf	status, 6	;RP1=0, select bank0
	movwf	(??_robot_read+0)+0
	movf	(??_robot_read+0)+0,w
	bsf	status, 5	;RP0=1, select bank1
	bcf	status, 6	;RP1=0, select bank1
	movwf	(_DistLowByte)^080h	;volatile
	line	33
	
l6008:	
	return
	opt stack 0
GLOBAL	__end_of_robot_read
	__end_of_robot_read:
;; =============== function _robot_read ends ============

	signat	_robot_read,88
	global	_lcd_init
psect	text909,local,class=CODE,delta=2
global __ptext909
__ptext909:

;; *************** function _lcd_init *****************
;; Defined at:
;;		line 101 in file "E:\Aldnoah.Zero\Assignment3\lcd.c"
;; Parameters:    Size  Location     Type
;;		None
;; Auto vars:     Size  Location     Type
;;		None
;; Return value:  Size  Location     Type
;;		None               void
;; Registers used:
;;		wreg, status,2, status,0, pclath, cstack
;; Tracked objects:
;;		On entry : 0/0
;;		On exit  : 0/0
;;		Unchanged: 0/0
;; Data sizes:     COMMON   BANK0   BANK1   BANK3   BANK2
;;      Params:         0       0       0       0       0
;;      Locals:         0       0       0       0       0
;;      Temps:          0       0       0       0       0
;;      Totals:         0       0       0       0       0
;;Total ram usage:        0 bytes
;; Hardware stack levels used:    1
;; Hardware stack levels required when called:    4
;; This function calls:
;;		_lcd_write_control
;; This function is called by:
;;		_init
;; This function uses a non-reentrant model
;;
psect	text909
	file	"E:\Aldnoah.Zero\Assignment3\lcd.c"
	line	101
	global	__size_of_lcd_init
	__size_of_lcd_init	equ	__end_of_lcd_init-_lcd_init
	
_lcd_init:	
	opt	stack 2
; Regs used in _lcd_init: [wreg+status,2+status,0+pclath+cstack]
	line	105
	
l10851:	
;lcd.c: 105: ADCON1 = 0b00000010;
	movlw	(02h)
	bsf	status, 5	;RP0=1, select bank1
	bcf	status, 6	;RP1=0, select bank1
	movwf	(159)^080h	;volatile
	line	108
	
l10853:	
;lcd.c: 108: PORTD = 0;
	bcf	status, 5	;RP0=0, select bank0
	bcf	status, 6	;RP1=0, select bank0
	clrf	(8)	;volatile
	line	109
	
l10855:	
;lcd.c: 109: PORTE = 0;
	clrf	(9)	;volatile
	line	111
	
l10857:	
;lcd.c: 111: TRISD = 0b00000000;
	bsf	status, 5	;RP0=1, select bank1
	bcf	status, 6	;RP1=0, select bank1
	clrf	(136)^080h	;volatile
	line	112
	
l10859:	
;lcd.c: 112: TRISE = 0b00000000;
	clrf	(137)^080h	;volatile
	line	115
	
l10861:	
;lcd.c: 115: lcd_write_control(0b00000001);
	movlw	(01h)
	fcall	_lcd_write_control
	line	116
	
l10863:	
;lcd.c: 116: lcd_write_control(0b00111000);
	movlw	(038h)
	fcall	_lcd_write_control
	line	117
	
l10865:	
;lcd.c: 117: lcd_write_control(0b00001100);
	movlw	(0Ch)
	fcall	_lcd_write_control
	line	118
	
l10867:	
;lcd.c: 118: lcd_write_control(0b00000110);
	movlw	(06h)
	fcall	_lcd_write_control
	line	119
	
l10869:	
;lcd.c: 119: lcd_write_control(0b00000010);
	movlw	(02h)
	fcall	_lcd_write_control
	line	121
	
l1429:	
	return
	opt stack 0
GLOBAL	__end_of_lcd_init
	__end_of_lcd_init:
;; =============== function _lcd_init ends ============

	signat	_lcd_init,88
	global	_lcd_write_string
psect	text910,local,class=CODE,delta=2
global __ptext910
__ptext910:

;; *************** function _lcd_write_string *****************
;; Defined at:
;;		line 48 in file "E:\Aldnoah.Zero\Assignment3\lcd.c"
;; Parameters:    Size  Location     Type
;;  s               2    7[BANK0 ] PTR unsigned char 
;;		 -> STR_19(9), STR_18(16), STR_17(4), STR_16(8), 
;;		 -> STR_15(4), STR_14(16), UpdateDisplay@adcOutput(16), STR_12(4), 
;;		 -> STR_11(4), STR_10(4), STR_9(4), STR_8(4), 
;;		 -> STR_7(4), STR_6(9), STR_5(9), STR_4(8), 
;;		 -> STR_3(9), STR_2(9), STR_1(9), 
;; Auto vars:     Size  Location     Type
;;		None
;; Return value:  Size  Location     Type
;;		None               void
;; Registers used:
;;		wreg, fsr0l, fsr0h, status,2, status,0, btemp+1, pclath, cstack
;; Tracked objects:
;;		On entry : 0/0
;;		On exit  : 0/0
;;		Unchanged: 0/0
;; Data sizes:     COMMON   BANK0   BANK1   BANK3   BANK2
;;      Params:         0       2       0       0       0
;;      Locals:         0       0       0       0       0
;;      Temps:          0       0       0       0       0
;;      Totals:         0       2       0       0       0
;;Total ram usage:        2 bytes
;; Hardware stack levels used:    1
;; Hardware stack levels required when called:    4
;; This function calls:
;;		_lcd_write_data
;; This function is called by:
;;		_UpdateDisplay
;; This function uses a non-reentrant model
;;
psect	text910
	file	"E:\Aldnoah.Zero\Assignment3\lcd.c"
	line	48
	global	__size_of_lcd_write_string
	__size_of_lcd_write_string	equ	__end_of_lcd_write_string-_lcd_write_string
	
_lcd_write_string:	
	opt	stack 1
; Regs used in _lcd_write_string: [wreg-fsr0h+status,2+status,0+btemp+1+pclath+cstack]
	line	50
	
l10843:	
;lcd.c: 50: while(*s) lcd_write_data(*s++);
	goto	l10849
	
l1409:	
	
l10845:	
	bcf	status, 5	;RP0=0, select bank0
	bcf	status, 6	;RP1=0, select bank0
	movf	(lcd_write_string@s+1),w
	movwf	btemp+1
	movf	(lcd_write_string@s),w
	movwf	fsr0
	fcall	stringtab
	fcall	_lcd_write_data
	
l10847:	
	movlw	low(01h)
	bcf	status, 5	;RP0=0, select bank0
	bcf	status, 6	;RP1=0, select bank0
	addwf	(lcd_write_string@s),f
	skipnc
	incf	(lcd_write_string@s+1),f
	movlw	high(01h)
	addwf	(lcd_write_string@s+1),f
	goto	l10849
	
l1408:	
	
l10849:	
	bcf	status, 5	;RP0=0, select bank0
	bcf	status, 6	;RP1=0, select bank0
	movf	(lcd_write_string@s+1),w
	movwf	btemp+1
	movf	(lcd_write_string@s),w
	movwf	fsr0
	fcall	stringtab
	iorlw	0
	skipz
	goto	u4471
	goto	u4470
u4471:
	goto	l10845
u4470:
	goto	l1411
	
l1410:	
	line	51
	
l1411:	
	return
	opt stack 0
GLOBAL	__end_of_lcd_write_string
	__end_of_lcd_write_string:
;; =============== function _lcd_write_string ends ============

	signat	_lcd_write_string,4216
	global	_lcd_set_cursor
psect	text911,local,class=CODE,delta=2
global __ptext911
__ptext911:

;; *************** function _lcd_set_cursor *****************
;; Defined at:
;;		line 42 in file "E:\Aldnoah.Zero\Assignment3\lcd.c"
;; Parameters:    Size  Location     Type
;;  address         1    wreg     unsigned char 
;; Auto vars:     Size  Location     Type
;;  address         1    3[BANK0 ] unsigned char 
;; Return value:  Size  Location     Type
;;		None               void
;; Registers used:
;;		wreg, status,2, status,0, pclath, cstack
;; Tracked objects:
;;		On entry : 0/0
;;		On exit  : 0/0
;;		Unchanged: 0/0
;; Data sizes:     COMMON   BANK0   BANK1   BANK3   BANK2
;;      Params:         0       0       0       0       0
;;      Locals:         0       1       0       0       0
;;      Temps:          0       0       0       0       0
;;      Totals:         0       1       0       0       0
;;Total ram usage:        1 bytes
;; Hardware stack levels used:    1
;; Hardware stack levels required when called:    4
;; This function calls:
;;		_lcd_write_control
;; This function is called by:
;;		_UpdateDisplay
;; This function uses a non-reentrant model
;;
psect	text911
	file	"E:\Aldnoah.Zero\Assignment3\lcd.c"
	line	42
	global	__size_of_lcd_set_cursor
	__size_of_lcd_set_cursor	equ	__end_of_lcd_set_cursor-_lcd_set_cursor
	
_lcd_set_cursor:	
	opt	stack 1
; Regs used in _lcd_set_cursor: [wreg+status,2+status,0+pclath+cstack]
;lcd_set_cursor@address stored from wreg
	bcf	status, 5	;RP0=0, select bank0
	bcf	status, 6	;RP1=0, select bank0
	movwf	(lcd_set_cursor@address)
	line	43
	
l10839:	
;lcd.c: 43: address |= 0b10000000;
	bsf	(lcd_set_cursor@address)+(7/8),(7)&7
	line	44
	
l10841:	
;lcd.c: 44: lcd_write_control(address);
	movf	(lcd_set_cursor@address),w
	fcall	_lcd_write_control
	line	45
	
l1405:	
	return
	opt stack 0
GLOBAL	__end_of_lcd_set_cursor
	__end_of_lcd_set_cursor:
;; =============== function _lcd_set_cursor ends ============

	signat	_lcd_set_cursor,4216
	global	_ser_getch
psect	text912,local,class=CODE,delta=2
global __ptext912
__ptext912:

;; *************** function _ser_getch *****************
;; Defined at:
;;		line 55 in file "E:\Aldnoah.Zero\Assignment3\ser.c"
;; Parameters:    Size  Location     Type
;;		None
;; Auto vars:     Size  Location     Type
;;  c               1    1[BANK0 ] unsigned char 
;; Return value:  Size  Location     Type
;;                  1    wreg      unsigned char 
;; Registers used:
;;		wreg, fsr0l, fsr0h, status,2, status,0, pclath, cstack
;; Tracked objects:
;;		On entry : 0/0
;;		On exit  : 0/0
;;		Unchanged: 0/0
;; Data sizes:     COMMON   BANK0   BANK1   BANK3   BANK2
;;      Params:         0       0       0       0       0
;;      Locals:         0       1       0       0       0
;;      Temps:          0       1       0       0       0
;;      Totals:         0       2       0       0       0
;;Total ram usage:        2 bytes
;; Hardware stack levels used:    1
;; Hardware stack levels required when called:    4
;; This function calls:
;;		_ser_isrx
;; This function is called by:
;;		_robot_read
;; This function uses a non-reentrant model
;;
psect	text912
	file	"E:\Aldnoah.Zero\Assignment3\ser.c"
	line	55
	global	__size_of_ser_getch
	__size_of_ser_getch	equ	__end_of_ser_getch-_ser_getch
	
_ser_getch:	
	opt	stack 1
; Regs used in _ser_getch: [wreg-fsr0h+status,2+status,0+pclath+cstack]
	line	58
	
l10823:	
;ser.c: 56: unsigned char c;
;ser.c: 58: while (ser_isrx()==0)
	goto	l10825
	
l6726:	
	line	59
;ser.c: 59: continue;
	goto	l10825
	
l6725:	
	line	58
	
l10825:	
	fcall	_ser_isrx
	btfss	status,0
	goto	u4461
	goto	u4460
u4461:
	goto	l10825
u4460:
	
l6727:	
	line	61
;ser.c: 61: GIE=0;
	bcf	(95/8),(95)&7
	line	62
	
l10827:	
;ser.c: 62: c=rxfifo[rxoptr];
	bcf	status, 5	;RP0=0, select bank0
	bcf	status, 6	;RP1=0, select bank0
	movf	(_rxoptr),w
	addlw	_rxfifo&0ffh
	movwf	fsr0
	bcf	status, 7	;select IRP bank1
	movf	indf,w
	movwf	(??_ser_getch+0)+0
	movf	(??_ser_getch+0)+0,w
	movwf	(ser_getch@c)
	line	63
	
l10829:	
;ser.c: 63: ++rxoptr;
	movlw	(01h)
	movwf	(??_ser_getch+0)+0
	movf	(??_ser_getch+0)+0,w
	addwf	(_rxoptr),f	;volatile
	line	64
	
l10831:	
;ser.c: 64: rxoptr &= (16-1);
	movlw	(0Fh)
	movwf	(??_ser_getch+0)+0
	movf	(??_ser_getch+0)+0,w
	andwf	(_rxoptr),f	;volatile
	line	65
	
l10833:	
;ser.c: 65: GIE=1;
	bsf	(95/8),(95)&7
	line	66
	
l10835:	
;ser.c: 66: return c;
	movf	(ser_getch@c),w
	goto	l6728
	
l10837:	
	line	67
	
l6728:	
	return
	opt stack 0
GLOBAL	__end_of_ser_getch
	__end_of_ser_getch:
;; =============== function _ser_getch ends ============

	signat	_ser_getch,89
	global	_sprintf
psect	text913,local,class=CODE,delta=2
global __ptext913
__ptext913:

;; *************** function _sprintf *****************
;; Defined at:
;;		line 488 in file "C:\Program Files\HI-TECH Software\PICC\9.83\lib\doprnt.c"
;; Parameters:    Size  Location     Type
;;  sp              1    wreg     PTR unsigned char 
;;		 -> UpdateDisplay@adcOutput(16), 
;;  f               1   20[BANK0 ] PTR const unsigned char 
;;		 -> STR_13(15), 
;; Auto vars:     Size  Location     Type
;;  sp              1   35[BANK0 ] PTR unsigned char 
;;		 -> UpdateDisplay@adcOutput(16), 
;;  _val            4   31[BANK0 ] struct .
;;  c               1   36[BANK0 ] char 
;;  prec            1   30[BANK0 ] char 
;;  flag            1   29[BANK0 ] unsigned char 
;;  ap              1   28[BANK0 ] PTR void [1]
;;		 -> ?_sprintf(2), 
;; Return value:  Size  Location     Type
;;                  2   20[BANK0 ] int 
;; Registers used:
;;		wreg, fsr0l, fsr0h, status,2, status,0, btemp+1, pclath, cstack
;; Tracked objects:
;;		On entry : 0/0
;;		On exit  : 0/0
;;		Unchanged: 0/0
;; Data sizes:     COMMON   BANK0   BANK1   BANK3   BANK2
;;      Params:         0       5       0       0       0
;;      Locals:         0       9       0       0       0
;;      Temps:          0       3       0       0       0
;;      Totals:         0      17       0       0       0
;;Total ram usage:       17 bytes
;; Hardware stack levels used:    1
;; Hardware stack levels required when called:    4
;; This function calls:
;;		___lwdiv
;;		___lwmod
;; This function is called by:
;;		_UpdateDisplay
;; This function uses a non-reentrant model
;;
psect	text913
	file	"C:\Program Files\HI-TECH Software\PICC\9.83\sources\doprnt.c"
	line	488
	global	__size_of_sprintf
	__size_of_sprintf	equ	__end_of_sprintf-_sprintf
	
_sprintf:	
	opt	stack 1
; Regs used in _sprintf: [wreg-fsr0h+status,2+status,0+btemp+1+pclath+cstack]
;sprintf@sp stored from wreg
	line	537
	bcf	status, 5	;RP0=0, select bank0
	bcf	status, 6	;RP1=0, select bank0
	movwf	(sprintf@sp)
	
l10765:	
	movlw	(?_sprintf+01h)&0ffh
	movwf	(??_sprintf+0)+0
	movf	(??_sprintf+0)+0,w
	movwf	(sprintf@ap)
	line	540
	goto	l10817
	
l6766:	
	line	542
	
l10767:	
	movf	(sprintf@c),w
	xorlw	025h
	skipnz
	goto	u4381
	goto	u4380
u4381:
	goto	l6767
u4380:
	line	545
	
l10769:	
	movf	(sprintf@c),w
	movwf	(??_sprintf+0)+0
	movf	(sprintf@sp),w
	movwf	fsr0
	movf	(??_sprintf+0)+0,w
	bcf	status, 7	;select IRP bank0
	movwf	indf
	
l10771:	
	movlw	(01h)
	movwf	(??_sprintf+0)+0
	movf	(??_sprintf+0)+0,w
	addwf	(sprintf@sp),f
	line	546
	goto	l10817
	line	547
	
l6767:	
	line	552
	clrf	(sprintf@flag)
	line	638
	goto	l10775
	line	640
	
l6769:	
	line	641
	goto	l10819
	line	700
	
l6771:	
	goto	l10777
	line	701
	
l6772:	
	line	702
	goto	l10777
	line	805
	
l6774:	
	line	816
	goto	l10817
	line	825
	
l10773:	
	goto	l10777
	line	638
	
l6768:	
	
l10775:	
	movlw	01h
	addwf	(sprintf@f),f
	movlw	-01h
	addwf	(sprintf@f),w
	movwf	fsr0
	fcall	stringdir
	movwf	(sprintf@c)
	; Switch size 1, requested type "space"
; Number of cases is 3, Range of values is 0 to 105
; switch strategies available:
; Name         Instructions Cycles
; simple_byte           10     6 (average)
; jumptable            260     6 (fixed)
; rangetable           110     6 (fixed)
; spacedrange          218     9 (fixed)
; locatedrange         106     3 (fixed)
;	Chosen strategy is simple_byte

	opt asmopt_off
	xorlw	0^0	; case 0
	skipnz
	goto	l10819
	xorlw	100^0	; case 100
	skipnz
	goto	l10777
	xorlw	105^100	; case 105
	skipnz
	goto	l10777
	goto	l10817
	opt asmopt_on

	line	825
	
l6773:	
	line	1254
	
l10777:	
	movf	(sprintf@ap),w
	movwf	fsr0
	bcf	status, 7	;select IRP bank0
	movf	indf,w
	movwf	(sprintf@_val)
	incf	fsr0,f
	movf	indf,w
	movwf	(sprintf@_val+1)
	
l10779:	
	movlw	(02h)
	movwf	(??_sprintf+0)+0
	movf	(??_sprintf+0)+0,w
	addwf	(sprintf@ap),f
	line	1256
	
l10781:	
	btfss	(sprintf@_val+1),7
	goto	u4391
	goto	u4390
u4391:
	goto	l10787
u4390:
	line	1257
	
l10783:	
	movlw	(03h)
	movwf	(??_sprintf+0)+0
	movf	(??_sprintf+0)+0,w
	iorwf	(sprintf@flag),f
	line	1258
	
l10785:	
	comf	(sprintf@_val),f
	comf	(sprintf@_val+1),f
	incf	(sprintf@_val),f
	skipnz
	incf	(sprintf@_val+1),f
	goto	l10787
	line	1259
	
l6775:	
	line	1300
	
l10787:	
	clrf	(sprintf@c)
	bsf	status,0
	rlf	(sprintf@c),f
	
l10789:	
	movf	(sprintf@c),w
	xorlw	05h
	skipz
	goto	u4401
	goto	u4400
u4401:
	goto	l10793
u4400:
	goto	l10801
	
l10791:	
	goto	l10801
	line	1301
	
l6776:	
	
l10793:	
	movf	(sprintf@c),w
	movwf	(??_sprintf+0)+0
	addwf	(??_sprintf+0)+0,w
	addlw	low((_dpowers-__stringbase))
	movwf	fsr0
	fcall	stringdir
	movwf	(??_sprintf+1)+0
	fcall	stringdir
	movwf	(??_sprintf+1)+0+1
	movf	1+(??_sprintf+1)+0,w
	subwf	(sprintf@_val+1),w
	skipz
	goto	u4415
	movf	0+(??_sprintf+1)+0,w
	subwf	(sprintf@_val),w
u4415:
	skipnc
	goto	u4411
	goto	u4410
u4411:
	goto	l10797
u4410:
	goto	l10801
	line	1302
	
l10795:	
	goto	l10801
	
l6778:	
	line	1300
	
l10797:	
	movlw	(01h)
	movwf	(??_sprintf+0)+0
	movf	(??_sprintf+0)+0,w
	addwf	(sprintf@c),f
	
l10799:	
	movf	(sprintf@c),w
	xorlw	05h
	skipz
	goto	u4421
	goto	u4420
u4421:
	goto	l10793
u4420:
	goto	l10801
	
l6777:	
	line	1433
	
l10801:	
	movf	(sprintf@flag),w
	andlw	03h
	btfsc	status,2
	goto	u4431
	goto	u4430
u4431:
	goto	l10807
u4430:
	line	1434
	
l10803:	
	movlw	(02Dh)
	movwf	(??_sprintf+0)+0
	movf	(sprintf@sp),w
	movwf	fsr0
	movf	(??_sprintf+0)+0,w
	bcf	status, 7	;select IRP bank0
	movwf	indf
	
l10805:	
	movlw	(01h)
	movwf	(??_sprintf+0)+0
	movf	(??_sprintf+0)+0,w
	addwf	(sprintf@sp),f
	goto	l10807
	
l6779:	
	line	1467
	
l10807:	
	movf	(sprintf@c),w
	movwf	(??_sprintf+0)+0
	movf	(??_sprintf+0)+0,w
	movwf	(sprintf@prec)
	line	1469
	goto	l10815
	
l6781:	
	line	1484
	
l10809:	
	movlw	low(0Ah)
	movwf	(?___lwmod)
	movlw	high(0Ah)
	movwf	((?___lwmod))+1
	movf	(sprintf@prec),w
	movwf	(??_sprintf+0)+0
	addwf	(??_sprintf+0)+0,w
	addlw	low((_dpowers-__stringbase))
	movwf	fsr0
	fcall	stringdir
	movwf	(?___lwdiv)
	fcall	stringdir
	movwf	(?___lwdiv+1)
	movf	(sprintf@_val+1),w
	clrf	1+(?___lwdiv)+02h
	addwf	1+(?___lwdiv)+02h
	movf	(sprintf@_val),w
	clrf	0+(?___lwdiv)+02h
	addwf	0+(?___lwdiv)+02h

	fcall	___lwdiv
	bcf	status, 5	;RP0=0, select bank0
	bcf	status, 6	;RP1=0, select bank0
	movf	(1+(?___lwdiv)),w
	clrf	1+(?___lwmod)+02h
	addwf	1+(?___lwmod)+02h
	movf	(0+(?___lwdiv)),w
	clrf	0+(?___lwmod)+02h
	addwf	0+(?___lwmod)+02h

	fcall	___lwmod
	bcf	status, 5	;RP0=0, select bank0
	bcf	status, 6	;RP1=0, select bank0
	movf	(0+(?___lwmod)),w
	addlw	030h
	movwf	(??_sprintf+1)+0
	movf	(??_sprintf+1)+0,w
	movwf	(sprintf@c)
	line	1516
	
l10811:	
	movf	(sprintf@c),w
	movwf	(??_sprintf+0)+0
	movf	(sprintf@sp),w
	movwf	fsr0
	movf	(??_sprintf+0)+0,w
	bcf	status, 7	;select IRP bank0
	movwf	indf
	
l10813:	
	movlw	(01h)
	movwf	(??_sprintf+0)+0
	movf	(??_sprintf+0)+0,w
	addwf	(sprintf@sp),f
	goto	l10815
	line	1517
	
l6780:	
	line	1469
	
l10815:	
	movlw	(-1)
	movwf	(??_sprintf+0)+0
	movf	(??_sprintf+0)+0,w
	addwf	(sprintf@prec),f
	movf	((sprintf@prec)),w
	xorlw	-1
	skipz
	goto	u4441
	goto	u4440
u4441:
	goto	l10809
u4440:
	goto	l10817
	
l6782:	
	goto	l10817
	line	1525
	
l6765:	
	line	540
	
l10817:	
	movlw	01h
	addwf	(sprintf@f),f
	movlw	-01h
	addwf	(sprintf@f),w
	movwf	fsr0
	fcall	stringdir
	movwf	(??_sprintf+0)+0
	movf	(??_sprintf+0)+0,w
	movwf	(sprintf@c)
	movf	((sprintf@c)),f
	skipz
	goto	u4451
	goto	u4450
u4451:
	goto	l10767
u4450:
	goto	l10819
	
l6783:	
	goto	l10819
	line	1527
	
l6770:	
	line	1530
	
l10819:	
	movf	(sprintf@sp),w
	movwf	fsr0
	bcf	status, 7	;select IRP bank0
	clrf	indf
	goto	l6784
	line	1532
	
l10821:	
	line	1533
;	Return value of _sprintf is never used
	
l6784:	
	return
	opt stack 0
GLOBAL	__end_of_sprintf
	__end_of_sprintf:
;; =============== function _sprintf ends ============

	signat	_sprintf,4698
	global	_ADCconvert
psect	text914,local,class=CODE,delta=2
global __ptext914
__ptext914:

;; *************** function _ADCconvert *****************
;; Defined at:
;;		line 33 in file "E:\Aldnoah.Zero\Assignment3\infrared.c"
;; Parameters:    Size  Location     Type
;;		None
;; Auto vars:     Size  Location     Type
;;		None
;; Return value:  Size  Location     Type
;;		None               void
;; Registers used:
;;		wreg, status,2, status,0, pclath, cstack
;; Tracked objects:
;;		On entry : 0/0
;;		On exit  : 0/0
;;		Unchanged: 0/0
;; Data sizes:     COMMON   BANK0   BANK1   BANK3   BANK2
;;      Params:         0       0       0       0       0
;;      Locals:         0       0       0       0       0
;;      Temps:          0       2       0       0       0
;;      Totals:         0       2       0       0       0
;;Total ram usage:        2 bytes
;; Hardware stack levels used:    1
;; Hardware stack levels required when called:    4
;; This function calls:
;;		___wmul
;;		___lwdiv
;; This function is called by:
;;		_readAvgDistance
;; This function uses a non-reentrant model
;;
psect	text914
	file	"E:\Aldnoah.Zero\Assignment3\infrared.c"
	line	33
	global	__size_of_ADCconvert
	__size_of_ADCconvert	equ	__end_of_ADCconvert-_ADCconvert
	
_ADCconvert:	
	opt	stack 1
; Regs used in _ADCconvert: [wreg+status,2+status,0+pclath+cstack]
	line	39
	
l10723:	
;infrared.c: 39: if (adcVal >= 213 && adcVal < 234)
	movlw	high(0D5h)
	bcf	status, 5	;RP0=0, select bank0
	bcf	status, 6	;RP1=0, select bank0
	subwf	(_adcVal+1),w	;volatile
	movlw	low(0D5h)
	skipnz
	subwf	(_adcVal),w	;volatile
	skipc
	goto	u4241
	goto	u4240
u4241:
	goto	l10729
u4240:
	
l10725:	
	movlw	high(0EAh)
	subwf	(_adcVal+1),w	;volatile
	movlw	low(0EAh)
	skipnz
	subwf	(_adcVal),w	;volatile
	skipnc
	goto	u4251
	goto	u4250
u4251:
	goto	l10729
u4250:
	line	41
	
l10727:	
;infrared.c: 40: {
;infrared.c: 41: distance = 15 + ((20-15)*(234-adcVal))/(234-213);
	movlw	low(015h)
	movwf	(?___lwdiv)
	movlw	high(015h)
	movwf	((?___lwdiv))+1
	comf	(_adcVal),w	;volatile
	movwf	(??_ADCconvert+0)+0
	comf	(_adcVal+1),w	;volatile
	movwf	((??_ADCconvert+0)+0+1)
	incf	(??_ADCconvert+0)+0,f
	skipnz
	incf	((??_ADCconvert+0)+0+1),f
	movf	0+(??_ADCconvert+0)+0,w
	addlw	low(0EAh)
	movwf	(?___wmul)
	movf	1+(??_ADCconvert+0)+0,w
	skipnc
	addlw	1
	addlw	high(0EAh)
	movwf	1+(?___wmul)
	movlw	low(05h)
	movwf	0+(?___wmul)+02h
	movlw	high(05h)
	movwf	(0+(?___wmul)+02h)+1
	fcall	___wmul
	bcf	status, 5	;RP0=0, select bank0
	bcf	status, 6	;RP1=0, select bank0
	movf	(1+(?___wmul)),w
	clrf	1+(?___lwdiv)+02h
	addwf	1+(?___lwdiv)+02h
	movf	(0+(?___wmul)),w
	clrf	0+(?___lwdiv)+02h
	addwf	0+(?___lwdiv)+02h

	fcall	___lwdiv
	bcf	status, 5	;RP0=0, select bank0
	bcf	status, 6	;RP1=0, select bank0
	movf	(0+(?___lwdiv)),w
	addlw	low(0Fh)
	bsf	status, 5	;RP0=1, select bank1
	bcf	status, 6	;RP1=0, select bank1
	movwf	(_distance)^080h	;volatile
	bcf	status, 5	;RP0=0, select bank0
	bcf	status, 6	;RP1=0, select bank0
	movf	(1+(?___lwdiv)),w
	skipnc
	addlw	1
	addlw	high(0Fh)
	bsf	status, 5	;RP0=1, select bank1
	bcf	status, 6	;RP1=0, select bank1
	movwf	1+(_distance)^080h	;volatile
	line	42
;infrared.c: 42: }
	goto	l3004
	line	43
	
l2991:	
	
l10729:	
;infrared.c: 43: else if (adcVal >= 170 && adcVal < 213)
	movlw	high(0AAh)
	bcf	status, 5	;RP0=0, select bank0
	subwf	(_adcVal+1),w	;volatile
	movlw	low(0AAh)
	skipnz
	subwf	(_adcVal),w	;volatile
	skipc
	goto	u4261
	goto	u4260
u4261:
	goto	l10735
u4260:
	
l10731:	
	movlw	high(0D5h)
	subwf	(_adcVal+1),w	;volatile
	movlw	low(0D5h)
	skipnz
	subwf	(_adcVal),w	;volatile
	skipnc
	goto	u4271
	goto	u4270
u4271:
	goto	l10735
u4270:
	line	45
	
l10733:	
;infrared.c: 44: {
;infrared.c: 45: distance = 20 + ((30-20)*(213-adcVal))/(213-170);
	movlw	low(02Bh)
	movwf	(?___lwdiv)
	movlw	high(02Bh)
	movwf	((?___lwdiv))+1
	comf	(_adcVal),w	;volatile
	movwf	(??_ADCconvert+0)+0
	comf	(_adcVal+1),w	;volatile
	movwf	((??_ADCconvert+0)+0+1)
	incf	(??_ADCconvert+0)+0,f
	skipnz
	incf	((??_ADCconvert+0)+0+1),f
	movf	0+(??_ADCconvert+0)+0,w
	addlw	low(0D5h)
	movwf	(?___wmul)
	movf	1+(??_ADCconvert+0)+0,w
	skipnc
	addlw	1
	addlw	high(0D5h)
	movwf	1+(?___wmul)
	movlw	low(0Ah)
	movwf	0+(?___wmul)+02h
	movlw	high(0Ah)
	movwf	(0+(?___wmul)+02h)+1
	fcall	___wmul
	bcf	status, 5	;RP0=0, select bank0
	bcf	status, 6	;RP1=0, select bank0
	movf	(1+(?___wmul)),w
	clrf	1+(?___lwdiv)+02h
	addwf	1+(?___lwdiv)+02h
	movf	(0+(?___wmul)),w
	clrf	0+(?___lwdiv)+02h
	addwf	0+(?___lwdiv)+02h

	fcall	___lwdiv
	bcf	status, 5	;RP0=0, select bank0
	bcf	status, 6	;RP1=0, select bank0
	movf	(0+(?___lwdiv)),w
	addlw	low(014h)
	bsf	status, 5	;RP0=1, select bank1
	bcf	status, 6	;RP1=0, select bank1
	movwf	(_distance)^080h	;volatile
	bcf	status, 5	;RP0=0, select bank0
	bcf	status, 6	;RP1=0, select bank0
	movf	(1+(?___lwdiv)),w
	skipnc
	addlw	1
	addlw	high(014h)
	bsf	status, 5	;RP0=1, select bank1
	bcf	status, 6	;RP1=0, select bank1
	movwf	1+(_distance)^080h	;volatile
	line	46
;infrared.c: 46: }
	goto	l3004
	line	47
	
l2993:	
	
l10735:	
;infrared.c: 47: else if (adcVal >= 128 && adcVal < 170)
	movlw	high(080h)
	bcf	status, 5	;RP0=0, select bank0
	subwf	(_adcVal+1),w	;volatile
	movlw	low(080h)
	skipnz
	subwf	(_adcVal),w	;volatile
	skipc
	goto	u4281
	goto	u4280
u4281:
	goto	l10741
u4280:
	
l10737:	
	movlw	high(0AAh)
	subwf	(_adcVal+1),w	;volatile
	movlw	low(0AAh)
	skipnz
	subwf	(_adcVal),w	;volatile
	skipnc
	goto	u4291
	goto	u4290
u4291:
	goto	l10741
u4290:
	line	49
	
l10739:	
;infrared.c: 48: {
;infrared.c: 49: distance = 30 + ((40-30)*(170-adcVal))/(170-128);
	movlw	low(02Ah)
	movwf	(?___lwdiv)
	movlw	high(02Ah)
	movwf	((?___lwdiv))+1
	comf	(_adcVal),w	;volatile
	movwf	(??_ADCconvert+0)+0
	comf	(_adcVal+1),w	;volatile
	movwf	((??_ADCconvert+0)+0+1)
	incf	(??_ADCconvert+0)+0,f
	skipnz
	incf	((??_ADCconvert+0)+0+1),f
	movf	0+(??_ADCconvert+0)+0,w
	addlw	low(0AAh)
	movwf	(?___wmul)
	movf	1+(??_ADCconvert+0)+0,w
	skipnc
	addlw	1
	addlw	high(0AAh)
	movwf	1+(?___wmul)
	movlw	low(0Ah)
	movwf	0+(?___wmul)+02h
	movlw	high(0Ah)
	movwf	(0+(?___wmul)+02h)+1
	fcall	___wmul
	bcf	status, 5	;RP0=0, select bank0
	bcf	status, 6	;RP1=0, select bank0
	movf	(1+(?___wmul)),w
	clrf	1+(?___lwdiv)+02h
	addwf	1+(?___lwdiv)+02h
	movf	(0+(?___wmul)),w
	clrf	0+(?___lwdiv)+02h
	addwf	0+(?___lwdiv)+02h

	fcall	___lwdiv
	bcf	status, 5	;RP0=0, select bank0
	bcf	status, 6	;RP1=0, select bank0
	movf	(0+(?___lwdiv)),w
	addlw	low(01Eh)
	bsf	status, 5	;RP0=1, select bank1
	bcf	status, 6	;RP1=0, select bank1
	movwf	(_distance)^080h	;volatile
	bcf	status, 5	;RP0=0, select bank0
	bcf	status, 6	;RP1=0, select bank0
	movf	(1+(?___lwdiv)),w
	skipnc
	addlw	1
	addlw	high(01Eh)
	bsf	status, 5	;RP0=1, select bank1
	bcf	status, 6	;RP1=0, select bank1
	movwf	1+(_distance)^080h	;volatile
	line	50
;infrared.c: 50: }
	goto	l3004
	line	51
	
l2995:	
	
l10741:	
;infrared.c: 51: else if (adcVal >= 107 && adcVal < 128)
	movlw	high(06Bh)
	bcf	status, 5	;RP0=0, select bank0
	subwf	(_adcVal+1),w	;volatile
	movlw	low(06Bh)
	skipnz
	subwf	(_adcVal),w	;volatile
	skipc
	goto	u4301
	goto	u4300
u4301:
	goto	l10747
u4300:
	
l10743:	
	movlw	high(080h)
	subwf	(_adcVal+1),w	;volatile
	movlw	low(080h)
	skipnz
	subwf	(_adcVal),w	;volatile
	skipnc
	goto	u4311
	goto	u4310
u4311:
	goto	l10747
u4310:
	line	53
	
l10745:	
;infrared.c: 52: {
;infrared.c: 53: distance = 40 + ((50-40)*(128-adcVal))/(128-107);
	movlw	low(015h)
	movwf	(?___lwdiv)
	movlw	high(015h)
	movwf	((?___lwdiv))+1
	comf	(_adcVal),w	;volatile
	movwf	(??_ADCconvert+0)+0
	comf	(_adcVal+1),w	;volatile
	movwf	((??_ADCconvert+0)+0+1)
	incf	(??_ADCconvert+0)+0,f
	skipnz
	incf	((??_ADCconvert+0)+0+1),f
	movf	0+(??_ADCconvert+0)+0,w
	addlw	low(080h)
	movwf	(?___wmul)
	movf	1+(??_ADCconvert+0)+0,w
	skipnc
	addlw	1
	addlw	high(080h)
	movwf	1+(?___wmul)
	movlw	low(0Ah)
	movwf	0+(?___wmul)+02h
	movlw	high(0Ah)
	movwf	(0+(?___wmul)+02h)+1
	fcall	___wmul
	bcf	status, 5	;RP0=0, select bank0
	bcf	status, 6	;RP1=0, select bank0
	movf	(1+(?___wmul)),w
	clrf	1+(?___lwdiv)+02h
	addwf	1+(?___lwdiv)+02h
	movf	(0+(?___wmul)),w
	clrf	0+(?___lwdiv)+02h
	addwf	0+(?___lwdiv)+02h

	fcall	___lwdiv
	bcf	status, 5	;RP0=0, select bank0
	bcf	status, 6	;RP1=0, select bank0
	movf	(0+(?___lwdiv)),w
	addlw	low(028h)
	bsf	status, 5	;RP0=1, select bank1
	bcf	status, 6	;RP1=0, select bank1
	movwf	(_distance)^080h	;volatile
	bcf	status, 5	;RP0=0, select bank0
	bcf	status, 6	;RP1=0, select bank0
	movf	(1+(?___lwdiv)),w
	skipnc
	addlw	1
	addlw	high(028h)
	bsf	status, 5	;RP0=1, select bank1
	bcf	status, 6	;RP1=0, select bank1
	movwf	1+(_distance)^080h	;volatile
	line	54
;infrared.c: 54: }
	goto	l3004
	line	55
	
l2997:	
	
l10747:	
;infrared.c: 55: else if (adcVal >= 77 && adcVal < 107)
	movlw	high(04Dh)
	bcf	status, 5	;RP0=0, select bank0
	subwf	(_adcVal+1),w	;volatile
	movlw	low(04Dh)
	skipnz
	subwf	(_adcVal),w	;volatile
	skipc
	goto	u4321
	goto	u4320
u4321:
	goto	l10753
u4320:
	
l10749:	
	movlw	high(06Bh)
	subwf	(_adcVal+1),w	;volatile
	movlw	low(06Bh)
	skipnz
	subwf	(_adcVal),w	;volatile
	skipnc
	goto	u4331
	goto	u4330
u4331:
	goto	l10753
u4330:
	line	57
	
l10751:	
;infrared.c: 56: {
;infrared.c: 57: distance = 50 + ((60-50)*(107-adcVal))/(107-77);
	movlw	low(01Eh)
	movwf	(?___lwdiv)
	movlw	high(01Eh)
	movwf	((?___lwdiv))+1
	comf	(_adcVal),w	;volatile
	movwf	(??_ADCconvert+0)+0
	comf	(_adcVal+1),w	;volatile
	movwf	((??_ADCconvert+0)+0+1)
	incf	(??_ADCconvert+0)+0,f
	skipnz
	incf	((??_ADCconvert+0)+0+1),f
	movf	0+(??_ADCconvert+0)+0,w
	addlw	low(06Bh)
	movwf	(?___wmul)
	movf	1+(??_ADCconvert+0)+0,w
	skipnc
	addlw	1
	addlw	high(06Bh)
	movwf	1+(?___wmul)
	movlw	low(0Ah)
	movwf	0+(?___wmul)+02h
	movlw	high(0Ah)
	movwf	(0+(?___wmul)+02h)+1
	fcall	___wmul
	bcf	status, 5	;RP0=0, select bank0
	bcf	status, 6	;RP1=0, select bank0
	movf	(1+(?___wmul)),w
	clrf	1+(?___lwdiv)+02h
	addwf	1+(?___lwdiv)+02h
	movf	(0+(?___wmul)),w
	clrf	0+(?___lwdiv)+02h
	addwf	0+(?___lwdiv)+02h

	fcall	___lwdiv
	bcf	status, 5	;RP0=0, select bank0
	bcf	status, 6	;RP1=0, select bank0
	movf	(0+(?___lwdiv)),w
	addlw	low(032h)
	bsf	status, 5	;RP0=1, select bank1
	bcf	status, 6	;RP1=0, select bank1
	movwf	(_distance)^080h	;volatile
	bcf	status, 5	;RP0=0, select bank0
	bcf	status, 6	;RP1=0, select bank0
	movf	(1+(?___lwdiv)),w
	skipnc
	addlw	1
	addlw	high(032h)
	bsf	status, 5	;RP0=1, select bank1
	bcf	status, 6	;RP1=0, select bank1
	movwf	1+(_distance)^080h	;volatile
	line	58
;infrared.c: 58: }
	goto	l3004
	line	59
	
l2999:	
	
l10753:	
;infrared.c: 59: else if (adcVal >= 56 && adcVal < 77)
	movlw	high(038h)
	bcf	status, 5	;RP0=0, select bank0
	subwf	(_adcVal+1),w	;volatile
	movlw	low(038h)
	skipnz
	subwf	(_adcVal),w	;volatile
	skipc
	goto	u4341
	goto	u4340
u4341:
	goto	l10759
u4340:
	
l10755:	
	movlw	high(04Dh)
	subwf	(_adcVal+1),w	;volatile
	movlw	low(04Dh)
	skipnz
	subwf	(_adcVal),w	;volatile
	skipnc
	goto	u4351
	goto	u4350
u4351:
	goto	l10759
u4350:
	line	61
	
l10757:	
;infrared.c: 60: {
;infrared.c: 61: distance = 60 + ((70-60)*(77-adcVal))/(77-56);
	movlw	low(015h)
	movwf	(?___lwdiv)
	movlw	high(015h)
	movwf	((?___lwdiv))+1
	comf	(_adcVal),w	;volatile
	movwf	(??_ADCconvert+0)+0
	comf	(_adcVal+1),w	;volatile
	movwf	((??_ADCconvert+0)+0+1)
	incf	(??_ADCconvert+0)+0,f
	skipnz
	incf	((??_ADCconvert+0)+0+1),f
	movf	0+(??_ADCconvert+0)+0,w
	addlw	low(04Dh)
	movwf	(?___wmul)
	movf	1+(??_ADCconvert+0)+0,w
	skipnc
	addlw	1
	addlw	high(04Dh)
	movwf	1+(?___wmul)
	movlw	low(0Ah)
	movwf	0+(?___wmul)+02h
	movlw	high(0Ah)
	movwf	(0+(?___wmul)+02h)+1
	fcall	___wmul
	bcf	status, 5	;RP0=0, select bank0
	bcf	status, 6	;RP1=0, select bank0
	movf	(1+(?___wmul)),w
	clrf	1+(?___lwdiv)+02h
	addwf	1+(?___lwdiv)+02h
	movf	(0+(?___wmul)),w
	clrf	0+(?___lwdiv)+02h
	addwf	0+(?___lwdiv)+02h

	fcall	___lwdiv
	bcf	status, 5	;RP0=0, select bank0
	bcf	status, 6	;RP1=0, select bank0
	movf	(0+(?___lwdiv)),w
	addlw	low(03Ch)
	bsf	status, 5	;RP0=1, select bank1
	bcf	status, 6	;RP1=0, select bank1
	movwf	(_distance)^080h	;volatile
	bcf	status, 5	;RP0=0, select bank0
	bcf	status, 6	;RP1=0, select bank0
	movf	(1+(?___lwdiv)),w
	skipnc
	addlw	1
	addlw	high(03Ch)
	bsf	status, 5	;RP0=1, select bank1
	bcf	status, 6	;RP1=0, select bank1
	movwf	1+(_distance)^080h	;volatile
	line	62
;infrared.c: 62: }
	goto	l3004
	line	63
	
l3001:	
	
l10759:	
;infrared.c: 63: else if (adcVal >= 43 && adcVal < 56)
	movlw	high(02Bh)
	bcf	status, 5	;RP0=0, select bank0
	subwf	(_adcVal+1),w	;volatile
	movlw	low(02Bh)
	skipnz
	subwf	(_adcVal),w	;volatile
	skipc
	goto	u4361
	goto	u4360
u4361:
	goto	l3004
u4360:
	
l10761:	
	movlw	high(038h)
	subwf	(_adcVal+1),w	;volatile
	movlw	low(038h)
	skipnz
	subwf	(_adcVal),w	;volatile
	skipnc
	goto	u4371
	goto	u4370
u4371:
	goto	l3004
u4370:
	line	65
	
l10763:	
;infrared.c: 64: {
;infrared.c: 65: distance = 70 + ((80-70)*(56-adcVal))/(56-43);
	movlw	low(0Dh)
	movwf	(?___lwdiv)
	movlw	high(0Dh)
	movwf	((?___lwdiv))+1
	comf	(_adcVal),w	;volatile
	movwf	(??_ADCconvert+0)+0
	comf	(_adcVal+1),w	;volatile
	movwf	((??_ADCconvert+0)+0+1)
	incf	(??_ADCconvert+0)+0,f
	skipnz
	incf	((??_ADCconvert+0)+0+1),f
	movf	0+(??_ADCconvert+0)+0,w
	addlw	low(038h)
	movwf	(?___wmul)
	movf	1+(??_ADCconvert+0)+0,w
	skipnc
	addlw	1
	addlw	high(038h)
	movwf	1+(?___wmul)
	movlw	low(0Ah)
	movwf	0+(?___wmul)+02h
	movlw	high(0Ah)
	movwf	(0+(?___wmul)+02h)+1
	fcall	___wmul
	bcf	status, 5	;RP0=0, select bank0
	bcf	status, 6	;RP1=0, select bank0
	movf	(1+(?___wmul)),w
	clrf	1+(?___lwdiv)+02h
	addwf	1+(?___lwdiv)+02h
	movf	(0+(?___wmul)),w
	clrf	0+(?___lwdiv)+02h
	addwf	0+(?___lwdiv)+02h

	fcall	___lwdiv
	bcf	status, 5	;RP0=0, select bank0
	bcf	status, 6	;RP1=0, select bank0
	movf	(0+(?___lwdiv)),w
	addlw	low(046h)
	bsf	status, 5	;RP0=1, select bank1
	bcf	status, 6	;RP1=0, select bank1
	movwf	(_distance)^080h	;volatile
	bcf	status, 5	;RP0=0, select bank0
	bcf	status, 6	;RP1=0, select bank0
	movf	(1+(?___lwdiv)),w
	skipnc
	addlw	1
	addlw	high(046h)
	bsf	status, 5	;RP0=1, select bank1
	bcf	status, 6	;RP1=0, select bank1
	movwf	1+(_distance)^080h	;volatile
	goto	l3004
	line	66
	
l3003:	
	goto	l3004
	line	67
	
l3002:	
	goto	l3004
	
l3000:	
	goto	l3004
	
l2998:	
	goto	l3004
	
l2996:	
	goto	l3004
	
l2994:	
	goto	l3004
	
l2992:	
	
l3004:	
	return
	opt stack 0
GLOBAL	__end_of_ADCconvert
	__end_of_ADCconvert:
;; =============== function _ADCconvert ends ============

	signat	_ADCconvert,88
	global	_robotTurn
psect	text915,local,class=CODE,delta=2
global __ptext915
__ptext915:

;; *************** function _robotTurn *****************
;; Defined at:
;;		line 91 in file "E:\Aldnoah.Zero\Assignment3\robot.c"
;; Parameters:    Size  Location     Type
;;  distance        2    2[BANK0 ] int 
;; Auto vars:     Size  Location     Type
;;		None
;; Return value:  Size  Location     Type
;;		None               void
;; Registers used:
;;		wreg, fsr0l, fsr0h, status,2, status,0, pclath, cstack
;; Tracked objects:
;;		On entry : 0/0
;;		On exit  : 0/0
;;		Unchanged: 0/0
;; Data sizes:     COMMON   BANK0   BANK1   BANK3   BANK2
;;      Params:         0       2       0       0       0
;;      Locals:         0       0       0       0       0
;;      Temps:          0       1       0       0       0
;;      Totals:         0       3       0       0       0
;;Total ram usage:        3 bytes
;; Hardware stack levels used:    1
;; Hardware stack levels required when called:    4
;; This function calls:
;;		_ser_putch
;; This function is called by:
;;		_main
;; This function uses a non-reentrant model
;;
psect	text915
	file	"E:\Aldnoah.Zero\Assignment3\robot.c"
	line	91
	global	__size_of_robotTurn
	__size_of_robotTurn	equ	__end_of_robotTurn-_robotTurn
	
_robotTurn:	
	opt	stack 3
; Regs used in _robotTurn: [wreg-fsr0h+status,2+status,0+pclath+cstack]
	line	94
	
l10713:	
;robot.c: 94: turnlowByte = (unsigned char) (distance) ;
	bcf	status, 5	;RP0=0, select bank0
	bcf	status, 6	;RP1=0, select bank0
	movf	(robotTurn@distance),w
	movwf	(??_robotTurn+0)+0
	movf	(??_robotTurn+0)+0,w
	bsf	status, 5	;RP0=1, select bank1
	bcf	status, 6	;RP1=0, select bank1
	movwf	(_turnlowByte)^080h
	line	95
	
l10715:	
;robot.c: 95: turnhighByte = (unsigned char) (distance >> 8);
	bcf	status, 5	;RP0=0, select bank0
	bcf	status, 6	;RP1=0, select bank0
	movf	(robotTurn@distance+1),w
	movwf	(??_robotTurn+0)+0
	movf	(??_robotTurn+0)+0,w
	bsf	status, 5	;RP0=1, select bank1
	bcf	status, 6	;RP1=0, select bank1
	movwf	(_turnhighByte)^080h
	line	96
	
l10717:	
;robot.c: 96: if (distance >= 0)
	bcf	status, 5	;RP0=0, select bank0
	bcf	status, 6	;RP1=0, select bank0
	btfsc	(robotTurn@distance+1),7
	goto	u4231
	goto	u4230
u4231:
	goto	l10721
u4230:
	line	98
	
l10719:	
;robot.c: 97: {
;robot.c: 98: ser_putch(137);
	movlw	(089h)
	fcall	_ser_putch
	line	100
;robot.c: 100: ser_putch(0);
	movlw	(0)
	fcall	_ser_putch
	line	102
;robot.c: 102: ser_putch(100);
	movlw	(064h)
	fcall	_ser_putch
	line	104
;robot.c: 104: ser_putch(0);
	movlw	(0)
	fcall	_ser_putch
	line	106
;robot.c: 106: ser_putch(1);
	movlw	(01h)
	fcall	_ser_putch
	line	107
;robot.c: 107: }
	goto	l6021
	line	108
	
l6020:	
	line	110
	
l10721:	
;robot.c: 108: else
;robot.c: 109: {
;robot.c: 110: ser_putch(137);
	movlw	(089h)
	fcall	_ser_putch
	line	112
;robot.c: 112: ser_putch(0);
	movlw	(0)
	fcall	_ser_putch
	line	114
;robot.c: 114: ser_putch(100);
	movlw	(064h)
	fcall	_ser_putch
	line	116
;robot.c: 116: ser_putch(255);
	movlw	(0FFh)
	fcall	_ser_putch
	line	118
;robot.c: 118: ser_putch(255);
	movlw	(0FFh)
	fcall	_ser_putch
	line	119
	
l6021:	
	line	120
;robot.c: 119: }
;robot.c: 120: ser_putch(157);
	movlw	(09Dh)
	fcall	_ser_putch
	line	122
;robot.c: 122: ser_putch(turnhighByte);
	bsf	status, 5	;RP0=1, select bank1
	bcf	status, 6	;RP1=0, select bank1
	movf	(_turnhighByte)^080h,w
	fcall	_ser_putch
	line	124
;robot.c: 124: ser_putch(turnlowByte);
	bsf	status, 5	;RP0=1, select bank1
	bcf	status, 6	;RP1=0, select bank1
	movf	(_turnlowByte)^080h,w
	fcall	_ser_putch
	line	126
;robot.c: 126: ser_putch(137);
	movlw	(089h)
	fcall	_ser_putch
	line	128
;robot.c: 128: ser_putch(0);
	movlw	(0)
	fcall	_ser_putch
	line	130
;robot.c: 130: ser_putch(0);
	movlw	(0)
	fcall	_ser_putch
	line	132
;robot.c: 132: ser_putch(0);
	movlw	(0)
	fcall	_ser_putch
	line	134
;robot.c: 134: ser_putch(0);
	movlw	(0)
	fcall	_ser_putch
	line	135
	
l6022:	
	return
	opt stack 0
GLOBAL	__end_of_robotTurn
	__end_of_robotTurn:
;; =============== function _robotTurn ends ============

	signat	_robotTurn,4216
	global	_rotate
psect	text916,local,class=CODE,delta=2
global __ptext916
__ptext916:

;; *************** function _rotate *****************
;; Defined at:
;;		line 48 in file "E:\Aldnoah.Zero\Assignment3\steppermotor.c"
;; Parameters:    Size  Location     Type
;;  numsteps        2    3[BANK0 ] unsigned int 
;;  direction       1    5[BANK0 ] unsigned char 
;; Auto vars:     Size  Location     Type
;;  i               2    8[BANK0 ] unsigned int 
;; Return value:  Size  Location     Type
;;		None               void
;; Registers used:
;;		wreg, status,2, status,0, pclath, cstack
;; Tracked objects:
;;		On entry : 0/0
;;		On exit  : 0/0
;;		Unchanged: 0/0
;; Data sizes:     COMMON   BANK0   BANK1   BANK3   BANK2
;;      Params:         0       3       0       0       0
;;      Locals:         0       2       0       0       0
;;      Temps:          0       2       0       0       0
;;      Totals:         0       7       0       0       0
;;Total ram usage:        7 bytes
;; Hardware stack levels used:    1
;; Hardware stack levels required when called:    4
;; This function calls:
;;		_spi_transfer
;; This function is called by:
;;		_calibrateIR
;;		_scan360
;;		_main
;; This function uses a non-reentrant model
;;
psect	text916
	file	"E:\Aldnoah.Zero\Assignment3\steppermotor.c"
	line	48
	global	__size_of_rotate
	__size_of_rotate	equ	__end_of_rotate-_rotate
	
_rotate:	
	opt	stack 3
; Regs used in _rotate: [wreg+status,2+status,0+pclath+cstack]
	line	50
	
l10685:	
;steppermotor.c: 50: RC0 = 1; RC1 = 1;;
	bcf	status, 5	;RP0=0, select bank0
	bcf	status, 6	;RP1=0, select bank0
	bsf	(56/8),(56)&7
	bsf	(57/8),(57)&7
	line	51
	
l10687:	
;steppermotor.c: 51: if (direction == 0)
	movf	(rotate@direction),f
	skipz
	goto	u4211
	goto	u4210
u4211:
	goto	l10691
u4210:
	line	52
	
l10689:	
;steppermotor.c: 52: spi_transfer(0b00001111);
	movlw	(0Fh)
	fcall	_spi_transfer
	goto	l10693
	line	53
	
l3705:	
	line	54
	
l10691:	
;steppermotor.c: 53: else
;steppermotor.c: 54: spi_transfer(0b00001101);
	movlw	(0Dh)
	fcall	_spi_transfer
	goto	l10693
	
l3706:	
	line	55
	
l10693:	
;steppermotor.c: 55: RC0 = 0; RC1 = 0;;
	bcf	status, 5	;RP0=0, select bank0
	bcf	status, 6	;RP1=0, select bank0
	bcf	(56/8),(56)&7
	
l10695:	
	bcf	(57/8),(57)&7
	line	56
	
l10697:	
;steppermotor.c: 56: for (unsigned int i = 0; i < numsteps; i++)
	clrf	(rotate@i)
	clrf	(rotate@i+1)
	goto	l3707
	line	57
	
l3708:	
	line	58
;steppermotor.c: 57: {
;steppermotor.c: 58: RC2 = 1; _nop(); RC2 = 0;;
	bsf	(58/8),(58)&7
	nop
	bcf	status, 5	;RP0=0, select bank0
	bcf	status, 6	;RP1=0, select bank0
	bcf	(58/8),(58)&7
	line	59
	
l10699:	
;steppermotor.c: 59: _delay((unsigned long)((15)*(20000000/4000.0)));
	opt asmopt_off
movlw	98
movwf	((??_rotate+0)+0+1),f
	movlw	101
movwf	((??_rotate+0)+0),f
u4667:
	decfsz	((??_rotate+0)+0),f
	goto	u4667
	decfsz	((??_rotate+0)+0+1),f
	goto	u4667
	nop2
opt asmopt_on

	line	56
	movlw	low(01h)
	bcf	status, 5	;RP0=0, select bank0
	bcf	status, 6	;RP1=0, select bank0
	addwf	(rotate@i),f
	skipnc
	incf	(rotate@i+1),f
	movlw	high(01h)
	addwf	(rotate@i+1),f
	
l3707:	
	movf	(rotate@numsteps+1),w
	subwf	(rotate@i+1),w
	skipz
	goto	u4225
	movf	(rotate@numsteps),w
	subwf	(rotate@i),w
u4225:
	skipc
	goto	u4221
	goto	u4220
u4221:
	goto	l3708
u4220:
	
l3709:	
	line	61
;steppermotor.c: 60: }
;steppermotor.c: 61: RC0 = 1; RC1 = 1;;
	bsf	(56/8),(56)&7
	bsf	(57/8),(57)&7
	line	62
	
l10701:	
;steppermotor.c: 62: spi_transfer(0b00000000);
	movlw	(0)
	fcall	_spi_transfer
	line	63
	
l10703:	
;steppermotor.c: 63: RC0 = 0; RC1 = 0;;
	bcf	status, 5	;RP0=0, select bank0
	bcf	status, 6	;RP1=0, select bank0
	bcf	(56/8),(56)&7
	
l10705:	
	bcf	(57/8),(57)&7
	line	64
	
l10707:	
;steppermotor.c: 64: RC2 = 1; _nop(); RC2 = 0;;
	bsf	(58/8),(58)&7
	
l10709:	
	nop
	
l10711:	
	bcf	status, 5	;RP0=0, select bank0
	bcf	status, 6	;RP1=0, select bank0
	bcf	(58/8),(58)&7
	line	65
	
l3710:	
	return
	opt stack 0
GLOBAL	__end_of_rotate
	__end_of_rotate:
;; =============== function _rotate ends ============

	signat	_rotate,8312
	global	_robo_init
psect	text917,local,class=CODE,delta=2
global __ptext917
__ptext917:

;; *************** function _robo_init *****************
;; Defined at:
;;		line 10 in file "E:\Aldnoah.Zero\Assignment3\robot.c"
;; Parameters:    Size  Location     Type
;;		None
;; Auto vars:     Size  Location     Type
;;		None
;; Return value:  Size  Location     Type
;;		None               void
;; Registers used:
;;		wreg, fsr0l, fsr0h, status,2, status,0, pclath, cstack
;; Tracked objects:
;;		On entry : 0/0
;;		On exit  : 0/0
;;		Unchanged: 0/0
;; Data sizes:     COMMON   BANK0   BANK1   BANK3   BANK2
;;      Params:         0       0       0       0       0
;;      Locals:         0       0       0       0       0
;;      Temps:          0       0       0       0       0
;;      Totals:         0       0       0       0       0
;;Total ram usage:        0 bytes
;; Hardware stack levels used:    1
;; Hardware stack levels required when called:    4
;; This function calls:
;;		_ser_putch
;; This function is called by:
;;		_init
;; This function uses a non-reentrant model
;;
psect	text917
	file	"E:\Aldnoah.Zero\Assignment3\robot.c"
	line	10
	global	__size_of_robo_init
	__size_of_robo_init	equ	__end_of_robo_init-_robo_init
	
_robo_init:	
	opt	stack 2
; Regs used in _robo_init: [wreg-fsr0h+status,2+status,0+pclath+cstack]
	line	11
	
l10683:	
;robot.c: 11: ser_putch(128);
	movlw	(080h)
	fcall	_ser_putch
	line	12
;robot.c: 12: ser_putch(132);
	movlw	(084h)
	fcall	_ser_putch
	line	13
;robot.c: 13: ser_putch(150);
	movlw	(096h)
	fcall	_ser_putch
	line	14
;robot.c: 14: ser_putch(0);
	movlw	(0)
	fcall	_ser_putch
	line	15
	
l6005:	
	return
	opt stack 0
GLOBAL	__end_of_robo_init
	__end_of_robo_init:
;; =============== function _robo_init ends ============

	signat	_robo_init,88
	global	_lcd_write_data
psect	text918,local,class=CODE,delta=2
global __ptext918
__ptext918:

;; *************** function _lcd_write_data *****************
;; Defined at:
;;		line 30 in file "E:\Aldnoah.Zero\Assignment3\lcd.c"
;; Parameters:    Size  Location     Type
;;  databyte        1    wreg     unsigned char 
;; Auto vars:     Size  Location     Type
;;  databyte        1    2[BANK0 ] unsigned char 
;; Return value:  Size  Location     Type
;;		None               void
;; Registers used:
;;		wreg
;; Tracked objects:
;;		On entry : 0/0
;;		On exit  : 0/0
;;		Unchanged: 0/0
;; Data sizes:     COMMON   BANK0   BANK1   BANK3   BANK2
;;      Params:         0       0       0       0       0
;;      Locals:         0       1       0       0       0
;;      Temps:          0       2       0       0       0
;;      Totals:         0       3       0       0       0
;;Total ram usage:        3 bytes
;; Hardware stack levels used:    1
;; Hardware stack levels required when called:    3
;; This function calls:
;;		Nothing
;; This function is called by:
;;		_lcd_write_string
;;		_lcd_write_2_digit_bcd
;;		_lcd_write_3_digit_bcd
;; This function uses a non-reentrant model
;;
psect	text918
	file	"E:\Aldnoah.Zero\Assignment3\lcd.c"
	line	30
	global	__size_of_lcd_write_data
	__size_of_lcd_write_data	equ	__end_of_lcd_write_data-_lcd_write_data
	
_lcd_write_data:	
	opt	stack 1
; Regs used in _lcd_write_data: [wreg]
;lcd_write_data@databyte stored from wreg
	bcf	status, 5	;RP0=0, select bank0
	bcf	status, 6	;RP1=0, select bank0
	movwf	(lcd_write_data@databyte)
	line	31
	
l10675:	
;lcd.c: 31: RE2 = 0;
	bcf	(74/8),(74)&7
	line	32
;lcd.c: 32: RE1 = 0;
	bcf	(73/8),(73)&7
	line	33
;lcd.c: 33: RE0 = 1;
	bsf	(72/8),(72)&7
	line	34
	
l10677:	
;lcd.c: 34: PORTD = databyte;
	movf	(lcd_write_data@databyte),w
	movwf	(8)	;volatile
	line	35
	
l10679:	
;lcd.c: 35: RE2 = 1;
	bsf	(74/8),(74)&7
	line	36
	
l10681:	
;lcd.c: 36: RE2 = 0;
	bcf	(74/8),(74)&7
	line	37
;lcd.c: 37: _delay((unsigned long)((1)*(20000000/4000.0)));
	opt asmopt_off
movlw	7
movwf	((??_lcd_write_data+0)+0+1),f
	movlw	125
movwf	((??_lcd_write_data+0)+0),f
u4677:
	decfsz	((??_lcd_write_data+0)+0),f
	goto	u4677
	decfsz	((??_lcd_write_data+0)+0+1),f
	goto	u4677
opt asmopt_on

	line	38
	
l1402:	
	return
	opt stack 0
GLOBAL	__end_of_lcd_write_data
	__end_of_lcd_write_data:
;; =============== function _lcd_write_data ends ============

	signat	_lcd_write_data,4216
	global	_lcd_write_control
psect	text919,local,class=CODE,delta=2
global __ptext919
__ptext919:

;; *************** function _lcd_write_control *****************
;; Defined at:
;;		line 18 in file "E:\Aldnoah.Zero\Assignment3\lcd.c"
;; Parameters:    Size  Location     Type
;;  databyte        1    wreg     unsigned char 
;; Auto vars:     Size  Location     Type
;;  databyte        1    2[BANK0 ] unsigned char 
;; Return value:  Size  Location     Type
;;		None               void
;; Registers used:
;;		wreg
;; Tracked objects:
;;		On entry : 0/0
;;		On exit  : 0/0
;;		Unchanged: 0/0
;; Data sizes:     COMMON   BANK0   BANK1   BANK3   BANK2
;;      Params:         0       0       0       0       0
;;      Locals:         0       1       0       0       0
;;      Temps:          0       2       0       0       0
;;      Totals:         0       3       0       0       0
;;Total ram usage:        3 bytes
;; Hardware stack levels used:    1
;; Hardware stack levels required when called:    3
;; This function calls:
;;		Nothing
;; This function is called by:
;;		_lcd_set_cursor
;;		_lcd_init
;;		_UpdateDisplay
;; This function uses a non-reentrant model
;;
psect	text919
	file	"E:\Aldnoah.Zero\Assignment3\lcd.c"
	line	18
	global	__size_of_lcd_write_control
	__size_of_lcd_write_control	equ	__end_of_lcd_write_control-_lcd_write_control
	
_lcd_write_control:	
	opt	stack 1
; Regs used in _lcd_write_control: [wreg]
;lcd_write_control@databyte stored from wreg
	bcf	status, 5	;RP0=0, select bank0
	bcf	status, 6	;RP1=0, select bank0
	movwf	(lcd_write_control@databyte)
	line	19
	
l10667:	
;lcd.c: 19: RE2 = 0;
	bcf	(74/8),(74)&7
	line	20
;lcd.c: 20: RE1 = 0;
	bcf	(73/8),(73)&7
	line	21
;lcd.c: 21: RE0 = 0;
	bcf	(72/8),(72)&7
	line	22
	
l10669:	
;lcd.c: 22: PORTD = databyte;
	movf	(lcd_write_control@databyte),w
	movwf	(8)	;volatile
	line	23
	
l10671:	
;lcd.c: 23: RE2 = 1;
	bsf	(74/8),(74)&7
	line	24
	
l10673:	
;lcd.c: 24: RE2 = 0;
	bcf	(74/8),(74)&7
	line	25
;lcd.c: 25: _delay((unsigned long)((2)*(20000000/4000.0)));
	opt asmopt_off
movlw	13
movwf	((??_lcd_write_control+0)+0+1),f
	movlw	251
movwf	((??_lcd_write_control+0)+0),f
u4687:
	decfsz	((??_lcd_write_control+0)+0),f
	goto	u4687
	decfsz	((??_lcd_write_control+0)+0+1),f
	goto	u4687
	nop2
opt asmopt_on

	line	26
	
l1399:	
	return
	opt stack 0
GLOBAL	__end_of_lcd_write_control
	__end_of_lcd_write_control:
;; =============== function _lcd_write_control ends ============

	signat	_lcd_write_control,4216
	global	_init_adc
psect	text920,local,class=CODE,delta=2
global __ptext920
__ptext920:

;; *************** function _init_adc *****************
;; Defined at:
;;		line 46 in file "E:\Aldnoah.Zero\Assignment3\adc.c"
;; Parameters:    Size  Location     Type
;;		None
;; Auto vars:     Size  Location     Type
;;		None
;; Return value:  Size  Location     Type
;;		None               void
;; Registers used:
;;		wreg, status,2
;; Tracked objects:
;;		On entry : 0/0
;;		On exit  : 0/0
;;		Unchanged: 0/0
;; Data sizes:     COMMON   BANK0   BANK1   BANK3   BANK2
;;      Params:         0       0       0       0       0
;;      Locals:         0       0       0       0       0
;;      Temps:          0       1       0       0       0
;;      Totals:         0       1       0       0       0
;;Total ram usage:        1 bytes
;; Hardware stack levels used:    1
;; Hardware stack levels required when called:    3
;; This function calls:
;;		Nothing
;; This function is called by:
;;		_init
;; This function uses a non-reentrant model
;;
psect	text920
	file	"E:\Aldnoah.Zero\Assignment3\adc.c"
	line	46
	global	__size_of_init_adc
	__size_of_init_adc	equ	__end_of_init_adc-_init_adc
	
_init_adc:	
	opt	stack 3
; Regs used in _init_adc: [wreg+status,2]
	line	48
	
l10657:	
;adc.c: 48: PORTA = 0;
	bcf	status, 5	;RP0=0, select bank0
	bcf	status, 6	;RP1=0, select bank0
	clrf	(5)	;volatile
	line	49
	
l10659:	
;adc.c: 49: TRISA = 0b00111111;
	movlw	(03Fh)
	bsf	status, 5	;RP0=1, select bank1
	bcf	status, 6	;RP1=0, select bank1
	movwf	(133)^080h	;volatile
	line	52
	
l10661:	
;adc.c: 52: ADCON0 = 0b10100001;
	movlw	(0A1h)
	bcf	status, 5	;RP0=0, select bank0
	bcf	status, 6	;RP1=0, select bank0
	movwf	(31)	;volatile
	line	53
	
l10663:	
;adc.c: 53: ADCON1 = 0b0000010;
	movlw	(02h)
	bsf	status, 5	;RP0=1, select bank1
	bcf	status, 6	;RP1=0, select bank1
	movwf	(159)^080h	;volatile
	line	55
	
l10665:	
;adc.c: 55: _delay((unsigned long)((50)*(20000000/4000000.0)));
	opt asmopt_off
movlw	83
	bcf	status, 5	;RP0=0, select bank0
	bcf	status, 6	;RP1=0, select bank0
movwf	(??_init_adc+0)+0,f
u4697:
decfsz	(??_init_adc+0)+0,f
	goto	u4697
opt asmopt_on

	line	57
	
l700:	
	return
	opt stack 0
GLOBAL	__end_of_init_adc
	__end_of_init_adc:
;; =============== function _init_adc ends ============

	signat	_init_adc,88
	global	_adc_read_channel
psect	text921,local,class=CODE,delta=2
global __ptext921
__ptext921:

;; *************** function _adc_read_channel *****************
;; Defined at:
;;		line 5 in file "E:\Aldnoah.Zero\Assignment3\adc.c"
;; Parameters:    Size  Location     Type
;;  channel         1    wreg     unsigned char 
;; Auto vars:     Size  Location     Type
;;  channel         1    7[BANK0 ] unsigned char 
;; Return value:  Size  Location     Type
;;                  1    wreg      unsigned char 
;; Registers used:
;;		wreg, fsr0l, fsr0h, status,2, status,0, pclath, cstack
;; Tracked objects:
;;		On entry : 0/0
;;		On exit  : 0/0
;;		Unchanged: 0/0
;; Data sizes:     COMMON   BANK0   BANK1   BANK3   BANK2
;;      Params:         0       0       0       0       0
;;      Locals:         0       1       0       0       0
;;      Temps:          0       1       0       0       0
;;      Totals:         0       2       0       0       0
;;Total ram usage:        2 bytes
;; Hardware stack levels used:    1
;; Hardware stack levels required when called:    4
;; This function calls:
;;		_adc_read
;; This function is called by:
;;		_readDistance
;; This function uses a non-reentrant model
;;
psect	text921
	file	"E:\Aldnoah.Zero\Assignment3\adc.c"
	line	5
	global	__size_of_adc_read_channel
	__size_of_adc_read_channel	equ	__end_of_adc_read_channel-_adc_read_channel
	
_adc_read_channel:	
	opt	stack 0
; Regs used in _adc_read_channel: [wreg-fsr0h+status,2+status,0+pclath+cstack]
;adc_read_channel@channel stored from wreg
	bcf	status, 5	;RP0=0, select bank0
	bcf	status, 6	;RP1=0, select bank0
	movwf	(adc_read_channel@channel)
	line	6
	
l10641:	
;adc.c: 6: switch(channel)
	goto	l10649
	line	8
;adc.c: 7: {
;adc.c: 8: case 0:
	
l690:	
	line	9
;adc.c: 9: CHS0 = 0;
	bcf	(251/8),(251)&7
	line	10
;adc.c: 10: CHS1 = 0;
	bcf	(252/8),(252)&7
	line	11
;adc.c: 11: CHS2 = 0;
	bcf	(253/8),(253)&7
	line	12
;adc.c: 12: break;
	goto	l10651
	line	13
;adc.c: 13: case 1:
	
l692:	
	line	14
;adc.c: 14: CHS0 = 1;
	bsf	(251/8),(251)&7
	line	15
;adc.c: 15: CHS1 = 0;
	bcf	(252/8),(252)&7
	line	16
;adc.c: 16: CHS2 = 0;
	bcf	(253/8),(253)&7
	line	17
;adc.c: 17: break;
	goto	l10651
	line	18
;adc.c: 18: case 2:
	
l693:	
	line	19
;adc.c: 19: CHS0 = 0;
	bcf	(251/8),(251)&7
	line	20
;adc.c: 20: CHS1 = 1;
	bsf	(252/8),(252)&7
	line	21
;adc.c: 21: CHS2 = 0;
	bcf	(253/8),(253)&7
	line	22
;adc.c: 22: break;
	goto	l10651
	line	23
;adc.c: 23: case 3:
	
l694:	
	line	24
;adc.c: 24: CHS0 = 1;
	bsf	(251/8),(251)&7
	line	25
;adc.c: 25: CHS1 = 1;
	bsf	(252/8),(252)&7
	line	26
;adc.c: 26: CHS2 = 0;
	bcf	(253/8),(253)&7
	line	27
;adc.c: 27: break;
	goto	l10651
	line	28
;adc.c: 28: case 4:
	
l695:	
	line	29
;adc.c: 29: CHS0 = 0;
	bcf	(251/8),(251)&7
	line	30
;adc.c: 30: CHS1 = 0;
	bcf	(252/8),(252)&7
	line	31
;adc.c: 31: CHS2 = 1;
	bsf	(253/8),(253)&7
	line	32
;adc.c: 32: break;
	goto	l10651
	line	35
;adc.c: 35: default:
	
l696:	
	line	36
	
l10643:	
;adc.c: 36: return 0;
	movlw	(0)
	goto	l697
	
l10645:	
	goto	l697
	line	37
	
l10647:	
;adc.c: 37: }
	goto	l10651
	line	6
	
l689:	
	
l10649:	
	movf	(adc_read_channel@channel),w
	; Switch size 1, requested type "space"
; Number of cases is 5, Range of values is 0 to 4
; switch strategies available:
; Name         Instructions Cycles
; simple_byte           16     9 (average)
; direct_byte           23     8 (fixed)
; jumptable            260     6 (fixed)
; rangetable             9     6 (fixed)
; spacedrange           16     9 (fixed)
; locatedrange           5     3 (fixed)
;	Chosen strategy is simple_byte

	opt asmopt_off
	xorlw	0^0	; case 0
	skipnz
	goto	l690
	xorlw	1^0	; case 1
	skipnz
	goto	l692
	xorlw	2^1	; case 2
	skipnz
	goto	l693
	xorlw	3^2	; case 3
	skipnz
	goto	l694
	xorlw	4^3	; case 4
	skipnz
	goto	l695
	goto	l10643
	opt asmopt_on

	line	37
	
l691:	
	line	39
	
l10651:	
;adc.c: 39: _delay((unsigned long)((50)*(20000000/4000000.0)));
	opt asmopt_off
movlw	83
movwf	(??_adc_read_channel+0)+0,f
u4707:
decfsz	(??_adc_read_channel+0)+0,f
	goto	u4707
opt asmopt_on

	line	41
	
l10653:	
;adc.c: 41: return adc_read();
	fcall	_adc_read
	bcf	status, 5	;RP0=0, select bank0
	bcf	status, 6	;RP1=0, select bank0
	movf	(0+(?_adc_read)),w
	goto	l697
	
l10655:	
	line	43
	
l697:	
	return
	opt stack 0
GLOBAL	__end_of_adc_read_channel
	__end_of_adc_read_channel:
;; =============== function _adc_read_channel ends ============

	signat	_adc_read_channel,4217
	global	___awmod
psect	text922,local,class=CODE,delta=2
global __ptext922
__ptext922:

;; *************** function ___awmod *****************
;; Defined at:
;;		line 5 in file "C:\Program Files\HI-TECH Software\PICC\9.83\sources\awmod.c"
;; Parameters:    Size  Location     Type
;;  divisor         2    0[BANK0 ] int 
;;  dividend        2    2[BANK0 ] int 
;; Auto vars:     Size  Location     Type
;;  sign            1    6[BANK0 ] unsigned char 
;;  counter         1    5[BANK0 ] unsigned char 
;; Return value:  Size  Location     Type
;;                  2    0[BANK0 ] int 
;; Registers used:
;;		wreg, status,2, status,0
;; Tracked objects:
;;		On entry : 0/0
;;		On exit  : 0/0
;;		Unchanged: 0/0
;; Data sizes:     COMMON   BANK0   BANK1   BANK3   BANK2
;;      Params:         0       4       0       0       0
;;      Locals:         0       2       0       0       0
;;      Temps:          0       1       0       0       0
;;      Totals:         0       7       0       0       0
;;Total ram usage:        7 bytes
;; Hardware stack levels used:    1
;; Hardware stack levels required when called:    3
;; This function calls:
;;		Nothing
;; This function is called by:
;;		_UpdateDisplay
;; This function uses a non-reentrant model
;;
psect	text922
	file	"C:\Program Files\HI-TECH Software\PICC\9.83\sources\awmod.c"
	line	5
	global	__size_of___awmod
	__size_of___awmod	equ	__end_of___awmod-___awmod
	
___awmod:	
	opt	stack 2
; Regs used in ___awmod: [wreg+status,2+status,0]
	line	8
	
l10585:	
	bcf	status, 5	;RP0=0, select bank0
	bcf	status, 6	;RP1=0, select bank0
	clrf	(___awmod@sign)
	line	9
	btfss	(___awmod@dividend+1),7
	goto	u4061
	goto	u4060
u4061:
	goto	l10589
u4060:
	line	10
	
l10587:	
	comf	(___awmod@dividend),f
	comf	(___awmod@dividend+1),f
	incf	(___awmod@dividend),f
	skipnz
	incf	(___awmod@dividend+1),f
	line	11
	clrf	(___awmod@sign)
	bsf	status,0
	rlf	(___awmod@sign),f
	goto	l10589
	line	12
	
l7675:	
	line	13
	
l10589:	
	btfss	(___awmod@divisor+1),7
	goto	u4071
	goto	u4070
u4071:
	goto	l10593
u4070:
	line	14
	
l10591:	
	comf	(___awmod@divisor),f
	comf	(___awmod@divisor+1),f
	incf	(___awmod@divisor),f
	skipnz
	incf	(___awmod@divisor+1),f
	goto	l10593
	
l7676:	
	line	15
	
l10593:	
	movf	(___awmod@divisor+1),w
	iorwf	(___awmod@divisor),w
	skipnz
	goto	u4081
	goto	u4080
u4081:
	goto	l10611
u4080:
	line	16
	
l10595:	
	clrf	(___awmod@counter)
	bsf	status,0
	rlf	(___awmod@counter),f
	line	17
	goto	l10601
	
l7679:	
	line	18
	
l10597:	
	movlw	01h
	
u4095:
	clrc
	rlf	(___awmod@divisor),f
	rlf	(___awmod@divisor+1),f
	addlw	-1
	skipz
	goto	u4095
	line	19
	
l10599:	
	movlw	(01h)
	movwf	(??___awmod+0)+0
	movf	(??___awmod+0)+0,w
	addwf	(___awmod@counter),f
	goto	l10601
	line	20
	
l7678:	
	line	17
	
l10601:	
	btfss	(___awmod@divisor+1),(15)&7
	goto	u4101
	goto	u4100
u4101:
	goto	l10597
u4100:
	goto	l10603
	
l7680:	
	goto	l10603
	line	21
	
l7681:	
	line	22
	
l10603:	
	movf	(___awmod@divisor+1),w
	subwf	(___awmod@dividend+1),w
	skipz
	goto	u4115
	movf	(___awmod@divisor),w
	subwf	(___awmod@dividend),w
u4115:
	skipc
	goto	u4111
	goto	u4110
u4111:
	goto	l10607
u4110:
	line	23
	
l10605:	
	movf	(___awmod@divisor),w
	subwf	(___awmod@dividend),f
	movf	(___awmod@divisor+1),w
	skipc
	decf	(___awmod@dividend+1),f
	subwf	(___awmod@dividend+1),f
	goto	l10607
	
l7682:	
	line	24
	
l10607:	
	movlw	01h
	
u4125:
	clrc
	rrf	(___awmod@divisor+1),f
	rrf	(___awmod@divisor),f
	addlw	-1
	skipz
	goto	u4125
	line	25
	
l10609:	
	movlw	low(01h)
	subwf	(___awmod@counter),f
	btfss	status,2
	goto	u4131
	goto	u4130
u4131:
	goto	l10603
u4130:
	goto	l10611
	
l7683:	
	goto	l10611
	line	26
	
l7677:	
	line	27
	
l10611:	
	movf	(___awmod@sign),w
	skipz
	goto	u4140
	goto	l10615
u4140:
	line	28
	
l10613:	
	comf	(___awmod@dividend),f
	comf	(___awmod@dividend+1),f
	incf	(___awmod@dividend),f
	skipnz
	incf	(___awmod@dividend+1),f
	goto	l10615
	
l7684:	
	line	29
	
l10615:	
	movf	(___awmod@dividend+1),w
	clrf	(?___awmod+1)
	addwf	(?___awmod+1)
	movf	(___awmod@dividend),w
	clrf	(?___awmod)
	addwf	(?___awmod)

	goto	l7685
	
l10617:	
	line	30
	
l7685:	
	return
	opt stack 0
GLOBAL	__end_of___awmod
	__end_of___awmod:
;; =============== function ___awmod ends ============

	signat	___awmod,8314
	global	___lwmod
psect	text923,local,class=CODE,delta=2
global __ptext923
__ptext923:

;; *************** function ___lwmod *****************
;; Defined at:
;;		line 5 in file "C:\Program Files\HI-TECH Software\PICC\9.83\sources\lwmod.c"
;; Parameters:    Size  Location     Type
;;  divisor         2   14[BANK0 ] unsigned int 
;;  dividend        2   16[BANK0 ] unsigned int 
;; Auto vars:     Size  Location     Type
;;  counter         1   19[BANK0 ] unsigned char 
;; Return value:  Size  Location     Type
;;                  2   14[BANK0 ] unsigned int 
;; Registers used:
;;		wreg, status,2, status,0
;; Tracked objects:
;;		On entry : 0/0
;;		On exit  : 0/0
;;		Unchanged: 0/0
;; Data sizes:     COMMON   BANK0   BANK1   BANK3   BANK2
;;      Params:         0       4       0       0       0
;;      Locals:         0       1       0       0       0
;;      Temps:          0       1       0       0       0
;;      Totals:         0       6       0       0       0
;;Total ram usage:        6 bytes
;; Hardware stack levels used:    1
;; Hardware stack levels required when called:    3
;; This function calls:
;;		Nothing
;; This function is called by:
;;		_sprintf
;; This function uses a non-reentrant model
;;
psect	text923
	file	"C:\Program Files\HI-TECH Software\PICC\9.83\sources\lwmod.c"
	line	5
	global	__size_of___lwmod
	__size_of___lwmod	equ	__end_of___lwmod-___lwmod
	
___lwmod:	
	opt	stack 1
; Regs used in ___lwmod: [wreg+status,2+status,0]
	line	8
	
l10563:	
	bcf	status, 5	;RP0=0, select bank0
	bcf	status, 6	;RP1=0, select bank0
	movf	(___lwmod@divisor+1),w
	iorwf	(___lwmod@divisor),w
	skipnz
	goto	u4001
	goto	u4000
u4001:
	goto	l10581
u4000:
	line	9
	
l10565:	
	clrf	(___lwmod@counter)
	bsf	status,0
	rlf	(___lwmod@counter),f
	line	10
	goto	l10571
	
l7485:	
	line	11
	
l10567:	
	movlw	01h
	
u4015:
	clrc
	rlf	(___lwmod@divisor),f
	rlf	(___lwmod@divisor+1),f
	addlw	-1
	skipz
	goto	u4015
	line	12
	
l10569:	
	movlw	(01h)
	movwf	(??___lwmod+0)+0
	movf	(??___lwmod+0)+0,w
	addwf	(___lwmod@counter),f
	goto	l10571
	line	13
	
l7484:	
	line	10
	
l10571:	
	btfss	(___lwmod@divisor+1),(15)&7
	goto	u4021
	goto	u4020
u4021:
	goto	l10567
u4020:
	goto	l10573
	
l7486:	
	goto	l10573
	line	14
	
l7487:	
	line	15
	
l10573:	
	movf	(___lwmod@divisor+1),w
	subwf	(___lwmod@dividend+1),w
	skipz
	goto	u4035
	movf	(___lwmod@divisor),w
	subwf	(___lwmod@dividend),w
u4035:
	skipc
	goto	u4031
	goto	u4030
u4031:
	goto	l10577
u4030:
	line	16
	
l10575:	
	movf	(___lwmod@divisor),w
	subwf	(___lwmod@dividend),f
	movf	(___lwmod@divisor+1),w
	skipc
	decf	(___lwmod@dividend+1),f
	subwf	(___lwmod@dividend+1),f
	goto	l10577
	
l7488:	
	line	17
	
l10577:	
	movlw	01h
	
u4045:
	clrc
	rrf	(___lwmod@divisor+1),f
	rrf	(___lwmod@divisor),f
	addlw	-1
	skipz
	goto	u4045
	line	18
	
l10579:	
	movlw	low(01h)
	subwf	(___lwmod@counter),f
	btfss	status,2
	goto	u4051
	goto	u4050
u4051:
	goto	l10573
u4050:
	goto	l10581
	
l7489:	
	goto	l10581
	line	19
	
l7483:	
	line	20
	
l10581:	
	movf	(___lwmod@dividend+1),w
	clrf	(?___lwmod+1)
	addwf	(?___lwmod+1)
	movf	(___lwmod@dividend),w
	clrf	(?___lwmod)
	addwf	(?___lwmod)

	goto	l7490
	
l10583:	
	line	21
	
l7490:	
	return
	opt stack 0
GLOBAL	__end_of___lwmod
	__end_of___lwmod:
;; =============== function ___lwmod ends ============

	signat	___lwmod,8314
	global	___lwdiv
psect	text924,local,class=CODE,delta=2
global __ptext924
__ptext924:

;; *************** function ___lwdiv *****************
;; Defined at:
;;		line 5 in file "C:\Program Files\HI-TECH Software\PICC\9.83\sources\lwdiv.c"
;; Parameters:    Size  Location     Type
;;  divisor         2    6[BANK0 ] unsigned int 
;;  dividend        2    8[BANK0 ] unsigned int 
;; Auto vars:     Size  Location     Type
;;  quotient        2   11[BANK0 ] unsigned int 
;;  counter         1   13[BANK0 ] unsigned char 
;; Return value:  Size  Location     Type
;;                  2    6[BANK0 ] unsigned int 
;; Registers used:
;;		wreg, status,2, status,0
;; Tracked objects:
;;		On entry : 0/0
;;		On exit  : 0/0
;;		Unchanged: 0/0
;; Data sizes:     COMMON   BANK0   BANK1   BANK3   BANK2
;;      Params:         0       4       0       0       0
;;      Locals:         0       3       0       0       0
;;      Temps:          0       1       0       0       0
;;      Totals:         0       8       0       0       0
;;Total ram usage:        8 bytes
;; Hardware stack levels used:    1
;; Hardware stack levels required when called:    3
;; This function calls:
;;		Nothing
;; This function is called by:
;;		_readAvgDistance
;;		_ADCconvert
;;		_sprintf
;; This function uses a non-reentrant model
;;
psect	text924
	file	"C:\Program Files\HI-TECH Software\PICC\9.83\sources\lwdiv.c"
	line	5
	global	__size_of___lwdiv
	__size_of___lwdiv	equ	__end_of___lwdiv-___lwdiv
	
___lwdiv:	
	opt	stack 1
; Regs used in ___lwdiv: [wreg+status,2+status,0]
	line	9
	
l10537:	
	bcf	status, 5	;RP0=0, select bank0
	bcf	status, 6	;RP1=0, select bank0
	clrf	(___lwdiv@quotient)
	clrf	(___lwdiv@quotient+1)
	line	10
	
l10539:	
	movf	(___lwdiv@divisor+1),w
	iorwf	(___lwdiv@divisor),w
	skipnz
	goto	u3931
	goto	u3930
u3931:
	goto	l10559
u3930:
	line	11
	
l10541:	
	clrf	(___lwdiv@counter)
	bsf	status,0
	rlf	(___lwdiv@counter),f
	line	12
	goto	l10547
	
l7475:	
	line	13
	
l10543:	
	movlw	01h
	
u3945:
	clrc
	rlf	(___lwdiv@divisor),f
	rlf	(___lwdiv@divisor+1),f
	addlw	-1
	skipz
	goto	u3945
	line	14
	
l10545:	
	movlw	(01h)
	movwf	(??___lwdiv+0)+0
	movf	(??___lwdiv+0)+0,w
	addwf	(___lwdiv@counter),f
	goto	l10547
	line	15
	
l7474:	
	line	12
	
l10547:	
	btfss	(___lwdiv@divisor+1),(15)&7
	goto	u3951
	goto	u3950
u3951:
	goto	l10543
u3950:
	goto	l10549
	
l7476:	
	goto	l10549
	line	16
	
l7477:	
	line	17
	
l10549:	
	movlw	01h
	
u3965:
	clrc
	rlf	(___lwdiv@quotient),f
	rlf	(___lwdiv@quotient+1),f
	addlw	-1
	skipz
	goto	u3965
	line	18
	movf	(___lwdiv@divisor+1),w
	subwf	(___lwdiv@dividend+1),w
	skipz
	goto	u3975
	movf	(___lwdiv@divisor),w
	subwf	(___lwdiv@dividend),w
u3975:
	skipc
	goto	u3971
	goto	u3970
u3971:
	goto	l10555
u3970:
	line	19
	
l10551:	
	movf	(___lwdiv@divisor),w
	subwf	(___lwdiv@dividend),f
	movf	(___lwdiv@divisor+1),w
	skipc
	decf	(___lwdiv@dividend+1),f
	subwf	(___lwdiv@dividend+1),f
	line	20
	
l10553:	
	bsf	(___lwdiv@quotient)+(0/8),(0)&7
	goto	l10555
	line	21
	
l7478:	
	line	22
	
l10555:	
	movlw	01h
	
u3985:
	clrc
	rrf	(___lwdiv@divisor+1),f
	rrf	(___lwdiv@divisor),f
	addlw	-1
	skipz
	goto	u3985
	line	23
	
l10557:	
	movlw	low(01h)
	subwf	(___lwdiv@counter),f
	btfss	status,2
	goto	u3991
	goto	u3990
u3991:
	goto	l10549
u3990:
	goto	l10559
	
l7479:	
	goto	l10559
	line	24
	
l7473:	
	line	25
	
l10559:	
	movf	(___lwdiv@quotient+1),w
	clrf	(?___lwdiv+1)
	addwf	(?___lwdiv+1)
	movf	(___lwdiv@quotient),w
	clrf	(?___lwdiv)
	addwf	(?___lwdiv)

	goto	l7480
	
l10561:	
	line	26
	
l7480:	
	return
	opt stack 0
GLOBAL	__end_of___lwdiv
	__end_of___lwdiv:
;; =============== function ___lwdiv ends ============

	signat	___lwdiv,8314
	global	___wmul
psect	text925,local,class=CODE,delta=2
global __ptext925
__ptext925:

;; *************** function ___wmul *****************
;; Defined at:
;;		line 3 in file "C:\Program Files\HI-TECH Software\PICC\9.83\sources\wmul.c"
;; Parameters:    Size  Location     Type
;;  multiplier      2    0[BANK0 ] unsigned int 
;;  multiplicand    2    2[BANK0 ] unsigned int 
;; Auto vars:     Size  Location     Type
;;  product         2    4[BANK0 ] unsigned int 
;; Return value:  Size  Location     Type
;;                  2    0[BANK0 ] unsigned int 
;; Registers used:
;;		wreg, status,2, status,0
;; Tracked objects:
;;		On entry : 0/0
;;		On exit  : 0/0
;;		Unchanged: 0/0
;; Data sizes:     COMMON   BANK0   BANK1   BANK3   BANK2
;;      Params:         0       4       0       0       0
;;      Locals:         0       2       0       0       0
;;      Temps:          0       0       0       0       0
;;      Totals:         0       6       0       0       0
;;Total ram usage:        6 bytes
;; Hardware stack levels used:    1
;; Hardware stack levels required when called:    3
;; This function calls:
;;		Nothing
;; This function is called by:
;;		_ADCconvert
;; This function uses a non-reentrant model
;;
psect	text925
	file	"C:\Program Files\HI-TECH Software\PICC\9.83\sources\wmul.c"
	line	3
	global	__size_of___wmul
	__size_of___wmul	equ	__end_of___wmul-___wmul
	
___wmul:	
	opt	stack 1
; Regs used in ___wmul: [wreg+status,2+status,0]
	line	4
	
l10525:	
	bcf	status, 5	;RP0=0, select bank0
	bcf	status, 6	;RP1=0, select bank0
	clrf	(___wmul@product)
	clrf	(___wmul@product+1)
	goto	l10527
	line	6
	
l7467:	
	line	7
	
l10527:	
	btfss	(___wmul@multiplier),(0)&7
	goto	u3891
	goto	u3890
u3891:
	goto	l7468
u3890:
	line	8
	
l10529:	
	movf	(___wmul@multiplicand),w
	addwf	(___wmul@product),f
	skipnc
	incf	(___wmul@product+1),f
	movf	(___wmul@multiplicand+1),w
	addwf	(___wmul@product+1),f
	
l7468:	
	line	9
	movlw	01h
	
u3905:
	clrc
	rlf	(___wmul@multiplicand),f
	rlf	(___wmul@multiplicand+1),f
	addlw	-1
	skipz
	goto	u3905
	line	10
	
l10531:	
	movlw	01h
	
u3915:
	clrc
	rrf	(___wmul@multiplier+1),f
	rrf	(___wmul@multiplier),f
	addlw	-1
	skipz
	goto	u3915
	line	11
	movf	((___wmul@multiplier+1)),w
	iorwf	((___wmul@multiplier)),w
	skipz
	goto	u3921
	goto	u3920
u3921:
	goto	l10527
u3920:
	goto	l10533
	
l7469:	
	line	12
	
l10533:	
	movf	(___wmul@product+1),w
	clrf	(?___wmul+1)
	addwf	(?___wmul+1)
	movf	(___wmul@product),w
	clrf	(?___wmul)
	addwf	(?___wmul)

	goto	l7470
	
l10535:	
	line	13
	
l7470:	
	return
	opt stack 0
GLOBAL	__end_of___wmul
	__end_of___wmul:
;; =============== function ___wmul ends ============

	signat	___wmul,8314
	global	_ser_isrx
psect	text926,local,class=CODE,delta=2
global __ptext926
__ptext926:

;; *************** function _ser_isrx *****************
;; Defined at:
;;		line 45 in file "E:\Aldnoah.Zero\Assignment3\ser.c"
;; Parameters:    Size  Location     Type
;;		None
;; Auto vars:     Size  Location     Type
;;		None
;; Return value:  Size  Location     Type
;;		None               void
;; Registers used:
;;		wreg, status,2, status,0
;; Tracked objects:
;;		On entry : 0/0
;;		On exit  : 0/0
;;		Unchanged: 0/0
;; Data sizes:     COMMON   BANK0   BANK1   BANK3   BANK2
;;      Params:         0       0       0       0       0
;;      Locals:         0       0       0       0       0
;;      Temps:          0       0       0       0       0
;;      Totals:         0       0       0       0       0
;;Total ram usage:        0 bytes
;; Hardware stack levels used:    1
;; Hardware stack levels required when called:    3
;; This function calls:
;;		Nothing
;; This function is called by:
;;		_ser_getch
;; This function uses a non-reentrant model
;;
psect	text926
	file	"E:\Aldnoah.Zero\Assignment3\ser.c"
	line	45
	global	__size_of_ser_isrx
	__size_of_ser_isrx	equ	__end_of_ser_isrx-_ser_isrx
	
_ser_isrx:	
	opt	stack 1
; Regs used in _ser_isrx: [wreg+status,2+status,0]
	line	46
	
l10477:	
;ser.c: 46: if(OERR) {
	bcf	status, 5	;RP0=0, select bank0
	bcf	status, 6	;RP1=0, select bank0
	btfss	(193/8),(193)&7
	goto	u3821
	goto	u3820
u3821:
	goto	l10485
u3820:
	line	47
	
l10479:	
;ser.c: 47: CREN = 0;
	bcf	(196/8),(196)&7
	line	48
;ser.c: 48: CREN = 1;
	bsf	(196/8),(196)&7
	line	49
	
l10481:	
;ser.c: 49: return 0;
	clrc
	
	goto	l6722
	
l10483:	
	goto	l6722
	line	50
	
l6721:	
	line	51
	
l10485:	
;ser.c: 50: }
;ser.c: 51: return (rxiptr!=rxoptr);
	movf	(_rxiptr),w	;volatile
	xorwf	(_rxoptr),w	;volatile
	skipz
	goto	u3831
	goto	u3830
u3831:
	goto	l10489
u3830:
	
l10487:	
	clrc
	
	goto	l6722
	
l10161:	
	
l10489:	
	setc
	
	goto	l6722
	
l10163:	
	goto	l6722
	
l10491:	
	line	52
	
l6722:	
	return
	opt stack 0
GLOBAL	__end_of_ser_isrx
	__end_of_ser_isrx:
;; =============== function _ser_isrx ends ============

	signat	_ser_isrx,88
	global	_spi_transfer
psect	text927,local,class=CODE,delta=2
global __ptext927
__ptext927:

;; *************** function _spi_transfer *****************
;; Defined at:
;;		line 34 in file "E:\Aldnoah.Zero\Assignment3\steppermotor.c"
;; Parameters:    Size  Location     Type
;;  data            1    wreg     unsigned char 
;; Auto vars:     Size  Location     Type
;;  data            1    2[BANK0 ] unsigned char 
;;  temp            1    1[BANK0 ] unsigned char 
;; Return value:  Size  Location     Type
;;                  1    wreg      unsigned char 
;; Registers used:
;;		wreg
;; Tracked objects:
;;		On entry : 0/0
;;		On exit  : 0/0
;;		Unchanged: 0/0
;; Data sizes:     COMMON   BANK0   BANK1   BANK3   BANK2
;;      Params:         0       0       0       0       0
;;      Locals:         0       2       0       0       0
;;      Temps:          0       1       0       0       0
;;      Totals:         0       3       0       0       0
;;Total ram usage:        3 bytes
;; Hardware stack levels used:    1
;; Hardware stack levels required when called:    3
;; This function calls:
;;		Nothing
;; This function is called by:
;;		_rotate
;; This function uses a non-reentrant model
;;
psect	text927
	file	"E:\Aldnoah.Zero\Assignment3\steppermotor.c"
	line	34
	global	__size_of_spi_transfer
	__size_of_spi_transfer	equ	__end_of_spi_transfer-_spi_transfer
	
_spi_transfer:	
	opt	stack 3
; Regs used in _spi_transfer: [wreg]
;spi_transfer@data stored from wreg
	bcf	status, 5	;RP0=0, select bank0
	bcf	status, 6	;RP1=0, select bank0
	movwf	(spi_transfer@data)
	line	35
	
l10363:	
;steppermotor.c: 35: unsigned char temp = 0;
	clrf	(spi_transfer@temp)
	line	37
;steppermotor.c: 37: SSPIF = 0;
	bcf	(99/8),(99)&7
	line	38
	
l10365:	
;steppermotor.c: 38: SSPBUF = data;
	movf	(spi_transfer@data),w
	movwf	(19)	;volatile
	line	40
;steppermotor.c: 40: while (SSPIF == 0);
	goto	l3699
	
l3700:	
	
l3699:	
	btfss	(99/8),(99)&7
	goto	u3621
	goto	u3620
u3621:
	goto	l3699
u3620:
	goto	l10367
	
l3701:	
	line	41
	
l10367:	
;steppermotor.c: 41: temp = SSPBUF;
	movf	(19),w	;volatile
	movwf	(??_spi_transfer+0)+0
	movf	(??_spi_transfer+0)+0,w
	movwf	(spi_transfer@temp)
	line	42
	
l10369:	
;steppermotor.c: 42: SSPIF = 0;
	bcf	(99/8),(99)&7
	goto	l3702
	line	44
	
l10371:	
	line	45
;steppermotor.c: 44: return temp;
;	Return value of _spi_transfer is never used
	
l3702:	
	return
	opt stack 0
GLOBAL	__end_of_spi_transfer
	__end_of_spi_transfer:
;; =============== function _spi_transfer ends ============

	signat	_spi_transfer,4217
	global	_Menu
psect	text928,local,class=CODE,delta=2
global __ptext928
__ptext928:

;; *************** function _Menu *****************
;; Defined at:
;;		line 181 in file "E:\Aldnoah.Zero\Assignment3\HMI.c"
;; Parameters:    Size  Location     Type
;;  BTN_input       1    wreg     unsigned char 
;; Auto vars:     Size  Location     Type
;;  BTN_input       1    0[BANK0 ] unsigned char 
;; Return value:  Size  Location     Type
;;                  1    wreg      unsigned char 
;; Registers used:
;;		wreg, fsr0l, fsr0h, status,2, status,0
;; Tracked objects:
;;		On entry : 0/0
;;		On exit  : 0/0
;;		Unchanged: 0/0
;; Data sizes:     COMMON   BANK0   BANK1   BANK3   BANK2
;;      Params:         0       0       0       0       0
;;      Locals:         0       1       0       0       0
;;      Temps:          0       0       0       0       0
;;      Totals:         0       1       0       0       0
;;Total ram usage:        1 bytes
;; Hardware stack levels used:    1
;; Hardware stack levels required when called:    3
;; This function calls:
;;		Nothing
;; This function is called by:
;;		_main
;; This function uses a non-reentrant model
;;
psect	text928
	file	"E:\Aldnoah.Zero\Assignment3\HMI.c"
	line	181
	global	__size_of_Menu
	__size_of_Menu	equ	__end_of_Menu-_Menu
	
_Menu:	
	opt	stack 4
; Regs used in _Menu: [wreg-fsr0h+status,2+status,0]
;Menu@BTN_input stored from wreg
	bcf	status, 5	;RP0=0, select bank0
	bcf	status, 6	;RP1=0, select bank0
	movwf	(Menu@BTN_input)
	line	182
	
l10339:	
;HMI.c: 182: switch (BTN_input)
	goto	l10357
	line	184
;HMI.c: 183: {
;HMI.c: 184: case 1:
	
l4527:	
	line	186
;HMI.c: 186: break;
	goto	l10359
	line	187
;HMI.c: 187: case 2:
	
l4529:	
	line	189
;HMI.c: 189: break;
	goto	l10359
	line	190
;HMI.c: 190: case 3:
	
l4530:	
	line	191
	
l10341:	
;HMI.c: 191: pos--;
	movlw	low(-1)
	bsf	status, 5	;RP0=1, select bank1
	bcf	status, 6	;RP1=0, select bank1
	addwf	(_pos)^080h,f
	skipnc
	incf	(_pos+1)^080h,f
	movlw	high(-1)
	addwf	(_pos+1)^080h,f
	line	192
	
l10343:	
;HMI.c: 192: if (pos < 0)
	btfss	(_pos+1)^080h,7
	goto	u3601
	goto	u3600
u3601:
	goto	l10359
u3600:
	line	193
	
l10345:	
;HMI.c: 193: pos = 6 - 1;
	movlw	low(05h)
	movwf	(_pos)^080h
	movlw	high(05h)
	movwf	((_pos)^080h)+1
	goto	l10359
	
l4531:	
	line	195
;HMI.c: 195: break;
	goto	l10359
	line	196
;HMI.c: 196: case 4:
	
l4532:	
	line	197
	
l10347:	
;HMI.c: 197: pos++;
	movlw	low(01h)
	bsf	status, 5	;RP0=1, select bank1
	bcf	status, 6	;RP1=0, select bank1
	addwf	(_pos)^080h,f
	skipnc
	incf	(_pos+1)^080h,f
	movlw	high(01h)
	addwf	(_pos+1)^080h,f
	line	198
;HMI.c: 198: if (pos == 6)
	movlw	06h
	xorwf	(_pos)^080h,w
	iorwf	(_pos+1)^080h,w
	skipz
	goto	u3611
	goto	u3610
u3611:
	goto	l10359
u3610:
	line	199
	
l10349:	
;HMI.c: 199: pos = 0;
	clrf	(_pos)^080h
	clrf	(_pos+1)^080h
	goto	l10359
	
l4533:	
	line	201
;HMI.c: 201: break;
	goto	l10359
	line	202
;HMI.c: 202: case 5:
	
l4534:	
	line	203
	
l10351:	
;HMI.c: 203: return pos;
	bsf	status, 5	;RP0=1, select bank1
	bcf	status, 6	;RP1=0, select bank1
	movf	(_pos)^080h,w
	goto	l4535
	
l10353:	
	goto	l4535
	line	206
;HMI.c: 206: default:
	
l4536:	
	line	208
;HMI.c: 208: break;
	goto	l10359
	line	209
	
l10355:	
;HMI.c: 209: }
	goto	l10359
	line	182
	
l4526:	
	
l10357:	
	bcf	status, 5	;RP0=0, select bank0
	movf	(Menu@BTN_input),w
	; Switch size 1, requested type "space"
; Number of cases is 5, Range of values is 1 to 5
; switch strategies available:
; Name         Instructions Cycles
; simple_byte           16     9 (average)
; direct_byte           26    11 (fixed)
; jumptable            263     9 (fixed)
;	Chosen strategy is simple_byte

	opt asmopt_off
	xorlw	1^0	; case 1
	skipnz
	goto	l10359
	xorlw	2^1	; case 2
	skipnz
	goto	l10359
	xorlw	3^2	; case 3
	skipnz
	goto	l10341
	xorlw	4^3	; case 4
	skipnz
	goto	l10347
	xorlw	5^4	; case 5
	skipnz
	goto	l10351
	goto	l10359
	opt asmopt_on

	line	209
	
l4528:	
	line	210
	
l10359:	
;HMI.c: 210: return 255;
	movlw	(0FFh)
	goto	l4535
	
l10361:	
	line	211
	
l4535:	
	return
	opt stack 0
GLOBAL	__end_of_Menu
	__end_of_Menu:
;; =============== function _Menu ends ============

	signat	_Menu,4217
	global	_ser_putch
psect	text929,local,class=CODE,delta=2
global __ptext929
__ptext929:

;; *************** function _ser_putch *****************
;; Defined at:
;;		line 70 in file "E:\Aldnoah.Zero\Assignment3\ser.c"
;; Parameters:    Size  Location     Type
;;  c               1    wreg     unsigned char 
;; Auto vars:     Size  Location     Type
;;  c               1    1[BANK0 ] unsigned char 
;; Return value:  Size  Location     Type
;;		None               void
;; Registers used:
;;		wreg, fsr0l, fsr0h, status,2, status,0
;; Tracked objects:
;;		On entry : 0/0
;;		On exit  : 0/0
;;		Unchanged: 0/0
;; Data sizes:     COMMON   BANK0   BANK1   BANK3   BANK2
;;      Params:         0       0       0       0       0
;;      Locals:         0       1       0       0       0
;;      Temps:          0       1       0       0       0
;;      Totals:         0       2       0       0       0
;;Total ram usage:        2 bytes
;; Hardware stack levels used:    1
;; Hardware stack levels required when called:    3
;; This function calls:
;;		Nothing
;; This function is called by:
;;		_ChargeMode
;;		_robo_init
;;		_robot_read
;;		_robotMove
;;		_robotTurn
;;		_ser_puts
;;		_ser_puts2
;;		_ser_puthex
;; This function uses a non-reentrant model
;;
psect	text929
	file	"E:\Aldnoah.Zero\Assignment3\ser.c"
	line	70
	global	__size_of_ser_putch
	__size_of_ser_putch	equ	__end_of_ser_putch-_ser_putch
	
_ser_putch:	
	opt	stack 3
; Regs used in _ser_putch: [wreg-fsr0h+status,2+status,0]
;ser_putch@c stored from wreg
	bcf	status, 5	;RP0=0, select bank0
	bcf	status, 6	;RP1=0, select bank0
	movwf	(ser_putch@c)
	line	71
	
l10327:	
;ser.c: 71: while (((txiptr+1) & (16-1))==txoptr)
	goto	l10329
	
l6732:	
	line	72
;ser.c: 72: continue;
	goto	l10329
	
l6731:	
	line	71
	
l10329:	
	movf	(_txiptr),w	;volatile
	addlw	01h
	andlw	0Fh
	xorwf	(_txoptr),w	;volatile
	skipnz
	goto	u3591
	goto	u3590
u3591:
	goto	l10329
u3590:
	
l6733:	
	line	73
;ser.c: 73: GIE=0;
	bcf	(95/8),(95)&7
	line	74
	
l10331:	
;ser.c: 74: txfifo[txiptr] = c;
	movf	(ser_putch@c),w
	movwf	(??_ser_putch+0)+0
	movf	(_txiptr),w
	addlw	_txfifo&0ffh
	movwf	fsr0
	movf	(??_ser_putch+0)+0,w
	bcf	status, 7	;select IRP bank1
	movwf	indf
	line	75
	
l10333:	
;ser.c: 75: txiptr=(txiptr+1) & (16-1);
	movf	(_txiptr),w	;volatile
	addlw	01h
	andlw	0Fh
	movwf	(??_ser_putch+0)+0
	movf	(??_ser_putch+0)+0,w
	movwf	(_txiptr)	;volatile
	line	76
	
l10335:	
;ser.c: 76: TXIE=1;
	bsf	status, 5	;RP0=1, select bank1
	bcf	status, 6	;RP1=0, select bank1
	bsf	(1124/8)^080h,(1124)&7
	line	77
	
l10337:	
;ser.c: 77: GIE=1;
	bsf	(95/8),(95)&7
	line	78
	
l6734:	
	return
	opt stack 0
GLOBAL	__end_of_ser_putch
	__end_of_ser_putch:
;; =============== function _ser_putch ends ============

	signat	_ser_putch,4216
	global	_ser_init
psect	text930,local,class=CODE,delta=2
global __ptext930
__ptext930:

;; *************** function _ser_init *****************
;; Defined at:
;;		line 113 in file "E:\Aldnoah.Zero\Assignment3\ser.c"
;; Parameters:    Size  Location     Type
;;		None
;; Auto vars:     Size  Location     Type
;;		None
;; Return value:  Size  Location     Type
;;		None               void
;; Registers used:
;;		wreg, status,2, status,0
;; Tracked objects:
;;		On entry : 0/0
;;		On exit  : 0/0
;;		Unchanged: 0/0
;; Data sizes:     COMMON   BANK0   BANK1   BANK3   BANK2
;;      Params:         0       0       0       0       0
;;      Locals:         0       0       0       0       0
;;      Temps:          0       1       0       0       0
;;      Totals:         0       1       0       0       0
;;Total ram usage:        1 bytes
;; Hardware stack levels used:    1
;; Hardware stack levels required when called:    3
;; This function calls:
;;		Nothing
;; This function is called by:
;;		_init
;; This function uses a non-reentrant model
;;
psect	text930
	file	"E:\Aldnoah.Zero\Assignment3\ser.c"
	line	113
	global	__size_of_ser_init
	__size_of_ser_init	equ	__end_of_ser_init-_ser_init
	
_ser_init:	
	opt	stack 3
; Regs used in _ser_init: [wreg+status,2+status,0]
	line	114
	
l10301:	
;ser.c: 114: TRISC |= 0b10000000;
	bsf	status, 5	;RP0=1, select bank1
	bcf	status, 6	;RP1=0, select bank1
	bsf	(135)^080h+(7/8),(7)&7	;volatile
	line	115
	
l10303:	
;ser.c: 115: TRISC &= 0b10111111;
	movlw	(0BFh)
	bcf	status, 5	;RP0=0, select bank0
	bcf	status, 6	;RP1=0, select bank0
	movwf	(??_ser_init+0)+0
	movf	(??_ser_init+0)+0,w
	bsf	status, 5	;RP0=1, select bank1
	bcf	status, 6	;RP1=0, select bank1
	andwf	(135)^080h,f	;volatile
	line	116
	
l10305:	
;ser.c: 116: BRGH=1;
	bsf	(1218/8)^080h,(1218)&7
	line	118
	
l10307:	
;ser.c: 118: SPBRG=20;
	movlw	(014h)
	movwf	(153)^080h	;volatile
	line	121
	
l10309:	
;ser.c: 121: TX9=0;
	bcf	(1222/8)^080h,(1222)&7
	line	122
	
l10311:	
;ser.c: 122: RX9=0;
	bcf	status, 5	;RP0=0, select bank0
	bcf	status, 6	;RP1=0, select bank0
	bcf	(198/8),(198)&7
	line	124
	
l10313:	
;ser.c: 124: SYNC=0;
	bsf	status, 5	;RP0=1, select bank1
	bcf	status, 6	;RP1=0, select bank1
	bcf	(1220/8)^080h,(1220)&7
	line	125
	
l10315:	
;ser.c: 125: SPEN=1;
	bcf	status, 5	;RP0=0, select bank0
	bcf	status, 6	;RP1=0, select bank0
	bsf	(199/8),(199)&7
	line	126
	
l10317:	
;ser.c: 126: CREN=1;
	bsf	(196/8),(196)&7
	line	127
	
l10319:	
;ser.c: 127: TXIE=0;
	bsf	status, 5	;RP0=1, select bank1
	bcf	status, 6	;RP1=0, select bank1
	bcf	(1124/8)^080h,(1124)&7
	line	128
	
l10321:	
;ser.c: 128: RCIE=1;
	bsf	(1125/8)^080h,(1125)&7
	line	129
	
l10323:	
;ser.c: 129: TXEN=1;
	bsf	(1221/8)^080h,(1221)&7
	line	132
	
l10325:	
;ser.c: 132: rxiptr=rxoptr=txiptr=txoptr=0;
	movlw	(0)
	bcf	status, 5	;RP0=0, select bank0
	bcf	status, 6	;RP1=0, select bank0
	movwf	(_txoptr)	;volatile
	movwf	(_txiptr)	;volatile
	movwf	(_rxoptr)	;volatile
	movwf	(??_ser_init+0)+0
	movf	(??_ser_init+0)+0,w
	movwf	(_rxiptr)	;volatile
	line	133
	
l6756:	
	return
	opt stack 0
GLOBAL	__end_of_ser_init
	__end_of_ser_init:
;; =============== function _ser_init ends ============

	signat	_ser_init,88
	global	_adc_read
psect	text931,local,class=CODE,delta=2
global __ptext931
__ptext931:

;; *************** function _adc_read *****************
;; Defined at:
;;		line 61 in file "E:\Aldnoah.Zero\Assignment3\adc.c"
;; Parameters:    Size  Location     Type
;;		None
;; Auto vars:     Size  Location     Type
;;  adc_value       2    4[BANK0 ] volatile unsigned int 
;; Return value:  Size  Location     Type
;;                  2    0[BANK0 ] unsigned int 
;; Registers used:
;;		wreg, status,2, status,0
;; Tracked objects:
;;		On entry : 0/0
;;		On exit  : 0/0
;;		Unchanged: 0/0
;; Data sizes:     COMMON   BANK0   BANK1   BANK3   BANK2
;;      Params:         0       2       0       0       0
;;      Locals:         0       2       0       0       0
;;      Temps:          0       2       0       0       0
;;      Totals:         0       6       0       0       0
;;Total ram usage:        6 bytes
;; Hardware stack levels used:    1
;; Hardware stack levels required when called:    3
;; This function calls:
;;		Nothing
;; This function is called by:
;;		_adc_read_channel
;; This function uses a non-reentrant model
;;
psect	text931
	file	"E:\Aldnoah.Zero\Assignment3\adc.c"
	line	61
	global	__size_of_adc_read
	__size_of_adc_read	equ	__end_of_adc_read-_adc_read
	
_adc_read:	
	opt	stack 0
; Regs used in _adc_read: [wreg+status,2+status,0]
	line	64
	
l10173:	
;adc.c: 62: volatile unsigned int adc_value;
;adc.c: 64: ADRESH = 0;
	bcf	status, 5	;RP0=0, select bank0
	bcf	status, 6	;RP1=0, select bank0
	clrf	(30)	;volatile
	line	66
	
l10175:	
;adc.c: 66: GO = 1;
	bsf	(250/8),(250)&7
	line	67
;adc.c: 67: while(GO) continue;
	goto	l703
	
l704:	
	
l703:	
	btfsc	(250/8),(250)&7
	goto	u3381
	goto	u3380
u3381:
	goto	l703
u3380:
	
l705:	
	line	68
# 68 "E:\Aldnoah.Zero\Assignment3\adc.c"
nop ;#
	line	69
# 69 "E:\Aldnoah.Zero\Assignment3\adc.c"
nop ;#
	line	70
# 70 "E:\Aldnoah.Zero\Assignment3\adc.c"
nop ;#
psect	text931
	line	73
	
l10177:	
;adc.c: 73: adc_value = ADRESH;
	bcf	status, 5	;RP0=0, select bank0
	bcf	status, 6	;RP1=0, select bank0
	movf	(30),w	;volatile
	movwf	(??_adc_read+0)+0
	clrf	(??_adc_read+0)+0+1
	movf	0+(??_adc_read+0)+0,w
	movwf	(adc_read@adc_value)	;volatile
	movf	1+(??_adc_read+0)+0,w
	movwf	(adc_read@adc_value+1)	;volatile
	line	74
;adc.c: 74: adc_value <<= 1;
	movlw	01h
	
u3395:
	clrc
	rlf	(adc_read@adc_value),f	;volatile
	rlf	(adc_read@adc_value+1),f	;volatile
	addlw	-1
	skipz
	goto	u3395
	line	75
;adc.c: 75: adc_value |= (ADRESL >> 15);
	bsf	status, 5	;RP0=1, select bank1
	bcf	status, 6	;RP1=0, select bank1
	movf	(158)^080h,w	;volatile
	line	78
	
l10179:	
;adc.c: 78: return (adc_value);
	bcf	status, 5	;RP0=0, select bank0
	bcf	status, 6	;RP1=0, select bank0
	movf	(adc_read@adc_value+1),w	;volatile
	clrf	(?_adc_read+1)
	addwf	(?_adc_read+1)
	movf	(adc_read@adc_value),w	;volatile
	clrf	(?_adc_read)
	addwf	(?_adc_read)

	goto	l706
	
l10181:	
	line	79
	
l706:	
	return
	opt stack 0
GLOBAL	__end_of_adc_read
	__end_of_adc_read:
;; =============== function _adc_read ends ============

	signat	_adc_read,90
	global	_isr1
psect	text932,local,class=CODE,delta=2
global __ptext932
__ptext932:

;; *************** function _isr1 *****************
;; Defined at:
;;		line 93 in file "E:\Aldnoah.Zero\Assignment3\Main.c"
;; Parameters:    Size  Location     Type
;;		None
;; Auto vars:     Size  Location     Type
;;		None
;; Return value:  Size  Location     Type
;;		None               void
;; Registers used:
;;		wreg, fsr0l, fsr0h, fsr1l, fsr1h, status,2, status,0, btemp+1, pclath, cstack
;; Tracked objects:
;;		On entry : 0/0
;;		On exit  : 0/0
;;		Unchanged: 0/0
;; Data sizes:     COMMON   BANK0   BANK1   BANK3   BANK2
;;      Params:         0       0       0       0       0
;;      Locals:         0       0       0       0       0
;;      Temps:          5       0       0       0       0
;;      Totals:         5       0       0       0       0
;;Total ram usage:        5 bytes
;; Hardware stack levels used:    1
;; Hardware stack levels required when called:    2
;; This function calls:
;;		i1___lwmod
;;		_ReadButtons
;; This function is called by:
;;		Interrupt level 1
;; This function uses a non-reentrant model
;;
psect	text932
	file	"E:\Aldnoah.Zero\Assignment3\Main.c"
	line	93
	global	__size_of_isr1
	__size_of_isr1	equ	__end_of_isr1-_isr1
	
_isr1:	
	opt	stack 0
; Regs used in _isr1: [allreg]
psect	intentry,class=CODE,delta=2
global __pintentry
__pintentry:
global interrupt_function
interrupt_function:
	global saved_w
	saved_w	set	btemp+0
	movwf	saved_w
	swapf	status,w
	movwf	(??_isr1+1)
	movf	fsr0,w
	movwf	(??_isr1+2)
	movf	pclath,w
	movwf	(??_isr1+3)
	bcf	status, 5	;RP0=0, select bank0
	bcf	status, 6	;RP1=0, select bank0
	movf	btemp+1,w
	movwf	(??_isr1+4)
	ljmp	_isr1
psect	text932
	line	97
	
i1l10209:	
;Main.c: 97: if(TMR0IF)
	btfss	(90/8),(90)&7
	goto	u343_21
	goto	u343_20
u343_21:
	goto	i1l10239
u343_20:
	line	99
	
i1l10211:	
;Main.c: 98: {
;Main.c: 99: TMR0IF = 0;
	bcf	(90/8),(90)&7
	line	100
	
i1l10213:	
;Main.c: 100: TMR0 = 100;
	movlw	(064h)
	movwf	(1)	;volatile
	line	102
;Main.c: 102: RTC_Counter++;
	movlw	low(01h)
	addwf	(_RTC_Counter),f	;volatile
	skipnc
	incf	(_RTC_Counter+1),f	;volatile
	movlw	high(01h)
	addwf	(_RTC_Counter+1),f	;volatile
	line	104
	
i1l10215:	
;Main.c: 104: RTC_FLAG_1MS = 1;
	bsf	(_RTC_FLAG_1MS/8),(_RTC_FLAG_1MS)&7
	line	105
	
i1l10217:	
;Main.c: 105: if(RTC_Counter % 10 == 0)
	movlw	low(0Ah)
	movwf	(?i1___lwmod)
	movlw	high(0Ah)
	movwf	((?i1___lwmod))+1
	movf	(_RTC_Counter+1),w	;volatile
	clrf	1+(?i1___lwmod)+02h
	addwf	1+(?i1___lwmod)+02h
	movf	(_RTC_Counter),w	;volatile
	clrf	0+(?i1___lwmod)+02h
	addwf	0+(?i1___lwmod)+02h

	fcall	i1___lwmod
	movf	((1+(?i1___lwmod))),w
	iorwf	((0+(?i1___lwmod))),w
	skipz
	goto	u344_21
	goto	u344_20
u344_21:
	goto	i1l10221
u344_20:
	line	107
	
i1l10219:	
;Main.c: 106: {
;Main.c: 107: RTC_FLAG_10MS = 1;
	bsf	(_RTC_FLAG_10MS/8),(_RTC_FLAG_10MS)&7
	goto	i1l10221
	line	110
	
i1l2207:	
	line	111
	
i1l10221:	
;Main.c: 110: }
;Main.c: 111: if(RTC_Counter % 50 == 0) RTC_FLAG_50MS = 1;
	movlw	low(032h)
	movwf	(?i1___lwmod)
	movlw	high(032h)
	movwf	((?i1___lwmod))+1
	bcf	status, 5	;RP0=0, select bank0
	bcf	status, 6	;RP1=0, select bank0
	movf	(_RTC_Counter+1),w	;volatile
	clrf	1+(?i1___lwmod)+02h
	addwf	1+(?i1___lwmod)+02h
	movf	(_RTC_Counter),w	;volatile
	clrf	0+(?i1___lwmod)+02h
	addwf	0+(?i1___lwmod)+02h

	fcall	i1___lwmod
	movf	((1+(?i1___lwmod))),w
	iorwf	((0+(?i1___lwmod))),w
	skipz
	goto	u345_21
	goto	u345_20
u345_21:
	goto	i1l10225
u345_20:
	
i1l10223:	
	bsf	(_RTC_FLAG_50MS/8),(_RTC_FLAG_50MS)&7
	goto	i1l10225
	
i1l2208:	
	line	112
	
i1l10225:	
;Main.c: 112: if(RTC_Counter % 250 == 0)
	movlw	low(0FAh)
	movwf	(?i1___lwmod)
	movlw	high(0FAh)
	movwf	((?i1___lwmod))+1
	bcf	status, 5	;RP0=0, select bank0
	bcf	status, 6	;RP1=0, select bank0
	movf	(_RTC_Counter+1),w	;volatile
	clrf	1+(?i1___lwmod)+02h
	addwf	1+(?i1___lwmod)+02h
	movf	(_RTC_Counter),w	;volatile
	clrf	0+(?i1___lwmod)+02h
	addwf	0+(?i1___lwmod)+02h

	fcall	i1___lwmod
	movf	((1+(?i1___lwmod))),w
	iorwf	((0+(?i1___lwmod))),w
	skipz
	goto	u346_21
	goto	u346_20
u346_21:
	goto	i1l10229
u346_20:
	line	115
	
i1l10227:	
;Main.c: 113: {
;Main.c: 115: RTC_FLAG_250MS = 1;
	bsf	(_RTC_FLAG_250MS/8),(_RTC_FLAG_250MS)&7
	goto	i1l10229
	line	117
	
i1l2209:	
	line	118
	
i1l10229:	
;Main.c: 117: }
;Main.c: 118: if(RTC_Counter % 500 == 0)
	movlw	low(01F4h)
	movwf	(?i1___lwmod)
	movlw	high(01F4h)
	movwf	((?i1___lwmod))+1
	bcf	status, 5	;RP0=0, select bank0
	bcf	status, 6	;RP1=0, select bank0
	movf	(_RTC_Counter+1),w	;volatile
	clrf	1+(?i1___lwmod)+02h
	addwf	1+(?i1___lwmod)+02h
	movf	(_RTC_Counter),w	;volatile
	clrf	0+(?i1___lwmod)+02h
	addwf	0+(?i1___lwmod)+02h

	fcall	i1___lwmod
	movf	((1+(?i1___lwmod))),w
	iorwf	((0+(?i1___lwmod))),w
	skipz
	goto	u347_21
	goto	u347_20
u347_21:
	goto	i1l10235
u347_20:
	line	120
	
i1l10231:	
;Main.c: 119: {
;Main.c: 120: RTC_FLAG_500MS = 1;
	bsf	(_RTC_FLAG_500MS/8),(_RTC_FLAG_500MS)&7
	line	121
	
i1l10233:	
;Main.c: 121: RB0 ^= 0x01;
	bcf	status, 5	;RP0=0, select bank0
	bcf	status, 6	;RP1=0, select bank0
	movlw	1<<((48)&7)
	xorwf	((48)/8),f
	goto	i1l10235
	line	123
	
i1l2210:	
	line	124
	
i1l10235:	
;Main.c: 123: }
;Main.c: 124: if (buttonPressed == 0)
	movf	(_buttonPressed),f
	skipz	;volatile
	goto	u348_21
	goto	u348_20
u348_21:
	goto	i1l10239
u348_20:
	line	127
	
i1l10237:	
;Main.c: 125: {
;Main.c: 127: buttonPressed = ReadButtons();
	fcall	_ReadButtons
	movwf	(??_isr1+0)+0
	movf	(??_isr1+0)+0,w
	movwf	(_buttonPressed)	;volatile
	goto	i1l10239
	line	129
	
i1l2211:	
	goto	i1l10239
	line	130
	
i1l2206:	
	line	131
	
i1l10239:	
;Main.c: 129: }
;Main.c: 130: }
;Main.c: 131: if (RCIF) { rxfifo[rxiptr]=RCREG; ser_tmp=(rxiptr+1) & (16-1); if (ser_tmp!=rxoptr) rxiptr=ser_tmp; } if (TXIF && TXIE) { TXREG = txfifo[txoptr]; ++txoptr; txoptr &= (16-1); if (txoptr==txiptr) { TXIE = 0; } };
	bcf	status, 5	;RP0=0, select bank0
	bcf	status, 6	;RP1=0, select bank0
	btfss	(101/8),(101)&7
	goto	u349_21
	goto	u349_20
u349_21:
	goto	i1l10249
u349_20:
	
i1l10241:	
	movf	(26),w	;volatile
	movwf	(??_isr1+0)+0
	movf	(_rxiptr),w
	addlw	_rxfifo&0ffh
	movwf	fsr0
	movf	(??_isr1+0)+0,w
	bcf	status, 7	;select IRP bank1
	movwf	indf
	
i1l10243:	
	movf	(_rxiptr),w	;volatile
	addlw	01h
	andlw	0Fh
	movwf	(??_isr1+0)+0
	movf	(??_isr1+0)+0,w
	bsf	status, 5	;RP0=1, select bank1
	bcf	status, 6	;RP1=0, select bank1
	movwf	(_ser_tmp)^080h
	
i1l10245:	
	movf	(_ser_tmp)^080h,w
	bcf	status, 5	;RP0=0, select bank0
	bcf	status, 6	;RP1=0, select bank0
	xorwf	(_rxoptr),w	;volatile
	skipnz
	goto	u350_21
	goto	u350_20
u350_21:
	goto	i1l10249
u350_20:
	
i1l10247:	
	bsf	status, 5	;RP0=1, select bank1
	bcf	status, 6	;RP1=0, select bank1
	movf	(_ser_tmp)^080h,w
	movwf	(??_isr1+0)+0
	movf	(??_isr1+0)+0,w
	bcf	status, 5	;RP0=0, select bank0
	bcf	status, 6	;RP1=0, select bank0
	movwf	(_rxiptr)	;volatile
	goto	i1l10249
	
i1l2213:	
	goto	i1l10249
	
i1l2212:	
	
i1l10249:	
	btfss	(100/8),(100)&7
	goto	u351_21
	goto	u351_20
u351_21:
	goto	i1l2216
u351_20:
	
i1l10251:	
	bsf	status, 5	;RP0=1, select bank1
	bcf	status, 6	;RP1=0, select bank1
	btfss	(1124/8)^080h,(1124)&7
	goto	u352_21
	goto	u352_20
u352_21:
	goto	i1l2216
u352_20:
	
i1l10253:	
	bcf	status, 5	;RP0=0, select bank0
	bcf	status, 6	;RP1=0, select bank0
	movf	(_txoptr),w
	addlw	_txfifo&0ffh
	movwf	fsr0
	bcf	status, 7	;select IRP bank1
	movf	indf,w
	movwf	(25)	;volatile
	
i1l10255:	
	movlw	(01h)
	movwf	(??_isr1+0)+0
	movf	(??_isr1+0)+0,w
	addwf	(_txoptr),f	;volatile
	
i1l10257:	
	movlw	(0Fh)
	movwf	(??_isr1+0)+0
	movf	(??_isr1+0)+0,w
	andwf	(_txoptr),f	;volatile
	
i1l10259:	
	movf	(_txoptr),w	;volatile
	xorwf	(_txiptr),w	;volatile
	skipz
	goto	u353_21
	goto	u353_20
u353_21:
	goto	i1l2216
u353_20:
	
i1l10261:	
	bsf	status, 5	;RP0=1, select bank1
	bcf	status, 6	;RP1=0, select bank1
	bcf	(1124/8)^080h,(1124)&7
	goto	i1l2216
	
i1l2215:	
	goto	i1l2216
	
i1l2214:	
	line	132
	
i1l2216:	
	movf	(??_isr1+4),w
	bcf	status, 5	;RP0=0, select bank0
	movwf	btemp+1
	movf	(??_isr1+3),w
	movwf	pclath
	movf	(??_isr1+2),w
	movwf	fsr0
	swapf	(??_isr1+1)^0FFFFFF80h,w
	movwf	status
	swapf	saved_w,f
	swapf	saved_w,w
	retfie
	opt stack 0
GLOBAL	__end_of_isr1
	__end_of_isr1:
;; =============== function _isr1 ends ============

	signat	_isr1,88
	global	_ReadButtons
psect	text933,local,class=CODE,delta=2
global __ptext933
__ptext933:

;; *************** function _ReadButtons *****************
;; Defined at:
;;		line 141 in file "E:\Aldnoah.Zero\Assignment3\HMI.c"
;; Parameters:    Size  Location     Type
;;		None
;; Auto vars:     Size  Location     Type
;;		None
;; Return value:  Size  Location     Type
;;                  1    wreg      unsigned char 
;; Registers used:
;;		wreg, status,2, status,0, pclath, cstack
;; Tracked objects:
;;		On entry : 0/0
;;		On exit  : 0/0
;;		Unchanged: 0/0
;; Data sizes:     COMMON   BANK0   BANK1   BANK3   BANK2
;;      Params:         0       0       0       0       0
;;      Locals:         0       0       0       0       0
;;      Temps:          0       0       0       0       0
;;      Totals:         0       0       0       0       0
;;Total ram usage:        0 bytes
;; Hardware stack levels used:    1
;; Hardware stack levels required when called:    1
;; This function calls:
;;		_Debounce
;; This function is called by:
;;		_isr1
;; This function uses a non-reentrant model
;;
psect	text933
	file	"E:\Aldnoah.Zero\Assignment3\HMI.c"
	line	141
	global	__size_of_ReadButtons
	__size_of_ReadButtons	equ	__end_of_ReadButtons-_ReadButtons
	
_ReadButtons:	
	opt	stack 0
; Regs used in _ReadButtons: [wreg+status,2+status,0+pclath+cstack]
	line	143
	
i1l10263:	
;HMI.c: 143: Debounce();
	fcall	_Debounce
	line	145
	
i1l10265:	
;HMI.c: 145: if(UpPressed)
	btfss	(_UpPressed/8),(_UpPressed)&7
	goto	u354_21
	goto	u354_20
u354_21:
	goto	i1l4518
u354_20:
	line	147
	
i1l10267:	
;HMI.c: 146: {
;HMI.c: 147: UpPressed = 0;
	bcf	(_UpPressed/8),(_UpPressed)&7
	line	148
	
i1l10269:	
;HMI.c: 148: return 1;
	movlw	(01h)
	goto	i1l4519
	
i1l10271:	
	goto	i1l4519
	line	150
	
i1l4518:	
	line	152
;HMI.c: 150: }
;HMI.c: 152: if(DownPressed)
	btfss	(_DownPressed/8),(_DownPressed)&7
	goto	u355_21
	goto	u355_20
u355_21:
	goto	i1l4520
u355_20:
	line	154
	
i1l10273:	
;HMI.c: 153: {
;HMI.c: 154: DownPressed = 0;
	bcf	(_DownPressed/8),(_DownPressed)&7
	line	155
	
i1l10275:	
;HMI.c: 155: return 2;
	movlw	(02h)
	goto	i1l4519
	
i1l10277:	
	goto	i1l4519
	line	157
	
i1l4520:	
	line	158
;HMI.c: 157: }
;HMI.c: 158: if(LeftPressed)
	btfss	(_LeftPressed/8),(_LeftPressed)&7
	goto	u356_21
	goto	u356_20
u356_21:
	goto	i1l4521
u356_20:
	line	160
	
i1l10279:	
;HMI.c: 159: {
;HMI.c: 160: LeftPressed = 0;
	bcf	(_LeftPressed/8),(_LeftPressed)&7
	line	161
	
i1l10281:	
;HMI.c: 161: return 3;
	movlw	(03h)
	goto	i1l4519
	
i1l10283:	
	goto	i1l4519
	line	163
	
i1l4521:	
	line	164
;HMI.c: 163: }
;HMI.c: 164: if(RightPressed)
	btfss	(_RightPressed/8),(_RightPressed)&7
	goto	u357_21
	goto	u357_20
u357_21:
	goto	i1l4522
u357_20:
	line	166
	
i1l10285:	
;HMI.c: 165: {
;HMI.c: 166: RightPressed = 0;
	bcf	(_RightPressed/8),(_RightPressed)&7
	line	167
	
i1l10287:	
;HMI.c: 167: return 4;
	movlw	(04h)
	goto	i1l4519
	
i1l10289:	
	goto	i1l4519
	line	169
	
i1l4522:	
	line	171
;HMI.c: 169: }
;HMI.c: 171: if(CenterPressed)
	btfss	(_CenterPressed/8),(_CenterPressed)&7
	goto	u358_21
	goto	u358_20
u358_21:
	goto	i1l10297
u358_20:
	line	173
	
i1l10291:	
;HMI.c: 172: {
;HMI.c: 173: CenterPressed = 0;
	bcf	(_CenterPressed/8),(_CenterPressed)&7
	line	174
	
i1l10293:	
;HMI.c: 174: return 5;
	movlw	(05h)
	goto	i1l4519
	
i1l10295:	
	goto	i1l4519
	line	176
	
i1l4523:	
	line	177
	
i1l10297:	
;HMI.c: 176: }
;HMI.c: 177: return 0;
	movlw	(0)
	goto	i1l4519
	
i1l10299:	
	line	178
	
i1l4519:	
	return
	opt stack 0
GLOBAL	__end_of_ReadButtons
	__end_of_ReadButtons:
;; =============== function _ReadButtons ends ============

	signat	_ReadButtons,89
	global	i1___lwmod
psect	text934,local,class=CODE,delta=2
global __ptext934
__ptext934:

;; *************** function i1___lwmod *****************
;; Defined at:
;;		line 5 in file "C:\Program Files\HI-TECH Software\PICC\9.83\sources\lwmod.c"
;; Parameters:    Size  Location     Type
;;  __lwmod         2    0[COMMON] unsigned int 
;;  __lwmod         2    2[COMMON] unsigned int 
;; Auto vars:     Size  Location     Type
;;  __lwmod         1    5[COMMON] unsigned char 
;; Return value:  Size  Location     Type
;;                  2    0[COMMON] unsigned int 
;; Registers used:
;;		wreg, status,2, status,0
;; Tracked objects:
;;		On entry : 0/0
;;		On exit  : 0/0
;;		Unchanged: 0/0
;; Data sizes:     COMMON   BANK0   BANK1   BANK3   BANK2
;;      Params:         4       0       0       0       0
;;      Locals:         1       0       0       0       0
;;      Temps:          1       0       0       0       0
;;      Totals:         6       0       0       0       0
;;Total ram usage:        6 bytes
;; Hardware stack levels used:    1
;; This function calls:
;;		Nothing
;; This function is called by:
;;		_isr1
;; This function uses a non-reentrant model
;;
psect	text934
	file	"C:\Program Files\HI-TECH Software\PICC\9.83\sources\lwmod.c"
	line	5
	global	__size_ofi1___lwmod
	__size_ofi1___lwmod	equ	__end_ofi1___lwmod-i1___lwmod
	
i1___lwmod:	
	opt	stack 1
; Regs used in i1___lwmod: [wreg+status,2+status,0]
	line	8
	
i1l10619:	
	movf	(i1___lwmod@divisor+1),w
	iorwf	(i1___lwmod@divisor),w
	skipnz
	goto	u415_21
	goto	u415_20
u415_21:
	goto	i1l10637
u415_20:
	line	9
	
i1l10621:	
	clrf	(i1___lwmod@counter)
	bsf	status,0
	rlf	(i1___lwmod@counter),f
	line	10
	goto	i1l10627
	
i1l7485:	
	line	11
	
i1l10623:	
	movlw	01h
	
u416_25:
	clrc
	rlf	(i1___lwmod@divisor),f
	rlf	(i1___lwmod@divisor+1),f
	addlw	-1
	skipz
	goto	u416_25
	line	12
	
i1l10625:	
	movlw	(01h)
	movwf	(??i1___lwmod+0)+0
	movf	(??i1___lwmod+0)+0,w
	addwf	(i1___lwmod@counter),f
	goto	i1l10627
	line	13
	
i1l7484:	
	line	10
	
i1l10627:	
	btfss	(i1___lwmod@divisor+1),(15)&7
	goto	u417_21
	goto	u417_20
u417_21:
	goto	i1l10623
u417_20:
	goto	i1l10629
	
i1l7486:	
	goto	i1l10629
	line	14
	
i1l7487:	
	line	15
	
i1l10629:	
	movf	(i1___lwmod@divisor+1),w
	subwf	(i1___lwmod@dividend+1),w
	skipz
	goto	u418_25
	movf	(i1___lwmod@divisor),w
	subwf	(i1___lwmod@dividend),w
u418_25:
	skipc
	goto	u418_21
	goto	u418_20
u418_21:
	goto	i1l10633
u418_20:
	line	16
	
i1l10631:	
	movf	(i1___lwmod@divisor),w
	subwf	(i1___lwmod@dividend),f
	movf	(i1___lwmod@divisor+1),w
	skipc
	decf	(i1___lwmod@dividend+1),f
	subwf	(i1___lwmod@dividend+1),f
	goto	i1l10633
	
i1l7488:	
	line	17
	
i1l10633:	
	movlw	01h
	
u419_25:
	clrc
	rrf	(i1___lwmod@divisor+1),f
	rrf	(i1___lwmod@divisor),f
	addlw	-1
	skipz
	goto	u419_25
	line	18
	
i1l10635:	
	movlw	low(01h)
	subwf	(i1___lwmod@counter),f
	btfss	status,2
	goto	u420_21
	goto	u420_20
u420_21:
	goto	i1l10629
u420_20:
	goto	i1l10637
	
i1l7489:	
	goto	i1l10637
	line	19
	
i1l7483:	
	line	20
	
i1l10637:	
	movf	(i1___lwmod@dividend+1),w
	clrf	(?i1___lwmod+1)
	addwf	(?i1___lwmod+1)
	movf	(i1___lwmod@dividend),w
	clrf	(?i1___lwmod)
	addwf	(?i1___lwmod)

	goto	i1l7490
	
i1l10639:	
	line	21
	
i1l7490:	
	return
	opt stack 0
GLOBAL	__end_ofi1___lwmod
	__end_ofi1___lwmod:
;; =============== function i1___lwmod ends ============

	signat	i1___lwmod,90
	global	_Debounce
psect	text935,local,class=CODE,delta=2
global __ptext935
__ptext935:

;; *************** function _Debounce *****************
;; Defined at:
;;		line 61 in file "E:\Aldnoah.Zero\Assignment3\HMI.c"
;; Parameters:    Size  Location     Type
;;		None
;; Auto vars:     Size  Location     Type
;;		None
;; Return value:  Size  Location     Type
;;		None               void
;; Registers used:
;;		wreg, status,2, status,0
;; Tracked objects:
;;		On entry : 0/0
;;		On exit  : 0/0
;;		Unchanged: 0/0
;; Data sizes:     COMMON   BANK0   BANK1   BANK3   BANK2
;;      Params:         0       0       0       0       0
;;      Locals:         0       0       0       0       0
;;      Temps:          1       0       0       0       0
;;      Totals:         1       0       0       0       0
;;Total ram usage:        1 bytes
;; Hardware stack levels used:    1
;; This function calls:
;;		Nothing
;; This function is called by:
;;		_ReadButtons
;; This function uses a non-reentrant model
;;
psect	text935
	file	"E:\Aldnoah.Zero\Assignment3\HMI.c"
	line	61
	global	__size_of_Debounce
	__size_of_Debounce	equ	__end_of_Debounce-_Debounce
	
_Debounce:	
	opt	stack 0
; Regs used in _Debounce: [wreg+status,2+status,0]
	line	63
	
i1l10435:	
;HMI.c: 63: if(!RB2)
	bcf	status, 5	;RP0=0, select bank0
	bcf	status, 6	;RP1=0, select bank0
	btfsc	(50/8),(50)&7
	goto	u367_21
	goto	u367_20
u367_21:
	goto	i1l4500
u367_20:
	line	65
	
i1l10437:	
;HMI.c: 64: {
;HMI.c: 65: UpDebounceCount++;
	movlw	(01h)
	movwf	(??_Debounce+0)+0
	movf	(??_Debounce+0)+0,w
	bsf	status, 5	;RP0=1, select bank1
	bcf	status, 6	;RP1=0, select bank1
	addwf	(_UpDebounceCount)^080h,f	;volatile
	line	66
	
i1l10439:	
;HMI.c: 66: if(UpDebounceCount >= 10 & UpReleased)
	movlw	(0Ah)
	subwf	(_UpDebounceCount)^080h,w	;volatile
	skipc
	goto	u368_21
	goto	u368_20
u368_21:
	goto	i1l4502
u368_20:
	
i1l10441:	
	btfss	(_UpReleased/8),(_UpReleased)&7
	goto	u369_21
	goto	u369_20
u369_21:
	goto	i1l4502
u369_20:
	line	68
	
i1l10443:	
;HMI.c: 67: {
;HMI.c: 68: UpPressed = 1;
	bsf	(_UpPressed/8),(_UpPressed)&7
	line	69
;HMI.c: 69: UpReleased = 0;
	bcf	(_UpReleased/8),(_UpReleased)&7
	goto	i1l4502
	line	70
	
i1l4501:	
	line	71
;HMI.c: 70: }
;HMI.c: 71: }
	goto	i1l4502
	line	72
	
i1l4500:	
	line	74
;HMI.c: 72: else
;HMI.c: 73: {
;HMI.c: 74: UpDebounceCount = 0;
	bsf	status, 5	;RP0=1, select bank1
	bcf	status, 6	;RP1=0, select bank1
	clrf	(_UpDebounceCount)^080h	;volatile
	line	75
;HMI.c: 75: UpReleased = 1;
	bsf	(_UpReleased/8),(_UpReleased)&7
	line	76
	
i1l4502:	
	line	79
;HMI.c: 76: }
;HMI.c: 79: if(!RB3)
	bcf	status, 5	;RP0=0, select bank0
	bcf	status, 6	;RP1=0, select bank0
	btfsc	(51/8),(51)&7
	goto	u370_21
	goto	u370_20
u370_21:
	goto	i1l4503
u370_20:
	line	81
	
i1l10445:	
;HMI.c: 80: {
;HMI.c: 81: DownDebounceCount++;
	movlw	(01h)
	movwf	(??_Debounce+0)+0
	movf	(??_Debounce+0)+0,w
	bsf	status, 5	;RP0=1, select bank1
	bcf	status, 6	;RP1=0, select bank1
	addwf	(_DownDebounceCount)^080h,f	;volatile
	line	82
	
i1l10447:	
;HMI.c: 82: if(DownDebounceCount >= 10 & DownReleased)
	movlw	(0Ah)
	subwf	(_DownDebounceCount)^080h,w	;volatile
	skipc
	goto	u371_21
	goto	u371_20
u371_21:
	goto	i1l4505
u371_20:
	
i1l10449:	
	btfss	(_DownReleased/8),(_DownReleased)&7
	goto	u372_21
	goto	u372_20
u372_21:
	goto	i1l4505
u372_20:
	line	84
	
i1l10451:	
;HMI.c: 83: {
;HMI.c: 84: DownPressed = 1;
	bsf	(_DownPressed/8),(_DownPressed)&7
	line	85
;HMI.c: 85: DownReleased = 0;
	bcf	(_DownReleased/8),(_DownReleased)&7
	goto	i1l4505
	line	86
	
i1l4504:	
	line	87
;HMI.c: 86: }
;HMI.c: 87: }
	goto	i1l4505
	line	88
	
i1l4503:	
	line	90
;HMI.c: 88: else
;HMI.c: 89: {
;HMI.c: 90: DownDebounceCount = 0;
	bsf	status, 5	;RP0=1, select bank1
	bcf	status, 6	;RP1=0, select bank1
	clrf	(_DownDebounceCount)^080h	;volatile
	line	91
;HMI.c: 91: DownReleased = 1;
	bsf	(_DownReleased/8),(_DownReleased)&7
	line	92
	
i1l4505:	
	line	94
;HMI.c: 92: }
;HMI.c: 94: if(!RB4)
	bcf	status, 5	;RP0=0, select bank0
	bcf	status, 6	;RP1=0, select bank0
	btfsc	(52/8),(52)&7
	goto	u373_21
	goto	u373_20
u373_21:
	goto	i1l4506
u373_20:
	line	96
	
i1l10453:	
;HMI.c: 95: {
;HMI.c: 96: LeftDebounceCount++;
	movlw	(01h)
	movwf	(??_Debounce+0)+0
	movf	(??_Debounce+0)+0,w
	bsf	status, 5	;RP0=1, select bank1
	bcf	status, 6	;RP1=0, select bank1
	addwf	(_LeftDebounceCount)^080h,f	;volatile
	line	97
	
i1l10455:	
;HMI.c: 97: if(LeftDebounceCount >= 10 & LeftReleased)
	movlw	(0Ah)
	subwf	(_LeftDebounceCount)^080h,w	;volatile
	skipc
	goto	u374_21
	goto	u374_20
u374_21:
	goto	i1l4508
u374_20:
	
i1l10457:	
	btfss	(_LeftReleased/8),(_LeftReleased)&7
	goto	u375_21
	goto	u375_20
u375_21:
	goto	i1l4508
u375_20:
	line	99
	
i1l10459:	
;HMI.c: 98: {
;HMI.c: 99: LeftPressed = 1;
	bsf	(_LeftPressed/8),(_LeftPressed)&7
	line	100
;HMI.c: 100: LeftReleased = 0;
	bcf	(_LeftReleased/8),(_LeftReleased)&7
	goto	i1l4508
	line	101
	
i1l4507:	
	line	102
;HMI.c: 101: }
;HMI.c: 102: }
	goto	i1l4508
	line	103
	
i1l4506:	
	line	105
;HMI.c: 103: else
;HMI.c: 104: {
;HMI.c: 105: LeftDebounceCount = 0;
	bsf	status, 5	;RP0=1, select bank1
	bcf	status, 6	;RP1=0, select bank1
	clrf	(_LeftDebounceCount)^080h	;volatile
	line	106
;HMI.c: 106: LeftReleased = 1;
	bsf	(_LeftReleased/8),(_LeftReleased)&7
	line	107
	
i1l4508:	
	line	109
;HMI.c: 107: }
;HMI.c: 109: if(!RB5)
	bcf	status, 5	;RP0=0, select bank0
	bcf	status, 6	;RP1=0, select bank0
	btfsc	(53/8),(53)&7
	goto	u376_21
	goto	u376_20
u376_21:
	goto	i1l4509
u376_20:
	line	111
	
i1l10461:	
;HMI.c: 110: {
;HMI.c: 111: RightDebounceCount++;
	movlw	(01h)
	movwf	(??_Debounce+0)+0
	movf	(??_Debounce+0)+0,w
	bsf	status, 5	;RP0=1, select bank1
	bcf	status, 6	;RP1=0, select bank1
	addwf	(_RightDebounceCount)^080h,f	;volatile
	line	112
	
i1l10463:	
;HMI.c: 112: if(RightDebounceCount >= 10 & RightReleased)
	movlw	(0Ah)
	subwf	(_RightDebounceCount)^080h,w	;volatile
	skipc
	goto	u377_21
	goto	u377_20
u377_21:
	goto	i1l4511
u377_20:
	
i1l10465:	
	btfss	(_RightReleased/8),(_RightReleased)&7
	goto	u378_21
	goto	u378_20
u378_21:
	goto	i1l4511
u378_20:
	line	114
	
i1l10467:	
;HMI.c: 113: {
;HMI.c: 114: RightPressed = 1;
	bsf	(_RightPressed/8),(_RightPressed)&7
	line	115
;HMI.c: 115: RightReleased = 0;
	bcf	(_RightReleased/8),(_RightReleased)&7
	goto	i1l4511
	line	116
	
i1l4510:	
	line	117
;HMI.c: 116: }
;HMI.c: 117: }
	goto	i1l4511
	line	118
	
i1l4509:	
	line	120
;HMI.c: 118: else
;HMI.c: 119: {
;HMI.c: 120: RightDebounceCount = 0;
	bsf	status, 5	;RP0=1, select bank1
	bcf	status, 6	;RP1=0, select bank1
	clrf	(_RightDebounceCount)^080h	;volatile
	line	121
;HMI.c: 121: RightReleased = 1;
	bsf	(_RightReleased/8),(_RightReleased)&7
	line	122
	
i1l4511:	
	line	124
;HMI.c: 122: }
;HMI.c: 124: if(!RB6)
	bcf	status, 5	;RP0=0, select bank0
	bcf	status, 6	;RP1=0, select bank0
	btfsc	(54/8),(54)&7
	goto	u379_21
	goto	u379_20
u379_21:
	goto	i1l4512
u379_20:
	line	126
	
i1l10469:	
;HMI.c: 125: {
;HMI.c: 126: CenterDebounceCount++;
	movlw	(01h)
	movwf	(??_Debounce+0)+0
	movf	(??_Debounce+0)+0,w
	bsf	status, 5	;RP0=1, select bank1
	bcf	status, 6	;RP1=0, select bank1
	addwf	(_CenterDebounceCount)^080h,f	;volatile
	line	127
	
i1l10471:	
;HMI.c: 127: if(CenterDebounceCount >= 10 & CenterReleased)
	movlw	(0Ah)
	subwf	(_CenterDebounceCount)^080h,w	;volatile
	skipc
	goto	u380_21
	goto	u380_20
u380_21:
	goto	i1l4515
u380_20:
	
i1l10473:	
	btfss	(_CenterReleased/8),(_CenterReleased)&7
	goto	u381_21
	goto	u381_20
u381_21:
	goto	i1l4515
u381_20:
	line	129
	
i1l10475:	
;HMI.c: 128: {
;HMI.c: 129: CenterPressed = 1;
	bsf	(_CenterPressed/8),(_CenterPressed)&7
	line	130
;HMI.c: 130: CenterReleased = 0;
	bcf	(_CenterReleased/8),(_CenterReleased)&7
	goto	i1l4515
	line	131
	
i1l4513:	
	line	132
;HMI.c: 131: }
;HMI.c: 132: }
	goto	i1l4515
	line	133
	
i1l4512:	
	line	135
;HMI.c: 133: else
;HMI.c: 134: {
;HMI.c: 135: CenterDebounceCount = 0;
	bsf	status, 5	;RP0=1, select bank1
	bcf	status, 6	;RP1=0, select bank1
	clrf	(_CenterDebounceCount)^080h	;volatile
	line	136
;HMI.c: 136: CenterReleased = 1;
	bsf	(_CenterReleased/8),(_CenterReleased)&7
	goto	i1l4515
	line	137
	
i1l4514:	
	line	138
	
i1l4515:	
	return
	opt stack 0
GLOBAL	__end_of_Debounce
	__end_of_Debounce:
;; =============== function _Debounce ends ============

	signat	_Debounce,88
psect	text936,local,class=CODE,delta=2
global __ptext936
__ptext936:
	global	btemp
	btemp set 07Eh

	DABS	1,126,2	;btemp
	global	wtemp0
	wtemp0 set btemp
	end
