opt subtitle "HI-TECH Software Omniscient Code Generator (Lite mode) build 10920"

opt pagewidth 120

	opt lm

	processor	16F877A
clrc	macro
	bcf	3,0
	endm
clrz	macro
	bcf	3,2
	endm
setc	macro
	bsf	3,0
	endm
setz	macro
	bsf	3,2
	endm
skipc	macro
	btfss	3,0
	endm
skipz	macro
	btfss	3,2
	endm
skipnc	macro
	btfsc	3,0
	endm
skipnz	macro
	btfsc	3,2
	endm
indf	equ	0
indf0	equ	0
pc	equ	2
pcl	equ	2
status	equ	3
fsr	equ	4
fsr0	equ	4
c	equ	1
z	equ	0
pclath	equ	10
# 52 "E:\Aldnoah.Zero\Assignment3\Main.c"
	psect config,class=CONFIG,delta=2 ;#
# 52 "E:\Aldnoah.Zero\Assignment3\Main.c"
	dw 0xFFFE & 0xFFFB & 0xFFFF & 0xFFBF & 0xFFF7 & 0xFFFF & 0xFF7F & 0xFFFF ;#
	FNCALL	_main,_init
	FNCALL	_main,_robot_read
	FNCALL	_main,_readAvgDistance
	FNCALL	_main,_UpdateDisplay
	FNCALL	_main,_Menu
	FNCALL	_main,_calibrateIR
	FNCALL	_main,_scan360
	FNCALL	_main,_rotate
	FNCALL	_main,_robotMoveSpeed
	FNCALL	_main,_robotTurnSpeed
	FNCALL	_main,___awtoft
	FNCALL	_main,___ftmul
	FNCALL	_main,___fttol
	FNCALL	_main,_robotTurn
	FNCALL	_main,_ChargeMode
	FNCALL	_ChargeMode,_ser_putch
	FNCALL	_ChargeMode,_UpdateDisplay
	FNCALL	_robotTurnSpeed,_robotTurn
	FNCALL	_robotTurnSpeed,_robot_read
	FNCALL	_robotTurnSpeed,_UpdateDisplay
	FNCALL	_robotTurnSpeed,_abs
	FNCALL	_robotMoveSpeed,_RobotDrive
	FNCALL	_robotMoveSpeed,_robot_read
	FNCALL	_robotMoveSpeed,_UpdateDisplay
	FNCALL	_robotMoveSpeed,_abs
	FNCALL	_scan360,_readAvgDistance
	FNCALL	_scan360,_rotate
	FNCALL	_scan360,_UpdateDisplay
	FNCALL	_calibrateIR,_rotate
	FNCALL	_calibrateIR,_UpdateDisplay
	FNCALL	_UpdateDisplay,_lcd_write_control
	FNCALL	_UpdateDisplay,_sprintf
	FNCALL	_UpdateDisplay,_lcd_set_cursor
	FNCALL	_UpdateDisplay,_lcd_write_string
	FNCALL	_UpdateDisplay,___awmod
	FNCALL	_readAvgDistance,_readDistance
	FNCALL	_readAvgDistance,___lwdiv
	FNCALL	_readAvgDistance,_ADCconvert
	FNCALL	_init,_ser_init
	FNCALL	_init,_init_adc
	FNCALL	_init,_lcd_init
	FNCALL	_init,_robo_init
	FNCALL	_readDistance,_adc_read_channel
	FNCALL	_robot_read,_ser_putch
	FNCALL	_robot_read,_ser_getch
	FNCALL	_lcd_init,_lcd_write_control
	FNCALL	_lcd_write_string,_lcd_write_data
	FNCALL	_lcd_set_cursor,_lcd_write_control
	FNCALL	___awtoft,___ftpack
	FNCALL	___ftmul,___ftpack
	FNCALL	_abs,___wmul
	FNCALL	_RobotDrive,_ser_putch
	FNCALL	_ser_getch,_ser_isrx
	FNCALL	_sprintf,___lwdiv
	FNCALL	_sprintf,___lwmod
	FNCALL	_ADCconvert,___wmul
	FNCALL	_ADCconvert,___lwdiv
	FNCALL	_robotTurn,_ser_putch
	FNCALL	_rotate,_spi_transfer
	FNCALL	_robo_init,_ser_putch
	FNCALL	_adc_read_channel,_adc_read
	FNROOT	_main
	FNCALL	_isr1,i1___lwmod
	FNCALL	_isr1,_ReadButtons
	FNCALL	_ReadButtons,_Debounce
	FNCALL	intlevel1,_isr1
	global	intlevel1
	FNROOT	intlevel1
	global	_menuStrings
	global	_shortMenuStrings
	global	_current_step
psect	idataBANK1,class=CODE,space=0,delta=2
global __pidataBANK1
__pidataBANK1:
	file	"E:\Aldnoah.Zero\Assignment3\HMI.c"
	line	49

;initializer for _menuStrings
	retlw	(STR_1-__stringbase)&0ffh
	retlw	(STR_2-__stringbase)&0ffh
	retlw	(STR_3-__stringbase)&0ffh
	retlw	(STR_4-__stringbase)&0ffh
	retlw	(STR_5-__stringbase)&0ffh
	retlw	(STR_6-__stringbase)&0ffh
	line	50

;initializer for _shortMenuStrings
	retlw	(STR_7-__stringbase)&0ffh
	retlw	(STR_8-__stringbase)&0ffh
	retlw	(STR_9-__stringbase)&0ffh
	retlw	(STR_10-__stringbase)&0ffh
	retlw	(STR_11-__stringbase)&0ffh
	retlw	(STR_12-__stringbase)&0ffh
	file	"E:\Aldnoah.Zero\Assignment3\steppermotor.c"
	line	45

;initializer for _current_step
	retlw	03Ch
	global	_dpowers
psect	strings,class=STRING,delta=2
global __pstrings
__pstrings:
;	global	stringdir,stringtab,__stringbase
stringtab:
;	String table - string pointers are 1 byte each
	btfsc	(btemp+1),7
	ljmp	stringcode
	bcf	status,7
	btfsc	(btemp+1),0
	bsf	status,7
	movf	indf,w
	incf fsr
skipnz
incf btemp+1
	return
stringcode:stringdir:
movlw high(stringdir)
movwf pclath
movf fsr,w
incf fsr
	addwf pc
__stringbase:
	retlw	0
psect	strings
	file	"C:\Program Files\HI-TECH Software\PICC\9.83\lib\doprnt.c"
	line	350
_dpowers:
	retlw	01h
	retlw	0

	retlw	0Ah
	retlw	0

	retlw	064h
	retlw	0

	retlw	0E8h
	retlw	03h

	retlw	010h
	retlw	027h

	global	_dpowers
	global	UpdateDisplay@F1242
	global	_txfifo
	global	_buttonPressed
	global	_CenterPressed
	global	_CenterReleased
	global	_DownPressed
	global	_DownReleased
	global	_LeftPressed
	global	_LeftReleased
	global	_RTC_FLAG_1MS
	global	_RTC_FLAG_250MS
	global	_RTC_FLAG_500MS
	global	_RightPressed
	global	_RightReleased
	global	_UpPressed
	global	_UpReleased
	global	_rxfifo
	global	_IRdistance
	global	_RTC_Counter
	global	_TotalDistTravelled
	global	_adcVal
	global	_angleTurned
	global	_distTravelled
	global	_dist_high
	global	_dist_low
	global	_pos
	global	_total
	global	_totalSteps
	global	_AngleHighByte
	global	_AngleLowByte
	global	_BumpSensors
	global	_CenterDebounceCount
	global	_DistHighByte
	global	_DistLowByte
	global	_DownDebounceCount
	global	_LeftDebounceCount
	global	_ROBOTerror
	global	_RightDebounceCount
	global	_UpDebounceCount
	global	_VwallSensor
	global	_currentMenu
	global	_highByte
	global	_lowByte
	global	_rxiptr
	global	_rxoptr
	global	_ser_tmp
	global	_turnhighByte
	global	_turnlowByte
	global	_txiptr
	global	_txoptr
	global	_ADCON0
_ADCON0	set	31
	global	_ADRESH
_ADRESH	set	30
	global	_PORTA
_PORTA	set	5
	global	_PORTD
_PORTD	set	8
	global	_PORTE
_PORTE	set	9
	global	_RCREG
_RCREG	set	26
	global	_SSPBUF
_SSPBUF	set	19
	global	_SSPCON
_SSPCON	set	20
	global	_TMR0
_TMR0	set	1
	global	_TXREG
_TXREG	set	25
	global	AT25256A@CS0
AT25256A@CS0	set	56
	global	AT25256A@CS1
AT25256A@CS1	set	57
	global	_CARRY
_CARRY	set	24
	global	_CHS0
_CHS0	set	251
	global	_CHS1
_CHS1	set	252
	global	_CHS2
_CHS2	set	253
	global	_CREN
_CREN	set	196
	global	_GIE
_GIE	set	95
	global	_GO
_GO	set	250
	global	_OERR
_OERR	set	193
	global	_PEIE
_PEIE	set	94
	global	_RB0
_RB0	set	48
	global	_RB2
_RB2	set	50
	global	_RB3
_RB3	set	51
	global	_RB4
_RB4	set	52
	global	_RB5
_RB5	set	53
	global	_RB6
_RB6	set	54
	global	_RC0
_RC0	set	56
	global	_RC1
_RC1	set	57
	global	_RC2
_RC2	set	58
	global	_RCIF
_RCIF	set	101
	global	_RE0
_RE0	set	72
	global	_RE1
_RE1	set	73
	global	_RE2
_RE2	set	74
	global	_RX9
_RX9	set	198
	global	_SPEN
_SPEN	set	199
	global	_SSPIF
_SSPIF	set	99
	global	_TMR0IE
_TMR0IE	set	93
	global	_TMR0IF
_TMR0IF	set	90
	global	_TXIF
_TXIF	set	100
	global	_ADCON1
_ADCON1	set	159
	global	_ADRESL
_ADRESL	set	158
	global	_OPTION_REG
_OPTION_REG	set	129
	global	_SPBRG
_SPBRG	set	153
	global	_SSPSTAT
_SSPSTAT	set	148
	global	_TRISA
_TRISA	set	133
	global	_TRISB
_TRISB	set	134
	global	_TRISC
_TRISC	set	135
	global	_TRISD
_TRISD	set	136
	global	_TRISE
_TRISE	set	137
	global	_BRGH
_BRGH	set	1218
	global	_RCIE
_RCIE	set	1125
	global	_SYNC
_SYNC	set	1220
	global	_TX9
_TX9	set	1222
	global	_TXEN
_TXEN	set	1221
	global	_TXIE
_TXIE	set	1124
	global	_EEADR
_EEADR	set	269
	global	_EEDATA
_EEDATA	set	268
	global	_EECON1
_EECON1	set	396
	global	_EECON2
_EECON2	set	397
	global	_RD
_RD	set	3168
	global	_WR
_WR	set	3169
	global	_WREN
_WREN	set	3170
	
STR_18:	
	retlw	32	;' '
	retlw	67	;'C'
	retlw	104	;'h'
	retlw	97	;'a'
	retlw	114	;'r'
	retlw	103	;'g'
	retlw	105	;'i'
	retlw	110	;'n'
	retlw	103	;'g'
	retlw	32	;' '
	retlw	77	;'M'
	retlw	111	;'o'
	retlw	100	;'d'
	retlw	101	;'e'
	retlw	32	;' '
	retlw	0
psect	strings
	
STR_14:	
	retlw	90	;'Z'
	retlw	101	;'e'
	retlw	114	;'r'
	retlw	111	;'o'
	retlw	32	;' '
	retlw	83	;'S'
	retlw	116	;'t'
	retlw	101	;'e'
	retlw	112	;'p'
	retlw	95	;'_'
	retlw	77	;'M'
	retlw	111	;'o'
	retlw	116	;'t'
	retlw	111	;'o'
	retlw	114	;'r'
	retlw	0
psect	strings
	
STR_13:	
	retlw	73	;'I'
	retlw	82	;'R'
	retlw	58	;':'
	retlw	37	;'%'
	retlw	100	;'d'
	retlw	99	;'c'
	retlw	109	;'m'
	retlw	32	;' '
	retlw	68	;'D'
	retlw	58	;':'
	retlw	37	;'%'
	retlw	100	;'d'
	retlw	0
psect	strings
	
STR_19:	
	retlw	32	;' '
	retlw	32	;' '
	retlw	69	;'E'
	retlw	88	;'X'
	retlw	73	;'I'
	retlw	84	;'T'
	retlw	32	;' '
	retlw	32	;' '
	retlw	0
psect	strings
	
STR_6:	
	retlw	32	;' '
	retlw	67	;'C'
	retlw	104	;'h'
	retlw	97	;'a'
	retlw	114	;'r'
	retlw	103	;'g'
	retlw	101	;'e'
	retlw	32	;' '
	retlw	0
psect	strings
	
STR_2:	
	retlw	83	;'S'
	retlw	99	;'c'
	retlw	97	;'a'
	retlw	110	;'n'
	retlw	95	;'_'
	retlw	51	;'3'
	retlw	54	;'6'
	retlw	48	;'0'
	retlw	0
psect	strings
	
STR_1:	
	retlw	67	;'C'
	retlw	97	;'a'
	retlw	108	;'l'
	retlw	105	;'i'
	retlw	98	;'b'
	retlw	95	;'_'
	retlw	73	;'I'
	retlw	82	;'R'
	retlw	0
psect	strings
	
STR_5:	
	retlw	70	;'F'
	retlw	108	;'l'
	retlw	119	;'w'
	retlw	95	;'_'
	retlw	87	;'W'
	retlw	97	;'a'
	retlw	108	;'l'
	retlw	108	;'l'
	retlw	0
psect	strings
	
STR_3:	
	retlw	68	;'D'
	retlw	114	;'r'
	retlw	105	;'i'
	retlw	118	;'v'
	retlw	101	;'e'
	retlw	95	;'_'
	retlw	50	;'2'
	retlw	109	;'m'
	retlw	0
psect	strings
	
STR_4:	
	retlw	68	;'D'
	retlw	114	;'r'
	retlw	105	;'i'
	retlw	118	;'v'
	retlw	101	;'e'
	retlw	95	;'_'
	retlw	76	;'L'
	retlw	0
psect	strings
	
STR_16:	
	retlw	67	;'C'
	retlw	79	;'O'
	retlw	78	;'N'
	retlw	70	;'F'
	retlw	73	;'I'
	retlw	82	;'R'
	retlw	77	;'M'
	retlw	0
psect	strings
	
STR_9:	
	retlw	68	;'D'
	retlw	114	;'r'
	retlw	50	;'2'
	retlw	0
psect	strings
	
STR_15:	
	retlw	60	;'<'
	retlw	60	;'<'
	retlw	60	;'<'
	retlw	0
psect	strings
	
STR_17:	
	retlw	62	;'>'
	retlw	62	;'>'
	retlw	62	;'>'
	retlw	0
psect	strings
	
STR_10:	
	retlw	68	;'D'
	retlw	114	;'r'
	retlw	76	;'L'
	retlw	0
psect	strings
	
STR_12:	
	retlw	67	;'C'
	retlw	104	;'h'
	retlw	103	;'g'
	retlw	0
psect	strings
	
STR_7:	
	retlw	67	;'C'
	retlw	97	;'a'
	retlw	108	;'l'
	retlw	0
psect	strings
	
STR_8:	
	retlw	83	;'S'
	retlw	99	;'c'
	retlw	110	;'n'
	retlw	0
psect	strings
	
STR_11:	
	retlw	70	;'F'
	retlw	108	;'l'
	retlw	119	;'w'
	retlw	0
psect	strings
	file	"Assignment3_AldnoahZero.as"
	line	#
psect cinit,class=CODE,delta=2
global start_initialization
start_initialization:

psect	bitbssCOMMON,class=COMMON,bit,space=1
global __pbitbssCOMMON
__pbitbssCOMMON:
_CenterPressed:
       ds      1

_CenterReleased:
       ds      1

_DownPressed:
       ds      1

_DownReleased:
       ds      1

_LeftPressed:
       ds      1

_LeftReleased:
       ds      1

_RTC_FLAG_1MS:
       ds      1

_RTC_FLAG_250MS:
       ds      1

_RTC_FLAG_500MS:
       ds      1

_RightPressed:
       ds      1

_RightReleased:
       ds      1

_UpPressed:
       ds      1

_UpReleased:
       ds      1

psect	bssCOMMON,class=COMMON,space=1
global __pbssCOMMON
__pbssCOMMON:
_buttonPressed:
       ds      1

psect	bssBANK1,class=BANK1,space=1
global __pbssBANK1
__pbssBANK1:
_rxfifo:
       ds      16

_IRdistance:
       ds      2

_RTC_Counter:
       ds      2

_TotalDistTravelled:
       ds      2

_adcVal:
       ds      2

_angleTurned:
       ds      2

_distTravelled:
       ds      2

_dist_high:
       ds      2

_dist_low:
       ds      2

_pos:
       ds      2

_total:
       ds      2

_totalSteps:
       ds      2

_AngleHighByte:
       ds      1

_AngleLowByte:
       ds      1

_BumpSensors:
       ds      1

_CenterDebounceCount:
       ds      1

_DistHighByte:
       ds      1

_DistLowByte:
       ds      1

_DownDebounceCount:
       ds      1

_LeftDebounceCount:
       ds      1

_ROBOTerror:
       ds      1

_RightDebounceCount:
       ds      1

_UpDebounceCount:
       ds      1

_VwallSensor:
       ds      1

_currentMenu:
       ds      1

_highByte:
       ds      1

_lowByte:
       ds      1

_rxiptr:
       ds      1

_rxoptr:
       ds      1

_ser_tmp:
       ds      1

_turnhighByte:
       ds      1

_turnlowByte:
       ds      1

_txiptr:
       ds      1

_txoptr:
       ds      1

psect	dataBANK1,class=BANK1,space=1
global __pdataBANK1
__pdataBANK1:
	file	"E:\Aldnoah.Zero\Assignment3\HMI.c"
	line	49
_menuStrings:
       ds      6

psect	dataBANK1
	file	"E:\Aldnoah.Zero\Assignment3\HMI.c"
	line	50
_shortMenuStrings:
       ds      6

psect	dataBANK1
	file	"E:\Aldnoah.Zero\Assignment3\steppermotor.c"
	line	45
_current_step:
       ds      1

psect	bssBANK3,class=BANK3,space=1
global __pbssBANK3
__pbssBANK3:
UpdateDisplay@F1242:
       ds      16

_txfifo:
       ds      16

psect clrtext,class=CODE,delta=2
global clear_ram
;	Called with FSR containing the base address, and
;	W with the last address+1
clear_ram:
	clrwdt			;clear the watchdog before getting into this loop
clrloop:
	clrf	indf		;clear RAM location pointed to by FSR
	incf	fsr,f		;increment pointer
	xorwf	fsr,w		;XOR with final address
	btfsc	status,2	;have we reached the end yet?
	retlw	0		;all done for this memory range, return
	xorwf	fsr,w		;XOR again to restore value
	goto	clrloop		;do the next byte

; Clear objects allocated to BITCOMMON
psect cinit,class=CODE,delta=2
	clrf	((__pbitbssCOMMON/8)+0)&07Fh
	clrf	((__pbitbssCOMMON/8)+1)&07Fh
; Clear objects allocated to COMMON
psect cinit,class=CODE,delta=2
	clrf	((__pbssCOMMON)+0)&07Fh
; Clear objects allocated to BANK1
psect cinit,class=CODE,delta=2
	bcf	status, 7	;select IRP bank0
	movlw	low(__pbssBANK1)
	movwf	fsr
	movlw	low((__pbssBANK1)+03Ch)
	fcall	clear_ram
; Clear objects allocated to BANK3
psect cinit,class=CODE,delta=2
	bsf	status, 7	;select IRP bank2
	movlw	low(__pbssBANK3)
	movwf	fsr
	movlw	low((__pbssBANK3)+020h)
	fcall	clear_ram
global btemp
psect inittext,class=CODE,delta=2
global init_fetch,btemp
;	Called with low address in FSR and high address in W
init_fetch:
	movf btemp,w
	movwf pclath
	movf btemp+1,w
	movwf pc
global init_ram
;Called with:
;	high address of idata address in btemp 
;	low address of idata address in btemp+1 
;	low address of data in FSR
;	high address + 1 of data in btemp-1
init_ram:
	fcall init_fetch
	movwf indf,f
	incf fsr,f
	movf fsr,w
	xorwf btemp-1,w
	btfsc status,2
	retlw 0
	incf btemp+1,f
	btfsc status,2
	incf btemp,f
	goto init_ram
; Initialize objects allocated to BANK1
psect cinit,class=CODE,delta=2
global init_ram, __pidataBANK1
	bcf	status, 7	;select IRP bank0
	movlw low(__pdataBANK1+13)
	movwf btemp-1,f
	movlw high(__pidataBANK1)
	movwf btemp,f
	movlw low(__pidataBANK1)
	movwf btemp+1,f
	movlw low(__pdataBANK1)
	movwf fsr,f
	fcall init_ram
psect cinit,class=CODE,delta=2
global end_of_initialization

;End of C runtime variable initialization code

end_of_initialization:
clrf status
ljmp _main	;jump to C main() function
psect	cstackCOMMON,class=COMMON,space=1
global __pcstackCOMMON
__pcstackCOMMON:
	global	?_ser_init
?_ser_init:	; 0 bytes @ 0x0
	global	?_robo_init
?_robo_init:	; 0 bytes @ 0x0
	global	?_robot_read
?_robot_read:	; 0 bytes @ 0x0
	global	?_readAvgDistance
?_readAvgDistance:	; 0 bytes @ 0x0
	global	?_UpdateDisplay
?_UpdateDisplay:	; 0 bytes @ 0x0
	global	?_calibrateIR
?_calibrateIR:	; 0 bytes @ 0x0
	global	?_ChargeMode
?_ChargeMode:	; 0 bytes @ 0x0
	global	?_ser_putch
?_ser_putch:	; 0 bytes @ 0x0
	global	?_ADCconvert
?_ADCconvert:	; 0 bytes @ 0x0
	global	?_init_adc
?_init_adc:	; 0 bytes @ 0x0
	global	?_lcd_write_control
?_lcd_write_control:	; 0 bytes @ 0x0
	global	?_lcd_write_data
?_lcd_write_data:	; 0 bytes @ 0x0
	global	?_lcd_set_cursor
?_lcd_set_cursor:	; 0 bytes @ 0x0
	global	?_lcd_init
?_lcd_init:	; 0 bytes @ 0x0
	global	?_isr1
?_isr1:	; 0 bytes @ 0x0
	global	?_init
?_init:	; 0 bytes @ 0x0
	global	?_main
?_main:	; 0 bytes @ 0x0
	global	?_Debounce
?_Debounce:	; 0 bytes @ 0x0
	global	??_Debounce
??_Debounce:	; 0 bytes @ 0x0
	global	?_ser_isrx
?_ser_isrx:	; 1 bit 
	global	?_ReadButtons
?_ReadButtons:	; 1 bytes @ 0x0
	global	?_Menu
?_Menu:	; 1 bytes @ 0x0
	global	?_ser_getch
?_ser_getch:	; 1 bytes @ 0x0
	global	?_adc_read_channel
?_adc_read_channel:	; 1 bytes @ 0x0
	global	?_spi_transfer
?_spi_transfer:	; 1 bytes @ 0x0
	global	?i1___lwmod
?i1___lwmod:	; 2 bytes @ 0x0
	global	i1___lwmod@divisor
i1___lwmod@divisor:	; 2 bytes @ 0x0
	ds	1
	global	??_ReadButtons
??_ReadButtons:	; 0 bytes @ 0x1
	ds	1
	global	i1___lwmod@dividend
i1___lwmod@dividend:	; 2 bytes @ 0x2
	ds	2
	global	??i1___lwmod
??i1___lwmod:	; 0 bytes @ 0x4
	ds	1
	global	i1___lwmod@counter
i1___lwmod@counter:	; 1 bytes @ 0x5
	ds	1
	global	??_isr1
??_isr1:	; 0 bytes @ 0x6
	ds	5
psect	cstackBANK0,class=BANK0,space=1
global __pcstackBANK0
__pcstackBANK0:
	global	??_ser_init
??_ser_init:	; 0 bytes @ 0x0
	global	??_Menu
??_Menu:	; 0 bytes @ 0x0
	global	??_ser_putch
??_ser_putch:	; 0 bytes @ 0x0
	global	??_ser_getch
??_ser_getch:	; 0 bytes @ 0x0
	global	??_init_adc
??_init_adc:	; 0 bytes @ 0x0
	global	??_lcd_write_control
??_lcd_write_control:	; 0 bytes @ 0x0
	global	??_lcd_write_data
??_lcd_write_data:	; 0 bytes @ 0x0
	global	??_spi_transfer
??_spi_transfer:	; 0 bytes @ 0x0
	global	??_ser_isrx
??_ser_isrx:	; 0 bytes @ 0x0
	global	?_adc_read
?_adc_read:	; 2 bytes @ 0x0
	global	?___wmul
?___wmul:	; 2 bytes @ 0x0
	global	?___awmod
?___awmod:	; 2 bytes @ 0x0
	global	?___ftpack
?___ftpack:	; 3 bytes @ 0x0
	global	Menu@BTN_input
Menu@BTN_input:	; 1 bytes @ 0x0
	global	___wmul@multiplier
___wmul@multiplier:	; 2 bytes @ 0x0
	global	___awmod@divisor
___awmod@divisor:	; 2 bytes @ 0x0
	global	___ftpack@arg
___ftpack@arg:	; 3 bytes @ 0x0
	ds	1
	global	spi_transfer@temp
spi_transfer@temp:	; 1 bytes @ 0x1
	global	ser_getch@c
ser_getch@c:	; 1 bytes @ 0x1
	global	ser_putch@c
ser_putch@c:	; 1 bytes @ 0x1
	ds	1
	global	??_adc_read
??_adc_read:	; 0 bytes @ 0x2
	global	??_robo_init
??_robo_init:	; 0 bytes @ 0x2
	global	??_robot_read
??_robot_read:	; 0 bytes @ 0x2
	global	?_robotTurn
?_robotTurn:	; 0 bytes @ 0x2
	global	?_RobotDrive
?_RobotDrive:	; 0 bytes @ 0x2
	global	lcd_write_control@databyte
lcd_write_control@databyte:	; 1 bytes @ 0x2
	global	lcd_write_data@databyte
lcd_write_data@databyte:	; 1 bytes @ 0x2
	global	spi_transfer@data
spi_transfer@data:	; 1 bytes @ 0x2
	global	RobotDrive@speed
RobotDrive@speed:	; 2 bytes @ 0x2
	global	robotTurn@angle
robotTurn@angle:	; 2 bytes @ 0x2
	global	___wmul@multiplicand
___wmul@multiplicand:	; 2 bytes @ 0x2
	global	___awmod@dividend
___awmod@dividend:	; 2 bytes @ 0x2
	ds	1
	global	?_rotate
?_rotate:	; 0 bytes @ 0x3
	global	??_lcd_set_cursor
??_lcd_set_cursor:	; 0 bytes @ 0x3
	global	??_lcd_init
??_lcd_init:	; 0 bytes @ 0x3
	global	??_init
??_init:	; 0 bytes @ 0x3
	global	lcd_set_cursor@address
lcd_set_cursor@address:	; 1 bytes @ 0x3
	global	___ftpack@exp
___ftpack@exp:	; 1 bytes @ 0x3
	global	rotate@numsteps
rotate@numsteps:	; 2 bytes @ 0x3
	ds	1
	global	??_robotTurn
??_robotTurn:	; 0 bytes @ 0x4
	global	??_RobotDrive
??_RobotDrive:	; 0 bytes @ 0x4
	global	??___wmul
??___wmul:	; 0 bytes @ 0x4
	global	??___awmod
??___awmod:	; 0 bytes @ 0x4
	global	robot_read@readType
robot_read@readType:	; 1 bytes @ 0x4
	global	___ftpack@sign
___ftpack@sign:	; 1 bytes @ 0x4
	global	adc_read@adc_value
adc_read@adc_value:	; 2 bytes @ 0x4
	global	___wmul@product
___wmul@product:	; 2 bytes @ 0x4
	ds	1
	global	??___ftpack
??___ftpack:	; 0 bytes @ 0x5
	global	rotate@direction
rotate@direction:	; 1 bytes @ 0x5
	global	RobotDrive@speedlowByte
RobotDrive@speedlowByte:	; 1 bytes @ 0x5
	global	___awmod@counter
___awmod@counter:	; 1 bytes @ 0x5
	ds	1
	global	??_rotate
??_rotate:	; 0 bytes @ 0x6
	global	??_adc_read_channel
??_adc_read_channel:	; 0 bytes @ 0x6
	global	?_abs
?_abs:	; 2 bytes @ 0x6
	global	?___lwdiv
?___lwdiv:	; 2 bytes @ 0x6
	global	RobotDrive@speedhighByte
RobotDrive@speedhighByte:	; 1 bytes @ 0x6
	global	___awmod@sign
___awmod@sign:	; 1 bytes @ 0x6
	global	abs@v
abs@v:	; 2 bytes @ 0x6
	global	___lwdiv@divisor
___lwdiv@divisor:	; 2 bytes @ 0x6
	ds	1
	global	?_lcd_write_string
?_lcd_write_string:	; 0 bytes @ 0x7
	global	adc_read_channel@channel
adc_read_channel@channel:	; 1 bytes @ 0x7
	global	lcd_write_string@s
lcd_write_string@s:	; 2 bytes @ 0x7
	ds	1
	global	??_abs
??_abs:	; 0 bytes @ 0x8
	global	?_readDistance
?_readDistance:	; 2 bytes @ 0x8
	global	?___fttol
?___fttol:	; 4 bytes @ 0x8
	global	rotate@i
rotate@i:	; 2 bytes @ 0x8
	global	___lwdiv@dividend
___lwdiv@dividend:	; 2 bytes @ 0x8
	global	___fttol@f1
___fttol@f1:	; 3 bytes @ 0x8
	ds	1
	global	??_lcd_write_string
??_lcd_write_string:	; 0 bytes @ 0x9
	ds	1
	global	??_readDistance
??_readDistance:	; 0 bytes @ 0xA
	global	??___lwdiv
??___lwdiv:	; 0 bytes @ 0xA
	ds	1
	global	___lwdiv@quotient
___lwdiv@quotient:	; 2 bytes @ 0xB
	ds	1
	global	??___fttol
??___fttol:	; 0 bytes @ 0xC
	global	readDistance@readVal
readDistance@readVal:	; 2 bytes @ 0xC
	ds	1
	global	___lwdiv@counter
___lwdiv@counter:	; 1 bytes @ 0xD
	ds	1
	global	??_ADCconvert
??_ADCconvert:	; 0 bytes @ 0xE
	global	?___lwmod
?___lwmod:	; 2 bytes @ 0xE
	global	___lwmod@divisor
___lwmod@divisor:	; 2 bytes @ 0xE
	ds	2
	global	??_readAvgDistance
??_readAvgDistance:	; 0 bytes @ 0x10
	global	___fttol@sign1
___fttol@sign1:	; 1 bytes @ 0x10
	global	readAvgDistance@fullval
readAvgDistance@fullval:	; 2 bytes @ 0x10
	global	___lwmod@dividend
___lwmod@dividend:	; 2 bytes @ 0x10
	ds	1
	global	___fttol@lval
___fttol@lval:	; 4 bytes @ 0x11
	ds	1
	global	??___lwmod
??___lwmod:	; 0 bytes @ 0x12
	global	readAvgDistance@j
readAvgDistance@j:	; 2 bytes @ 0x12
	ds	1
	global	___lwmod@counter
___lwmod@counter:	; 1 bytes @ 0x13
	ds	1
	global	?_sprintf
?_sprintf:	; 2 bytes @ 0x14
	global	sprintf@f
sprintf@f:	; 1 bytes @ 0x14
	global	readAvgDistance@tempIR
readAvgDistance@tempIR:	; 2 bytes @ 0x14
	ds	1
	global	___fttol@exp1
___fttol@exp1:	; 1 bytes @ 0x15
	ds	1
	global	?___awtoft
?___awtoft:	; 3 bytes @ 0x16
	global	readAvgDistance@i
readAvgDistance@i:	; 2 bytes @ 0x16
	global	___awtoft@c
___awtoft@c:	; 2 bytes @ 0x16
	ds	3
	global	??_sprintf
??_sprintf:	; 0 bytes @ 0x19
	global	??___awtoft
??___awtoft:	; 0 bytes @ 0x19
	ds	2
	global	___awtoft@sign
___awtoft@sign:	; 1 bytes @ 0x1B
	ds	1
	global	?___ftmul
?___ftmul:	; 3 bytes @ 0x1C
	global	sprintf@ap
sprintf@ap:	; 1 bytes @ 0x1C
	global	___ftmul@f1
___ftmul@f1:	; 3 bytes @ 0x1C
	ds	1
	global	sprintf@flag
sprintf@flag:	; 1 bytes @ 0x1D
	ds	1
	global	sprintf@prec
sprintf@prec:	; 1 bytes @ 0x1E
	ds	1
	global	___ftmul@f2
___ftmul@f2:	; 3 bytes @ 0x1F
	global	sprintf@_val
sprintf@_val:	; 4 bytes @ 0x1F
	ds	3
	global	??___ftmul
??___ftmul:	; 0 bytes @ 0x22
	ds	1
	global	sprintf@sp
sprintf@sp:	; 1 bytes @ 0x23
	ds	1
	global	sprintf@c
sprintf@c:	; 1 bytes @ 0x24
	ds	1
	global	??_UpdateDisplay
??_UpdateDisplay:	; 0 bytes @ 0x25
	ds	1
	global	___ftmul@exp
___ftmul@exp:	; 1 bytes @ 0x26
	ds	1
	global	___ftmul@f3_as_product
___ftmul@f3_as_product:	; 3 bytes @ 0x27
	ds	2
	global	UpdateDisplay@LCDOutput
UpdateDisplay@LCDOutput:	; 16 bytes @ 0x29
	ds	1
	global	___ftmul@cntr
___ftmul@cntr:	; 1 bytes @ 0x2A
	ds	1
	global	___ftmul@sign
___ftmul@sign:	; 1 bytes @ 0x2B
	ds	14
	global	??_calibrateIR
??_calibrateIR:	; 0 bytes @ 0x39
	global	?_robotMoveSpeed
?_robotMoveSpeed:	; 0 bytes @ 0x39
	global	?_robotTurnSpeed
?_robotTurnSpeed:	; 0 bytes @ 0x39
	global	??_ChargeMode
??_ChargeMode:	; 0 bytes @ 0x39
	global	?_scan360
?_scan360:	; 2 bytes @ 0x39
	global	robotMoveSpeed@distance
robotMoveSpeed@distance:	; 2 bytes @ 0x39
	global	robotTurnSpeed@angle
robotTurnSpeed@angle:	; 2 bytes @ 0x39
	ds	2
	global	??_scan360
??_scan360:	; 0 bytes @ 0x3B
	global	scan360@lowestVal
scan360@lowestVal:	; 2 bytes @ 0x3B
	global	robotMoveSpeed@speed
robotMoveSpeed@speed:	; 2 bytes @ 0x3B
	global	robotTurnSpeed@speed
robotTurnSpeed@speed:	; 2 bytes @ 0x3B
	ds	2
	global	??_robotMoveSpeed
??_robotMoveSpeed:	; 0 bytes @ 0x3D
	global	??_robotTurnSpeed
??_robotTurnSpeed:	; 0 bytes @ 0x3D
	global	scan360@lowestSteps
scan360@lowestSteps:	; 2 bytes @ 0x3D
	ds	2
	global	scan360@steps
scan360@steps:	; 2 bytes @ 0x3F
	ds	1
	global	robotMoveSpeed@temp1
robotMoveSpeed@temp1:	; 2 bytes @ 0x40
	global	robotTurnSpeed@temp1
robotTurnSpeed@temp1:	; 2 bytes @ 0x40
	ds	2
	global	??_main
??_main:	; 0 bytes @ 0x42
	ds	3
	global	main@direction1
main@direction1:	; 2 bytes @ 0x45
	ds	2
	global	main@RT2A
main@RT2A:	; 2 bytes @ 0x47
	ds	2
	global	main@shortwall
main@shortwall:	; 2 bytes @ 0x49
	ds	2
	global	main@choice
main@choice:	; 1 bytes @ 0x4B
	ds	1
	global	main@shortwall_3022
main@shortwall_3022:	; 2 bytes @ 0x4C
	ds	2
	global	main@RT2P
main@RT2P:	; 2 bytes @ 0x4E
	ds	2
;;Data sizes: Strings 147, constant 10, data 13, bss 93, persistent 0 stack 0
;;Auto spaces:   Size  Autos    Used
;; COMMON          14     11      14
;; BANK0           80     80      80
;; BANK1           80      0      73
;; BANK3           96      0      32
;; BANK2           96      0       0

;;
;; Pointer list with targets:

;; ?i1___lwmod	unsigned int  size(1) Largest target is 0
;;
;; ?___ftpack	float  size(1) Largest target is 2
;;		 -> main@RT2P(BANK0[2]), 
;;
;; ?_abs	int  size(1) Largest target is 0
;;
;; ?___awmod	int  size(1) Largest target is 0
;;
;; ?___wmul	unsigned int  size(1) Largest target is 0
;;
;; ?_readDistance	unsigned int  size(1) Largest target is 0
;;
;; ?___lwdiv	unsigned int  size(1) Largest target is 0
;;
;; ?_scan360	int  size(1) Largest target is 0
;;
;; ?___fttol	long  size(1) Largest target is 0
;;
;; ?___ftmul	float  size(1) Largest target is 0
;;
;; ?___awtoft	float  size(1) Largest target is 0
;;
;; ?___lwmod	unsigned int  size(1) Largest target is 0
;;
;; ?_adc_read	unsigned int  size(1) Largest target is 0
;;
;; sprintf@f	PTR const unsigned char  size(1) Largest target is 13
;;		 -> STR_13(CODE[13]), 
;;
;; sprintf@sp	PTR unsigned char  size(1) Largest target is 16
;;		 -> UpdateDisplay@LCDOutput(BANK0[16]), 
;;
;; ?_sprintf	int  size(1) Largest target is 0
;;
;; sprintf@ap	PTR void [1] size(1) Largest target is 2
;;		 -> ?_sprintf(BANK0[2]), 
;;
;; S8195$_cp	PTR const unsigned char  size(1) Largest target is 0
;;
;; _val._str._cp	PTR const unsigned char  size(1) Largest target is 0
;;
;; shortMenuStrings	PTR const unsigned char [6] size(1) Largest target is 4
;;		 -> STR_12(CODE[4]), STR_11(CODE[4]), STR_10(CODE[4]), STR_9(CODE[4]), 
;;		 -> STR_8(CODE[4]), STR_7(CODE[4]), 
;;
;; menuStrings	PTR const unsigned char [6] size(1) Largest target is 9
;;		 -> STR_6(CODE[9]), STR_5(CODE[9]), STR_4(CODE[8]), STR_3(CODE[9]), 
;;		 -> STR_2(CODE[9]), STR_1(CODE[9]), 
;;
;; lcd_write_string@s	PTR unsigned char  size(2) Largest target is 16
;;		 -> STR_19(CODE[9]), STR_18(CODE[16]), STR_17(CODE[4]), STR_16(CODE[8]), 
;;		 -> STR_15(CODE[4]), STR_14(CODE[16]), UpdateDisplay@LCDOutput(BANK0[16]), STR_12(CODE[4]), 
;;		 -> STR_11(CODE[4]), STR_10(CODE[4]), STR_9(CODE[4]), STR_8(CODE[4]), 
;;		 -> STR_7(CODE[4]), STR_6(CODE[9]), STR_5(CODE[9]), STR_4(CODE[8]), 
;;		 -> STR_3(CODE[9]), STR_2(CODE[9]), STR_1(CODE[9]), 
;;


;;
;; Critical Paths under _main in COMMON
;;
;;   None.
;;
;; Critical Paths under _isr1 in COMMON
;;
;;   _isr1->i1___lwmod
;;   _ReadButtons->_Debounce
;;
;; Critical Paths under _main in BANK0
;;
;;   _main->_robotMoveSpeed
;;   _main->_robotTurnSpeed
;;   _ChargeMode->_UpdateDisplay
;;   _robotTurnSpeed->_UpdateDisplay
;;   _robotMoveSpeed->_UpdateDisplay
;;   _scan360->_UpdateDisplay
;;   _calibrateIR->_UpdateDisplay
;;   _UpdateDisplay->_sprintf
;;   _readAvgDistance->_ADCconvert
;;   _readDistance->_adc_read_channel
;;   _robot_read->_ser_putch
;;   _robot_read->_ser_getch
;;   _lcd_init->_lcd_write_control
;;   _lcd_write_string->___awmod
;;   _lcd_set_cursor->_lcd_write_control
;;   ___awtoft->___fttol
;;   ___ftmul->___awtoft
;;   _abs->___wmul
;;   _RobotDrive->_ser_putch
;;   _sprintf->___lwmod
;;   _ADCconvert->___lwdiv
;;   _robotTurn->_ser_putch
;;   _rotate->_spi_transfer
;;   _robo_init->_ser_putch
;;   _adc_read_channel->_adc_read
;;   ___fttol->___ftpack
;;   ___lwmod->___lwdiv
;;   ___lwdiv->___wmul
;;
;; Critical Paths under _isr1 in BANK0
;;
;;   None.
;;
;; Critical Paths under _main in BANK1
;;
;;   None.
;;
;; Critical Paths under _isr1 in BANK1
;;
;;   None.
;;
;; Critical Paths under _main in BANK3
;;
;;   None.
;;
;; Critical Paths under _isr1 in BANK3
;;
;;   None.
;;
;; Critical Paths under _main in BANK2
;;
;;   None.
;;
;; Critical Paths under _isr1 in BANK2
;;
;;   None.

;;
;;Main: autosize = 0, tempsize = 3, incstack = 0, save=0
;;

;;
;;Call Graph Tables:
;;
;; ---------------------------------------------------------------------------------
;; (Depth) Function   	        Calls       Base Space   Used Autos Params    Refs
;; ---------------------------------------------------------------------------------
;; (0) _main                                                14    14      0   12155
;;                                             66 BANK0     14    14      0
;;                               _init
;;                         _robot_read
;;                    _readAvgDistance
;;                      _UpdateDisplay
;;                               _Menu
;;                        _calibrateIR
;;                            _scan360
;;                             _rotate
;;                     _robotMoveSpeed
;;                     _robotTurnSpeed
;;                           ___awtoft
;;                            ___ftmul
;;                            ___fttol
;;                          _robotTurn
;;                         _ChargeMode
;; ---------------------------------------------------------------------------------
;; (1) _ChargeMode                                           1     1      0    1305
;;                                             57 BANK0      1     1      0
;;                          _ser_putch
;;                      _UpdateDisplay
;; ---------------------------------------------------------------------------------
;; (1) _robotTurnSpeed                                       9     5      4    1710
;;                                             57 BANK0      9     5      4
;;                          _robotTurn
;;                         _robot_read
;;                      _UpdateDisplay
;;                                _abs
;; ---------------------------------------------------------------------------------
;; (1) _robotMoveSpeed                                       9     5      4    1777
;;                                             57 BANK0      9     5      4
;;                         _RobotDrive
;;                         _robot_read
;;                      _UpdateDisplay
;;                                _abs
;; ---------------------------------------------------------------------------------
;; (1) _scan360                                              8     6      2    2122
;;                                             57 BANK0      8     6      2
;;                    _readAvgDistance
;;                             _rotate
;;                      _UpdateDisplay
;; ---------------------------------------------------------------------------------
;; (1) _calibrateIR                                          0     0      0    1381
;;                             _rotate
;;                      _UpdateDisplay
;; ---------------------------------------------------------------------------------
;; (2) _UpdateDisplay                                       20    20      0    1283
;;                                             37 BANK0     20    20      0
;;                  _lcd_write_control
;;                            _sprintf
;;                     _lcd_set_cursor
;;                   _lcd_write_string
;;                            ___awmod
;; ---------------------------------------------------------------------------------
;; (2) _readAvgDistance                                      8     8      0     625
;;                                             16 BANK0      8     8      0
;;                       _readDistance
;;                            ___lwdiv
;;                         _ADCconvert
;; ---------------------------------------------------------------------------------
;; (1) _init                                                 1     1      0      44
;;                                              3 BANK0      1     1      0
;;                           _ser_init
;;                           _init_adc
;;                           _lcd_init
;;                          _robo_init
;; ---------------------------------------------------------------------------------
;; (3) _readDistance                                         6     4      2      69
;;                                              8 BANK0      6     4      2
;;                   _adc_read_channel
;; ---------------------------------------------------------------------------------
;; (2) _robot_read                                           3     3      0     111
;;                                              2 BANK0      3     3      0
;;                          _ser_putch
;;                          _ser_getch
;; ---------------------------------------------------------------------------------
;; (2) _lcd_init                                             0     0      0      22
;;                  _lcd_write_control
;; ---------------------------------------------------------------------------------
;; (3) _lcd_write_string                                     2     0      2      67
;;                                              7 BANK0      2     0      2
;;                     _lcd_write_data
;;                            ___awmod (ARG)
;; ---------------------------------------------------------------------------------
;; (3) _lcd_set_cursor                                       1     1      0      45
;;                                              3 BANK0      1     1      0
;;                  _lcd_write_control
;; ---------------------------------------------------------------------------------
;; (1) ___awtoft                                             6     3      3     300
;;                                             22 BANK0      6     3      3
;;                           ___ftpack
;;                            ___fttol (ARG)
;; ---------------------------------------------------------------------------------
;; (1) ___ftmul                                             16    10      6     535
;;                                             28 BANK0     16    10      6
;;                           ___ftpack
;;                           ___awtoft (ARG)
;;                            ___fttol (ARG)
;; ---------------------------------------------------------------------------------
;; (2) _abs                                                  4     2      2     158
;;                                              6 BANK0      4     2      2
;;                             ___wmul
;; ---------------------------------------------------------------------------------
;; (2) _RobotDrive                                           5     3      2     112
;;                                              2 BANK0      5     3      2
;;                          _ser_putch
;; ---------------------------------------------------------------------------------
;; (3) _ser_getch                                            2     2      0      23
;;                                              0 BANK0      2     2      0
;;                           _ser_isrx
;; ---------------------------------------------------------------------------------
;; (3) _sprintf                                             17    12      5     798
;;                                             20 BANK0     17    12      5
;;                            ___lwdiv
;;                            ___lwmod
;; ---------------------------------------------------------------------------------
;; (3) _ADCconvert                                           2     2      0     254
;;                                             14 BANK0      2     2      0
;;                             ___wmul
;;                            ___lwdiv
;; ---------------------------------------------------------------------------------
;; (1) _robotTurn                                            2     0      2      66
;;                                              2 BANK0      2     0      2
;;                          _ser_putch
;; ---------------------------------------------------------------------------------
;; (1) _rotate                                               7     4      3      98
;;                                              3 BANK0      7     4      3
;;                       _spi_transfer
;; ---------------------------------------------------------------------------------
;; (2) _robo_init                                            0     0      0      22
;;                          _ser_putch
;; ---------------------------------------------------------------------------------
;; (4) _lcd_write_data                                       3     3      0      22
;;                                              0 BANK0      3     3      0
;; ---------------------------------------------------------------------------------
;; (4) _lcd_write_control                                    3     3      0      22
;;                                              0 BANK0      3     3      0
;; ---------------------------------------------------------------------------------
;; (2) _init_adc                                             1     1      0       0
;;                                              0 BANK0      1     1      0
;; ---------------------------------------------------------------------------------
;; (4) _adc_read_channel                                     2     2      0      46
;;                                              6 BANK0      2     2      0
;;                           _adc_read
;; ---------------------------------------------------------------------------------
;; (3) ___awmod                                              7     3      4     296
;;                                              0 BANK0      7     3      4
;; ---------------------------------------------------------------------------------
;; (1) ___fttol                                             14    10      4     252
;;                                              8 BANK0     14    10      4
;;                           ___ftpack (ARG)
;; ---------------------------------------------------------------------------------
;; (2) ___ftpack                                             8     3      5     209
;;                                              0 BANK0      8     3      5
;; ---------------------------------------------------------------------------------
;; (4) ___lwmod                                              6     2      4     159
;;                                             14 BANK0      6     2      4
;;                            ___lwdiv (ARG)
;; ---------------------------------------------------------------------------------
;; (4) ___lwdiv                                              8     4      4     162
;;                                              6 BANK0      8     4      4
;;                             ___wmul (ARG)
;; ---------------------------------------------------------------------------------
;; (3) ___wmul                                               6     2      4      92
;;                                              0 BANK0      6     2      4
;; ---------------------------------------------------------------------------------
;; (4) _ser_isrx                                             0     0      0       0
;; ---------------------------------------------------------------------------------
;; (2) _spi_transfer                                         3     3      0      30
;;                                              0 BANK0      3     3      0
;; ---------------------------------------------------------------------------------
;; (2) _ser_putch                                            2     2      0      22
;;                                              0 BANK0      2     2      0
;; ---------------------------------------------------------------------------------
;; (1) _Menu                                                 1     1      0      22
;;                                              0 BANK0      1     1      0
;; ---------------------------------------------------------------------------------
;; (2) _ser_init                                             1     1      0       0
;;                                              0 BANK0      1     1      0
;; ---------------------------------------------------------------------------------
;; (5) _adc_read                                             6     4      2      24
;;                                              0 BANK0      6     4      2
;; ---------------------------------------------------------------------------------
;; Estimated maximum stack depth 5
;; ---------------------------------------------------------------------------------
;; (Depth) Function   	        Calls       Base Space   Used Autos Params    Refs
;; ---------------------------------------------------------------------------------
;; (6) _isr1                                                 5     5      0     521
;;                                              6 COMMON     5     5      0
;;                          i1___lwmod
;;                        _ReadButtons
;; ---------------------------------------------------------------------------------
;; (7) _ReadButtons                                          0     0      0       0
;;                           _Debounce
;; ---------------------------------------------------------------------------------
;; (7) i1___lwmod                                            6     2      4     521
;;                                              0 COMMON     6     2      4
;; ---------------------------------------------------------------------------------
;; (8) _Debounce                                             1     1      0       0
;;                                              0 COMMON     1     1      0
;; ---------------------------------------------------------------------------------
;; Estimated maximum stack depth 8
;; ---------------------------------------------------------------------------------

;; Call Graph Graphs:

;; _main (ROOT)
;;   _init
;;     _ser_init
;;     _init_adc
;;     _lcd_init
;;       _lcd_write_control
;;     _robo_init
;;       _ser_putch
;;   _robot_read
;;     _ser_putch
;;     _ser_getch
;;       _ser_isrx
;;   _readAvgDistance
;;     _readDistance
;;       _adc_read_channel
;;         _adc_read
;;     ___lwdiv
;;       ___wmul (ARG)
;;     _ADCconvert
;;       ___wmul
;;       ___lwdiv
;;         ___wmul (ARG)
;;   _UpdateDisplay
;;     _lcd_write_control
;;     _sprintf
;;       ___lwdiv
;;         ___wmul (ARG)
;;       ___lwmod
;;         ___lwdiv (ARG)
;;           ___wmul (ARG)
;;     _lcd_set_cursor
;;       _lcd_write_control
;;     _lcd_write_string
;;       _lcd_write_data
;;       ___awmod (ARG)
;;     ___awmod
;;   _Menu
;;   _calibrateIR
;;     _rotate
;;       _spi_transfer
;;     _UpdateDisplay
;;       _lcd_write_control
;;       _sprintf
;;         ___lwdiv
;;           ___wmul (ARG)
;;         ___lwmod
;;           ___lwdiv (ARG)
;;             ___wmul (ARG)
;;       _lcd_set_cursor
;;         _lcd_write_control
;;       _lcd_write_string
;;         _lcd_write_data
;;         ___awmod (ARG)
;;       ___awmod
;;   _scan360
;;     _readAvgDistance
;;       _readDistance
;;         _adc_read_channel
;;           _adc_read
;;       ___lwdiv
;;         ___wmul (ARG)
;;       _ADCconvert
;;         ___wmul
;;         ___lwdiv
;;           ___wmul (ARG)
;;     _rotate
;;       _spi_transfer
;;     _UpdateDisplay
;;       _lcd_write_control
;;       _sprintf
;;         ___lwdiv
;;           ___wmul (ARG)
;;         ___lwmod
;;           ___lwdiv (ARG)
;;             ___wmul (ARG)
;;       _lcd_set_cursor
;;         _lcd_write_control
;;       _lcd_write_string
;;         _lcd_write_data
;;         ___awmod (ARG)
;;       ___awmod
;;   _rotate
;;     _spi_transfer
;;   _robotMoveSpeed
;;     _RobotDrive
;;       _ser_putch
;;     _robot_read
;;       _ser_putch
;;       _ser_getch
;;         _ser_isrx
;;     _UpdateDisplay
;;       _lcd_write_control
;;       _sprintf
;;         ___lwdiv
;;           ___wmul (ARG)
;;         ___lwmod
;;           ___lwdiv (ARG)
;;             ___wmul (ARG)
;;       _lcd_set_cursor
;;         _lcd_write_control
;;       _lcd_write_string
;;         _lcd_write_data
;;         ___awmod (ARG)
;;       ___awmod
;;     _abs
;;       ___wmul
;;   _robotTurnSpeed
;;     _robotTurn
;;       _ser_putch
;;     _robot_read
;;       _ser_putch
;;       _ser_getch
;;         _ser_isrx
;;     _UpdateDisplay
;;       _lcd_write_control
;;       _sprintf
;;         ___lwdiv
;;           ___wmul (ARG)
;;         ___lwmod
;;           ___lwdiv (ARG)
;;             ___wmul (ARG)
;;       _lcd_set_cursor
;;         _lcd_write_control
;;       _lcd_write_string
;;         _lcd_write_data
;;         ___awmod (ARG)
;;       ___awmod
;;     _abs
;;       ___wmul
;;   ___awtoft
;;     ___ftpack
;;     ___fttol (ARG)
;;       ___ftpack (ARG)
;;   ___ftmul
;;     ___ftpack
;;     ___awtoft (ARG)
;;       ___ftpack
;;       ___fttol (ARG)
;;         ___ftpack (ARG)
;;     ___fttol (ARG)
;;       ___ftpack (ARG)
;;   ___fttol
;;     ___ftpack (ARG)
;;   _robotTurn
;;     _ser_putch
;;   _ChargeMode
;;     _ser_putch
;;     _UpdateDisplay
;;       _lcd_write_control
;;       _sprintf
;;         ___lwdiv
;;           ___wmul (ARG)
;;         ___lwmod
;;           ___lwdiv (ARG)
;;             ___wmul (ARG)
;;       _lcd_set_cursor
;;         _lcd_write_control
;;       _lcd_write_string
;;         _lcd_write_data
;;         ___awmod (ARG)
;;       ___awmod
;;
;; _isr1 (ROOT)
;;   i1___lwmod
;;   _ReadButtons
;;     _Debounce
;;

;; Address spaces:

;;Name               Size   Autos  Total    Cost      Usage
;;BANK3               60      0      20       9       33.3%
;;BITBANK3            60      0       0       8        0.0%
;;SFR3                 0      0       0       4        0.0%
;;BITSFR3              0      0       0       4        0.0%
;;BANK2               60      0       0      11        0.0%
;;BITBANK2            60      0       0      10        0.0%
;;SFR2                 0      0       0       5        0.0%
;;BITSFR2              0      0       0       5        0.0%
;;SFR1                 0      0       0       2        0.0%
;;BITSFR1              0      0       0       2        0.0%
;;BANK1               50      0      49       7       91.3%
;;BITBANK1            50      0       0       6        0.0%
;;CODE                 0      0       0       0        0.0%
;;DATA                 0      0      D2      12        0.0%
;;ABS                  0      0      C7       3        0.0%
;;NULL                 0      0       0       0        0.0%
;;STACK                0      0       B       2        0.0%
;;BANK0               50     50      50       5      100.0%
;;BITBANK0            50      0       0       4        0.0%
;;SFR0                 0      0       0       1        0.0%
;;BITSFR0              0      0       0       1        0.0%
;;COMMON               E      B       E       1      100.0%
;;BITCOMMON            E      0       2       0       14.3%
;;EEDATA             100      0       0       0        0.0%

	global	_main
psect	maintext,global,class=CODE,delta=2
global __pmaintext
__pmaintext:

;; *************** function _main *****************
;; Defined at:
;;		line 172 in file "E:\Aldnoah.Zero\Assignment3\Main.c"
;; Parameters:    Size  Location     Type
;;		None
;; Auto vars:     Size  Location     Type
;;  RT2P            2   78[BANK0 ] int 
;;  shortwall       2   76[BANK0 ] int 
;;  RT2A            2   71[BANK0 ] int 
;;  direction1      2   69[BANK0 ] int 
;;  shortwall       2   73[BANK0 ] int 
;;  choice          1   75[BANK0 ] unsigned char 
;; Return value:  Size  Location     Type
;;		None               void
;; Registers used:
;;		wreg, fsr0l, fsr0h, status,2, status,0, btemp+1, pclath, cstack
;; Tracked objects:
;;		On entry : 17F/0
;;		On exit  : 0/0
;;		Unchanged: 0/0
;; Data sizes:     COMMON   BANK0   BANK1   BANK3   BANK2
;;      Params:         0       0       0       0       0
;;      Locals:         0      11       0       0       0
;;      Temps:          0       3       0       0       0
;;      Totals:         0      14       0       0       0
;;Total ram usage:       14 bytes
;; Hardware stack levels required when called:    8
;; This function calls:
;;		_init
;;		_robot_read
;;		_readAvgDistance
;;		_UpdateDisplay
;;		_Menu
;;		_calibrateIR
;;		_scan360
;;		_rotate
;;		_robotMoveSpeed
;;		_robotTurnSpeed
;;		___awtoft
;;		___ftmul
;;		___fttol
;;		_robotTurn
;;		_ChargeMode
;; This function is called by:
;;		Startup code after reset
;; This function uses a non-reentrant model
;;
psect	maintext
	file	"E:\Aldnoah.Zero\Assignment3\Main.c"
	line	172
	global	__size_of_main
	__size_of_main	equ	__end_of_main-_main
	
_main:	
	opt	stack 0
; Regs used in _main: [wreg-fsr0h+status,2+status,0+btemp+1+pclath+cstack]
	line	173
	
l11522:	
;Main.c: 173: unsigned char choice = 255;
	movlw	(0FFh)
	bcf	status, 5	;RP0=0, select bank0
	bcf	status, 6	;RP1=0, select bank0
	movwf	(??_main+0)+0
	movf	(??_main+0)+0,w
	movwf	(main@choice)
	line	174
	
l11524:	
;Main.c: 174: int shortwall = 0;
	clrf	(main@shortwall)
	clrf	(main@shortwall+1)
	line	177
	
l11526:	
;Main.c: 177: init();
	fcall	_init
	goto	l11528
	line	180
;Main.c: 180: while(1)
	
l2230:	
	line	182
	
l11528:	
;Main.c: 181: {
;Main.c: 182: if (RTC_FLAG_250MS == 1)
	btfss	(_RTC_FLAG_250MS/8),(_RTC_FLAG_250MS)&7
	goto	u5561
	goto	u5560
u5561:
	goto	l11538
u5560:
	line	184
	
l11530:	
;Main.c: 183: {
;Main.c: 184: RTC_FLAG_250MS = 0;
	bcf	(_RTC_FLAG_250MS/8),(_RTC_FLAG_250MS)&7
	line	185
	
l11532:	
;Main.c: 185: robot_read(2);
	movlw	(02h)
	fcall	_robot_read
	line	186
	
l11534:	
;Main.c: 186: readAvgDistance();
	fcall	_readAvgDistance
	line	187
	
l11536:	
;Main.c: 187: UpdateDisplay();
	fcall	_UpdateDisplay
	goto	l11538
	line	188
	
l2231:	
	line	189
	
l11538:	
;Main.c: 188: }
;Main.c: 189: if (buttonPressed)
	movf	(_buttonPressed),w	;volatile
	skipz
	goto	u5570
	goto	l11626
u5570:
	line	192
	
l11540:	
;Main.c: 191: {
;Main.c: 192: choice = Menu(buttonPressed);
	movf	(_buttonPressed),w	;volatile
	fcall	_Menu
	bcf	status, 5	;RP0=0, select bank0
	bcf	status, 6	;RP1=0, select bank0
	movwf	(??_main+0)+0
	movf	(??_main+0)+0,w
	movwf	(main@choice)
	line	193
	
l11542:	
;Main.c: 193: buttonPressed = 0;
	clrf	(_buttonPressed)	;volatile
	goto	l11626
	line	194
	
l2232:	
	line	198
;Main.c: 194: }
;Main.c: 198: switch (choice)
	goto	l11626
	line	200
;Main.c: 199: {
;Main.c: 200: case 0:
	
l2234:	
	line	201
	
l11544:	
;Main.c: 201: calibrateIR();
	fcall	_calibrateIR
	line	202
;Main.c: 202: break;
	goto	l11628
	line	203
;Main.c: 203: case 1:
	
l2236:	
	line	204
	
l11546:	
;Main.c: 204: shortwall = scan360() - 13;
	fcall	_scan360
	bcf	status, 5	;RP0=0, select bank0
	bcf	status, 6	;RP1=0, select bank0
	movf	(0+(?_scan360)),w
	addlw	low(-13)
	movwf	(main@shortwall)
	movf	(1+(?_scan360)),w
	skipnc
	addlw	1
	addlw	high(-13)
	movwf	1+(main@shortwall)
	line	205
	
l11548:	
;Main.c: 205: rotate((200 - shortwall), 0);
	comf	(main@shortwall),w
	movwf	(??_main+0)+0
	comf	(main@shortwall+1),w
	movwf	((??_main+0)+0+1)
	incf	(??_main+0)+0,f
	skipnz
	incf	((??_main+0)+0+1),f
	movf	0+(??_main+0)+0,w
	addlw	low(0C8h)
	movwf	(?_rotate)
	movf	1+(??_main+0)+0,w
	skipnc
	addlw	1
	addlw	high(0C8h)
	movwf	1+(?_rotate)
	clrf	0+(?_rotate)+02h
	fcall	_rotate
	line	206
;Main.c: 206: break;
	goto	l11628
	line	207
;Main.c: 207: case 2:
	
l2237:	
	line	209
	
l11550:	
;Main.c: 209: robotMoveSpeed(500, 200);
	movlw	low(01F4h)
	bcf	status, 5	;RP0=0, select bank0
	bcf	status, 6	;RP1=0, select bank0
	movwf	(?_robotMoveSpeed)
	movlw	high(01F4h)
	movwf	((?_robotMoveSpeed))+1
	movlw	low(0C8h)
	movwf	0+(?_robotMoveSpeed)+02h
	movlw	high(0C8h)
	movwf	(0+(?_robotMoveSpeed)+02h)+1
	fcall	_robotMoveSpeed
	line	210
;Main.c: 210: break;
	goto	l11628
	line	211
;Main.c: 211: case 3:
	
l2238:	
	line	212
	
l11552:	
;Main.c: 212: robotTurnSpeed(90, 1);
	movlw	low(05Ah)
	bcf	status, 5	;RP0=0, select bank0
	bcf	status, 6	;RP1=0, select bank0
	movwf	(?_robotTurnSpeed)
	movlw	high(05Ah)
	movwf	((?_robotTurnSpeed))+1
	movlw	low(01h)
	movwf	0+(?_robotTurnSpeed)+02h
	movlw	high(01h)
	movwf	(0+(?_robotTurnSpeed)+02h)+1
	fcall	_robotTurnSpeed
	line	213
;Main.c: 213: break;
	goto	l11628
	line	214
;Main.c: 214: case 4:
	
l2239:	
	line	215
	
l11554:	
;Main.c: 215: TotalDistTravelled = 0;
	bsf	status, 5	;RP0=1, select bank1
	bcf	status, 6	;RP1=0, select bank1
	clrf	(_TotalDistTravelled)^080h
	clrf	(_TotalDistTravelled+1)^080h
	line	216
;Main.c: 216: while(!ROBOTerror)
	goto	l11620
	
l2241:	
	line	218
	
l11556:	
;Main.c: 217: {
;Main.c: 218: int shortwall = scan360();
	fcall	_scan360
	bcf	status, 5	;RP0=0, select bank0
	bcf	status, 6	;RP1=0, select bank0
	movf	(1+(?_scan360)),w
	clrf	(main@shortwall_3022+1)
	addwf	(main@shortwall_3022+1)
	movf	(0+(?_scan360)),w
	clrf	(main@shortwall_3022)
	addwf	(main@shortwall_3022)

	line	219
	
l11558:	
;Main.c: 219: int RT2P = 0;
	clrf	(main@RT2P)
	clrf	(main@RT2P+1)
	line	220
	
l11560:	
;Main.c: 220: int direction1 = 0;
	clrf	(main@direction1)
	clrf	(main@direction1+1)
	line	221
	
l11562:	
;Main.c: 221: if (shortwall > 200)
	movf	(main@shortwall_3022+1),w
	xorlw	80h
	movwf	btemp+1
	movlw	(high(0C9h))^80h
	subwf	btemp+1,w
	skipz
	goto	u5585
	movlw	low(0C9h)
	subwf	(main@shortwall_3022),w
u5585:

	skipc
	goto	u5581
	goto	u5580
u5581:
	goto	l11566
u5580:
	line	222
	
l11564:	
;Main.c: 222: RT2P = shortwall + 100;
	bcf	status, 5	;RP0=0, select bank0
	bcf	status, 6	;RP1=0, select bank0
	movf	(main@shortwall_3022),w
	addlw	low(064h)
	movwf	(main@RT2P)
	movf	(main@shortwall_3022+1),w
	skipnc
	addlw	1
	addlw	high(064h)
	movwf	1+(main@RT2P)
	goto	l11566
	
l2242:	
	line	223
	
l11566:	
;Main.c: 223: if (shortwall < 200)
	bcf	status, 5	;RP0=0, select bank0
	bcf	status, 6	;RP1=0, select bank0
	movf	(main@shortwall_3022+1),w
	xorlw	80h
	movwf	btemp+1
	movlw	(high(0C8h))^80h
	subwf	btemp+1,w
	skipz
	goto	u5595
	movlw	low(0C8h)
	subwf	(main@shortwall_3022),w
u5595:

	skipnc
	goto	u5591
	goto	u5590
u5591:
	goto	l11570
u5590:
	line	224
	
l11568:	
;Main.c: 224: RT2P = shortwall - 100;
	bcf	status, 5	;RP0=0, select bank0
	bcf	status, 6	;RP1=0, select bank0
	movf	(main@shortwall_3022),w
	addlw	low(-100)
	movwf	(main@RT2P)
	movf	(main@shortwall_3022+1),w
	skipnc
	addlw	1
	addlw	high(-100)
	movwf	1+(main@RT2P)
	goto	l11570
	
l2243:	
	line	226
	
l11570:	
;Main.c: 226: if (RT2P >= 400 && RT2P < 500 )
	bcf	status, 5	;RP0=0, select bank0
	bcf	status, 6	;RP1=0, select bank0
	movf	(main@RT2P+1),w
	xorlw	80h
	movwf	btemp+1
	movlw	(high(0190h))^80h
	subwf	btemp+1,w
	skipz
	goto	u5605
	movlw	low(0190h)
	subwf	(main@RT2P),w
u5605:

	skipc
	goto	u5601
	goto	u5600
u5601:
	goto	l11578
u5600:
	
l11572:	
	bcf	status, 5	;RP0=0, select bank0
	bcf	status, 6	;RP1=0, select bank0
	movf	(main@RT2P+1),w
	xorlw	80h
	movwf	btemp+1
	movlw	(high(01F4h))^80h
	subwf	btemp+1,w
	skipz
	goto	u5615
	movlw	low(01F4h)
	subwf	(main@RT2P),w
u5615:

	skipnc
	goto	u5611
	goto	u5610
u5611:
	goto	l11578
u5610:
	line	228
	
l11574:	
;Main.c: 227: {
;Main.c: 228: RT2P = RT2P - 400;
	bcf	status, 5	;RP0=0, select bank0
	bcf	status, 6	;RP1=0, select bank0
	movf	(main@RT2P),w
	addlw	low(-400)
	movwf	(main@RT2P)
	movf	(main@RT2P+1),w
	skipnc
	addlw	1
	addlw	high(-400)
	movwf	1+(main@RT2P)
	line	229
	
l11576:	
;Main.c: 229: direction1 = 1;
	movlw	low(01h)
	movwf	(main@direction1)
	movlw	high(01h)
	movwf	((main@direction1))+1
	goto	l11578
	line	230
	
l2244:	
	line	231
	
l11578:	
;Main.c: 230: }
;Main.c: 231: if (RT2P >= 200 && RT2P < 400)
	bcf	status, 5	;RP0=0, select bank0
	bcf	status, 6	;RP1=0, select bank0
	movf	(main@RT2P+1),w
	xorlw	80h
	movwf	btemp+1
	movlw	(high(0C8h))^80h
	subwf	btemp+1,w
	skipz
	goto	u5625
	movlw	low(0C8h)
	subwf	(main@RT2P),w
u5625:

	skipc
	goto	u5621
	goto	u5620
u5621:
	goto	l11588
u5620:
	
l11580:	
	bcf	status, 5	;RP0=0, select bank0
	bcf	status, 6	;RP1=0, select bank0
	movf	(main@RT2P+1),w
	xorlw	80h
	movwf	btemp+1
	movlw	(high(0190h))^80h
	subwf	btemp+1,w
	skipz
	goto	u5635
	movlw	low(0190h)
	subwf	(main@RT2P),w
u5635:

	skipnc
	goto	u5631
	goto	u5630
u5631:
	goto	l11588
u5630:
	line	233
	
l11582:	
;Main.c: 232: {
;Main.c: 233: RT2P = 400 - RT2P;
	bcf	status, 5	;RP0=0, select bank0
	bcf	status, 6	;RP1=0, select bank0
	comf	(main@RT2P),w
	movwf	(??_main+0)+0
	comf	(main@RT2P+1),w
	movwf	((??_main+0)+0+1)
	incf	(??_main+0)+0,f
	skipnz
	incf	((??_main+0)+0+1),f
	movf	0+(??_main+0)+0,w
	addlw	low(0190h)
	movwf	(main@RT2P)
	movf	1+(??_main+0)+0,w
	skipnc
	addlw	1
	addlw	high(0190h)
	movwf	1+(main@RT2P)
	line	234
	
l11584:	
;Main.c: 234: RT2P = RT2P * -1;
	comf	(main@RT2P),f
	comf	(main@RT2P+1),f
	incf	(main@RT2P),f
	skipnz
	incf	(main@RT2P+1),f
	line	235
	
l11586:	
;Main.c: 235: direction1 = 0;
	clrf	(main@direction1)
	clrf	(main@direction1+1)
	goto	l11588
	line	236
	
l2245:	
	line	237
	
l11588:	
;Main.c: 236: }
;Main.c: 237: if (RT2P < 200 && RT2P >= 0)
	bcf	status, 5	;RP0=0, select bank0
	bcf	status, 6	;RP1=0, select bank0
	movf	(main@RT2P+1),w
	xorlw	80h
	movwf	btemp+1
	movlw	(high(0C8h))^80h
	subwf	btemp+1,w
	skipz
	goto	u5645
	movlw	low(0C8h)
	subwf	(main@RT2P),w
u5645:

	skipnc
	goto	u5641
	goto	u5640
u5641:
	goto	l11594
u5640:
	
l11590:	
	bcf	status, 5	;RP0=0, select bank0
	bcf	status, 6	;RP1=0, select bank0
	btfsc	(main@RT2P+1),7
	goto	u5651
	goto	u5650
u5651:
	goto	l11594
u5650:
	line	239
	
l11592:	
;Main.c: 238: {
;Main.c: 239: direction1 = 1;
	movlw	low(01h)
	movwf	(main@direction1)
	movlw	high(01h)
	movwf	((main@direction1))+1
	goto	l11594
	line	240
	
l2246:	
	line	241
	
l11594:	
;Main.c: 240: }
;Main.c: 241: if (RT2P < 0 && RT2P >= -200)
	bcf	status, 5	;RP0=0, select bank0
	bcf	status, 6	;RP1=0, select bank0
	btfss	(main@RT2P+1),7
	goto	u5661
	goto	u5660
u5661:
	goto	l11600
u5660:
	
l11596:	
	movf	(main@RT2P+1),w
	xorlw	80h
	movwf	btemp+1
	movlw	(high(-200))^80h
	subwf	btemp+1,w
	skipz
	goto	u5675
	movlw	low(-200)
	subwf	(main@RT2P),w
u5675:

	skipc
	goto	u5671
	goto	u5670
u5671:
	goto	l11600
u5670:
	line	243
	
l11598:	
;Main.c: 242: {
;Main.c: 243: direction1 = 0;
	bcf	status, 5	;RP0=0, select bank0
	bcf	status, 6	;RP1=0, select bank0
	clrf	(main@direction1)
	clrf	(main@direction1+1)
	goto	l11600
	line	244
	
l2247:	
	line	245
	
l11600:	
;Main.c: 244: }
;Main.c: 245: if(RT2P < -200 || RT2P >500)
	bcf	status, 5	;RP0=0, select bank0
	bcf	status, 6	;RP1=0, select bank0
	movf	(main@RT2P+1),w
	xorlw	80h
	movwf	btemp+1
	movlw	(high(-200))^80h
	subwf	btemp+1,w
	skipz
	goto	u5685
	movlw	low(-200)
	subwf	(main@RT2P),w
u5685:

	skipc
	goto	u5681
	goto	u5680
u5681:
	goto	l11628
u5680:
	
l11602:	
	bcf	status, 5	;RP0=0, select bank0
	bcf	status, 6	;RP1=0, select bank0
	movf	(main@RT2P+1),w
	xorlw	80h
	movwf	btemp+1
	movlw	(high(01F5h))^80h
	subwf	btemp+1,w
	skipz
	goto	u5695
	movlw	low(01F5h)
	subwf	(main@RT2P),w
u5695:

	skipc
	goto	u5691
	goto	u5690
u5691:
	goto	l11604
u5690:
	goto	l11628
	
l2250:	
	line	247
;Main.c: 246: {
;Main.c: 247: break;
	goto	l11628
	line	248
	
l2248:	
	line	250
	
l11604:	
;Main.c: 248: }
;Main.c: 250: rotate((400 - shortwall ), 0);
	bcf	status, 5	;RP0=0, select bank0
	bcf	status, 6	;RP1=0, select bank0
	comf	(main@shortwall_3022),w
	movwf	(??_main+0)+0
	comf	(main@shortwall_3022+1),w
	movwf	((??_main+0)+0+1)
	incf	(??_main+0)+0,f
	skipnz
	incf	((??_main+0)+0+1),f
	movf	0+(??_main+0)+0,w
	addlw	low(0190h)
	movwf	(?_rotate)
	movf	1+(??_main+0)+0,w
	skipnc
	addlw	1
	addlw	high(0190h)
	movwf	1+(?_rotate)
	clrf	0+(?_rotate)+02h
	fcall	_rotate
	line	251
	
l11606:	
;Main.c: 251: _delay((unsigned long)((100)*(20000000/4000.0)));
	opt asmopt_off
movlw  3
	bcf	status, 5	;RP0=0, select bank0
	bcf	status, 6	;RP1=0, select bank0
movwf	((??_main+0)+0+2),f
movlw	138
movwf	((??_main+0)+0+1),f
	movlw	86
movwf	((??_main+0)+0),f
u5717:
	decfsz	((??_main+0)+0),f
	goto	u5717
	decfsz	((??_main+0)+0+1),f
	goto	u5717
	decfsz	((??_main+0)+0+2),f
	goto	u5717
	nop2
opt asmopt_on

	line	254
	
l11608:	
;Main.c: 254: int RT2A= RT2P * (36.0/40.0);
	bcf	status, 5	;RP0=0, select bank0
	bcf	status, 6	;RP1=0, select bank0
	movf	(main@RT2P+1),w
	clrf	(?___awtoft+1)
	addwf	(?___awtoft+1)
	movf	(main@RT2P),w
	clrf	(?___awtoft)
	addwf	(?___awtoft)

	fcall	___awtoft
	bcf	status, 5	;RP0=0, select bank0
	bcf	status, 6	;RP1=0, select bank0
	movf	(0+(?___awtoft)),w
	movwf	0+(?___ftmul)+03h
	movf	(1+(?___awtoft)),w
	movwf	1+(?___ftmul)+03h
	movf	(2+(?___awtoft)),w
	movwf	2+(?___ftmul)+03h
	movlw	0x66
	movwf	(?___ftmul)
	movlw	0x66
	movwf	(?___ftmul+1)
	movlw	0x3f
	movwf	(?___ftmul+2)
	fcall	___ftmul
	bcf	status, 5	;RP0=0, select bank0
	bcf	status, 6	;RP1=0, select bank0
	movf	(0+(?___ftmul)),w
	movwf	(?___fttol)
	movf	(1+(?___ftmul)),w
	movwf	(?___fttol+1)
	movf	(2+(?___ftmul)),w
	movwf	(?___fttol+2)
	fcall	___fttol
	bcf	status, 5	;RP0=0, select bank0
	bcf	status, 6	;RP1=0, select bank0
	movf	1+(((0+(?___fttol)))),w
	clrf	(main@RT2A+1)
	addwf	(main@RT2A+1)
	movf	0+(((0+(?___fttol)))),w
	clrf	(main@RT2A)
	addwf	(main@RT2A)

	line	255
	
l11610:	
;Main.c: 255: robotTurn(RT2A);
	movf	(main@RT2A+1),w
	clrf	(?_robotTurn+1)
	addwf	(?_robotTurn+1)
	movf	(main@RT2A),w
	clrf	(?_robotTurn)
	addwf	(?_robotTurn)

	fcall	_robotTurn
	line	256
	
l11612:	
;Main.c: 256: _delay((unsigned long)((100)*(20000000/4000.0)));
	opt asmopt_off
movlw  3
	bcf	status, 5	;RP0=0, select bank0
	bcf	status, 6	;RP1=0, select bank0
movwf	((??_main+0)+0+2),f
movlw	138
movwf	((??_main+0)+0+1),f
	movlw	86
movwf	((??_main+0)+0),f
u5727:
	decfsz	((??_main+0)+0),f
	goto	u5727
	decfsz	((??_main+0)+0+1),f
	goto	u5727
	decfsz	((??_main+0)+0+2),f
	goto	u5727
	nop2
opt asmopt_on

	line	257
	
l11614:	
;Main.c: 257: rotate(shortwall,0);
	bcf	status, 5	;RP0=0, select bank0
	bcf	status, 6	;RP1=0, select bank0
	movf	(main@shortwall_3022+1),w
	clrf	(?_rotate+1)
	addwf	(?_rotate+1)
	movf	(main@shortwall_3022),w
	clrf	(?_rotate)
	addwf	(?_rotate)

	clrf	0+(?_rotate)+02h
	fcall	_rotate
	line	258
	
l11616:	
;Main.c: 258: _delay((unsigned long)((100)*(20000000/4000.0)));
	opt asmopt_off
movlw  3
	bcf	status, 5	;RP0=0, select bank0
	bcf	status, 6	;RP1=0, select bank0
movwf	((??_main+0)+0+2),f
movlw	138
movwf	((??_main+0)+0+1),f
	movlw	86
movwf	((??_main+0)+0),f
u5737:
	decfsz	((??_main+0)+0),f
	goto	u5737
	decfsz	((??_main+0)+0+1),f
	goto	u5737
	decfsz	((??_main+0)+0+2),f
	goto	u5737
	nop2
opt asmopt_on

	line	259
	
l11618:	
;Main.c: 259: robotMoveSpeed(500, 200);
	movlw	low(01F4h)
	bcf	status, 5	;RP0=0, select bank0
	bcf	status, 6	;RP1=0, select bank0
	movwf	(?_robotMoveSpeed)
	movlw	high(01F4h)
	movwf	((?_robotMoveSpeed))+1
	movlw	low(0C8h)
	movwf	0+(?_robotMoveSpeed)+02h
	movlw	high(0C8h)
	movwf	(0+(?_robotMoveSpeed)+02h)+1
	fcall	_robotMoveSpeed
	goto	l11620
	line	260
	
l2240:	
	line	216
	
l11620:	
	bsf	status, 5	;RP0=1, select bank1
	bcf	status, 6	;RP1=0, select bank1
	movf	(_ROBOTerror)^080h,w
	skipz
	goto	u5700
	goto	l11556
u5700:
	goto	l11628
	
l2251:	
	line	262
;Main.c: 260: }
;Main.c: 262: break;
	goto	l11628
	line	264
;Main.c: 264: case 5:
	
l2252:	
	line	265
	
l11622:	
;Main.c: 265: ChargeMode();
	fcall	_ChargeMode
	line	266
;Main.c: 266: break;
	goto	l11628
	line	267
;Main.c: 267: default:
	
l2253:	
	line	269
;Main.c: 269: break;
	goto	l11628
	line	270
	
l11624:	
;Main.c: 270: }
	goto	l11628
	line	198
	
l2233:	
	
l11626:	
	bcf	status, 5	;RP0=0, select bank0
	bcf	status, 6	;RP1=0, select bank0
	movf	(main@choice),w
	; Switch size 1, requested type "space"
; Number of cases is 6, Range of values is 0 to 5
; switch strategies available:
; Name         Instructions Cycles
; simple_byte           19    10 (average)
; direct_byte           26     8 (fixed)
; jumptable            260     6 (fixed)
; rangetable            10     6 (fixed)
; spacedrange           18     9 (fixed)
; locatedrange           6     3 (fixed)
;	Chosen strategy is simple_byte

	opt asmopt_off
	xorlw	0^0	; case 0
	skipnz
	goto	l11544
	xorlw	1^0	; case 1
	skipnz
	goto	l11546
	xorlw	2^1	; case 2
	skipnz
	goto	l11550
	xorlw	3^2	; case 3
	skipnz
	goto	l11552
	xorlw	4^3	; case 4
	skipnz
	goto	l11554
	xorlw	5^4	; case 5
	skipnz
	goto	l11622
	goto	l11628
	opt asmopt_on

	line	270
	
l2235:	
	line	271
	
l11628:	
;Main.c: 271: choice = 255;
	movlw	(0FFh)
	bcf	status, 5	;RP0=0, select bank0
	bcf	status, 6	;RP1=0, select bank0
	movwf	(??_main+0)+0
	movf	(??_main+0)+0,w
	movwf	(main@choice)
	goto	l11528
	line	272
	
l2254:	
	line	180
	goto	l11528
	
l2255:	
	line	273
	
l2256:	
	global	start
	ljmp	start
	opt stack 0
GLOBAL	__end_of_main
	__end_of_main:
;; =============== function _main ends ============

	signat	_main,88
	global	_ChargeMode
psect	text1072,local,class=CODE,delta=2
global __ptext1072
__ptext1072:

;; *************** function _ChargeMode *****************
;; Defined at:
;;		line 319 in file "E:\Aldnoah.Zero\Assignment3\Main.c"
;; Parameters:    Size  Location     Type
;;		None
;; Auto vars:     Size  Location     Type
;;		None
;; Return value:  Size  Location     Type
;;		None               void
;; Registers used:
;;		wreg, fsr0l, fsr0h, status,2, status,0, btemp+1, pclath, cstack
;; Tracked objects:
;;		On entry : 0/0
;;		On exit  : 0/0
;;		Unchanged: 0/0
;; Data sizes:     COMMON   BANK0   BANK1   BANK3   BANK2
;;      Params:         0       0       0       0       0
;;      Locals:         0       0       0       0       0
;;      Temps:          0       1       0       0       0
;;      Totals:         0       1       0       0       0
;;Total ram usage:        1 bytes
;; Hardware stack levels used:    1
;; Hardware stack levels required when called:    6
;; This function calls:
;;		_ser_putch
;;		_UpdateDisplay
;; This function is called by:
;;		_main
;; This function uses a non-reentrant model
;;
psect	text1072
	file	"E:\Aldnoah.Zero\Assignment3\Main.c"
	line	319
	global	__size_of_ChargeMode
	__size_of_ChargeMode	equ	__end_of_ChargeMode-_ChargeMode
	
_ChargeMode:	
	opt	stack 1
; Regs used in _ChargeMode: [wreg-fsr0h+status,2+status,0+btemp+1+pclath+cstack]
	line	321
	
l11500:	
;Main.c: 321: currentMenu = 2;
	movlw	(02h)
	bcf	status, 5	;RP0=0, select bank0
	bcf	status, 6	;RP1=0, select bank0
	movwf	(??_ChargeMode+0)+0
	movf	(??_ChargeMode+0)+0,w
	bsf	status, 5	;RP0=1, select bank1
	bcf	status, 6	;RP1=0, select bank1
	movwf	(_currentMenu)^080h	;volatile
	line	322
	
l11502:	
;Main.c: 322: ser_putch(128);
	movlw	(080h)
	fcall	_ser_putch
	goto	l11504
	line	324
;Main.c: 324: while (1)
	
l2274:	
	line	326
	
l11504:	
;Main.c: 325: {
;Main.c: 326: if (RTC_FLAG_250MS == 1)
	btfss	(_RTC_FLAG_250MS/8),(_RTC_FLAG_250MS)&7
	goto	u5551
	goto	u5550
u5551:
	goto	l11520
u5550:
	line	328
	
l11506:	
;Main.c: 327: {
;Main.c: 328: RTC_FLAG_250MS = 0;
	bcf	(_RTC_FLAG_250MS/8),(_RTC_FLAG_250MS)&7
	line	329
	
l11508:	
;Main.c: 329: UpdateDisplay();
	fcall	_UpdateDisplay
	goto	l11520
	line	330
	
l2275:	
	line	331
;Main.c: 330: }
;Main.c: 331: switch (buttonPressed)
	goto	l11520
	line	333
;Main.c: 332: {
;Main.c: 333: case 1:
	
l2277:	
	line	334
;Main.c: 334: buttonPressed = 0;
	clrf	(_buttonPressed)	;volatile
	line	335
;Main.c: 335: break;
	goto	l11504
	line	336
;Main.c: 336: case 2:
	
l2279:	
	line	337
;Main.c: 337: buttonPressed = 0;
	clrf	(_buttonPressed)	;volatile
	line	338
;Main.c: 338: break;
	goto	l11504
	line	339
;Main.c: 339: case 3:
	
l2280:	
	line	340
;Main.c: 340: buttonPressed = 0;
	clrf	(_buttonPressed)	;volatile
	line	341
;Main.c: 341: break;
	goto	l11504
	line	342
;Main.c: 342: case 4:
	
l2281:	
	line	343
;Main.c: 343: buttonPressed = 0;
	clrf	(_buttonPressed)	;volatile
	line	344
;Main.c: 344: break;
	goto	l11504
	line	345
;Main.c: 345: case 5:
	
l2282:	
	line	346
	
l11510:	
;Main.c: 346: ser_putch(132);
	movlw	(084h)
	fcall	_ser_putch
	line	347
	
l11512:	
;Main.c: 347: buttonPressed = 0;
	clrf	(_buttonPressed)	;volatile
	line	348
	
l11514:	
;Main.c: 348: currentMenu = 0;
	bsf	status, 5	;RP0=1, select bank1
	bcf	status, 6	;RP1=0, select bank1
	clrf	(_currentMenu)^080h	;volatile
	goto	l2283
	line	349
	
l11516:	
;Main.c: 349: return;
	goto	l2283
	line	350
;Main.c: 350: default:
	
l2284:	
	line	351
;Main.c: 351: buttonPressed = 0;
	clrf	(_buttonPressed)	;volatile
	line	352
;Main.c: 352: break;
	goto	l11504
	line	353
	
l11518:	
;Main.c: 353: }
	goto	l11504
	line	331
	
l2276:	
	
l11520:	
	movf	(_buttonPressed),w	;volatile
	; Switch size 1, requested type "space"
; Number of cases is 5, Range of values is 1 to 5
; switch strategies available:
; Name         Instructions Cycles
; simple_byte           16     9 (average)
; direct_byte           26    11 (fixed)
; jumptable            263     9 (fixed)
;	Chosen strategy is simple_byte

	opt asmopt_off
	xorlw	1^0	; case 1
	skipnz
	goto	l2277
	xorlw	2^1	; case 2
	skipnz
	goto	l2279
	xorlw	3^2	; case 3
	skipnz
	goto	l2280
	xorlw	4^3	; case 4
	skipnz
	goto	l2281
	xorlw	5^4	; case 5
	skipnz
	goto	l11510
	goto	l2284
	opt asmopt_on

	line	353
	
l2278:	
	goto	l11504
	line	354
	
l2285:	
	line	324
	goto	l11504
	
l2286:	
	line	355
	
l2283:	
	return
	opt stack 0
GLOBAL	__end_of_ChargeMode
	__end_of_ChargeMode:
;; =============== function _ChargeMode ends ============

	signat	_ChargeMode,88
	global	_robotTurnSpeed
psect	text1073,local,class=CODE,delta=2
global __ptext1073
__ptext1073:

;; *************** function _robotTurnSpeed *****************
;; Defined at:
;;		line 178 in file "E:\Aldnoah.Zero\Assignment3\robot.c"
;; Parameters:    Size  Location     Type
;;  angle           2   57[BANK0 ] int 
;;  speed           2   59[BANK0 ] int 
;; Auto vars:     Size  Location     Type
;;  temp1           2   64[BANK0 ] int 
;; Return value:  Size  Location     Type
;;		None               void
;; Registers used:
;;		wreg, fsr0l, fsr0h, status,2, status,0, btemp+1, pclath, cstack
;; Tracked objects:
;;		On entry : 0/0
;;		On exit  : 0/0
;;		Unchanged: 0/0
;; Data sizes:     COMMON   BANK0   BANK1   BANK3   BANK2
;;      Params:         0       4       0       0       0
;;      Locals:         0       2       0       0       0
;;      Temps:          0       3       0       0       0
;;      Totals:         0       9       0       0       0
;;Total ram usage:        9 bytes
;; Hardware stack levels used:    1
;; Hardware stack levels required when called:    6
;; This function calls:
;;		_robotTurn
;;		_robot_read
;;		_UpdateDisplay
;;		_abs
;; This function is called by:
;;		_main
;; This function uses a non-reentrant model
;;
psect	text1073
	file	"E:\Aldnoah.Zero\Assignment3\robot.c"
	line	178
	global	__size_of_robotTurnSpeed
	__size_of_robotTurnSpeed	equ	__end_of_robotTurnSpeed-_robotTurnSpeed
	
_robotTurnSpeed:	
	opt	stack 1
; Regs used in _robotTurnSpeed: [wreg-fsr0h+status,2+status,0+btemp+1+pclath+cstack]
	line	179
	
l11474:	
;robot.c: 179: angleTurned = 0;
	bsf	status, 5	;RP0=1, select bank1
	bcf	status, 6	;RP1=0, select bank1
	clrf	(_angleTurned)^080h
	clrf	(_angleTurned+1)^080h
	line	180
;robot.c: 180: int temp1 = 0;
	bcf	status, 5	;RP0=0, select bank0
	bcf	status, 6	;RP1=0, select bank0
	clrf	(robotTurnSpeed@temp1)
	clrf	(robotTurnSpeed@temp1+1)
	line	182
	
l11476:	
;robot.c: 182: robotTurn(angle);
	movf	(robotTurnSpeed@angle+1),w
	clrf	(?_robotTurn+1)
	addwf	(?_robotTurn+1)
	movf	(robotTurnSpeed@angle),w
	clrf	(?_robotTurn)
	addwf	(?_robotTurn)

	fcall	_robotTurn
	line	185
;robot.c: 185: while (abs(angleTurned) <= abs(angle))
	goto	l11496
	
l6041:	
	line	187
	
l11478:	
;robot.c: 186: {
;robot.c: 187: robot_read(1);
	movlw	(01h)
	fcall	_robot_read
	line	188
	
l11480:	
;robot.c: 188: if (BumpSensors || VwallSensor)
	bsf	status, 5	;RP0=1, select bank1
	bcf	status, 6	;RP1=0, select bank1
	movf	(_BumpSensors)^080h,f
	skipz	;volatile
	goto	u5521
	goto	u5520
u5521:
	goto	l11484
u5520:
	
l11482:	
	movf	(_VwallSensor)^080h,w	;volatile
	skipz
	goto	u5530
	goto	l11486
u5530:
	goto	l11484
	
l6044:	
	line	190
	
l11484:	
;robot.c: 189: {
;robot.c: 190: ROBOTerror = 1;
	clrf	(_ROBOTerror)^080h
	bsf	status,0
	rlf	(_ROBOTerror)^080h,f
	line	191
;robot.c: 191: break;
	goto	l11498
	line	192
	
l6042:	
	line	193
	
l11486:	
;robot.c: 192: }
;robot.c: 193: temp1 = AngleHighByte;
	movf	(_AngleHighByte)^080h,w	;volatile
	bcf	status, 5	;RP0=0, select bank0
	bcf	status, 6	;RP1=0, select bank0
	movwf	(??_robotTurnSpeed+0)+0
	clrf	(??_robotTurnSpeed+0)+0+1
	movf	0+(??_robotTurnSpeed+0)+0,w
	movwf	(robotTurnSpeed@temp1)
	movf	1+(??_robotTurnSpeed+0)+0,w
	movwf	(robotTurnSpeed@temp1+1)
	line	194
	
l11488:	
;robot.c: 194: temp1 = temp1 << 8;
	movf	(robotTurnSpeed@temp1+1),w
	movwf	(??_robotTurnSpeed+0)+0+1
	movf	(robotTurnSpeed@temp1),w
	movwf	(??_robotTurnSpeed+0)+0
	movf	(??_robotTurnSpeed+0)+0,w
	movwf	(??_robotTurnSpeed+0)+1
	clrf	(??_robotTurnSpeed+0)+0
	movf	0+(??_robotTurnSpeed+0)+0,w
	movwf	(robotTurnSpeed@temp1)
	movf	1+(??_robotTurnSpeed+0)+0,w
	movwf	(robotTurnSpeed@temp1+1)
	line	195
	
l11490:	
;robot.c: 195: temp1 += AngleLowByte;
	bsf	status, 5	;RP0=1, select bank1
	bcf	status, 6	;RP1=0, select bank1
	movf	(_AngleLowByte)^080h,w	;volatile
	bcf	status, 5	;RP0=0, select bank0
	bcf	status, 6	;RP1=0, select bank0
	movwf	(??_robotTurnSpeed+0)+0
	clrf	(??_robotTurnSpeed+0)+0+1
	movf	0+(??_robotTurnSpeed+0)+0,w
	addwf	(robotTurnSpeed@temp1),f
	skipnc
	incf	(robotTurnSpeed@temp1+1),f
	movf	1+(??_robotTurnSpeed+0)+0,w
	addwf	(robotTurnSpeed@temp1+1),f
	line	196
	
l11492:	
;robot.c: 196: angleTurned += temp1;
	movf	(robotTurnSpeed@temp1),w
	bsf	status, 5	;RP0=1, select bank1
	bcf	status, 6	;RP1=0, select bank1
	addwf	(_angleTurned)^080h,f
	skipnc
	incf	(_angleTurned+1)^080h,f
	bcf	status, 5	;RP0=0, select bank0
	bcf	status, 6	;RP1=0, select bank0
	movf	(robotTurnSpeed@temp1+1),w
	bsf	status, 5	;RP0=1, select bank1
	bcf	status, 6	;RP1=0, select bank1
	addwf	(_angleTurned+1)^080h,f
	line	197
	
l11494:	
;robot.c: 197: UpdateDisplay();
	fcall	_UpdateDisplay
	goto	l11496
	line	198
	
l6040:	
	line	185
	
l11496:	
	bcf	status, 5	;RP0=0, select bank0
	bcf	status, 6	;RP1=0, select bank0
	movf	(robotTurnSpeed@angle+1),w
	clrf	(?_abs+1)
	addwf	(?_abs+1)
	movf	(robotTurnSpeed@angle),w
	clrf	(?_abs)
	addwf	(?_abs)

	fcall	_abs
	bcf	status, 5	;RP0=0, select bank0
	bcf	status, 6	;RP1=0, select bank0
	movf	(0+?_abs),w
	movwf	(??_robotTurnSpeed+0)+0
	movf	(1+?_abs),w
	movwf	((??_robotTurnSpeed+0)+0+1)
	bsf	status, 5	;RP0=1, select bank1
	bcf	status, 6	;RP1=0, select bank1
	movf	(_angleTurned+1)^080h,w
	bcf	status, 5	;RP0=0, select bank0
	bcf	status, 6	;RP1=0, select bank0
	clrf	(?_abs+1)
	addwf	(?_abs+1)
	bsf	status, 5	;RP0=1, select bank1
	bcf	status, 6	;RP1=0, select bank1
	movf	(_angleTurned)^080h,w
	bcf	status, 5	;RP0=0, select bank0
	bcf	status, 6	;RP1=0, select bank0
	clrf	(?_abs)
	addwf	(?_abs)

	fcall	_abs
	bcf	status, 5	;RP0=0, select bank0
	bcf	status, 6	;RP1=0, select bank0
	movf	1+(??_robotTurnSpeed+0)+0,w
	xorlw	80h
	movwf	(??_robotTurnSpeed+2)+0
	movf	(1+(?_abs)),w
	xorlw	80h
	subwf	(??_robotTurnSpeed+2)+0,w
	skipz
	goto	u5545
	movf	(0+(?_abs)),w
	subwf	0+(??_robotTurnSpeed+0)+0,w
u5545:

	skipnc
	goto	u5541
	goto	u5540
u5541:
	goto	l11478
u5540:
	goto	l11498
	
l6045:	
	line	200
	
l11498:	
;robot.c: 198: }
;robot.c: 200: robotTurn(0);
	movlw	low(0)
	bcf	status, 5	;RP0=0, select bank0
	bcf	status, 6	;RP1=0, select bank0
	movwf	(?_robotTurn)
	movlw	high(0)
	movwf	((?_robotTurn))+1
	fcall	_robotTurn
	line	201
	
l6046:	
	return
	opt stack 0
GLOBAL	__end_of_robotTurnSpeed
	__end_of_robotTurnSpeed:
;; =============== function _robotTurnSpeed ends ============

	signat	_robotTurnSpeed,8312
	global	_robotMoveSpeed
psect	text1074,local,class=CODE,delta=2
global __ptext1074
__ptext1074:

;; *************** function _robotMoveSpeed *****************
;; Defined at:
;;		line 147 in file "E:\Aldnoah.Zero\Assignment3\robot.c"
;; Parameters:    Size  Location     Type
;;  distance        2   57[BANK0 ] int 
;;  speed           2   59[BANK0 ] int 
;; Auto vars:     Size  Location     Type
;;  temp1           2   64[BANK0 ] int 
;; Return value:  Size  Location     Type
;;		None               void
;; Registers used:
;;		wreg, fsr0l, fsr0h, status,2, status,0, btemp+1, pclath, cstack
;; Tracked objects:
;;		On entry : 0/0
;;		On exit  : 0/0
;;		Unchanged: 0/0
;; Data sizes:     COMMON   BANK0   BANK1   BANK3   BANK2
;;      Params:         0       4       0       0       0
;;      Locals:         0       2       0       0       0
;;      Temps:          0       3       0       0       0
;;      Totals:         0       9       0       0       0
;;Total ram usage:        9 bytes
;; Hardware stack levels used:    1
;; Hardware stack levels required when called:    6
;; This function calls:
;;		_RobotDrive
;;		_robot_read
;;		_UpdateDisplay
;;		_abs
;; This function is called by:
;;		_main
;; This function uses a non-reentrant model
;;
psect	text1074
	file	"E:\Aldnoah.Zero\Assignment3\robot.c"
	line	147
	global	__size_of_robotMoveSpeed
	__size_of_robotMoveSpeed	equ	__end_of_robotMoveSpeed-_robotMoveSpeed
	
_robotMoveSpeed:	
	opt	stack 1
; Regs used in _robotMoveSpeed: [wreg-fsr0h+status,2+status,0+btemp+1+pclath+cstack]
	line	148
	
l11446:	
;robot.c: 148: distTravelled = 0;
	bsf	status, 5	;RP0=1, select bank1
	bcf	status, 6	;RP1=0, select bank1
	clrf	(_distTravelled)^080h
	clrf	(_distTravelled+1)^080h
	line	150
	
l11448:	
;robot.c: 149: int temp1;
;robot.c: 150: RobotDrive(speed);
	bcf	status, 5	;RP0=0, select bank0
	bcf	status, 6	;RP1=0, select bank0
	movf	(robotMoveSpeed@speed+1),w
	clrf	(?_RobotDrive+1)
	addwf	(?_RobotDrive+1)
	movf	(robotMoveSpeed@speed),w
	clrf	(?_RobotDrive)
	addwf	(?_RobotDrive)

	fcall	_RobotDrive
	line	153
;robot.c: 153: while (abs(distTravelled) <= abs(distance))
	goto	l11470
	
l6032:	
	line	155
	
l11450:	
;robot.c: 154: {
;robot.c: 155: robot_read(0);
	movlw	(0)
	fcall	_robot_read
	line	156
	
l11452:	
;robot.c: 156: if (BumpSensors || VwallSensor)
	bsf	status, 5	;RP0=1, select bank1
	bcf	status, 6	;RP1=0, select bank1
	movf	(_BumpSensors)^080h,f
	skipz	;volatile
	goto	u5491
	goto	u5490
u5491:
	goto	l11456
u5490:
	
l11454:	
	movf	(_VwallSensor)^080h,w	;volatile
	skipz
	goto	u5500
	goto	l11458
u5500:
	goto	l11456
	
l6035:	
	line	158
	
l11456:	
;robot.c: 157: {
;robot.c: 158: ROBOTerror = 1;
	clrf	(_ROBOTerror)^080h
	bsf	status,0
	rlf	(_ROBOTerror)^080h,f
	line	159
;robot.c: 159: break;
	goto	l11472
	line	160
	
l6033:	
	line	161
	
l11458:	
;robot.c: 160: }
;robot.c: 161: temp1 = DistHighByte;
	movf	(_DistHighByte)^080h,w	;volatile
	bcf	status, 5	;RP0=0, select bank0
	bcf	status, 6	;RP1=0, select bank0
	movwf	(??_robotMoveSpeed+0)+0
	clrf	(??_robotMoveSpeed+0)+0+1
	movf	0+(??_robotMoveSpeed+0)+0,w
	movwf	(robotMoveSpeed@temp1)
	movf	1+(??_robotMoveSpeed+0)+0,w
	movwf	(robotMoveSpeed@temp1+1)
	line	162
	
l11460:	
;robot.c: 162: temp1 = temp1 << 8;
	movf	(robotMoveSpeed@temp1+1),w
	movwf	(??_robotMoveSpeed+0)+0+1
	movf	(robotMoveSpeed@temp1),w
	movwf	(??_robotMoveSpeed+0)+0
	movf	(??_robotMoveSpeed+0)+0,w
	movwf	(??_robotMoveSpeed+0)+1
	clrf	(??_robotMoveSpeed+0)+0
	movf	0+(??_robotMoveSpeed+0)+0,w
	movwf	(robotMoveSpeed@temp1)
	movf	1+(??_robotMoveSpeed+0)+0,w
	movwf	(robotMoveSpeed@temp1+1)
	line	163
	
l11462:	
;robot.c: 163: temp1 += DistLowByte;
	bsf	status, 5	;RP0=1, select bank1
	bcf	status, 6	;RP1=0, select bank1
	movf	(_DistLowByte)^080h,w	;volatile
	bcf	status, 5	;RP0=0, select bank0
	bcf	status, 6	;RP1=0, select bank0
	movwf	(??_robotMoveSpeed+0)+0
	clrf	(??_robotMoveSpeed+0)+0+1
	movf	0+(??_robotMoveSpeed+0)+0,w
	addwf	(robotMoveSpeed@temp1),f
	skipnc
	incf	(robotMoveSpeed@temp1+1),f
	movf	1+(??_robotMoveSpeed+0)+0,w
	addwf	(robotMoveSpeed@temp1+1),f
	line	164
	
l11464:	
;robot.c: 164: distTravelled += temp1;
	movf	(robotMoveSpeed@temp1),w
	bsf	status, 5	;RP0=1, select bank1
	bcf	status, 6	;RP1=0, select bank1
	addwf	(_distTravelled)^080h,f
	skipnc
	incf	(_distTravelled+1)^080h,f
	bcf	status, 5	;RP0=0, select bank0
	bcf	status, 6	;RP1=0, select bank0
	movf	(robotMoveSpeed@temp1+1),w
	bsf	status, 5	;RP0=1, select bank1
	bcf	status, 6	;RP1=0, select bank1
	addwf	(_distTravelled+1)^080h,f
	line	165
	
l11466:	
;robot.c: 165: TotalDistTravelled += temp1;
	bcf	status, 5	;RP0=0, select bank0
	bcf	status, 6	;RP1=0, select bank0
	movf	(robotMoveSpeed@temp1),w
	bsf	status, 5	;RP0=1, select bank1
	bcf	status, 6	;RP1=0, select bank1
	addwf	(_TotalDistTravelled)^080h,f
	skipnc
	incf	(_TotalDistTravelled+1)^080h,f
	bcf	status, 5	;RP0=0, select bank0
	bcf	status, 6	;RP1=0, select bank0
	movf	(robotMoveSpeed@temp1+1),w
	bsf	status, 5	;RP0=1, select bank1
	bcf	status, 6	;RP1=0, select bank1
	addwf	(_TotalDistTravelled+1)^080h,f
	line	166
	
l11468:	
;robot.c: 166: UpdateDisplay();
	fcall	_UpdateDisplay
	goto	l11470
	line	167
	
l6031:	
	line	153
	
l11470:	
	bcf	status, 5	;RP0=0, select bank0
	bcf	status, 6	;RP1=0, select bank0
	movf	(robotMoveSpeed@distance+1),w
	clrf	(?_abs+1)
	addwf	(?_abs+1)
	movf	(robotMoveSpeed@distance),w
	clrf	(?_abs)
	addwf	(?_abs)

	fcall	_abs
	bcf	status, 5	;RP0=0, select bank0
	bcf	status, 6	;RP1=0, select bank0
	movf	(0+?_abs),w
	movwf	(??_robotMoveSpeed+0)+0
	movf	(1+?_abs),w
	movwf	((??_robotMoveSpeed+0)+0+1)
	bsf	status, 5	;RP0=1, select bank1
	bcf	status, 6	;RP1=0, select bank1
	movf	(_distTravelled+1)^080h,w
	bcf	status, 5	;RP0=0, select bank0
	bcf	status, 6	;RP1=0, select bank0
	clrf	(?_abs+1)
	addwf	(?_abs+1)
	bsf	status, 5	;RP0=1, select bank1
	bcf	status, 6	;RP1=0, select bank1
	movf	(_distTravelled)^080h,w
	bcf	status, 5	;RP0=0, select bank0
	bcf	status, 6	;RP1=0, select bank0
	clrf	(?_abs)
	addwf	(?_abs)

	fcall	_abs
	bcf	status, 5	;RP0=0, select bank0
	bcf	status, 6	;RP1=0, select bank0
	movf	1+(??_robotMoveSpeed+0)+0,w
	xorlw	80h
	movwf	(??_robotMoveSpeed+2)+0
	movf	(1+(?_abs)),w
	xorlw	80h
	subwf	(??_robotMoveSpeed+2)+0,w
	skipz
	goto	u5515
	movf	(0+(?_abs)),w
	subwf	0+(??_robotMoveSpeed+0)+0,w
u5515:

	skipnc
	goto	u5511
	goto	u5510
u5511:
	goto	l11450
u5510:
	goto	l11472
	
l6036:	
	line	169
	
l11472:	
;robot.c: 167: }
;robot.c: 169: RobotDrive(0);
	movlw	low(0)
	bcf	status, 5	;RP0=0, select bank0
	bcf	status, 6	;RP1=0, select bank0
	movwf	(?_RobotDrive)
	movlw	high(0)
	movwf	((?_RobotDrive))+1
	fcall	_RobotDrive
	line	171
	
l6037:	
	return
	opt stack 0
GLOBAL	__end_of_robotMoveSpeed
	__end_of_robotMoveSpeed:
;; =============== function _robotMoveSpeed ends ============

	signat	_robotMoveSpeed,8312
	global	_scan360
psect	text1075,local,class=CODE,delta=2
global __ptext1075
__ptext1075:

;; *************** function _scan360 *****************
;; Defined at:
;;		line 360 in file "E:\Aldnoah.Zero\Assignment3\Main.c"
;; Parameters:    Size  Location     Type
;;		None
;; Auto vars:     Size  Location     Type
;;  steps           2   63[BANK0 ] int 
;;  lowestSteps     2   61[BANK0 ] int 
;;  lowestVal       2   59[BANK0 ] int 
;; Return value:  Size  Location     Type
;;                  2   57[BANK0 ] int 
;; Registers used:
;;		wreg, fsr0l, fsr0h, status,2, status,0, btemp+1, pclath, cstack
;; Tracked objects:
;;		On entry : 0/0
;;		On exit  : 0/0
;;		Unchanged: 0/0
;; Data sizes:     COMMON   BANK0   BANK1   BANK3   BANK2
;;      Params:         0       2       0       0       0
;;      Locals:         0       6       0       0       0
;;      Temps:          0       0       0       0       0
;;      Totals:         0       8       0       0       0
;;Total ram usage:        8 bytes
;; Hardware stack levels used:    1
;; Hardware stack levels required when called:    7
;; This function calls:
;;		_readAvgDistance
;;		_rotate
;;		_UpdateDisplay
;; This function is called by:
;;		_main
;; This function uses a non-reentrant model
;;
psect	text1075
	file	"E:\Aldnoah.Zero\Assignment3\Main.c"
	line	360
	global	__size_of_scan360
	__size_of_scan360	equ	__end_of_scan360-_scan360
	
_scan360:	
	opt	stack 0
; Regs used in _scan360: [wreg-fsr0h+status,2+status,0+btemp+1+pclath+cstack]
	line	361
	
l11418:	
;Main.c: 361: int lowestVal = 0, lowestSteps = 0;
	bcf	status, 5	;RP0=0, select bank0
	bcf	status, 6	;RP1=0, select bank0
	clrf	(scan360@lowestVal)
	clrf	(scan360@lowestVal+1)
	clrf	(scan360@lowestSteps)
	clrf	(scan360@lowestSteps+1)
	line	363
;Main.c: 363: for (int steps = 0; steps < 200; steps+= 2)
	clrf	(scan360@steps)
	clrf	(scan360@steps+1)
	
l11420:	
	movf	(scan360@steps+1),w
	xorlw	80h
	movwf	btemp+1
	movlw	(high(0C8h))^80h
	subwf	btemp+1,w
	skipz
	goto	u5455
	movlw	low(0C8h)
	subwf	(scan360@steps),w
u5455:

	skipc
	goto	u5451
	goto	u5450
u5451:
	goto	l11424
u5450:
	goto	l11442
	
l11422:	
	goto	l11442
	line	364
	
l2289:	
	line	365
	
l11424:	
;Main.c: 364: {
;Main.c: 365: readAvgDistance();
	fcall	_readAvgDistance
	line	366
	
l11426:	
;Main.c: 366: if (adcVal > lowestVal)
	bsf	status, 5	;RP0=1, select bank1
	bcf	status, 6	;RP1=0, select bank1
	movf	(_adcVal+1)^080h,w	;volatile
	bcf	status, 5	;RP0=0, select bank0
	bcf	status, 6	;RP1=0, select bank0
	subwf	(scan360@lowestVal+1),w
	skipz
	goto	u5465
	bsf	status, 5	;RP0=1, select bank1
	bcf	status, 6	;RP1=0, select bank1
	movf	(_adcVal)^080h,w	;volatile
	bcf	status, 5	;RP0=0, select bank0
	bcf	status, 6	;RP1=0, select bank0
	subwf	(scan360@lowestVal),w
u5465:
	skipnc
	goto	u5461
	goto	u5460
u5461:
	goto	l11430
u5460:
	line	368
	
l11428:	
;Main.c: 367: {
;Main.c: 368: lowestVal = adcVal;
	bsf	status, 5	;RP0=1, select bank1
	bcf	status, 6	;RP1=0, select bank1
	movf	(_adcVal+1)^080h,w	;volatile
	bcf	status, 5	;RP0=0, select bank0
	bcf	status, 6	;RP1=0, select bank0
	clrf	(scan360@lowestVal+1)	;volatile
	addwf	(scan360@lowestVal+1)	;volatile
	bsf	status, 5	;RP0=1, select bank1
	bcf	status, 6	;RP1=0, select bank1
	movf	(_adcVal)^080h,w	;volatile
	bcf	status, 5	;RP0=0, select bank0
	bcf	status, 6	;RP1=0, select bank0
	clrf	(scan360@lowestVal)	;volatile
	addwf	(scan360@lowestVal)	;volatile

	line	369
;Main.c: 369: lowestSteps = steps;
	movf	(scan360@steps+1),w
	clrf	(scan360@lowestSteps+1)
	addwf	(scan360@lowestSteps+1)
	movf	(scan360@steps),w
	clrf	(scan360@lowestSteps)
	addwf	(scan360@lowestSteps)

	goto	l11430
	line	371
	
l2291:	
	line	372
	
l11430:	
;Main.c: 371: }
;Main.c: 372: rotate(2, 1);
	movlw	low(02h)
	movwf	(?_rotate)
	movlw	high(02h)
	movwf	((?_rotate))+1
	clrf	0+(?_rotate)+02h
	bsf	status,0
	rlf	0+(?_rotate)+02h,f
	fcall	_rotate
	line	374
	
l11432:	
;Main.c: 374: if (RTC_FLAG_250MS == 1)
	btfss	(_RTC_FLAG_250MS/8),(_RTC_FLAG_250MS)&7
	goto	u5471
	goto	u5470
u5471:
	goto	l11438
u5470:
	line	376
	
l11434:	
;Main.c: 375: {
;Main.c: 376: RTC_FLAG_250MS = 0;
	bcf	(_RTC_FLAG_250MS/8),(_RTC_FLAG_250MS)&7
	line	377
	
l11436:	
;Main.c: 377: UpdateDisplay();
	fcall	_UpdateDisplay
	goto	l11438
	line	378
	
l2292:	
	line	363
	
l11438:	
	movlw	low(02h)
	bcf	status, 5	;RP0=0, select bank0
	bcf	status, 6	;RP1=0, select bank0
	addwf	(scan360@steps),f
	skipnc
	incf	(scan360@steps+1),f
	movlw	high(02h)
	addwf	(scan360@steps+1),f
	
l11440:	
	movf	(scan360@steps+1),w
	xorlw	80h
	movwf	btemp+1
	movlw	(high(0C8h))^80h
	subwf	btemp+1,w
	skipz
	goto	u5485
	movlw	low(0C8h)
	subwf	(scan360@steps),w
u5485:

	skipc
	goto	u5481
	goto	u5480
u5481:
	goto	l11424
u5480:
	goto	l11442
	
l2290:	
	line	381
	
l11442:	
;Main.c: 378: }
;Main.c: 379: }
;Main.c: 381: return lowestSteps;
	bcf	status, 5	;RP0=0, select bank0
	bcf	status, 6	;RP1=0, select bank0
	movf	(scan360@lowestSteps+1),w
	clrf	(?_scan360+1)
	addwf	(?_scan360+1)
	movf	(scan360@lowestSteps),w
	clrf	(?_scan360)
	addwf	(?_scan360)

	goto	l2293
	
l11444:	
	line	382
	
l2293:	
	return
	opt stack 0
GLOBAL	__end_of_scan360
	__end_of_scan360:
;; =============== function _scan360 ends ============

	signat	_scan360,90
	global	_calibrateIR
psect	text1076,local,class=CODE,delta=2
global __ptext1076
__ptext1076:

;; *************** function _calibrateIR *****************
;; Defined at:
;;		line 279 in file "E:\Aldnoah.Zero\Assignment3\Main.c"
;; Parameters:    Size  Location     Type
;;		None
;; Auto vars:     Size  Location     Type
;;		None
;; Return value:  Size  Location     Type
;;		None               void
;; Registers used:
;;		wreg, fsr0l, fsr0h, status,2, status,0, btemp+1, pclath, cstack
;; Tracked objects:
;;		On entry : 0/0
;;		On exit  : 0/0
;;		Unchanged: 0/0
;; Data sizes:     COMMON   BANK0   BANK1   BANK3   BANK2
;;      Params:         0       0       0       0       0
;;      Locals:         0       0       0       0       0
;;      Temps:          0       0       0       0       0
;;      Totals:         0       0       0       0       0
;;Total ram usage:        0 bytes
;; Hardware stack levels used:    1
;; Hardware stack levels required when called:    6
;; This function calls:
;;		_rotate
;;		_UpdateDisplay
;; This function is called by:
;;		_main
;; This function uses a non-reentrant model
;;
psect	text1076
	file	"E:\Aldnoah.Zero\Assignment3\Main.c"
	line	279
	global	__size_of_calibrateIR
	__size_of_calibrateIR	equ	__end_of_calibrateIR-_calibrateIR
	
_calibrateIR:	
	opt	stack 1
; Regs used in _calibrateIR: [wreg-fsr0h+status,2+status,0+btemp+1+pclath+cstack]
	line	280
	
l11388:	
;Main.c: 280: currentMenu = 1;
	bsf	status, 5	;RP0=1, select bank1
	bcf	status, 6	;RP1=0, select bank1
	clrf	(_currentMenu)^080h	;volatile
	bsf	status,0
	rlf	(_currentMenu)^080h,f	;volatile
	line	281
	
l11390:	
;Main.c: 281: rotate(8, 0);
	movlw	low(08h)
	bcf	status, 5	;RP0=0, select bank0
	bcf	status, 6	;RP1=0, select bank0
	movwf	(?_rotate)
	movlw	high(08h)
	movwf	((?_rotate))+1
	clrf	0+(?_rotate)+02h
	fcall	_rotate
	goto	l11392
	line	282
;Main.c: 282: while (1)
	
l2259:	
	line	284
	
l11392:	
;Main.c: 283: {
;Main.c: 284: if (RTC_FLAG_250MS == 1)
	btfss	(_RTC_FLAG_250MS/8),(_RTC_FLAG_250MS)&7
	goto	u5441
	goto	u5440
u5441:
	goto	l11416
u5440:
	line	286
	
l11394:	
;Main.c: 285: {
;Main.c: 286: RTC_FLAG_250MS = 0;
	bcf	(_RTC_FLAG_250MS/8),(_RTC_FLAG_250MS)&7
	line	287
	
l11396:	
;Main.c: 287: UpdateDisplay();
	fcall	_UpdateDisplay
	goto	l11416
	line	288
	
l2260:	
	line	289
;Main.c: 288: }
;Main.c: 289: switch (buttonPressed)
	goto	l11416
	line	291
;Main.c: 290: {
;Main.c: 291: case 1:
	
l2262:	
	line	292
;Main.c: 292: buttonPressed = 0;
	clrf	(_buttonPressed)	;volatile
	line	293
;Main.c: 293: break;
	goto	l11392
	line	294
;Main.c: 294: case 2:
	
l2264:	
	line	295
;Main.c: 295: buttonPressed = 0;
	clrf	(_buttonPressed)	;volatile
	line	296
;Main.c: 296: break;
	goto	l11392
	line	297
;Main.c: 297: case 3:
	
l2265:	
	line	298
	
l11398:	
;Main.c: 298: rotate(1, 1);
	movlw	low(01h)
	bcf	status, 5	;RP0=0, select bank0
	bcf	status, 6	;RP1=0, select bank0
	movwf	(?_rotate)
	movlw	high(01h)
	movwf	((?_rotate))+1
	clrf	0+(?_rotate)+02h
	bsf	status,0
	rlf	0+(?_rotate)+02h,f
	fcall	_rotate
	line	299
	
l11400:	
;Main.c: 299: buttonPressed = 0;
	clrf	(_buttonPressed)	;volatile
	line	300
;Main.c: 300: break;
	goto	l11392
	line	301
;Main.c: 301: case 4:
	
l2266:	
	line	302
	
l11402:	
;Main.c: 302: rotate(1, 0);
	movlw	low(01h)
	bcf	status, 5	;RP0=0, select bank0
	bcf	status, 6	;RP1=0, select bank0
	movwf	(?_rotate)
	movlw	high(01h)
	movwf	((?_rotate))+1
	clrf	0+(?_rotate)+02h
	fcall	_rotate
	line	303
	
l11404:	
;Main.c: 303: buttonPressed = 0;
	clrf	(_buttonPressed)	;volatile
	line	304
;Main.c: 304: break;
	goto	l11392
	line	305
;Main.c: 305: case 5:
	
l2267:	
	line	306
	
l11406:	
;Main.c: 306: totalSteps = 0;
	bsf	status, 5	;RP0=1, select bank1
	bcf	status, 6	;RP1=0, select bank1
	clrf	(_totalSteps)^080h
	clrf	(_totalSteps+1)^080h
	line	307
	
l11408:	
;Main.c: 307: buttonPressed = 0;
	clrf	(_buttonPressed)	;volatile
	line	308
	
l11410:	
;Main.c: 308: currentMenu = 0;
	clrf	(_currentMenu)^080h	;volatile
	goto	l2268
	line	309
	
l11412:	
;Main.c: 309: return;
	goto	l2268
	line	310
;Main.c: 310: default:
	
l2269:	
	line	311
;Main.c: 311: break;
	goto	l11392
	line	312
	
l11414:	
;Main.c: 312: }
	goto	l11392
	line	289
	
l2261:	
	
l11416:	
	movf	(_buttonPressed),w	;volatile
	; Switch size 1, requested type "space"
; Number of cases is 5, Range of values is 1 to 5
; switch strategies available:
; Name         Instructions Cycles
; simple_byte           16     9 (average)
; direct_byte           26    11 (fixed)
; jumptable            263     9 (fixed)
;	Chosen strategy is simple_byte

	opt asmopt_off
	xorlw	1^0	; case 1
	skipnz
	goto	l2262
	xorlw	2^1	; case 2
	skipnz
	goto	l2264
	xorlw	3^2	; case 3
	skipnz
	goto	l11398
	xorlw	4^3	; case 4
	skipnz
	goto	l11402
	xorlw	5^4	; case 5
	skipnz
	goto	l11406
	goto	l11392
	opt asmopt_on

	line	312
	
l2263:	
	goto	l11392
	line	313
	
l2270:	
	line	282
	goto	l11392
	
l2271:	
	line	314
	
l2268:	
	return
	opt stack 0
GLOBAL	__end_of_calibrateIR
	__end_of_calibrateIR:
;; =============== function _calibrateIR ends ============

	signat	_calibrateIR,88
	global	_UpdateDisplay
psect	text1077,local,class=CODE,delta=2
global __ptext1077
__ptext1077:

;; *************** function _UpdateDisplay *****************
;; Defined at:
;;		line 236 in file "E:\Aldnoah.Zero\Assignment3\HMI.c"
;; Parameters:    Size  Location     Type
;;		None
;; Auto vars:     Size  Location     Type
;;  LCDOutput      16   41[BANK0 ] unsigned char [16]
;; Return value:  Size  Location     Type
;;		None               void
;; Registers used:
;;		wreg, fsr0l, fsr0h, status,2, status,0, btemp+1, pclath, cstack
;; Tracked objects:
;;		On entry : 0/0
;;		On exit  : 0/0
;;		Unchanged: 0/0
;; Data sizes:     COMMON   BANK0   BANK1   BANK3   BANK2
;;      Params:         0       0       0       0       0
;;      Locals:         0      16       0       0       0
;;      Temps:          0       4       0       0       0
;;      Totals:         0      20       0       0       0
;;Total ram usage:       20 bytes
;; Hardware stack levels used:    1
;; Hardware stack levels required when called:    5
;; This function calls:
;;		_lcd_write_control
;;		_sprintf
;;		_lcd_set_cursor
;;		_lcd_write_string
;;		___awmod
;; This function is called by:
;;		_main
;;		_calibrateIR
;;		_ChargeMode
;;		_scan360
;;		_robotMoveSpeed
;;		_robotTurnSpeed
;; This function uses a non-reentrant model
;;
psect	text1077
	file	"E:\Aldnoah.Zero\Assignment3\HMI.c"
	line	236
	global	__size_of_UpdateDisplay
	__size_of_UpdateDisplay	equ	__end_of_UpdateDisplay-_UpdateDisplay
	
_UpdateDisplay:	
	opt	stack 1
; Regs used in _UpdateDisplay: [wreg-fsr0h+status,2+status,0+btemp+1+pclath+cstack]
	line	237
	
l11344:	
;HMI.c: 237: char LCDOutput[16] = "";
	movlw	(UpdateDisplay@LCDOutput)&0ffh
	movwf	fsr0
	movlw	low(UpdateDisplay@F1242)
	bcf	status, 5	;RP0=0, select bank0
	bcf	status, 6	;RP1=0, select bank0
	movwf	(??_UpdateDisplay+0)+0
	movf	fsr0,w
	movwf	((??_UpdateDisplay+0)+0+1)
	movlw	16
	movwf	((??_UpdateDisplay+0)+0+2)
u5420:
	movf	(??_UpdateDisplay+0)+0,w
	movwf	fsr0
	bsf	status, 7	;select IRP bank3
	
	movf	indf,w
	movwf	((??_UpdateDisplay+0)+0+3)
	incf	(??_UpdateDisplay+0)+0,f
	movf	((??_UpdateDisplay+0)+0+1),w
	movwf	fsr0
	bcf	status, 7	;select IRP bank0
	
	movf	((??_UpdateDisplay+0)+0+3),w
	movwf	indf
	incf	((??_UpdateDisplay+0)+0+1),f
	decfsz	((??_UpdateDisplay+0)+0+2),f
	goto	u5420
	line	238
;HMI.c: 238: switch (currentMenu)
	goto	l11386
	line	240
;HMI.c: 239: {
;HMI.c: 240: case 0:
	
l4533:	
	line	241
	
l11346:	
;HMI.c: 241: lcd_write_control(0b00000001);
	movlw	(01h)
	fcall	_lcd_write_control
	line	242
	
l11348:	
;HMI.c: 242: sprintf(LCDOutput,"IR:%dcm D:%d",IRdistance, angleTurned);
	movlw	((STR_13-__stringbase))&0ffh
	bcf	status, 5	;RP0=0, select bank0
	bcf	status, 6	;RP1=0, select bank0
	movwf	(??_UpdateDisplay+0)+0
	movf	(??_UpdateDisplay+0)+0,w
	movwf	(?_sprintf)
	bsf	status, 5	;RP0=1, select bank1
	bcf	status, 6	;RP1=0, select bank1
	movf	(_IRdistance+1)^080h,w	;volatile
	bcf	status, 5	;RP0=0, select bank0
	bcf	status, 6	;RP1=0, select bank0
	clrf	1+(?_sprintf)+01h
	addwf	1+(?_sprintf)+01h
	bsf	status, 5	;RP0=1, select bank1
	bcf	status, 6	;RP1=0, select bank1
	movf	(_IRdistance)^080h,w	;volatile
	bcf	status, 5	;RP0=0, select bank0
	bcf	status, 6	;RP1=0, select bank0
	clrf	0+(?_sprintf)+01h
	addwf	0+(?_sprintf)+01h

	bsf	status, 5	;RP0=1, select bank1
	bcf	status, 6	;RP1=0, select bank1
	movf	(_angleTurned+1)^080h,w
	bcf	status, 5	;RP0=0, select bank0
	bcf	status, 6	;RP1=0, select bank0
	clrf	1+(?_sprintf)+03h
	addwf	1+(?_sprintf)+03h
	bsf	status, 5	;RP0=1, select bank1
	bcf	status, 6	;RP1=0, select bank1
	movf	(_angleTurned)^080h,w
	bcf	status, 5	;RP0=0, select bank0
	bcf	status, 6	;RP1=0, select bank0
	clrf	0+(?_sprintf)+03h
	addwf	0+(?_sprintf)+03h

	movlw	(UpdateDisplay@LCDOutput)&0ffh
	fcall	_sprintf
	line	243
	
l11350:	
;HMI.c: 243: lcd_set_cursor(0x00);
	movlw	(0)
	fcall	_lcd_set_cursor
	line	244
;HMI.c: 244: lcd_write_string(LCDOutput);
	movlw	(UpdateDisplay@LCDOutput&0ffh)
	bcf	status, 5	;RP0=0, select bank0
	bcf	status, 6	;RP1=0, select bank0
	movwf	(?_lcd_write_string)
	movlw	(0x0/2)
	movwf	(?_lcd_write_string+1)
	fcall	_lcd_write_string
	line	245
	
l11352:	
;HMI.c: 245: lcd_set_cursor(0x40);
	movlw	(040h)
	fcall	_lcd_set_cursor
	line	246
	
l11354:	
;HMI.c: 246: if (pos > 0)
	bsf	status, 5	;RP0=1, select bank1
	bcf	status, 6	;RP1=0, select bank1
	movf	(_pos+1)^080h,w
	xorlw	80h
	movwf	btemp+1
	movlw	(high(01h))^80h
	subwf	btemp+1,w
	skipz
	goto	u5435
	movlw	low(01h)
	subwf	(_pos)^080h,w
u5435:

	skipc
	goto	u5431
	goto	u5430
u5431:
	goto	l11358
u5430:
	line	247
	
l11356:	
;HMI.c: 247: lcd_write_string(shortMenuStrings[pos - 1]);
	bsf	status, 5	;RP0=1, select bank1
	bcf	status, 6	;RP1=0, select bank1
	movf	(_pos)^080h,w
	addlw	0FFh
	addlw	_shortMenuStrings&0ffh
	movwf	fsr0
	bcf	status, 7	;select IRP bank1
	movf	indf,w
	bcf	status, 5	;RP0=0, select bank0
	bcf	status, 6	;RP1=0, select bank0
	movwf	(?_lcd_write_string)
	movlw	80h
	movwf	(?_lcd_write_string+1)
	fcall	_lcd_write_string
	goto	l11360
	line	248
	
l4534:	
	line	249
	
l11358:	
;HMI.c: 248: else
;HMI.c: 249: lcd_write_string(shortMenuStrings[pos + 6 - 1]);
	bsf	status, 5	;RP0=1, select bank1
	bcf	status, 6	;RP1=0, select bank1
	movf	(_pos)^080h,w
	addlw	05h
	addlw	_shortMenuStrings&0ffh
	movwf	fsr0
	bcf	status, 7	;select IRP bank1
	movf	indf,w
	bcf	status, 5	;RP0=0, select bank0
	bcf	status, 6	;RP1=0, select bank0
	movwf	(?_lcd_write_string)
	movlw	80h
	movwf	(?_lcd_write_string+1)
	fcall	_lcd_write_string
	goto	l11360
	
l4535:	
	line	250
	
l11360:	
;HMI.c: 250: lcd_set_cursor(0x44);
	movlw	(044h)
	fcall	_lcd_set_cursor
	line	251
	
l11362:	
;HMI.c: 251: lcd_write_string(menuStrings[pos]);
	bsf	status, 5	;RP0=1, select bank1
	bcf	status, 6	;RP1=0, select bank1
	movf	(_pos)^080h,w
	addlw	_menuStrings&0ffh
	movwf	fsr0
	bcf	status, 7	;select IRP bank1
	movf	indf,w
	bcf	status, 5	;RP0=0, select bank0
	bcf	status, 6	;RP1=0, select bank0
	movwf	(?_lcd_write_string)
	movlw	80h
	movwf	(?_lcd_write_string+1)
	fcall	_lcd_write_string
	line	252
;HMI.c: 252: lcd_set_cursor(0x4D);
	movlw	(04Dh)
	fcall	_lcd_set_cursor
	line	253
	
l11364:	
;HMI.c: 253: lcd_write_string(shortMenuStrings[(pos + 1) % 6]);
	movlw	low(06h)
	bcf	status, 5	;RP0=0, select bank0
	bcf	status, 6	;RP1=0, select bank0
	movwf	(?___awmod)
	movlw	high(06h)
	movwf	((?___awmod))+1
	bsf	status, 5	;RP0=1, select bank1
	bcf	status, 6	;RP1=0, select bank1
	movf	(_pos)^080h,w
	addlw	low(01h)
	bcf	status, 5	;RP0=0, select bank0
	bcf	status, 6	;RP1=0, select bank0
	movwf	0+(?___awmod)+02h
	bsf	status, 5	;RP0=1, select bank1
	bcf	status, 6	;RP1=0, select bank1
	movf	(_pos+1)^080h,w
	skipnc
	addlw	1
	addlw	high(01h)
	bcf	status, 5	;RP0=0, select bank0
	bcf	status, 6	;RP1=0, select bank0
	movwf	1+0+(?___awmod)+02h
	fcall	___awmod
	bcf	status, 5	;RP0=0, select bank0
	bcf	status, 6	;RP1=0, select bank0
	movf	(0+(?___awmod)),w
	addlw	_shortMenuStrings&0ffh
	movwf	fsr0
	bcf	status, 7	;select IRP bank1
	movf	indf,w
	movwf	(?_lcd_write_string)
	movlw	80h
	movwf	(?_lcd_write_string+1)
	fcall	_lcd_write_string
	line	254
;HMI.c: 254: break;
	goto	l4540
	line	255
;HMI.c: 255: case 1:
	
l4537:	
	line	256
	
l11366:	
;HMI.c: 256: lcd_write_control(0b00000001);
	movlw	(01h)
	fcall	_lcd_write_control
	line	257
;HMI.c: 257: lcd_set_cursor(0x00);
	movlw	(0)
	fcall	_lcd_set_cursor
	line	258
	
l11368:	
;HMI.c: 258: lcd_write_string("Zero Step_Motor");
	movlw	low((STR_14-__stringbase))
	bcf	status, 5	;RP0=0, select bank0
	bcf	status, 6	;RP1=0, select bank0
	movwf	(?_lcd_write_string)
	movlw	80h
	movwf	(?_lcd_write_string+1)
	fcall	_lcd_write_string
	line	259
	
l11370:	
;HMI.c: 259: lcd_set_cursor(0x40);
	movlw	(040h)
	fcall	_lcd_set_cursor
	line	260
;HMI.c: 260: lcd_write_string("<<<");
	movlw	low((STR_15-__stringbase))
	bcf	status, 5	;RP0=0, select bank0
	bcf	status, 6	;RP1=0, select bank0
	movwf	(?_lcd_write_string)
	movlw	80h
	movwf	(?_lcd_write_string+1)
	fcall	_lcd_write_string
	line	261
	
l11372:	
;HMI.c: 261: lcd_set_cursor(0x44);
	movlw	(044h)
	fcall	_lcd_set_cursor
	line	262
	
l11374:	
;HMI.c: 262: lcd_write_string("CONFIRM");
	movlw	low((STR_16-__stringbase))
	bcf	status, 5	;RP0=0, select bank0
	bcf	status, 6	;RP1=0, select bank0
	movwf	(?_lcd_write_string)
	movlw	80h
	movwf	(?_lcd_write_string+1)
	fcall	_lcd_write_string
	line	263
;HMI.c: 263: lcd_set_cursor(0x4D);
	movlw	(04Dh)
	fcall	_lcd_set_cursor
	line	264
	
l11376:	
;HMI.c: 264: lcd_write_string(">>>");
	movlw	low((STR_17-__stringbase))
	bcf	status, 5	;RP0=0, select bank0
	bcf	status, 6	;RP1=0, select bank0
	movwf	(?_lcd_write_string)
	movlw	80h
	movwf	(?_lcd_write_string+1)
	fcall	_lcd_write_string
	line	265
;HMI.c: 265: break;
	goto	l4540
	line	266
;HMI.c: 266: case 2:
	
l4538:	
	line	267
	
l11378:	
;HMI.c: 267: lcd_write_control(0b00000001);
	movlw	(01h)
	fcall	_lcd_write_control
	line	268
;HMI.c: 268: lcd_set_cursor(0x00);
	movlw	(0)
	fcall	_lcd_set_cursor
	line	269
	
l11380:	
;HMI.c: 269: lcd_write_string(" Charging Mode ");
	movlw	low((STR_18-__stringbase))
	bcf	status, 5	;RP0=0, select bank0
	bcf	status, 6	;RP1=0, select bank0
	movwf	(?_lcd_write_string)
	movlw	80h
	movwf	(?_lcd_write_string+1)
	fcall	_lcd_write_string
	line	270
	
l11382:	
;HMI.c: 270: lcd_set_cursor(0x44);
	movlw	(044h)
	fcall	_lcd_set_cursor
	line	271
;HMI.c: 271: lcd_write_string("  EXIT  ");
	movlw	low((STR_19-__stringbase))
	bcf	status, 5	;RP0=0, select bank0
	bcf	status, 6	;RP1=0, select bank0
	movwf	(?_lcd_write_string)
	movlw	80h
	movwf	(?_lcd_write_string+1)
	fcall	_lcd_write_string
	line	272
;HMI.c: 272: break;
	goto	l4540
	line	273
;HMI.c: 273: default:
	
l4539:	
	line	274
;HMI.c: 274: break;
	goto	l4540
	line	275
	
l11384:	
;HMI.c: 275: }
	goto	l4540
	line	238
	
l4532:	
	
l11386:	
	bsf	status, 5	;RP0=1, select bank1
	bcf	status, 6	;RP1=0, select bank1
	movf	(_currentMenu)^080h,w	;volatile
	; Switch size 1, requested type "space"
; Number of cases is 3, Range of values is 0 to 2
; switch strategies available:
; Name         Instructions Cycles
; simple_byte           10     6 (average)
; direct_byte           17     8 (fixed)
; jumptable            260     6 (fixed)
; rangetable             7     6 (fixed)
; spacedrange           12     9 (fixed)
; locatedrange           3     3 (fixed)
;	Chosen strategy is simple_byte

	opt asmopt_off
	xorlw	0^0	; case 0
	skipnz
	goto	l11346
	xorlw	1^0	; case 1
	skipnz
	goto	l11366
	xorlw	2^1	; case 2
	skipnz
	goto	l11378
	goto	l4540
	opt asmopt_on

	line	275
	
l4536:	
	line	276
	
l4540:	
	return
	opt stack 0
GLOBAL	__end_of_UpdateDisplay
	__end_of_UpdateDisplay:
;; =============== function _UpdateDisplay ends ============

	signat	_UpdateDisplay,88
	global	_readAvgDistance
psect	text1078,local,class=CODE,delta=2
global __ptext1078
__ptext1078:

;; *************** function _readAvgDistance *****************
;; Defined at:
;;		line 27 in file "E:\Aldnoah.Zero\Assignment3\infrared.c"
;; Parameters:    Size  Location     Type
;;		None
;; Auto vars:     Size  Location     Type
;;  i               2   22[BANK0 ] int 
;;  tempIR          2   20[BANK0 ] unsigned int 
;;  j               2   18[BANK0 ] int 
;;  fullval         2   16[BANK0 ] unsigned int 
;; Return value:  Size  Location     Type
;;		None               void
;; Registers used:
;;		wreg, fsr0l, fsr0h, status,2, status,0, btemp+1, pclath, cstack
;; Tracked objects:
;;		On entry : 0/0
;;		On exit  : 0/0
;;		Unchanged: 0/0
;; Data sizes:     COMMON   BANK0   BANK1   BANK3   BANK2
;;      Params:         0       0       0       0       0
;;      Locals:         0       8       0       0       0
;;      Temps:          0       0       0       0       0
;;      Totals:         0       8       0       0       0
;;Total ram usage:        8 bytes
;; Hardware stack levels used:    1
;; Hardware stack levels required when called:    6
;; This function calls:
;;		_readDistance
;;		___lwdiv
;;		_ADCconvert
;; This function is called by:
;;		_main
;;		_scan360
;; This function uses a non-reentrant model
;;
psect	text1078
	file	"E:\Aldnoah.Zero\Assignment3\infrared.c"
	line	27
	global	__size_of_readAvgDistance
	__size_of_readAvgDistance	equ	__end_of_readAvgDistance-_readAvgDistance
	
_readAvgDistance:	
	opt	stack 0
; Regs used in _readAvgDistance: [wreg-fsr0h+status,2+status,0+btemp+1+pclath+cstack]
	line	28
	
l11328:	
;infrared.c: 28: unsigned int fullval = 0, tempIR = 0;
	bcf	status, 5	;RP0=0, select bank0
	bcf	status, 6	;RP1=0, select bank0
	clrf	(readAvgDistance@fullval)
	clrf	(readAvgDistance@fullval+1)
	clrf	(readAvgDistance@tempIR)
	clrf	(readAvgDistance@tempIR+1)
	line	29
;infrared.c: 29: int j = 0;
	clrf	(readAvgDistance@j)
	clrf	(readAvgDistance@j+1)
	line	31
;infrared.c: 31: for (int i = 0; i < 8; i++)
	clrf	(readAvgDistance@i)
	clrf	(readAvgDistance@i+1)
	
l11330:	
	movf	(readAvgDistance@i+1),w
	xorlw	80h
	movwf	btemp+1
	movlw	(high(08h))^80h
	subwf	btemp+1,w
	skipz
	goto	u5395
	movlw	low(08h)
	subwf	(readAvgDistance@i),w
u5395:

	skipc
	goto	u5391
	goto	u5390
u5391:
	goto	l11334
u5390:
	goto	l11342
	
l11332:	
	goto	l11342
	line	32
	
l2994:	
	line	33
	
l11334:	
;infrared.c: 32: {
;infrared.c: 33: tempIR = readDistance();
	fcall	_readDistance
	bcf	status, 5	;RP0=0, select bank0
	bcf	status, 6	;RP1=0, select bank0
	movf	(1+(?_readDistance)),w
	clrf	(readAvgDistance@tempIR+1)
	addwf	(readAvgDistance@tempIR+1)
	movf	(0+(?_readDistance)),w
	clrf	(readAvgDistance@tempIR)
	addwf	(readAvgDistance@tempIR)

	line	34
	
l11336:	
;infrared.c: 34: if (tempIR <= 1000)
	movlw	high(03E9h)
	subwf	(readAvgDistance@tempIR+1),w
	movlw	low(03E9h)
	skipnz
	subwf	(readAvgDistance@tempIR),w
	skipnc
	goto	u5401
	goto	u5400
u5401:
	goto	l2996
u5400:
	line	36
	
l11338:	
;infrared.c: 35: {
;infrared.c: 36: fullval += tempIR;
	movf	(readAvgDistance@tempIR),w
	addwf	(readAvgDistance@fullval),f
	skipnc
	incf	(readAvgDistance@fullval+1),f
	movf	(readAvgDistance@tempIR+1),w
	addwf	(readAvgDistance@fullval+1),f
	line	37
;infrared.c: 37: j++;
	movlw	low(01h)
	addwf	(readAvgDistance@j),f
	skipnc
	incf	(readAvgDistance@j+1),f
	movlw	high(01h)
	addwf	(readAvgDistance@j+1),f
	line	38
	
l2996:	
	line	31
	movlw	low(01h)
	addwf	(readAvgDistance@i),f
	skipnc
	incf	(readAvgDistance@i+1),f
	movlw	high(01h)
	addwf	(readAvgDistance@i+1),f
	
l11340:	
	movf	(readAvgDistance@i+1),w
	xorlw	80h
	movwf	btemp+1
	movlw	(high(08h))^80h
	subwf	btemp+1,w
	skipz
	goto	u5415
	movlw	low(08h)
	subwf	(readAvgDistance@i),w
u5415:

	skipc
	goto	u5411
	goto	u5410
u5411:
	goto	l11334
u5410:
	goto	l11342
	
l2995:	
	line	40
	
l11342:	
;infrared.c: 38: }
;infrared.c: 39: }
;infrared.c: 40: adcVal = fullval / j;
	bcf	status, 5	;RP0=0, select bank0
	bcf	status, 6	;RP1=0, select bank0
	movf	(readAvgDistance@j+1),w
	clrf	(?___lwdiv+1)
	addwf	(?___lwdiv+1)
	movf	(readAvgDistance@j),w
	clrf	(?___lwdiv)
	addwf	(?___lwdiv)

	movf	(readAvgDistance@fullval+1),w
	clrf	1+(?___lwdiv)+02h
	addwf	1+(?___lwdiv)+02h
	movf	(readAvgDistance@fullval),w
	clrf	0+(?___lwdiv)+02h
	addwf	0+(?___lwdiv)+02h

	fcall	___lwdiv
	bcf	status, 5	;RP0=0, select bank0
	bcf	status, 6	;RP1=0, select bank0
	movf	(1+(?___lwdiv)),w
	bsf	status, 5	;RP0=1, select bank1
	bcf	status, 6	;RP1=0, select bank1
	clrf	(_adcVal+1)^080h	;volatile
	addwf	(_adcVal+1)^080h	;volatile
	bcf	status, 5	;RP0=0, select bank0
	bcf	status, 6	;RP1=0, select bank0
	movf	(0+(?___lwdiv)),w
	bsf	status, 5	;RP0=1, select bank1
	bcf	status, 6	;RP1=0, select bank1
	clrf	(_adcVal)^080h	;volatile
	addwf	(_adcVal)^080h	;volatile

	line	41
;infrared.c: 41: ADCconvert();
	fcall	_ADCconvert
	line	42
	
l2997:	
	return
	opt stack 0
GLOBAL	__end_of_readAvgDistance
	__end_of_readAvgDistance:
;; =============== function _readAvgDistance ends ============

	signat	_readAvgDistance,88
	global	_init
psect	text1079,local,class=CODE,delta=2
global __ptext1079
__ptext1079:

;; *************** function _init *****************
;; Defined at:
;;		line 139 in file "E:\Aldnoah.Zero\Assignment3\Main.c"
;; Parameters:    Size  Location     Type
;;		None
;; Auto vars:     Size  Location     Type
;;		None
;; Return value:  Size  Location     Type
;;		None               void
;; Registers used:
;;		wreg, fsr0l, fsr0h, status,2, status,0, pclath, cstack
;; Tracked objects:
;;		On entry : 0/0
;;		On exit  : 0/0
;;		Unchanged: 0/0
;; Data sizes:     COMMON   BANK0   BANK1   BANK3   BANK2
;;      Params:         0       0       0       0       0
;;      Locals:         0       0       0       0       0
;;      Temps:          0       1       0       0       0
;;      Totals:         0       1       0       0       0
;;Total ram usage:        1 bytes
;; Hardware stack levels used:    1
;; Hardware stack levels required when called:    5
;; This function calls:
;;		_ser_init
;;		_init_adc
;;		_lcd_init
;;		_robo_init
;; This function is called by:
;;		_main
;; This function uses a non-reentrant model
;;
psect	text1079
	file	"E:\Aldnoah.Zero\Assignment3\Main.c"
	line	139
	global	__size_of_init
	__size_of_init	equ	__end_of_init-_init
	
_init:	
	opt	stack 2
; Regs used in _init: [wreg-fsr0h+status,2+status,0+pclath+cstack]
	line	140
	
l11302:	
;Main.c: 140: buttonPressed = 0;
	clrf	(_buttonPressed)	;volatile
	line	142
	
l11304:	
;Main.c: 142: TRISB = 0b11111100;
	movlw	(0FCh)
	bsf	status, 5	;RP0=1, select bank1
	bcf	status, 6	;RP1=0, select bank1
	movwf	(134)^080h	;volatile
	line	143
	
l11306:	
;Main.c: 143: TRISC &= 0b10010000;
	movlw	(090h)
	bcf	status, 5	;RP0=0, select bank0
	bcf	status, 6	;RP1=0, select bank0
	movwf	(??_init+0)+0
	movf	(??_init+0)+0,w
	bsf	status, 5	;RP0=1, select bank1
	bcf	status, 6	;RP1=0, select bank1
	andwf	(135)^080h,f	;volatile
	line	146
	
l11308:	
;Main.c: 146: SSPSTAT = 0b01000000;
	movlw	(040h)
	movwf	(148)^080h	;volatile
	line	147
	
l11310:	
;Main.c: 147: SSPCON = 0b10100001;
	movlw	(0A1h)
	bcf	status, 5	;RP0=0, select bank0
	bcf	status, 6	;RP1=0, select bank0
	movwf	(20)	;volatile
	line	150
	
l11312:	
;Main.c: 150: OPTION_REG = 0b00000100;
	movlw	(04h)
	bsf	status, 5	;RP0=1, select bank1
	bcf	status, 6	;RP1=0, select bank1
	movwf	(129)^080h	;volatile
	line	153
	
l11314:	
;Main.c: 153: ser_init();
	fcall	_ser_init
	line	154
	
l11316:	
;Main.c: 154: init_adc();
	fcall	_init_adc
	line	155
	
l11318:	
;Main.c: 155: lcd_init();
	fcall	_lcd_init
	line	156
	
l11320:	
;Main.c: 156: robo_init();
	fcall	_robo_init
	line	160
	
l11322:	
;Main.c: 160: TMR0IE = 1;
	bsf	(93/8),(93)&7
	line	162
	
l11324:	
;Main.c: 162: PEIE=1;
	bsf	(94/8),(94)&7
	line	164
	
l11326:	
;Main.c: 164: (GIE = 1);
	bsf	(95/8),(95)&7
	line	165
	
l2227:	
	return
	opt stack 0
GLOBAL	__end_of_init
	__end_of_init:
;; =============== function _init ends ============

	signat	_init,88
	global	_readDistance
psect	text1080,local,class=CODE,delta=2
global __ptext1080
__ptext1080:

;; *************** function _readDistance *****************
;; Defined at:
;;		line 47 in file "E:\Aldnoah.Zero\Assignment3\infrared.c"
;; Parameters:    Size  Location     Type
;;		None
;; Auto vars:     Size  Location     Type
;;  readVal         2   12[BANK0 ] unsigned int 
;; Return value:  Size  Location     Type
;;                  2    8[BANK0 ] unsigned int 
;; Registers used:
;;		wreg, fsr0l, fsr0h, status,2, status,0, pclath, cstack
;; Tracked objects:
;;		On entry : 0/0
;;		On exit  : 0/0
;;		Unchanged: 0/0
;; Data sizes:     COMMON   BANK0   BANK1   BANK3   BANK2
;;      Params:         0       2       0       0       0
;;      Locals:         0       2       0       0       0
;;      Temps:          0       2       0       0       0
;;      Totals:         0       6       0       0       0
;;Total ram usage:        6 bytes
;; Hardware stack levels used:    1
;; Hardware stack levels required when called:    5
;; This function calls:
;;		_adc_read_channel
;; This function is called by:
;;		_readAvgDistance
;; This function uses a non-reentrant model
;;
psect	text1080
	file	"E:\Aldnoah.Zero\Assignment3\infrared.c"
	line	47
	global	__size_of_readDistance
	__size_of_readDistance	equ	__end_of_readDistance-_readDistance
	
_readDistance:	
	opt	stack 0
; Regs used in _readDistance: [wreg-fsr0h+status,2+status,0+pclath+cstack]
	line	50
	
l11296:	
;infrared.c: 48: unsigned int readVal;
;infrared.c: 50: readVal = adc_read_channel(0);
	movlw	(0)
	fcall	_adc_read_channel
	bcf	status, 5	;RP0=0, select bank0
	bcf	status, 6	;RP1=0, select bank0
	movwf	(??_readDistance+0)+0
	clrf	(??_readDistance+0)+0+1
	movf	0+(??_readDistance+0)+0,w
	movwf	(readDistance@readVal)
	movf	1+(??_readDistance+0)+0,w
	movwf	(readDistance@readVal+1)
	line	52
	
l11298:	
;infrared.c: 52: return readVal;
	movf	(readDistance@readVal+1),w
	clrf	(?_readDistance+1)
	addwf	(?_readDistance+1)
	movf	(readDistance@readVal),w
	clrf	(?_readDistance)
	addwf	(?_readDistance)

	goto	l3000
	
l11300:	
	line	53
	
l3000:	
	return
	opt stack 0
GLOBAL	__end_of_readDistance
	__end_of_readDistance:
;; =============== function _readDistance ends ============

	signat	_readDistance,90
	global	_robot_read
psect	text1081,local,class=CODE,delta=2
global __ptext1081
__ptext1081:

;; *************** function _robot_read *****************
;; Defined at:
;;		line 41 in file "E:\Aldnoah.Zero\Assignment3\robot.c"
;; Parameters:    Size  Location     Type
;;  readType        1    wreg     unsigned char 
;; Auto vars:     Size  Location     Type
;;  readType        1    4[BANK0 ] unsigned char 
;; Return value:  Size  Location     Type
;;		None               void
;; Registers used:
;;		wreg, fsr0l, fsr0h, status,2, status,0, pclath, cstack
;; Tracked objects:
;;		On entry : 0/0
;;		On exit  : 0/0
;;		Unchanged: 0/0
;; Data sizes:     COMMON   BANK0   BANK1   BANK3   BANK2
;;      Params:         0       0       0       0       0
;;      Locals:         0       1       0       0       0
;;      Temps:          0       2       0       0       0
;;      Totals:         0       3       0       0       0
;;Total ram usage:        3 bytes
;; Hardware stack levels used:    1
;; Hardware stack levels required when called:    5
;; This function calls:
;;		_ser_putch
;;		_ser_getch
;; This function is called by:
;;		_main
;;		_robotMoveSpeed
;;		_robotTurnSpeed
;; This function uses a non-reentrant model
;;
psect	text1081
	file	"E:\Aldnoah.Zero\Assignment3\robot.c"
	line	41
	global	__size_of_robot_read
	__size_of_robot_read	equ	__end_of_robot_read-_robot_read
	
_robot_read:	
	opt	stack 1
; Regs used in _robot_read: [wreg-fsr0h+status,2+status,0+pclath+cstack]
;robot_read@readType stored from wreg
	bcf	status, 5	;RP0=0, select bank0
	bcf	status, 6	;RP1=0, select bank0
	movwf	(robot_read@readType)
	line	42
	
l11248:	
;robot.c: 42: ser_putch(142);
	movlw	(08Eh)
	fcall	_ser_putch
	line	43
;robot.c: 43: ser_putch(7);
	movlw	(07h)
	fcall	_ser_putch
	line	44
	
l11250:	
;robot.c: 44: _delay((unsigned long)((5)*(20000000/4000.0)));
	opt asmopt_off
movlw	33
	bcf	status, 5	;RP0=0, select bank0
	bcf	status, 6	;RP1=0, select bank0
movwf	((??_robot_read+0)+0+1),f
	movlw	118
movwf	((??_robot_read+0)+0),f
u5747:
	decfsz	((??_robot_read+0)+0),f
	goto	u5747
	decfsz	((??_robot_read+0)+0+1),f
	goto	u5747
	clrwdt
opt asmopt_on

	line	45
	
l11252:	
;robot.c: 45: BumpSensors = ser_getch();
	fcall	_ser_getch
	bcf	status, 5	;RP0=0, select bank0
	bcf	status, 6	;RP1=0, select bank0
	movwf	(??_robot_read+0)+0
	movf	(??_robot_read+0)+0,w
	bsf	status, 5	;RP0=1, select bank1
	bcf	status, 6	;RP1=0, select bank1
	movwf	(_BumpSensors)^080h	;volatile
	line	46
	
l11254:	
;robot.c: 46: ser_putch(142);
	movlw	(08Eh)
	fcall	_ser_putch
	line	47
	
l11256:	
;robot.c: 47: ser_putch(13);
	movlw	(0Dh)
	fcall	_ser_putch
	line	48
;robot.c: 48: _delay((unsigned long)((5)*(20000000/4000.0)));
	opt asmopt_off
movlw	33
	bcf	status, 5	;RP0=0, select bank0
	bcf	status, 6	;RP1=0, select bank0
movwf	((??_robot_read+0)+0+1),f
	movlw	118
movwf	((??_robot_read+0)+0),f
u5757:
	decfsz	((??_robot_read+0)+0),f
	goto	u5757
	decfsz	((??_robot_read+0)+0+1),f
	goto	u5757
	clrwdt
opt asmopt_on

	line	49
	
l11258:	
;robot.c: 49: VwallSensor = ser_getch();
	fcall	_ser_getch
	bcf	status, 5	;RP0=0, select bank0
	bcf	status, 6	;RP1=0, select bank0
	movwf	(??_robot_read+0)+0
	movf	(??_robot_read+0)+0,w
	bsf	status, 5	;RP0=1, select bank1
	bcf	status, 6	;RP1=0, select bank1
	movwf	(_VwallSensor)^080h	;volatile
	line	51
	
l11260:	
;robot.c: 51: if (readType == 0)
	bcf	status, 5	;RP0=0, select bank0
	bcf	status, 6	;RP1=0, select bank0
	movf	(robot_read@readType),f
	skipz
	goto	u5361
	goto	u5360
u5361:
	goto	l11270
u5360:
	line	53
	
l11262:	
;robot.c: 52: {
;robot.c: 53: ser_putch(142);
	movlw	(08Eh)
	fcall	_ser_putch
	line	54
;robot.c: 54: ser_putch(19);
	movlw	(013h)
	fcall	_ser_putch
	line	55
	
l11264:	
;robot.c: 55: _delay((unsigned long)((5)*(20000000/4000.0)));
	opt asmopt_off
movlw	33
	bcf	status, 5	;RP0=0, select bank0
	bcf	status, 6	;RP1=0, select bank0
movwf	((??_robot_read+0)+0+1),f
	movlw	118
movwf	((??_robot_read+0)+0),f
u5767:
	decfsz	((??_robot_read+0)+0),f
	goto	u5767
	decfsz	((??_robot_read+0)+0+1),f
	goto	u5767
	clrwdt
opt asmopt_on

	line	56
	
l11266:	
;robot.c: 56: DistHighByte = ser_getch();
	fcall	_ser_getch
	bcf	status, 5	;RP0=0, select bank0
	bcf	status, 6	;RP1=0, select bank0
	movwf	(??_robot_read+0)+0
	movf	(??_robot_read+0)+0,w
	bsf	status, 5	;RP0=1, select bank1
	bcf	status, 6	;RP1=0, select bank1
	movwf	(_DistHighByte)^080h	;volatile
	line	57
	
l11268:	
;robot.c: 57: DistLowByte = ser_getch();
	fcall	_ser_getch
	bcf	status, 5	;RP0=0, select bank0
	bcf	status, 6	;RP1=0, select bank0
	movwf	(??_robot_read+0)+0
	movf	(??_robot_read+0)+0,w
	bsf	status, 5	;RP0=1, select bank1
	bcf	status, 6	;RP1=0, select bank1
	movwf	(_DistLowByte)^080h	;volatile
	line	58
;robot.c: 58: }
	goto	l6018
	line	59
	
l6013:	
	
l11270:	
;robot.c: 59: else if (readType == 1)
	bcf	status, 5	;RP0=0, select bank0
	movf	(robot_read@readType),w
	xorlw	01h
	skipz
	goto	u5371
	goto	u5370
u5371:
	goto	l11280
u5370:
	line	61
	
l11272:	
;robot.c: 60: {
;robot.c: 61: ser_putch(142);
	movlw	(08Eh)
	fcall	_ser_putch
	line	62
;robot.c: 62: ser_putch(20);
	movlw	(014h)
	fcall	_ser_putch
	line	63
	
l11274:	
;robot.c: 63: _delay((unsigned long)((5)*(20000000/4000.0)));
	opt asmopt_off
movlw	33
	bcf	status, 5	;RP0=0, select bank0
	bcf	status, 6	;RP1=0, select bank0
movwf	((??_robot_read+0)+0+1),f
	movlw	118
movwf	((??_robot_read+0)+0),f
u5777:
	decfsz	((??_robot_read+0)+0),f
	goto	u5777
	decfsz	((??_robot_read+0)+0+1),f
	goto	u5777
	clrwdt
opt asmopt_on

	line	64
	
l11276:	
;robot.c: 64: AngleHighByte = ser_getch();
	fcall	_ser_getch
	bcf	status, 5	;RP0=0, select bank0
	bcf	status, 6	;RP1=0, select bank0
	movwf	(??_robot_read+0)+0
	movf	(??_robot_read+0)+0,w
	bsf	status, 5	;RP0=1, select bank1
	bcf	status, 6	;RP1=0, select bank1
	movwf	(_AngleHighByte)^080h	;volatile
	line	65
	
l11278:	
;robot.c: 65: AngleLowByte = ser_getch();
	fcall	_ser_getch
	bcf	status, 5	;RP0=0, select bank0
	bcf	status, 6	;RP1=0, select bank0
	movwf	(??_robot_read+0)+0
	movf	(??_robot_read+0)+0,w
	bsf	status, 5	;RP0=1, select bank1
	bcf	status, 6	;RP1=0, select bank1
	movwf	(_AngleLowByte)^080h	;volatile
	line	66
;robot.c: 66: }
	goto	l6018
	line	67
	
l6015:	
	
l11280:	
;robot.c: 67: else if (readType == 2)
	bcf	status, 5	;RP0=0, select bank0
	movf	(robot_read@readType),w
	xorlw	02h
	skipz
	goto	u5381
	goto	u5380
u5381:
	goto	l6018
u5380:
	line	70
	
l11282:	
;robot.c: 68: {
;robot.c: 70: ser_putch(142);
	movlw	(08Eh)
	fcall	_ser_putch
	line	71
;robot.c: 71: ser_putch(19);
	movlw	(013h)
	fcall	_ser_putch
	line	72
	
l11284:	
;robot.c: 72: _delay((unsigned long)((5)*(20000000/4000.0)));
	opt asmopt_off
movlw	33
	bcf	status, 5	;RP0=0, select bank0
	bcf	status, 6	;RP1=0, select bank0
movwf	((??_robot_read+0)+0+1),f
	movlw	118
movwf	((??_robot_read+0)+0),f
u5787:
	decfsz	((??_robot_read+0)+0),f
	goto	u5787
	decfsz	((??_robot_read+0)+0+1),f
	goto	u5787
	clrwdt
opt asmopt_on

	line	73
	
l11286:	
;robot.c: 73: DistHighByte = ser_getch();
	fcall	_ser_getch
	bcf	status, 5	;RP0=0, select bank0
	bcf	status, 6	;RP1=0, select bank0
	movwf	(??_robot_read+0)+0
	movf	(??_robot_read+0)+0,w
	bsf	status, 5	;RP0=1, select bank1
	bcf	status, 6	;RP1=0, select bank1
	movwf	(_DistHighByte)^080h	;volatile
	line	74
	
l11288:	
;robot.c: 74: DistLowByte = ser_getch();
	fcall	_ser_getch
	bcf	status, 5	;RP0=0, select bank0
	bcf	status, 6	;RP1=0, select bank0
	movwf	(??_robot_read+0)+0
	movf	(??_robot_read+0)+0,w
	bsf	status, 5	;RP0=1, select bank1
	bcf	status, 6	;RP1=0, select bank1
	movwf	(_DistLowByte)^080h	;volatile
	line	75
	
l11290:	
;robot.c: 75: ser_putch(142);
	movlw	(08Eh)
	fcall	_ser_putch
	line	76
	
l11292:	
;robot.c: 76: ser_putch(20);
	movlw	(014h)
	fcall	_ser_putch
	line	77
	
l11294:	
;robot.c: 77: _delay((unsigned long)((5)*(20000000/4000.0)));
	opt asmopt_off
movlw	33
	bcf	status, 5	;RP0=0, select bank0
	bcf	status, 6	;RP1=0, select bank0
movwf	((??_robot_read+0)+0+1),f
	movlw	118
movwf	((??_robot_read+0)+0),f
u5797:
	decfsz	((??_robot_read+0)+0),f
	goto	u5797
	decfsz	((??_robot_read+0)+0+1),f
	goto	u5797
	clrwdt
opt asmopt_on

	line	78
;robot.c: 78: AngleHighByte = ser_getch();
	fcall	_ser_getch
	bcf	status, 5	;RP0=0, select bank0
	bcf	status, 6	;RP1=0, select bank0
	movwf	(??_robot_read+0)+0
	movf	(??_robot_read+0)+0,w
	bsf	status, 5	;RP0=1, select bank1
	bcf	status, 6	;RP1=0, select bank1
	movwf	(_AngleHighByte)^080h	;volatile
	line	79
;robot.c: 79: AngleLowByte = ser_getch();
	fcall	_ser_getch
	bcf	status, 5	;RP0=0, select bank0
	bcf	status, 6	;RP1=0, select bank0
	movwf	(??_robot_read+0)+0
	movf	(??_robot_read+0)+0,w
	bsf	status, 5	;RP0=1, select bank1
	bcf	status, 6	;RP1=0, select bank1
	movwf	(_AngleLowByte)^080h	;volatile
	goto	l6018
	line	80
	
l6017:	
	goto	l6018
	line	81
	
l6016:	
	goto	l6018
	
l6014:	
	
l6018:	
	return
	opt stack 0
GLOBAL	__end_of_robot_read
	__end_of_robot_read:
;; =============== function _robot_read ends ============

	signat	_robot_read,4216
	global	_lcd_init
psect	text1082,local,class=CODE,delta=2
global __ptext1082
__ptext1082:

;; *************** function _lcd_init *****************
;; Defined at:
;;		line 101 in file "E:\Aldnoah.Zero\Assignment3\lcd.c"
;; Parameters:    Size  Location     Type
;;		None
;; Auto vars:     Size  Location     Type
;;		None
;; Return value:  Size  Location     Type
;;		None               void
;; Registers used:
;;		wreg, status,2, status,0, pclath, cstack
;; Tracked objects:
;;		On entry : 0/0
;;		On exit  : 0/0
;;		Unchanged: 0/0
;; Data sizes:     COMMON   BANK0   BANK1   BANK3   BANK2
;;      Params:         0       0       0       0       0
;;      Locals:         0       0       0       0       0
;;      Temps:          0       0       0       0       0
;;      Totals:         0       0       0       0       0
;;Total ram usage:        0 bytes
;; Hardware stack levels used:    1
;; Hardware stack levels required when called:    4
;; This function calls:
;;		_lcd_write_control
;; This function is called by:
;;		_init
;; This function uses a non-reentrant model
;;
psect	text1082
	file	"E:\Aldnoah.Zero\Assignment3\lcd.c"
	line	101
	global	__size_of_lcd_init
	__size_of_lcd_init	equ	__end_of_lcd_init-_lcd_init
	
_lcd_init:	
	opt	stack 2
; Regs used in _lcd_init: [wreg+status,2+status,0+pclath+cstack]
	line	105
	
l11228:	
;lcd.c: 105: ADCON1 = 0b00000010;
	movlw	(02h)
	bsf	status, 5	;RP0=1, select bank1
	bcf	status, 6	;RP1=0, select bank1
	movwf	(159)^080h	;volatile
	line	108
	
l11230:	
;lcd.c: 108: PORTD = 0;
	bcf	status, 5	;RP0=0, select bank0
	bcf	status, 6	;RP1=0, select bank0
	clrf	(8)	;volatile
	line	109
	
l11232:	
;lcd.c: 109: PORTE = 0;
	clrf	(9)	;volatile
	line	111
	
l11234:	
;lcd.c: 111: TRISD = 0b00000000;
	bsf	status, 5	;RP0=1, select bank1
	bcf	status, 6	;RP1=0, select bank1
	clrf	(136)^080h	;volatile
	line	112
	
l11236:	
;lcd.c: 112: TRISE = 0b00000000;
	clrf	(137)^080h	;volatile
	line	115
	
l11238:	
;lcd.c: 115: lcd_write_control(0b00000001);
	movlw	(01h)
	fcall	_lcd_write_control
	line	116
	
l11240:	
;lcd.c: 116: lcd_write_control(0b00111000);
	movlw	(038h)
	fcall	_lcd_write_control
	line	117
	
l11242:	
;lcd.c: 117: lcd_write_control(0b00001100);
	movlw	(0Ch)
	fcall	_lcd_write_control
	line	118
	
l11244:	
;lcd.c: 118: lcd_write_control(0b00000110);
	movlw	(06h)
	fcall	_lcd_write_control
	line	119
	
l11246:	
;lcd.c: 119: lcd_write_control(0b00000010);
	movlw	(02h)
	fcall	_lcd_write_control
	line	121
	
l1429:	
	return
	opt stack 0
GLOBAL	__end_of_lcd_init
	__end_of_lcd_init:
;; =============== function _lcd_init ends ============

	signat	_lcd_init,88
	global	_lcd_write_string
psect	text1083,local,class=CODE,delta=2
global __ptext1083
__ptext1083:

;; *************** function _lcd_write_string *****************
;; Defined at:
;;		line 48 in file "E:\Aldnoah.Zero\Assignment3\lcd.c"
;; Parameters:    Size  Location     Type
;;  s               2    7[BANK0 ] PTR unsigned char 
;;		 -> STR_19(9), STR_18(16), STR_17(4), STR_16(8), 
;;		 -> STR_15(4), STR_14(16), UpdateDisplay@LCDOutput(16), STR_12(4), 
;;		 -> STR_11(4), STR_10(4), STR_9(4), STR_8(4), 
;;		 -> STR_7(4), STR_6(9), STR_5(9), STR_4(8), 
;;		 -> STR_3(9), STR_2(9), STR_1(9), 
;; Auto vars:     Size  Location     Type
;;		None
;; Return value:  Size  Location     Type
;;		None               void
;; Registers used:
;;		wreg, fsr0l, fsr0h, status,2, status,0, btemp+1, pclath, cstack
;; Tracked objects:
;;		On entry : 0/0
;;		On exit  : 0/0
;;		Unchanged: 0/0
;; Data sizes:     COMMON   BANK0   BANK1   BANK3   BANK2
;;      Params:         0       2       0       0       0
;;      Locals:         0       0       0       0       0
;;      Temps:          0       0       0       0       0
;;      Totals:         0       2       0       0       0
;;Total ram usage:        2 bytes
;; Hardware stack levels used:    1
;; Hardware stack levels required when called:    4
;; This function calls:
;;		_lcd_write_data
;; This function is called by:
;;		_UpdateDisplay
;; This function uses a non-reentrant model
;;
psect	text1083
	file	"E:\Aldnoah.Zero\Assignment3\lcd.c"
	line	48
	global	__size_of_lcd_write_string
	__size_of_lcd_write_string	equ	__end_of_lcd_write_string-_lcd_write_string
	
_lcd_write_string:	
	opt	stack 1
; Regs used in _lcd_write_string: [wreg-fsr0h+status,2+status,0+btemp+1+pclath+cstack]
	line	50
	
l11220:	
;lcd.c: 50: while(*s) lcd_write_data(*s++);
	goto	l11226
	
l1409:	
	
l11222:	
	bcf	status, 5	;RP0=0, select bank0
	bcf	status, 6	;RP1=0, select bank0
	movf	(lcd_write_string@s+1),w
	movwf	btemp+1
	movf	(lcd_write_string@s),w
	movwf	fsr0
	fcall	stringtab
	fcall	_lcd_write_data
	
l11224:	
	movlw	low(01h)
	bcf	status, 5	;RP0=0, select bank0
	bcf	status, 6	;RP1=0, select bank0
	addwf	(lcd_write_string@s),f
	skipnc
	incf	(lcd_write_string@s+1),f
	movlw	high(01h)
	addwf	(lcd_write_string@s+1),f
	goto	l11226
	
l1408:	
	
l11226:	
	bcf	status, 5	;RP0=0, select bank0
	bcf	status, 6	;RP1=0, select bank0
	movf	(lcd_write_string@s+1),w
	movwf	btemp+1
	movf	(lcd_write_string@s),w
	movwf	fsr0
	fcall	stringtab
	iorlw	0
	skipz
	goto	u5351
	goto	u5350
u5351:
	goto	l11222
u5350:
	goto	l1411
	
l1410:	
	line	51
	
l1411:	
	return
	opt stack 0
GLOBAL	__end_of_lcd_write_string
	__end_of_lcd_write_string:
;; =============== function _lcd_write_string ends ============

	signat	_lcd_write_string,4216
	global	_lcd_set_cursor
psect	text1084,local,class=CODE,delta=2
global __ptext1084
__ptext1084:

;; *************** function _lcd_set_cursor *****************
;; Defined at:
;;		line 42 in file "E:\Aldnoah.Zero\Assignment3\lcd.c"
;; Parameters:    Size  Location     Type
;;  address         1    wreg     unsigned char 
;; Auto vars:     Size  Location     Type
;;  address         1    3[BANK0 ] unsigned char 
;; Return value:  Size  Location     Type
;;		None               void
;; Registers used:
;;		wreg, status,2, status,0, pclath, cstack
;; Tracked objects:
;;		On entry : 0/0
;;		On exit  : 0/0
;;		Unchanged: 0/0
;; Data sizes:     COMMON   BANK0   BANK1   BANK3   BANK2
;;      Params:         0       0       0       0       0
;;      Locals:         0       1       0       0       0
;;      Temps:          0       0       0       0       0
;;      Totals:         0       1       0       0       0
;;Total ram usage:        1 bytes
;; Hardware stack levels used:    1
;; Hardware stack levels required when called:    4
;; This function calls:
;;		_lcd_write_control
;; This function is called by:
;;		_UpdateDisplay
;; This function uses a non-reentrant model
;;
psect	text1084
	file	"E:\Aldnoah.Zero\Assignment3\lcd.c"
	line	42
	global	__size_of_lcd_set_cursor
	__size_of_lcd_set_cursor	equ	__end_of_lcd_set_cursor-_lcd_set_cursor
	
_lcd_set_cursor:	
	opt	stack 1
; Regs used in _lcd_set_cursor: [wreg+status,2+status,0+pclath+cstack]
;lcd_set_cursor@address stored from wreg
	bcf	status, 5	;RP0=0, select bank0
	bcf	status, 6	;RP1=0, select bank0
	movwf	(lcd_set_cursor@address)
	line	43
	
l11216:	
;lcd.c: 43: address |= 0b10000000;
	bsf	(lcd_set_cursor@address)+(7/8),(7)&7
	line	44
	
l11218:	
;lcd.c: 44: lcd_write_control(address);
	movf	(lcd_set_cursor@address),w
	fcall	_lcd_write_control
	line	45
	
l1405:	
	return
	opt stack 0
GLOBAL	__end_of_lcd_set_cursor
	__end_of_lcd_set_cursor:
;; =============== function _lcd_set_cursor ends ============

	signat	_lcd_set_cursor,4216
	global	___awtoft
psect	text1085,local,class=CODE,delta=2
global __ptext1085
__ptext1085:

;; *************** function ___awtoft *****************
;; Defined at:
;;		line 33 in file "C:\Program Files\HI-TECH Software\PICC\9.83\sources\awtoft.c"
;; Parameters:    Size  Location     Type
;;  c               2   22[BANK0 ] int 
;; Auto vars:     Size  Location     Type
;;  sign            1   27[BANK0 ] unsigned char 
;; Return value:  Size  Location     Type
;;                  3   22[BANK0 ] float 
;; Registers used:
;;		wreg, status,2, status,0, pclath, cstack
;; Tracked objects:
;;		On entry : 0/0
;;		On exit  : 0/0
;;		Unchanged: 0/0
;; Data sizes:     COMMON   BANK0   BANK1   BANK3   BANK2
;;      Params:         0       3       0       0       0
;;      Locals:         0       1       0       0       0
;;      Temps:          0       2       0       0       0
;;      Totals:         0       6       0       0       0
;;Total ram usage:        6 bytes
;; Hardware stack levels used:    1
;; Hardware stack levels required when called:    4
;; This function calls:
;;		___ftpack
;; This function is called by:
;;		_main
;; This function uses a non-reentrant model
;;
psect	text1085
	file	"C:\Program Files\HI-TECH Software\PICC\9.83\sources\awtoft.c"
	line	33
	global	__size_of___awtoft
	__size_of___awtoft	equ	__end_of___awtoft-___awtoft
	
___awtoft:	
	opt	stack 3
; Regs used in ___awtoft: [wreg+status,2+status,0+pclath+cstack]
	line	36
	
l11208:	
	bcf	status, 5	;RP0=0, select bank0
	bcf	status, 6	;RP1=0, select bank0
	clrf	(___awtoft@sign)
	line	37
	btfss	(___awtoft@c+1),7
	goto	u5341
	goto	u5340
u5341:
	goto	l11212
u5340:
	line	38
	
l11210:	
	comf	(___awtoft@c),f
	comf	(___awtoft@c+1),f
	incf	(___awtoft@c),f
	skipnz
	incf	(___awtoft@c+1),f
	line	39
	clrf	(___awtoft@sign)
	bsf	status,0
	rlf	(___awtoft@sign),f
	goto	l11212
	line	40
	
l7630:	
	line	41
	
l11212:	
	movf	(___awtoft@c),w
	movwf	(?___ftpack)
	movf	(___awtoft@c+1),w
	movwf	(?___ftpack+1)
	clrf	(?___ftpack+2)
	movlw	(08Eh)
	movwf	(??___awtoft+0)+0
	movf	(??___awtoft+0)+0,w
	movwf	0+(?___ftpack)+03h
	movf	(___awtoft@sign),w
	movwf	(??___awtoft+1)+0
	movf	(??___awtoft+1)+0,w
	movwf	0+(?___ftpack)+04h
	fcall	___ftpack
	bcf	status, 5	;RP0=0, select bank0
	bcf	status, 6	;RP1=0, select bank0
	movf	(0+(?___ftpack)),w
	movwf	(?___awtoft)
	movf	(1+(?___ftpack)),w
	movwf	(?___awtoft+1)
	movf	(2+(?___ftpack)),w
	movwf	(?___awtoft+2)
	goto	l7631
	
l11214:	
	line	42
	
l7631:	
	return
	opt stack 0
GLOBAL	__end_of___awtoft
	__end_of___awtoft:
;; =============== function ___awtoft ends ============

	signat	___awtoft,4219
	global	___ftmul
psect	text1086,local,class=CODE,delta=2
global __ptext1086
__ptext1086:

;; *************** function ___ftmul *****************
;; Defined at:
;;		line 52 in file "C:\Program Files\HI-TECH Software\PICC\9.83\sources\ftmul.c"
;; Parameters:    Size  Location     Type
;;  f1              3   28[BANK0 ] float 
;;  f2              3   31[BANK0 ] float 
;; Auto vars:     Size  Location     Type
;;  f3_as_produc    3   39[BANK0 ] unsigned um
;;  sign            1   43[BANK0 ] unsigned char 
;;  cntr            1   42[BANK0 ] unsigned char 
;;  exp             1   38[BANK0 ] unsigned char 
;; Return value:  Size  Location     Type
;;                  3   28[BANK0 ] float 
;; Registers used:
;;		wreg, status,2, status,0, pclath, cstack
;; Tracked objects:
;;		On entry : 0/0
;;		On exit  : 0/0
;;		Unchanged: 0/0
;; Data sizes:     COMMON   BANK0   BANK1   BANK3   BANK2
;;      Params:         0       6       0       0       0
;;      Locals:         0       6       0       0       0
;;      Temps:          0       4       0       0       0
;;      Totals:         0      16       0       0       0
;;Total ram usage:       16 bytes
;; Hardware stack levels used:    1
;; Hardware stack levels required when called:    4
;; This function calls:
;;		___ftpack
;; This function is called by:
;;		_main
;; This function uses a non-reentrant model
;;
psect	text1086
	file	"C:\Program Files\HI-TECH Software\PICC\9.83\sources\ftmul.c"
	line	52
	global	__size_of___ftmul
	__size_of___ftmul	equ	__end_of___ftmul-___ftmul
	
___ftmul:	
	opt	stack 3
; Regs used in ___ftmul: [wreg+status,2+status,0+pclath+cstack]
	line	56
	
l11158:	
	bcf	status, 5	;RP0=0, select bank0
	bcf	status, 6	;RP1=0, select bank0
	movf	(___ftmul@f1),w
	movwf	((??___ftmul+0)+0)
	movf	(___ftmul@f1+1),w
	movwf	((??___ftmul+0)+0+1)
	movf	(___ftmul@f1+2),w
	movwf	((??___ftmul+0)+0+2)
	clrc
	rlf	(??___ftmul+0)+1,w
	rlf	(??___ftmul+0)+2,w
	movwf	(??___ftmul+3)+0
	movf	(??___ftmul+3)+0,w
	movwf	(___ftmul@exp)
	movf	((___ftmul@exp)),f
	skipz
	goto	u5201
	goto	u5200
u5201:
	goto	l11164
u5200:
	line	57
	
l11160:	
	movlw	0x0
	movwf	(?___ftmul)
	movlw	0x0
	movwf	(?___ftmul+1)
	movlw	0x0
	movwf	(?___ftmul+2)
	goto	l7593
	
l11162:	
	goto	l7593
	
l7592:	
	line	58
	
l11164:	
	movf	(___ftmul@f2),w
	movwf	((??___ftmul+0)+0)
	movf	(___ftmul@f2+1),w
	movwf	((??___ftmul+0)+0+1)
	movf	(___ftmul@f2+2),w
	movwf	((??___ftmul+0)+0+2)
	clrc
	rlf	(??___ftmul+0)+1,w
	rlf	(??___ftmul+0)+2,w
	movwf	(??___ftmul+3)+0
	movf	(??___ftmul+3)+0,w
	movwf	(___ftmul@sign)
	movf	((___ftmul@sign)),f
	skipz
	goto	u5211
	goto	u5210
u5211:
	goto	l11170
u5210:
	line	59
	
l11166:	
	movlw	0x0
	movwf	(?___ftmul)
	movlw	0x0
	movwf	(?___ftmul+1)
	movlw	0x0
	movwf	(?___ftmul+2)
	goto	l7593
	
l11168:	
	goto	l7593
	
l7594:	
	line	60
	
l11170:	
	movf	(___ftmul@sign),w
	addlw	07Bh
	movwf	(??___ftmul+0)+0
	movf	(??___ftmul+0)+0,w
	addwf	(___ftmul@exp),f
	line	61
	movf	(___ftmul@f1),w
	movwf	((??___ftmul+0)+0)
	movf	(___ftmul@f1+1),w
	movwf	((??___ftmul+0)+0+1)
	movf	(___ftmul@f1+2),w
	movwf	((??___ftmul+0)+0+2)
	movlw	010h
u5225:
	clrc
	rrf	(??___ftmul+0)+2,f
	rrf	(??___ftmul+0)+1,f
	rrf	(??___ftmul+0)+0,f
u5220:
	addlw	-1
	skipz
	goto	u5225
	movf	0+(??___ftmul+0)+0,w
	movwf	(??___ftmul+3)+0
	movf	(??___ftmul+3)+0,w
	movwf	(___ftmul@sign)
	line	62
	movf	(___ftmul@f2),w
	movwf	((??___ftmul+0)+0)
	movf	(___ftmul@f2+1),w
	movwf	((??___ftmul+0)+0+1)
	movf	(___ftmul@f2+2),w
	movwf	((??___ftmul+0)+0+2)
	movlw	010h
u5235:
	clrc
	rrf	(??___ftmul+0)+2,f
	rrf	(??___ftmul+0)+1,f
	rrf	(??___ftmul+0)+0,f
u5230:
	addlw	-1
	skipz
	goto	u5235
	movf	0+(??___ftmul+0)+0,w
	movwf	(??___ftmul+3)+0
	movf	(??___ftmul+3)+0,w
	xorwf	(___ftmul@sign),f
	line	63
	movlw	(080h)
	movwf	(??___ftmul+0)+0
	movf	(??___ftmul+0)+0,w
	andwf	(___ftmul@sign),f
	line	64
	
l11172:	
	bsf	(___ftmul@f1)+(15/8),(15)&7
	line	66
	
l11174:	
	bsf	(___ftmul@f2)+(15/8),(15)&7
	line	67
	
l11176:	
	movlw	0FFh
	andwf	(___ftmul@f2),f
	movlw	0FFh
	andwf	(___ftmul@f2+1),f
	movlw	0
	andwf	(___ftmul@f2+2),f
	line	68
	
l11178:	
	movlw	0
	movwf	(___ftmul@f3_as_product)
	movlw	0
	movwf	(___ftmul@f3_as_product+1)
	movlw	0
	movwf	(___ftmul@f3_as_product+2)
	line	69
	
l11180:	
	movlw	(07h)
	movwf	(??___ftmul+0)+0
	movf	(??___ftmul+0)+0,w
	movwf	(___ftmul@cntr)
	goto	l11182
	line	70
	
l7595:	
	line	71
	
l11182:	
	btfss	(___ftmul@f1),(0)&7
	goto	u5241
	goto	u5240
u5241:
	goto	l11186
u5240:
	line	72
	
l11184:	
	movf	(___ftmul@f2),w
	addwf	(___ftmul@f3_as_product),f
	movf	(___ftmul@f2+1),w
	clrz
	skipnc
	incf	(___ftmul@f2+1),w
	skipnz
	goto	u5251
	addwf	(___ftmul@f3_as_product+1),f
u5251:
	movf	(___ftmul@f2+2),w
	clrz
	skipnc
	incf	(___ftmul@f2+2),w
	skipnz
	goto	u5252
	addwf	(___ftmul@f3_as_product+2),f
u5252:

	goto	l11186
	
l7596:	
	line	73
	
l11186:	
	movlw	01h
u5265:
	clrc
	rrf	(___ftmul@f1+2),f
	rrf	(___ftmul@f1+1),f
	rrf	(___ftmul@f1),f
	addlw	-1
	skipz
	goto	u5265

	line	74
	
l11188:	
	movlw	01h
u5275:
	clrc
	rlf	(___ftmul@f2),f
	rlf	(___ftmul@f2+1),f
	rlf	(___ftmul@f2+2),f
	addlw	-1
	skipz
	goto	u5275
	line	75
	
l11190:	
	movlw	low(01h)
	subwf	(___ftmul@cntr),f
	btfss	status,2
	goto	u5281
	goto	u5280
u5281:
	goto	l11182
u5280:
	goto	l11192
	
l7597:	
	line	76
	
l11192:	
	movlw	(09h)
	movwf	(??___ftmul+0)+0
	movf	(??___ftmul+0)+0,w
	movwf	(___ftmul@cntr)
	goto	l11194
	line	77
	
l7598:	
	line	78
	
l11194:	
	btfss	(___ftmul@f1),(0)&7
	goto	u5291
	goto	u5290
u5291:
	goto	l11198
u5290:
	line	79
	
l11196:	
	movf	(___ftmul@f2),w
	addwf	(___ftmul@f3_as_product),f
	movf	(___ftmul@f2+1),w
	clrz
	skipnc
	incf	(___ftmul@f2+1),w
	skipnz
	goto	u5301
	addwf	(___ftmul@f3_as_product+1),f
u5301:
	movf	(___ftmul@f2+2),w
	clrz
	skipnc
	incf	(___ftmul@f2+2),w
	skipnz
	goto	u5302
	addwf	(___ftmul@f3_as_product+2),f
u5302:

	goto	l11198
	
l7599:	
	line	80
	
l11198:	
	movlw	01h
u5315:
	clrc
	rrf	(___ftmul@f1+2),f
	rrf	(___ftmul@f1+1),f
	rrf	(___ftmul@f1),f
	addlw	-1
	skipz
	goto	u5315

	line	81
	
l11200:	
	movlw	01h
u5325:
	clrc
	rrf	(___ftmul@f3_as_product+2),f
	rrf	(___ftmul@f3_as_product+1),f
	rrf	(___ftmul@f3_as_product),f
	addlw	-1
	skipz
	goto	u5325

	line	82
	
l11202:	
	movlw	low(01h)
	subwf	(___ftmul@cntr),f
	btfss	status,2
	goto	u5331
	goto	u5330
u5331:
	goto	l11194
u5330:
	goto	l11204
	
l7600:	
	line	83
	
l11204:	
	movf	(___ftmul@f3_as_product),w
	movwf	(?___ftpack)
	movf	(___ftmul@f3_as_product+1),w
	movwf	(?___ftpack+1)
	movf	(___ftmul@f3_as_product+2),w
	movwf	(?___ftpack+2)
	movf	(___ftmul@exp),w
	movwf	(??___ftmul+0)+0
	movf	(??___ftmul+0)+0,w
	movwf	0+(?___ftpack)+03h
	movf	(___ftmul@sign),w
	movwf	(??___ftmul+1)+0
	movf	(??___ftmul+1)+0,w
	movwf	0+(?___ftpack)+04h
	fcall	___ftpack
	bcf	status, 5	;RP0=0, select bank0
	bcf	status, 6	;RP1=0, select bank0
	movf	(0+(?___ftpack)),w
	movwf	(?___ftmul)
	movf	(1+(?___ftpack)),w
	movwf	(?___ftmul+1)
	movf	(2+(?___ftpack)),w
	movwf	(?___ftmul+2)
	goto	l7593
	
l11206:	
	line	84
	
l7593:	
	return
	opt stack 0
GLOBAL	__end_of___ftmul
	__end_of___ftmul:
;; =============== function ___ftmul ends ============

	signat	___ftmul,8315
	global	_abs
psect	text1087,local,class=CODE,delta=2
global __ptext1087
__ptext1087:

;; *************** function _abs *****************
;; Defined at:
;;		line 206 in file "E:\Aldnoah.Zero\Assignment3\robot.c"
;; Parameters:    Size  Location     Type
;;  v               2    6[BANK0 ] int 
;; Auto vars:     Size  Location     Type
;;		None
;; Return value:  Size  Location     Type
;;                  2    6[BANK0 ] int 
;; Registers used:
;;		wreg, status,2, status,0, btemp+1, pclath, cstack
;; Tracked objects:
;;		On entry : 0/0
;;		On exit  : 0/0
;;		Unchanged: 0/0
;; Data sizes:     COMMON   BANK0   BANK1   BANK3   BANK2
;;      Params:         0       2       0       0       0
;;      Locals:         0       0       0       0       0
;;      Temps:          0       2       0       0       0
;;      Totals:         0       4       0       0       0
;;Total ram usage:        4 bytes
;; Hardware stack levels used:    1
;; Hardware stack levels required when called:    4
;; This function calls:
;;		___wmul
;; This function is called by:
;;		_robotMoveSpeed
;;		_robotTurnSpeed
;; This function uses a non-reentrant model
;;
psect	text1087
	file	"E:\Aldnoah.Zero\Assignment3\robot.c"
	line	206
	global	__size_of_abs
	__size_of_abs	equ	__end_of_abs-_abs
	
_abs:	
	opt	stack 2
; Regs used in _abs: [wreg+status,2+status,0+btemp+1+pclath+cstack]
	line	207
	
l11154:	
;robot.c: 207: return (v * ((v > 0) - (v < 0)));
	movlw	0
	bcf	status, 5	;RP0=0, select bank0
	bcf	status, 6	;RP1=0, select bank0
	btfsc	(abs@v+1),7
	movlw	1
	movwf	(??_abs+0)+0
	clrf	(??_abs+0)+0+1
	comf	(??_abs+0)+0,f
	comf	(??_abs+0)+1,f
	incf	(??_abs+0)+0,f
	skipnz
	incf	(??_abs+0)+1,f
	movf	(abs@v+1),w
	xorlw	80h
	movwf	btemp+1
	movlw	(high(01h))^80h
	subwf	btemp+1,w
	skipz
	goto	u5195
	movlw	low(01h)
	subwf	(abs@v),w
u5195:

	movlw	0
	skipnc
	movlw	1
	bcf	status, 5	;RP0=0, select bank0
	bcf	status, 6	;RP1=0, select bank0
	addwf	0+(??_abs+0)+0,w
	movwf	(?___wmul)
	movf	1+(??_abs+0)+0,w
	skipnc
	incf	1+(??_abs+0)+0,w
	movwf	((?___wmul))+1
	movf	(abs@v+1),w
	clrf	1+(?___wmul)+02h
	addwf	1+(?___wmul)+02h
	movf	(abs@v),w
	clrf	0+(?___wmul)+02h
	addwf	0+(?___wmul)+02h

	fcall	___wmul
	bcf	status, 5	;RP0=0, select bank0
	bcf	status, 6	;RP1=0, select bank0
	movf	(1+(?___wmul)),w
	clrf	(?_abs+1)
	addwf	(?_abs+1)
	movf	(0+(?___wmul)),w
	clrf	(?_abs)
	addwf	(?_abs)

	goto	l6049
	
l11156:	
	line	208
	
l6049:	
	return
	opt stack 0
GLOBAL	__end_of_abs
	__end_of_abs:
;; =============== function _abs ends ============

	signat	_abs,4218
	global	_RobotDrive
psect	text1088,local,class=CODE,delta=2
global __ptext1088
__ptext1088:

;; *************** function _RobotDrive *****************
;; Defined at:
;;		line 86 in file "E:\Aldnoah.Zero\Assignment3\robot.c"
;; Parameters:    Size  Location     Type
;;  speed           2    2[BANK0 ] int 
;; Auto vars:     Size  Location     Type
;;  speedhighByt    1    6[BANK0 ] unsigned char 
;;  speedlowByte    1    5[BANK0 ] unsigned char 
;; Return value:  Size  Location     Type
;;		None               void
;; Registers used:
;;		wreg, fsr0l, fsr0h, status,2, status,0, pclath, cstack
;; Tracked objects:
;;		On entry : 0/0
;;		On exit  : 0/0
;;		Unchanged: 0/0
;; Data sizes:     COMMON   BANK0   BANK1   BANK3   BANK2
;;      Params:         0       2       0       0       0
;;      Locals:         0       2       0       0       0
;;      Temps:          0       1       0       0       0
;;      Totals:         0       5       0       0       0
;;Total ram usage:        5 bytes
;; Hardware stack levels used:    1
;; Hardware stack levels required when called:    4
;; This function calls:
;;		_ser_putch
;; This function is called by:
;;		_robotMoveSpeed
;; This function uses a non-reentrant model
;;
psect	text1088
	file	"E:\Aldnoah.Zero\Assignment3\robot.c"
	line	86
	global	__size_of_RobotDrive
	__size_of_RobotDrive	equ	__end_of_RobotDrive-_RobotDrive
	
_RobotDrive:	
	opt	stack 2
; Regs used in _RobotDrive: [wreg-fsr0h+status,2+status,0+pclath+cstack]
	line	88
	
l11140:	
;robot.c: 88: unsigned char speedlowByte = (unsigned char)(speed);
	bcf	status, 5	;RP0=0, select bank0
	bcf	status, 6	;RP1=0, select bank0
	movf	(RobotDrive@speed),w
	movwf	(??_RobotDrive+0)+0
	movf	(??_RobotDrive+0)+0,w
	movwf	(RobotDrive@speedlowByte)
	line	89
	
l11142:	
;robot.c: 89: unsigned char speedhighByte = (unsigned char)(speed >> 8);
	movf	(RobotDrive@speed+1),w
	movwf	(??_RobotDrive+0)+0
	movf	(??_RobotDrive+0)+0,w
	movwf	(RobotDrive@speedhighByte)
	line	91
	
l11144:	
;robot.c: 91: ser_putch(137);
	movlw	(089h)
	fcall	_ser_putch
	line	93
	
l11146:	
;robot.c: 93: ser_putch(speedhighByte);
	bcf	status, 5	;RP0=0, select bank0
	bcf	status, 6	;RP1=0, select bank0
	movf	(RobotDrive@speedhighByte),w
	fcall	_ser_putch
	line	95
	
l11148:	
;robot.c: 95: ser_putch(speedlowByte);
	bcf	status, 5	;RP0=0, select bank0
	bcf	status, 6	;RP1=0, select bank0
	movf	(RobotDrive@speedlowByte),w
	fcall	_ser_putch
	line	97
	
l11150:	
;robot.c: 97: ser_putch(128);
	movlw	(080h)
	fcall	_ser_putch
	line	99
	
l11152:	
;robot.c: 99: ser_putch(0);
	movlw	(0)
	fcall	_ser_putch
	line	100
	
l6021:	
	return
	opt stack 0
GLOBAL	__end_of_RobotDrive
	__end_of_RobotDrive:
;; =============== function _RobotDrive ends ============

	signat	_RobotDrive,4216
	global	_ser_getch
psect	text1089,local,class=CODE,delta=2
global __ptext1089
__ptext1089:

;; *************** function _ser_getch *****************
;; Defined at:
;;		line 55 in file "E:\Aldnoah.Zero\Assignment3\ser.c"
;; Parameters:    Size  Location     Type
;;		None
;; Auto vars:     Size  Location     Type
;;  c               1    1[BANK0 ] unsigned char 
;; Return value:  Size  Location     Type
;;                  1    wreg      unsigned char 
;; Registers used:
;;		wreg, fsr0l, fsr0h, status,2, status,0, pclath, cstack
;; Tracked objects:
;;		On entry : 0/0
;;		On exit  : 0/0
;;		Unchanged: 0/0
;; Data sizes:     COMMON   BANK0   BANK1   BANK3   BANK2
;;      Params:         0       0       0       0       0
;;      Locals:         0       1       0       0       0
;;      Temps:          0       1       0       0       0
;;      Totals:         0       2       0       0       0
;;Total ram usage:        2 bytes
;; Hardware stack levels used:    1
;; Hardware stack levels required when called:    4
;; This function calls:
;;		_ser_isrx
;; This function is called by:
;;		_robot_read
;; This function uses a non-reentrant model
;;
psect	text1089
	file	"E:\Aldnoah.Zero\Assignment3\ser.c"
	line	55
	global	__size_of_ser_getch
	__size_of_ser_getch	equ	__end_of_ser_getch-_ser_getch
	
_ser_getch:	
	opt	stack 1
; Regs used in _ser_getch: [wreg-fsr0h+status,2+status,0+pclath+cstack]
	line	58
	
l11124:	
;ser.c: 56: unsigned char c;
;ser.c: 58: while (ser_isrx()==0)
	goto	l11126
	
l6753:	
	line	59
;ser.c: 59: continue;
	goto	l11126
	
l6752:	
	line	58
	
l11126:	
	fcall	_ser_isrx
	btfss	status,0
	goto	u5181
	goto	u5180
u5181:
	goto	l11126
u5180:
	
l6754:	
	line	61
;ser.c: 61: GIE=0;
	bcf	(95/8),(95)&7
	line	62
	
l11128:	
;ser.c: 62: c=rxfifo[rxoptr];
	bsf	status, 5	;RP0=1, select bank1
	bcf	status, 6	;RP1=0, select bank1
	movf	(_rxoptr)^080h,w
	addlw	_rxfifo&0ffh
	movwf	fsr0
	bcf	status, 7	;select IRP bank1
	movf	indf,w
	bcf	status, 5	;RP0=0, select bank0
	bcf	status, 6	;RP1=0, select bank0
	movwf	(??_ser_getch+0)+0
	movf	(??_ser_getch+0)+0,w
	movwf	(ser_getch@c)
	line	63
	
l11130:	
;ser.c: 63: ++rxoptr;
	movlw	(01h)
	movwf	(??_ser_getch+0)+0
	movf	(??_ser_getch+0)+0,w
	bsf	status, 5	;RP0=1, select bank1
	bcf	status, 6	;RP1=0, select bank1
	addwf	(_rxoptr)^080h,f	;volatile
	line	64
	
l11132:	
;ser.c: 64: rxoptr &= (16-1);
	movlw	(0Fh)
	bcf	status, 5	;RP0=0, select bank0
	bcf	status, 6	;RP1=0, select bank0
	movwf	(??_ser_getch+0)+0
	movf	(??_ser_getch+0)+0,w
	bsf	status, 5	;RP0=1, select bank1
	bcf	status, 6	;RP1=0, select bank1
	andwf	(_rxoptr)^080h,f	;volatile
	line	65
	
l11134:	
;ser.c: 65: GIE=1;
	bsf	(95/8),(95)&7
	line	66
	
l11136:	
;ser.c: 66: return c;
	bcf	status, 5	;RP0=0, select bank0
	bcf	status, 6	;RP1=0, select bank0
	movf	(ser_getch@c),w
	goto	l6755
	
l11138:	
	line	67
	
l6755:	
	return
	opt stack 0
GLOBAL	__end_of_ser_getch
	__end_of_ser_getch:
;; =============== function _ser_getch ends ============

	signat	_ser_getch,89
	global	_sprintf
psect	text1090,local,class=CODE,delta=2
global __ptext1090
__ptext1090:

;; *************** function _sprintf *****************
;; Defined at:
;;		line 488 in file "C:\Program Files\HI-TECH Software\PICC\9.83\lib\doprnt.c"
;; Parameters:    Size  Location     Type
;;  sp              1    wreg     PTR unsigned char 
;;		 -> UpdateDisplay@LCDOutput(16), 
;;  f               1   20[BANK0 ] PTR const unsigned char 
;;		 -> STR_13(13), 
;; Auto vars:     Size  Location     Type
;;  sp              1   35[BANK0 ] PTR unsigned char 
;;		 -> UpdateDisplay@LCDOutput(16), 
;;  _val            4   31[BANK0 ] struct .
;;  c               1   36[BANK0 ] char 
;;  prec            1   30[BANK0 ] char 
;;  flag            1   29[BANK0 ] unsigned char 
;;  ap              1   28[BANK0 ] PTR void [1]
;;		 -> ?_sprintf(2), 
;; Return value:  Size  Location     Type
;;                  2   20[BANK0 ] int 
;; Registers used:
;;		wreg, fsr0l, fsr0h, status,2, status,0, btemp+1, pclath, cstack
;; Tracked objects:
;;		On entry : 0/0
;;		On exit  : 0/0
;;		Unchanged: 0/0
;; Data sizes:     COMMON   BANK0   BANK1   BANK3   BANK2
;;      Params:         0       5       0       0       0
;;      Locals:         0       9       0       0       0
;;      Temps:          0       3       0       0       0
;;      Totals:         0      17       0       0       0
;;Total ram usage:       17 bytes
;; Hardware stack levels used:    1
;; Hardware stack levels required when called:    4
;; This function calls:
;;		___lwdiv
;;		___lwmod
;; This function is called by:
;;		_UpdateDisplay
;; This function uses a non-reentrant model
;;
psect	text1090
	file	"C:\Program Files\HI-TECH Software\PICC\9.83\sources\doprnt.c"
	line	488
	global	__size_of_sprintf
	__size_of_sprintf	equ	__end_of_sprintf-_sprintf
	
_sprintf:	
	opt	stack 1
; Regs used in _sprintf: [wreg-fsr0h+status,2+status,0+btemp+1+pclath+cstack]
;sprintf@sp stored from wreg
	line	537
	bcf	status, 5	;RP0=0, select bank0
	bcf	status, 6	;RP1=0, select bank0
	movwf	(sprintf@sp)
	
l11066:	
	movlw	(?_sprintf+01h)&0ffh
	movwf	(??_sprintf+0)+0
	movf	(??_sprintf+0)+0,w
	movwf	(sprintf@ap)
	line	540
	goto	l11118
	
l6793:	
	line	542
	
l11068:	
	movf	(sprintf@c),w
	xorlw	025h
	skipnz
	goto	u5101
	goto	u5100
u5101:
	goto	l6794
u5100:
	line	545
	
l11070:	
	movf	(sprintf@c),w
	movwf	(??_sprintf+0)+0
	movf	(sprintf@sp),w
	movwf	fsr0
	movf	(??_sprintf+0)+0,w
	bcf	status, 7	;select IRP bank0
	movwf	indf
	
l11072:	
	movlw	(01h)
	movwf	(??_sprintf+0)+0
	movf	(??_sprintf+0)+0,w
	addwf	(sprintf@sp),f
	line	546
	goto	l11118
	line	547
	
l6794:	
	line	552
	clrf	(sprintf@flag)
	line	638
	goto	l11076
	line	640
	
l6796:	
	line	641
	goto	l11120
	line	700
	
l6798:	
	goto	l11078
	line	701
	
l6799:	
	line	702
	goto	l11078
	line	805
	
l6801:	
	line	816
	goto	l11118
	line	825
	
l11074:	
	goto	l11078
	line	638
	
l6795:	
	
l11076:	
	movlw	01h
	addwf	(sprintf@f),f
	movlw	-01h
	addwf	(sprintf@f),w
	movwf	fsr0
	fcall	stringdir
	movwf	(sprintf@c)
	; Switch size 1, requested type "space"
; Number of cases is 3, Range of values is 0 to 105
; switch strategies available:
; Name         Instructions Cycles
; simple_byte           10     6 (average)
; jumptable            260     6 (fixed)
; rangetable           110     6 (fixed)
; spacedrange          218     9 (fixed)
; locatedrange         106     3 (fixed)
;	Chosen strategy is simple_byte

	opt asmopt_off
	xorlw	0^0	; case 0
	skipnz
	goto	l11120
	xorlw	100^0	; case 100
	skipnz
	goto	l11078
	xorlw	105^100	; case 105
	skipnz
	goto	l11078
	goto	l11118
	opt asmopt_on

	line	825
	
l6800:	
	line	1254
	
l11078:	
	movf	(sprintf@ap),w
	movwf	fsr0
	bcf	status, 7	;select IRP bank0
	movf	indf,w
	movwf	(sprintf@_val)
	incf	fsr0,f
	movf	indf,w
	movwf	(sprintf@_val+1)
	
l11080:	
	movlw	(02h)
	movwf	(??_sprintf+0)+0
	movf	(??_sprintf+0)+0,w
	addwf	(sprintf@ap),f
	line	1256
	
l11082:	
	btfss	(sprintf@_val+1),7
	goto	u5111
	goto	u5110
u5111:
	goto	l11088
u5110:
	line	1257
	
l11084:	
	movlw	(03h)
	movwf	(??_sprintf+0)+0
	movf	(??_sprintf+0)+0,w
	iorwf	(sprintf@flag),f
	line	1258
	
l11086:	
	comf	(sprintf@_val),f
	comf	(sprintf@_val+1),f
	incf	(sprintf@_val),f
	skipnz
	incf	(sprintf@_val+1),f
	goto	l11088
	line	1259
	
l6802:	
	line	1300
	
l11088:	
	clrf	(sprintf@c)
	bsf	status,0
	rlf	(sprintf@c),f
	
l11090:	
	movf	(sprintf@c),w
	xorlw	05h
	skipz
	goto	u5121
	goto	u5120
u5121:
	goto	l11094
u5120:
	goto	l11102
	
l11092:	
	goto	l11102
	line	1301
	
l6803:	
	
l11094:	
	movf	(sprintf@c),w
	movwf	(??_sprintf+0)+0
	addwf	(??_sprintf+0)+0,w
	addlw	low((_dpowers-__stringbase))
	movwf	fsr0
	fcall	stringdir
	movwf	(??_sprintf+1)+0
	fcall	stringdir
	movwf	(??_sprintf+1)+0+1
	movf	1+(??_sprintf+1)+0,w
	subwf	(sprintf@_val+1),w
	skipz
	goto	u5135
	movf	0+(??_sprintf+1)+0,w
	subwf	(sprintf@_val),w
u5135:
	skipnc
	goto	u5131
	goto	u5130
u5131:
	goto	l11098
u5130:
	goto	l11102
	line	1302
	
l11096:	
	goto	l11102
	
l6805:	
	line	1300
	
l11098:	
	movlw	(01h)
	movwf	(??_sprintf+0)+0
	movf	(??_sprintf+0)+0,w
	addwf	(sprintf@c),f
	
l11100:	
	movf	(sprintf@c),w
	xorlw	05h
	skipz
	goto	u5141
	goto	u5140
u5141:
	goto	l11094
u5140:
	goto	l11102
	
l6804:	
	line	1433
	
l11102:	
	movf	(sprintf@flag),w
	andlw	03h
	btfsc	status,2
	goto	u5151
	goto	u5150
u5151:
	goto	l11108
u5150:
	line	1434
	
l11104:	
	movlw	(02Dh)
	movwf	(??_sprintf+0)+0
	movf	(sprintf@sp),w
	movwf	fsr0
	movf	(??_sprintf+0)+0,w
	bcf	status, 7	;select IRP bank0
	movwf	indf
	
l11106:	
	movlw	(01h)
	movwf	(??_sprintf+0)+0
	movf	(??_sprintf+0)+0,w
	addwf	(sprintf@sp),f
	goto	l11108
	
l6806:	
	line	1467
	
l11108:	
	movf	(sprintf@c),w
	movwf	(??_sprintf+0)+0
	movf	(??_sprintf+0)+0,w
	movwf	(sprintf@prec)
	line	1469
	goto	l11116
	
l6808:	
	line	1484
	
l11110:	
	movlw	low(0Ah)
	movwf	(?___lwmod)
	movlw	high(0Ah)
	movwf	((?___lwmod))+1
	movf	(sprintf@prec),w
	movwf	(??_sprintf+0)+0
	addwf	(??_sprintf+0)+0,w
	addlw	low((_dpowers-__stringbase))
	movwf	fsr0
	fcall	stringdir
	movwf	(?___lwdiv)
	fcall	stringdir
	movwf	(?___lwdiv+1)
	movf	(sprintf@_val+1),w
	clrf	1+(?___lwdiv)+02h
	addwf	1+(?___lwdiv)+02h
	movf	(sprintf@_val),w
	clrf	0+(?___lwdiv)+02h
	addwf	0+(?___lwdiv)+02h

	fcall	___lwdiv
	bcf	status, 5	;RP0=0, select bank0
	bcf	status, 6	;RP1=0, select bank0
	movf	(1+(?___lwdiv)),w
	clrf	1+(?___lwmod)+02h
	addwf	1+(?___lwmod)+02h
	movf	(0+(?___lwdiv)),w
	clrf	0+(?___lwmod)+02h
	addwf	0+(?___lwmod)+02h

	fcall	___lwmod
	bcf	status, 5	;RP0=0, select bank0
	bcf	status, 6	;RP1=0, select bank0
	movf	(0+(?___lwmod)),w
	addlw	030h
	movwf	(??_sprintf+1)+0
	movf	(??_sprintf+1)+0,w
	movwf	(sprintf@c)
	line	1516
	
l11112:	
	movf	(sprintf@c),w
	movwf	(??_sprintf+0)+0
	movf	(sprintf@sp),w
	movwf	fsr0
	movf	(??_sprintf+0)+0,w
	bcf	status, 7	;select IRP bank0
	movwf	indf
	
l11114:	
	movlw	(01h)
	movwf	(??_sprintf+0)+0
	movf	(??_sprintf+0)+0,w
	addwf	(sprintf@sp),f
	goto	l11116
	line	1517
	
l6807:	
	line	1469
	
l11116:	
	movlw	(-1)
	movwf	(??_sprintf+0)+0
	movf	(??_sprintf+0)+0,w
	addwf	(sprintf@prec),f
	movf	((sprintf@prec)),w
	xorlw	-1
	skipz
	goto	u5161
	goto	u5160
u5161:
	goto	l11110
u5160:
	goto	l11118
	
l6809:	
	goto	l11118
	line	1525
	
l6792:	
	line	540
	
l11118:	
	movlw	01h
	addwf	(sprintf@f),f
	movlw	-01h
	addwf	(sprintf@f),w
	movwf	fsr0
	fcall	stringdir
	movwf	(??_sprintf+0)+0
	movf	(??_sprintf+0)+0,w
	movwf	(sprintf@c)
	movf	((sprintf@c)),f
	skipz
	goto	u5171
	goto	u5170
u5171:
	goto	l11068
u5170:
	goto	l11120
	
l6810:	
	goto	l11120
	line	1527
	
l6797:	
	line	1530
	
l11120:	
	movf	(sprintf@sp),w
	movwf	fsr0
	bcf	status, 7	;select IRP bank0
	clrf	indf
	goto	l6811
	line	1532
	
l11122:	
	line	1533
;	Return value of _sprintf is never used
	
l6811:	
	return
	opt stack 0
GLOBAL	__end_of_sprintf
	__end_of_sprintf:
;; =============== function _sprintf ends ============

	signat	_sprintf,4698
	global	_ADCconvert
psect	text1091,local,class=CODE,delta=2
global __ptext1091
__ptext1091:

;; *************** function _ADCconvert *****************
;; Defined at:
;;		line 58 in file "E:\Aldnoah.Zero\Assignment3\infrared.c"
;; Parameters:    Size  Location     Type
;;		None
;; Auto vars:     Size  Location     Type
;;		None
;; Return value:  Size  Location     Type
;;		None               void
;; Registers used:
;;		wreg, status,2, status,0, pclath, cstack
;; Tracked objects:
;;		On entry : 0/0
;;		On exit  : 0/0
;;		Unchanged: 0/0
;; Data sizes:     COMMON   BANK0   BANK1   BANK3   BANK2
;;      Params:         0       0       0       0       0
;;      Locals:         0       0       0       0       0
;;      Temps:          0       2       0       0       0
;;      Totals:         0       2       0       0       0
;;Total ram usage:        2 bytes
;; Hardware stack levels used:    1
;; Hardware stack levels required when called:    4
;; This function calls:
;;		___wmul
;;		___lwdiv
;; This function is called by:
;;		_readAvgDistance
;; This function uses a non-reentrant model
;;
psect	text1091
	file	"E:\Aldnoah.Zero\Assignment3\infrared.c"
	line	58
	global	__size_of_ADCconvert
	__size_of_ADCconvert	equ	__end_of_ADCconvert-_ADCconvert
	
_ADCconvert:	
	opt	stack 1
; Regs used in _ADCconvert: [wreg+status,2+status,0+pclath+cstack]
	line	64
	
l11024:	
;infrared.c: 64: if (adcVal >= 213 && adcVal < 234)
	movlw	high(0D5h)
	bsf	status, 5	;RP0=1, select bank1
	bcf	status, 6	;RP1=0, select bank1
	subwf	(_adcVal+1)^080h,w	;volatile
	movlw	low(0D5h)
	skipnz
	subwf	(_adcVal)^080h,w	;volatile
	skipc
	goto	u4961
	goto	u4960
u4961:
	goto	l11030
u4960:
	
l11026:	
	movlw	high(0EAh)
	subwf	(_adcVal+1)^080h,w	;volatile
	movlw	low(0EAh)
	skipnz
	subwf	(_adcVal)^080h,w	;volatile
	skipnc
	goto	u4971
	goto	u4970
u4971:
	goto	l11030
u4970:
	line	66
	
l11028:	
;infrared.c: 65: {
;infrared.c: 66: IRdistance = 15 + ((20 - 15)*(234 - adcVal)) / (234 - 213);
	movlw	low(015h)
	bcf	status, 5	;RP0=0, select bank0
	bcf	status, 6	;RP1=0, select bank0
	movwf	(?___lwdiv)
	movlw	high(015h)
	movwf	((?___lwdiv))+1
	bsf	status, 5	;RP0=1, select bank1
	bcf	status, 6	;RP1=0, select bank1
	comf	(_adcVal)^080h,w	;volatile
	bcf	status, 5	;RP0=0, select bank0
	bcf	status, 6	;RP1=0, select bank0
	movwf	(??_ADCconvert+0)+0
	bsf	status, 5	;RP0=1, select bank1
	bcf	status, 6	;RP1=0, select bank1
	comf	(_adcVal+1)^080h,w	;volatile
	bcf	status, 5	;RP0=0, select bank0
	bcf	status, 6	;RP1=0, select bank0
	movwf	((??_ADCconvert+0)+0+1)
	incf	(??_ADCconvert+0)+0,f
	skipnz
	incf	((??_ADCconvert+0)+0+1),f
	movf	0+(??_ADCconvert+0)+0,w
	addlw	low(0EAh)
	movwf	(?___wmul)
	movf	1+(??_ADCconvert+0)+0,w
	skipnc
	addlw	1
	addlw	high(0EAh)
	movwf	1+(?___wmul)
	movlw	low(05h)
	movwf	0+(?___wmul)+02h
	movlw	high(05h)
	movwf	(0+(?___wmul)+02h)+1
	fcall	___wmul
	bcf	status, 5	;RP0=0, select bank0
	bcf	status, 6	;RP1=0, select bank0
	movf	(1+(?___wmul)),w
	clrf	1+(?___lwdiv)+02h
	addwf	1+(?___lwdiv)+02h
	movf	(0+(?___wmul)),w
	clrf	0+(?___lwdiv)+02h
	addwf	0+(?___lwdiv)+02h

	fcall	___lwdiv
	bcf	status, 5	;RP0=0, select bank0
	bcf	status, 6	;RP1=0, select bank0
	movf	(0+(?___lwdiv)),w
	addlw	low(0Fh)
	bsf	status, 5	;RP0=1, select bank1
	bcf	status, 6	;RP1=0, select bank1
	movwf	(_IRdistance)^080h	;volatile
	bcf	status, 5	;RP0=0, select bank0
	bcf	status, 6	;RP1=0, select bank0
	movf	(1+(?___lwdiv)),w
	skipnc
	addlw	1
	addlw	high(0Fh)
	bsf	status, 5	;RP0=1, select bank1
	bcf	status, 6	;RP1=0, select bank1
	movwf	1+(_IRdistance)^080h	;volatile
	line	67
;infrared.c: 67: }
	goto	l3016
	line	68
	
l3003:	
	
l11030:	
;infrared.c: 68: else if (adcVal >= 170 && adcVal < 213)
	movlw	high(0AAh)
	subwf	(_adcVal+1)^080h,w	;volatile
	movlw	low(0AAh)
	skipnz
	subwf	(_adcVal)^080h,w	;volatile
	skipc
	goto	u4981
	goto	u4980
u4981:
	goto	l11036
u4980:
	
l11032:	
	movlw	high(0D5h)
	subwf	(_adcVal+1)^080h,w	;volatile
	movlw	low(0D5h)
	skipnz
	subwf	(_adcVal)^080h,w	;volatile
	skipnc
	goto	u4991
	goto	u4990
u4991:
	goto	l11036
u4990:
	line	70
	
l11034:	
;infrared.c: 69: {
;infrared.c: 70: IRdistance = 20 + ((30 - 20)*(213 - adcVal)) / (213 - 170);
	movlw	low(02Bh)
	bcf	status, 5	;RP0=0, select bank0
	bcf	status, 6	;RP1=0, select bank0
	movwf	(?___lwdiv)
	movlw	high(02Bh)
	movwf	((?___lwdiv))+1
	bsf	status, 5	;RP0=1, select bank1
	bcf	status, 6	;RP1=0, select bank1
	comf	(_adcVal)^080h,w	;volatile
	bcf	status, 5	;RP0=0, select bank0
	bcf	status, 6	;RP1=0, select bank0
	movwf	(??_ADCconvert+0)+0
	bsf	status, 5	;RP0=1, select bank1
	bcf	status, 6	;RP1=0, select bank1
	comf	(_adcVal+1)^080h,w	;volatile
	bcf	status, 5	;RP0=0, select bank0
	bcf	status, 6	;RP1=0, select bank0
	movwf	((??_ADCconvert+0)+0+1)
	incf	(??_ADCconvert+0)+0,f
	skipnz
	incf	((??_ADCconvert+0)+0+1),f
	movf	0+(??_ADCconvert+0)+0,w
	addlw	low(0D5h)
	movwf	(?___wmul)
	movf	1+(??_ADCconvert+0)+0,w
	skipnc
	addlw	1
	addlw	high(0D5h)
	movwf	1+(?___wmul)
	movlw	low(0Ah)
	movwf	0+(?___wmul)+02h
	movlw	high(0Ah)
	movwf	(0+(?___wmul)+02h)+1
	fcall	___wmul
	bcf	status, 5	;RP0=0, select bank0
	bcf	status, 6	;RP1=0, select bank0
	movf	(1+(?___wmul)),w
	clrf	1+(?___lwdiv)+02h
	addwf	1+(?___lwdiv)+02h
	movf	(0+(?___wmul)),w
	clrf	0+(?___lwdiv)+02h
	addwf	0+(?___lwdiv)+02h

	fcall	___lwdiv
	bcf	status, 5	;RP0=0, select bank0
	bcf	status, 6	;RP1=0, select bank0
	movf	(0+(?___lwdiv)),w
	addlw	low(014h)
	bsf	status, 5	;RP0=1, select bank1
	bcf	status, 6	;RP1=0, select bank1
	movwf	(_IRdistance)^080h	;volatile
	bcf	status, 5	;RP0=0, select bank0
	bcf	status, 6	;RP1=0, select bank0
	movf	(1+(?___lwdiv)),w
	skipnc
	addlw	1
	addlw	high(014h)
	bsf	status, 5	;RP0=1, select bank1
	bcf	status, 6	;RP1=0, select bank1
	movwf	1+(_IRdistance)^080h	;volatile
	line	71
;infrared.c: 71: }
	goto	l3016
	line	72
	
l3005:	
	
l11036:	
;infrared.c: 72: else if (adcVal >= 128 && adcVal < 170)
	movlw	high(080h)
	subwf	(_adcVal+1)^080h,w	;volatile
	movlw	low(080h)
	skipnz
	subwf	(_adcVal)^080h,w	;volatile
	skipc
	goto	u5001
	goto	u5000
u5001:
	goto	l11042
u5000:
	
l11038:	
	movlw	high(0AAh)
	subwf	(_adcVal+1)^080h,w	;volatile
	movlw	low(0AAh)
	skipnz
	subwf	(_adcVal)^080h,w	;volatile
	skipnc
	goto	u5011
	goto	u5010
u5011:
	goto	l11042
u5010:
	line	74
	
l11040:	
;infrared.c: 73: {
;infrared.c: 74: IRdistance = 30 + ((40 - 30)*(170 - adcVal)) / (170 - 128);
	movlw	low(02Ah)
	bcf	status, 5	;RP0=0, select bank0
	bcf	status, 6	;RP1=0, select bank0
	movwf	(?___lwdiv)
	movlw	high(02Ah)
	movwf	((?___lwdiv))+1
	bsf	status, 5	;RP0=1, select bank1
	bcf	status, 6	;RP1=0, select bank1
	comf	(_adcVal)^080h,w	;volatile
	bcf	status, 5	;RP0=0, select bank0
	bcf	status, 6	;RP1=0, select bank0
	movwf	(??_ADCconvert+0)+0
	bsf	status, 5	;RP0=1, select bank1
	bcf	status, 6	;RP1=0, select bank1
	comf	(_adcVal+1)^080h,w	;volatile
	bcf	status, 5	;RP0=0, select bank0
	bcf	status, 6	;RP1=0, select bank0
	movwf	((??_ADCconvert+0)+0+1)
	incf	(??_ADCconvert+0)+0,f
	skipnz
	incf	((??_ADCconvert+0)+0+1),f
	movf	0+(??_ADCconvert+0)+0,w
	addlw	low(0AAh)
	movwf	(?___wmul)
	movf	1+(??_ADCconvert+0)+0,w
	skipnc
	addlw	1
	addlw	high(0AAh)
	movwf	1+(?___wmul)
	movlw	low(0Ah)
	movwf	0+(?___wmul)+02h
	movlw	high(0Ah)
	movwf	(0+(?___wmul)+02h)+1
	fcall	___wmul
	bcf	status, 5	;RP0=0, select bank0
	bcf	status, 6	;RP1=0, select bank0
	movf	(1+(?___wmul)),w
	clrf	1+(?___lwdiv)+02h
	addwf	1+(?___lwdiv)+02h
	movf	(0+(?___wmul)),w
	clrf	0+(?___lwdiv)+02h
	addwf	0+(?___lwdiv)+02h

	fcall	___lwdiv
	bcf	status, 5	;RP0=0, select bank0
	bcf	status, 6	;RP1=0, select bank0
	movf	(0+(?___lwdiv)),w
	addlw	low(01Eh)
	bsf	status, 5	;RP0=1, select bank1
	bcf	status, 6	;RP1=0, select bank1
	movwf	(_IRdistance)^080h	;volatile
	bcf	status, 5	;RP0=0, select bank0
	bcf	status, 6	;RP1=0, select bank0
	movf	(1+(?___lwdiv)),w
	skipnc
	addlw	1
	addlw	high(01Eh)
	bsf	status, 5	;RP0=1, select bank1
	bcf	status, 6	;RP1=0, select bank1
	movwf	1+(_IRdistance)^080h	;volatile
	line	75
;infrared.c: 75: }
	goto	l3016
	line	76
	
l3007:	
	
l11042:	
;infrared.c: 76: else if (adcVal >= 107 && adcVal < 128)
	movlw	high(06Bh)
	subwf	(_adcVal+1)^080h,w	;volatile
	movlw	low(06Bh)
	skipnz
	subwf	(_adcVal)^080h,w	;volatile
	skipc
	goto	u5021
	goto	u5020
u5021:
	goto	l11048
u5020:
	
l11044:	
	movlw	high(080h)
	subwf	(_adcVal+1)^080h,w	;volatile
	movlw	low(080h)
	skipnz
	subwf	(_adcVal)^080h,w	;volatile
	skipnc
	goto	u5031
	goto	u5030
u5031:
	goto	l11048
u5030:
	line	78
	
l11046:	
;infrared.c: 77: {
;infrared.c: 78: IRdistance = 40 + ((50 - 40)*(128 - adcVal)) / (128 - 107);
	movlw	low(015h)
	bcf	status, 5	;RP0=0, select bank0
	bcf	status, 6	;RP1=0, select bank0
	movwf	(?___lwdiv)
	movlw	high(015h)
	movwf	((?___lwdiv))+1
	bsf	status, 5	;RP0=1, select bank1
	bcf	status, 6	;RP1=0, select bank1
	comf	(_adcVal)^080h,w	;volatile
	bcf	status, 5	;RP0=0, select bank0
	bcf	status, 6	;RP1=0, select bank0
	movwf	(??_ADCconvert+0)+0
	bsf	status, 5	;RP0=1, select bank1
	bcf	status, 6	;RP1=0, select bank1
	comf	(_adcVal+1)^080h,w	;volatile
	bcf	status, 5	;RP0=0, select bank0
	bcf	status, 6	;RP1=0, select bank0
	movwf	((??_ADCconvert+0)+0+1)
	incf	(??_ADCconvert+0)+0,f
	skipnz
	incf	((??_ADCconvert+0)+0+1),f
	movf	0+(??_ADCconvert+0)+0,w
	addlw	low(080h)
	movwf	(?___wmul)
	movf	1+(??_ADCconvert+0)+0,w
	skipnc
	addlw	1
	addlw	high(080h)
	movwf	1+(?___wmul)
	movlw	low(0Ah)
	movwf	0+(?___wmul)+02h
	movlw	high(0Ah)
	movwf	(0+(?___wmul)+02h)+1
	fcall	___wmul
	bcf	status, 5	;RP0=0, select bank0
	bcf	status, 6	;RP1=0, select bank0
	movf	(1+(?___wmul)),w
	clrf	1+(?___lwdiv)+02h
	addwf	1+(?___lwdiv)+02h
	movf	(0+(?___wmul)),w
	clrf	0+(?___lwdiv)+02h
	addwf	0+(?___lwdiv)+02h

	fcall	___lwdiv
	bcf	status, 5	;RP0=0, select bank0
	bcf	status, 6	;RP1=0, select bank0
	movf	(0+(?___lwdiv)),w
	addlw	low(028h)
	bsf	status, 5	;RP0=1, select bank1
	bcf	status, 6	;RP1=0, select bank1
	movwf	(_IRdistance)^080h	;volatile
	bcf	status, 5	;RP0=0, select bank0
	bcf	status, 6	;RP1=0, select bank0
	movf	(1+(?___lwdiv)),w
	skipnc
	addlw	1
	addlw	high(028h)
	bsf	status, 5	;RP0=1, select bank1
	bcf	status, 6	;RP1=0, select bank1
	movwf	1+(_IRdistance)^080h	;volatile
	line	79
;infrared.c: 79: }
	goto	l3016
	line	80
	
l3009:	
	
l11048:	
;infrared.c: 80: else if (adcVal >= 77 && adcVal < 107)
	movlw	high(04Dh)
	subwf	(_adcVal+1)^080h,w	;volatile
	movlw	low(04Dh)
	skipnz
	subwf	(_adcVal)^080h,w	;volatile
	skipc
	goto	u5041
	goto	u5040
u5041:
	goto	l11054
u5040:
	
l11050:	
	movlw	high(06Bh)
	subwf	(_adcVal+1)^080h,w	;volatile
	movlw	low(06Bh)
	skipnz
	subwf	(_adcVal)^080h,w	;volatile
	skipnc
	goto	u5051
	goto	u5050
u5051:
	goto	l11054
u5050:
	line	82
	
l11052:	
;infrared.c: 81: {
;infrared.c: 82: IRdistance = 50 + ((60 - 50)*(107 - adcVal)) / (107 - 77);
	movlw	low(01Eh)
	bcf	status, 5	;RP0=0, select bank0
	bcf	status, 6	;RP1=0, select bank0
	movwf	(?___lwdiv)
	movlw	high(01Eh)
	movwf	((?___lwdiv))+1
	bsf	status, 5	;RP0=1, select bank1
	bcf	status, 6	;RP1=0, select bank1
	comf	(_adcVal)^080h,w	;volatile
	bcf	status, 5	;RP0=0, select bank0
	bcf	status, 6	;RP1=0, select bank0
	movwf	(??_ADCconvert+0)+0
	bsf	status, 5	;RP0=1, select bank1
	bcf	status, 6	;RP1=0, select bank1
	comf	(_adcVal+1)^080h,w	;volatile
	bcf	status, 5	;RP0=0, select bank0
	bcf	status, 6	;RP1=0, select bank0
	movwf	((??_ADCconvert+0)+0+1)
	incf	(??_ADCconvert+0)+0,f
	skipnz
	incf	((??_ADCconvert+0)+0+1),f
	movf	0+(??_ADCconvert+0)+0,w
	addlw	low(06Bh)
	movwf	(?___wmul)
	movf	1+(??_ADCconvert+0)+0,w
	skipnc
	addlw	1
	addlw	high(06Bh)
	movwf	1+(?___wmul)
	movlw	low(0Ah)
	movwf	0+(?___wmul)+02h
	movlw	high(0Ah)
	movwf	(0+(?___wmul)+02h)+1
	fcall	___wmul
	bcf	status, 5	;RP0=0, select bank0
	bcf	status, 6	;RP1=0, select bank0
	movf	(1+(?___wmul)),w
	clrf	1+(?___lwdiv)+02h
	addwf	1+(?___lwdiv)+02h
	movf	(0+(?___wmul)),w
	clrf	0+(?___lwdiv)+02h
	addwf	0+(?___lwdiv)+02h

	fcall	___lwdiv
	bcf	status, 5	;RP0=0, select bank0
	bcf	status, 6	;RP1=0, select bank0
	movf	(0+(?___lwdiv)),w
	addlw	low(032h)
	bsf	status, 5	;RP0=1, select bank1
	bcf	status, 6	;RP1=0, select bank1
	movwf	(_IRdistance)^080h	;volatile
	bcf	status, 5	;RP0=0, select bank0
	bcf	status, 6	;RP1=0, select bank0
	movf	(1+(?___lwdiv)),w
	skipnc
	addlw	1
	addlw	high(032h)
	bsf	status, 5	;RP0=1, select bank1
	bcf	status, 6	;RP1=0, select bank1
	movwf	1+(_IRdistance)^080h	;volatile
	line	83
;infrared.c: 83: }
	goto	l3016
	line	84
	
l3011:	
	
l11054:	
;infrared.c: 84: else if (adcVal >= 56 && adcVal < 77)
	movlw	high(038h)
	subwf	(_adcVal+1)^080h,w	;volatile
	movlw	low(038h)
	skipnz
	subwf	(_adcVal)^080h,w	;volatile
	skipc
	goto	u5061
	goto	u5060
u5061:
	goto	l11060
u5060:
	
l11056:	
	movlw	high(04Dh)
	subwf	(_adcVal+1)^080h,w	;volatile
	movlw	low(04Dh)
	skipnz
	subwf	(_adcVal)^080h,w	;volatile
	skipnc
	goto	u5071
	goto	u5070
u5071:
	goto	l11060
u5070:
	line	86
	
l11058:	
;infrared.c: 85: {
;infrared.c: 86: IRdistance = 60 + ((70 - 60)*(77 - adcVal)) / (77 - 56);
	movlw	low(015h)
	bcf	status, 5	;RP0=0, select bank0
	bcf	status, 6	;RP1=0, select bank0
	movwf	(?___lwdiv)
	movlw	high(015h)
	movwf	((?___lwdiv))+1
	bsf	status, 5	;RP0=1, select bank1
	bcf	status, 6	;RP1=0, select bank1
	comf	(_adcVal)^080h,w	;volatile
	bcf	status, 5	;RP0=0, select bank0
	bcf	status, 6	;RP1=0, select bank0
	movwf	(??_ADCconvert+0)+0
	bsf	status, 5	;RP0=1, select bank1
	bcf	status, 6	;RP1=0, select bank1
	comf	(_adcVal+1)^080h,w	;volatile
	bcf	status, 5	;RP0=0, select bank0
	bcf	status, 6	;RP1=0, select bank0
	movwf	((??_ADCconvert+0)+0+1)
	incf	(??_ADCconvert+0)+0,f
	skipnz
	incf	((??_ADCconvert+0)+0+1),f
	movf	0+(??_ADCconvert+0)+0,w
	addlw	low(04Dh)
	movwf	(?___wmul)
	movf	1+(??_ADCconvert+0)+0,w
	skipnc
	addlw	1
	addlw	high(04Dh)
	movwf	1+(?___wmul)
	movlw	low(0Ah)
	movwf	0+(?___wmul)+02h
	movlw	high(0Ah)
	movwf	(0+(?___wmul)+02h)+1
	fcall	___wmul
	bcf	status, 5	;RP0=0, select bank0
	bcf	status, 6	;RP1=0, select bank0
	movf	(1+(?___wmul)),w
	clrf	1+(?___lwdiv)+02h
	addwf	1+(?___lwdiv)+02h
	movf	(0+(?___wmul)),w
	clrf	0+(?___lwdiv)+02h
	addwf	0+(?___lwdiv)+02h

	fcall	___lwdiv
	bcf	status, 5	;RP0=0, select bank0
	bcf	status, 6	;RP1=0, select bank0
	movf	(0+(?___lwdiv)),w
	addlw	low(03Ch)
	bsf	status, 5	;RP0=1, select bank1
	bcf	status, 6	;RP1=0, select bank1
	movwf	(_IRdistance)^080h	;volatile
	bcf	status, 5	;RP0=0, select bank0
	bcf	status, 6	;RP1=0, select bank0
	movf	(1+(?___lwdiv)),w
	skipnc
	addlw	1
	addlw	high(03Ch)
	bsf	status, 5	;RP0=1, select bank1
	bcf	status, 6	;RP1=0, select bank1
	movwf	1+(_IRdistance)^080h	;volatile
	line	87
;infrared.c: 87: }
	goto	l3016
	line	88
	
l3013:	
	
l11060:	
;infrared.c: 88: else if (adcVal >= 43 && adcVal < 56)
	movlw	high(02Bh)
	subwf	(_adcVal+1)^080h,w	;volatile
	movlw	low(02Bh)
	skipnz
	subwf	(_adcVal)^080h,w	;volatile
	skipc
	goto	u5081
	goto	u5080
u5081:
	goto	l3016
u5080:
	
l11062:	
	movlw	high(038h)
	subwf	(_adcVal+1)^080h,w	;volatile
	movlw	low(038h)
	skipnz
	subwf	(_adcVal)^080h,w	;volatile
	skipnc
	goto	u5091
	goto	u5090
u5091:
	goto	l3016
u5090:
	line	90
	
l11064:	
;infrared.c: 89: {
;infrared.c: 90: IRdistance = 70 + ((80 - 70)*(56 - adcVal)) / (56 - 43);
	movlw	low(0Dh)
	bcf	status, 5	;RP0=0, select bank0
	bcf	status, 6	;RP1=0, select bank0
	movwf	(?___lwdiv)
	movlw	high(0Dh)
	movwf	((?___lwdiv))+1
	bsf	status, 5	;RP0=1, select bank1
	bcf	status, 6	;RP1=0, select bank1
	comf	(_adcVal)^080h,w	;volatile
	bcf	status, 5	;RP0=0, select bank0
	bcf	status, 6	;RP1=0, select bank0
	movwf	(??_ADCconvert+0)+0
	bsf	status, 5	;RP0=1, select bank1
	bcf	status, 6	;RP1=0, select bank1
	comf	(_adcVal+1)^080h,w	;volatile
	bcf	status, 5	;RP0=0, select bank0
	bcf	status, 6	;RP1=0, select bank0
	movwf	((??_ADCconvert+0)+0+1)
	incf	(??_ADCconvert+0)+0,f
	skipnz
	incf	((??_ADCconvert+0)+0+1),f
	movf	0+(??_ADCconvert+0)+0,w
	addlw	low(038h)
	movwf	(?___wmul)
	movf	1+(??_ADCconvert+0)+0,w
	skipnc
	addlw	1
	addlw	high(038h)
	movwf	1+(?___wmul)
	movlw	low(0Ah)
	movwf	0+(?___wmul)+02h
	movlw	high(0Ah)
	movwf	(0+(?___wmul)+02h)+1
	fcall	___wmul
	bcf	status, 5	;RP0=0, select bank0
	bcf	status, 6	;RP1=0, select bank0
	movf	(1+(?___wmul)),w
	clrf	1+(?___lwdiv)+02h
	addwf	1+(?___lwdiv)+02h
	movf	(0+(?___wmul)),w
	clrf	0+(?___lwdiv)+02h
	addwf	0+(?___lwdiv)+02h

	fcall	___lwdiv
	bcf	status, 5	;RP0=0, select bank0
	bcf	status, 6	;RP1=0, select bank0
	movf	(0+(?___lwdiv)),w
	addlw	low(046h)
	bsf	status, 5	;RP0=1, select bank1
	bcf	status, 6	;RP1=0, select bank1
	movwf	(_IRdistance)^080h	;volatile
	bcf	status, 5	;RP0=0, select bank0
	bcf	status, 6	;RP1=0, select bank0
	movf	(1+(?___lwdiv)),w
	skipnc
	addlw	1
	addlw	high(046h)
	bsf	status, 5	;RP0=1, select bank1
	bcf	status, 6	;RP1=0, select bank1
	movwf	1+(_IRdistance)^080h	;volatile
	goto	l3016
	line	91
	
l3015:	
	goto	l3016
	line	92
	
l3014:	
	goto	l3016
	
l3012:	
	goto	l3016
	
l3010:	
	goto	l3016
	
l3008:	
	goto	l3016
	
l3006:	
	goto	l3016
	
l3004:	
	
l3016:	
	return
	opt stack 0
GLOBAL	__end_of_ADCconvert
	__end_of_ADCconvert:
;; =============== function _ADCconvert ends ============

	signat	_ADCconvert,88
	global	_robotTurn
psect	text1092,local,class=CODE,delta=2
global __ptext1092
__ptext1092:

;; *************** function _robotTurn *****************
;; Defined at:
;;		line 104 in file "E:\Aldnoah.Zero\Assignment3\robot.c"
;; Parameters:    Size  Location     Type
;;  angle           2    2[BANK0 ] int 
;; Auto vars:     Size  Location     Type
;;		None
;; Return value:  Size  Location     Type
;;		None               void
;; Registers used:
;;		wreg, fsr0l, fsr0h, status,2, status,0, btemp+1, pclath, cstack
;; Tracked objects:
;;		On entry : 0/0
;;		On exit  : 0/0
;;		Unchanged: 0/0
;; Data sizes:     COMMON   BANK0   BANK1   BANK3   BANK2
;;      Params:         0       2       0       0       0
;;      Locals:         0       0       0       0       0
;;      Temps:          0       0       0       0       0
;;      Totals:         0       2       0       0       0
;;Total ram usage:        2 bytes
;; Hardware stack levels used:    1
;; Hardware stack levels required when called:    4
;; This function calls:
;;		_ser_putch
;; This function is called by:
;;		_main
;;		_robotTurnSpeed
;; This function uses a non-reentrant model
;;
psect	text1092
	file	"E:\Aldnoah.Zero\Assignment3\robot.c"
	line	104
	global	__size_of_robotTurn
	__size_of_robotTurn	equ	__end_of_robotTurn-_robotTurn
	
_robotTurn:	
	opt	stack 3
; Regs used in _robotTurn: [wreg-fsr0h+status,2+status,0+btemp+1+pclath+cstack]
	line	106
	
l11016:	
;robot.c: 106: if (angle > 0)
	bcf	status, 5	;RP0=0, select bank0
	bcf	status, 6	;RP1=0, select bank0
	movf	(robotTurn@angle+1),w
	xorlw	80h
	movwf	btemp+1
	movlw	(high(01h))^80h
	subwf	btemp+1,w
	skipz
	goto	u4945
	movlw	low(01h)
	subwf	(robotTurn@angle),w
u4945:

	skipc
	goto	u4941
	goto	u4940
u4941:
	goto	l6024
u4940:
	line	108
	
l11018:	
;robot.c: 107: {
;robot.c: 108: ser_putch(137);
	movlw	(089h)
	fcall	_ser_putch
	line	110
;robot.c: 110: ser_putch(0);
	movlw	(0)
	fcall	_ser_putch
	line	112
;robot.c: 112: ser_putch(50);
	movlw	(032h)
	fcall	_ser_putch
	line	114
;robot.c: 114: ser_putch(0);
	movlw	(0)
	fcall	_ser_putch
	line	116
;robot.c: 116: ser_putch(1);
	movlw	(01h)
	fcall	_ser_putch
	line	117
;robot.c: 117: }
	goto	l6028
	line	118
	
l6024:	
;robot.c: 118: else if (angle < 0)
	bcf	status, 5	;RP0=0, select bank0
	bcf	status, 6	;RP1=0, select bank0
	btfss	(robotTurn@angle+1),7
	goto	u4951
	goto	u4950
u4951:
	goto	l11022
u4950:
	line	120
	
l11020:	
;robot.c: 119: {
;robot.c: 120: ser_putch(137);
	movlw	(089h)
	fcall	_ser_putch
	line	122
;robot.c: 122: ser_putch(0);
	movlw	(0)
	fcall	_ser_putch
	line	124
;robot.c: 124: ser_putch(50);
	movlw	(032h)
	fcall	_ser_putch
	line	126
;robot.c: 126: ser_putch(255);
	movlw	(0FFh)
	fcall	_ser_putch
	line	128
;robot.c: 128: ser_putch(255);
	movlw	(0FFh)
	fcall	_ser_putch
	line	129
;robot.c: 129: }
	goto	l6028
	line	130
	
l6026:	
	line	132
	
l11022:	
;robot.c: 130: else
;robot.c: 131: {
;robot.c: 132: ser_putch(137);
	movlw	(089h)
	fcall	_ser_putch
	line	134
;robot.c: 134: ser_putch(0);
	movlw	(0)
	fcall	_ser_putch
	line	136
;robot.c: 136: ser_putch(0);
	movlw	(0)
	fcall	_ser_putch
	line	138
;robot.c: 138: ser_putch(0);
	movlw	(0)
	fcall	_ser_putch
	line	140
;robot.c: 140: ser_putch(0);
	movlw	(0)
	fcall	_ser_putch
	goto	l6028
	line	141
	
l6027:	
	goto	l6028
	
l6025:	
	line	142
	
l6028:	
	return
	opt stack 0
GLOBAL	__end_of_robotTurn
	__end_of_robotTurn:
;; =============== function _robotTurn ends ============

	signat	_robotTurn,4216
	global	_rotate
psect	text1093,local,class=CODE,delta=2
global __ptext1093
__ptext1093:

;; *************** function _rotate *****************
;; Defined at:
;;		line 66 in file "E:\Aldnoah.Zero\Assignment3\steppermotor.c"
;; Parameters:    Size  Location     Type
;;  numsteps        2    3[BANK0 ] unsigned int 
;;  direction       1    5[BANK0 ] unsigned char 
;; Auto vars:     Size  Location     Type
;;  i               2    8[BANK0 ] unsigned int 
;; Return value:  Size  Location     Type
;;		None               void
;; Registers used:
;;		wreg, status,2, status,0, pclath, cstack
;; Tracked objects:
;;		On entry : 0/0
;;		On exit  : 0/0
;;		Unchanged: 0/0
;; Data sizes:     COMMON   BANK0   BANK1   BANK3   BANK2
;;      Params:         0       3       0       0       0
;;      Locals:         0       2       0       0       0
;;      Temps:          0       2       0       0       0
;;      Totals:         0       7       0       0       0
;;Total ram usage:        7 bytes
;; Hardware stack levels used:    1
;; Hardware stack levels required when called:    4
;; This function calls:
;;		_spi_transfer
;; This function is called by:
;;		_main
;;		_calibrateIR
;;		_scan360
;; This function uses a non-reentrant model
;;
psect	text1093
	file	"E:\Aldnoah.Zero\Assignment3\steppermotor.c"
	line	66
	global	__size_of_rotate
	__size_of_rotate	equ	__end_of_rotate-_rotate
	
_rotate:	
	opt	stack 3
; Regs used in _rotate: [wreg+status,2+status,0+pclath+cstack]
	line	68
	
l10988:	
;steppermotor.c: 68: RC0 = 1; RC1 = 1;;
	bcf	status, 5	;RP0=0, select bank0
	bcf	status, 6	;RP1=0, select bank0
	bsf	(56/8),(56)&7
	bsf	(57/8),(57)&7
	line	69
	
l10990:	
;steppermotor.c: 69: if (direction == 0)
	movf	(rotate@direction),f
	skipz
	goto	u4921
	goto	u4920
u4921:
	goto	l10994
u4920:
	line	70
	
l10992:	
;steppermotor.c: 70: spi_transfer(0b00001011);
	movlw	(0Bh)
	fcall	_spi_transfer
	goto	l10996
	line	71
	
l3717:	
	line	72
	
l10994:	
;steppermotor.c: 71: else
;steppermotor.c: 72: spi_transfer(0b00001001);
	movlw	(09h)
	fcall	_spi_transfer
	goto	l10996
	
l3718:	
	line	73
	
l10996:	
;steppermotor.c: 73: RC0 = 0; RC1 = 0;;
	bcf	status, 5	;RP0=0, select bank0
	bcf	status, 6	;RP1=0, select bank0
	bcf	(56/8),(56)&7
	
l10998:	
	bcf	(57/8),(57)&7
	line	74
	
l11000:	
;steppermotor.c: 74: for (unsigned int i = 0; i < numsteps; i++)
	clrf	(rotate@i)
	clrf	(rotate@i+1)
	goto	l3719
	line	75
	
l3720:	
	line	76
;steppermotor.c: 75: {
;steppermotor.c: 76: RC2 = 1; _nop(); RC2 = 0;;
	bsf	(58/8),(58)&7
	nop
	bcf	status, 5	;RP0=0, select bank0
	bcf	status, 6	;RP1=0, select bank0
	bcf	(58/8),(58)&7
	line	77
	
l11002:	
;steppermotor.c: 77: _delay((unsigned long)((15)*(20000000/4000.0)));
	opt asmopt_off
movlw	98
movwf	((??_rotate+0)+0+1),f
	movlw	101
movwf	((??_rotate+0)+0),f
u5807:
	decfsz	((??_rotate+0)+0),f
	goto	u5807
	decfsz	((??_rotate+0)+0+1),f
	goto	u5807
	nop2
opt asmopt_on

	line	74
	movlw	low(01h)
	bcf	status, 5	;RP0=0, select bank0
	bcf	status, 6	;RP1=0, select bank0
	addwf	(rotate@i),f
	skipnc
	incf	(rotate@i+1),f
	movlw	high(01h)
	addwf	(rotate@i+1),f
	
l3719:	
	movf	(rotate@numsteps+1),w
	subwf	(rotate@i+1),w
	skipz
	goto	u4935
	movf	(rotate@numsteps),w
	subwf	(rotate@i),w
u4935:
	skipc
	goto	u4931
	goto	u4930
u4931:
	goto	l3720
u4930:
	
l3721:	
	line	79
;steppermotor.c: 78: }
;steppermotor.c: 79: RC0 = 1; RC1 = 1;;
	bsf	(56/8),(56)&7
	bsf	(57/8),(57)&7
	line	80
	
l11004:	
;steppermotor.c: 80: spi_transfer(0b00000000);
	movlw	(0)
	fcall	_spi_transfer
	line	81
	
l11006:	
;steppermotor.c: 81: RC0 = 0; RC1 = 0;;
	bcf	status, 5	;RP0=0, select bank0
	bcf	status, 6	;RP1=0, select bank0
	bcf	(56/8),(56)&7
	
l11008:	
	bcf	(57/8),(57)&7
	line	82
	
l11010:	
;steppermotor.c: 82: RC2 = 1; _nop(); RC2 = 0;;
	bsf	(58/8),(58)&7
	
l11012:	
	nop
	
l11014:	
	bcf	status, 5	;RP0=0, select bank0
	bcf	status, 6	;RP1=0, select bank0
	bcf	(58/8),(58)&7
	line	83
	
l3722:	
	return
	opt stack 0
GLOBAL	__end_of_rotate
	__end_of_rotate:
;; =============== function _rotate ends ============

	signat	_rotate,8312
	global	_robo_init
psect	text1094,local,class=CODE,delta=2
global __ptext1094
__ptext1094:

;; *************** function _robo_init *****************
;; Defined at:
;;		line 31 in file "E:\Aldnoah.Zero\Assignment3\robot.c"
;; Parameters:    Size  Location     Type
;;		None
;; Auto vars:     Size  Location     Type
;;		None
;; Return value:  Size  Location     Type
;;		None               void
;; Registers used:
;;		wreg, fsr0l, fsr0h, status,2, status,0, pclath, cstack
;; Tracked objects:
;;		On entry : 0/0
;;		On exit  : 0/0
;;		Unchanged: 0/0
;; Data sizes:     COMMON   BANK0   BANK1   BANK3   BANK2
;;      Params:         0       0       0       0       0
;;      Locals:         0       0       0       0       0
;;      Temps:          0       0       0       0       0
;;      Totals:         0       0       0       0       0
;;Total ram usage:        0 bytes
;; Hardware stack levels used:    1
;; Hardware stack levels required when called:    4
;; This function calls:
;;		_ser_putch
;; This function is called by:
;;		_init
;; This function uses a non-reentrant model
;;
psect	text1094
	file	"E:\Aldnoah.Zero\Assignment3\robot.c"
	line	31
	global	__size_of_robo_init
	__size_of_robo_init	equ	__end_of_robo_init-_robo_init
	
_robo_init:	
	opt	stack 2
; Regs used in _robo_init: [wreg-fsr0h+status,2+status,0+pclath+cstack]
	line	32
	
l10986:	
;robot.c: 32: ser_putch(128);
	movlw	(080h)
	fcall	_ser_putch
	line	33
;robot.c: 33: ser_putch(132);
	movlw	(084h)
	fcall	_ser_putch
	line	34
;robot.c: 34: ser_putch(150);
	movlw	(096h)
	fcall	_ser_putch
	line	35
;robot.c: 35: ser_putch(0);
	movlw	(0)
	fcall	_ser_putch
	line	36
	
l6010:	
	return
	opt stack 0
GLOBAL	__end_of_robo_init
	__end_of_robo_init:
;; =============== function _robo_init ends ============

	signat	_robo_init,88
	global	_lcd_write_data
psect	text1095,local,class=CODE,delta=2
global __ptext1095
__ptext1095:

;; *************** function _lcd_write_data *****************
;; Defined at:
;;		line 30 in file "E:\Aldnoah.Zero\Assignment3\lcd.c"
;; Parameters:    Size  Location     Type
;;  databyte        1    wreg     unsigned char 
;; Auto vars:     Size  Location     Type
;;  databyte        1    2[BANK0 ] unsigned char 
;; Return value:  Size  Location     Type
;;		None               void
;; Registers used:
;;		wreg
;; Tracked objects:
;;		On entry : 0/0
;;		On exit  : 0/0
;;		Unchanged: 0/0
;; Data sizes:     COMMON   BANK0   BANK1   BANK3   BANK2
;;      Params:         0       0       0       0       0
;;      Locals:         0       1       0       0       0
;;      Temps:          0       2       0       0       0
;;      Totals:         0       3       0       0       0
;;Total ram usage:        3 bytes
;; Hardware stack levels used:    1
;; Hardware stack levels required when called:    3
;; This function calls:
;;		Nothing
;; This function is called by:
;;		_lcd_write_string
;;		_lcd_write_2_digit_bcd
;;		_lcd_write_3_digit_bcd
;; This function uses a non-reentrant model
;;
psect	text1095
	file	"E:\Aldnoah.Zero\Assignment3\lcd.c"
	line	30
	global	__size_of_lcd_write_data
	__size_of_lcd_write_data	equ	__end_of_lcd_write_data-_lcd_write_data
	
_lcd_write_data:	
	opt	stack 1
; Regs used in _lcd_write_data: [wreg]
;lcd_write_data@databyte stored from wreg
	bcf	status, 5	;RP0=0, select bank0
	bcf	status, 6	;RP1=0, select bank0
	movwf	(lcd_write_data@databyte)
	line	31
	
l10978:	
;lcd.c: 31: RE2 = 0;
	bcf	(74/8),(74)&7
	line	32
;lcd.c: 32: RE1 = 0;
	bcf	(73/8),(73)&7
	line	33
;lcd.c: 33: RE0 = 1;
	bsf	(72/8),(72)&7
	line	34
	
l10980:	
;lcd.c: 34: PORTD = databyte;
	movf	(lcd_write_data@databyte),w
	movwf	(8)	;volatile
	line	35
	
l10982:	
;lcd.c: 35: RE2 = 1;
	bsf	(74/8),(74)&7
	line	36
	
l10984:	
;lcd.c: 36: RE2 = 0;
	bcf	(74/8),(74)&7
	line	37
;lcd.c: 37: _delay((unsigned long)((1)*(20000000/4000.0)));
	opt asmopt_off
movlw	7
movwf	((??_lcd_write_data+0)+0+1),f
	movlw	125
movwf	((??_lcd_write_data+0)+0),f
u5817:
	decfsz	((??_lcd_write_data+0)+0),f
	goto	u5817
	decfsz	((??_lcd_write_data+0)+0+1),f
	goto	u5817
opt asmopt_on

	line	38
	
l1402:	
	return
	opt stack 0
GLOBAL	__end_of_lcd_write_data
	__end_of_lcd_write_data:
;; =============== function _lcd_write_data ends ============

	signat	_lcd_write_data,4216
	global	_lcd_write_control
psect	text1096,local,class=CODE,delta=2
global __ptext1096
__ptext1096:

;; *************** function _lcd_write_control *****************
;; Defined at:
;;		line 18 in file "E:\Aldnoah.Zero\Assignment3\lcd.c"
;; Parameters:    Size  Location     Type
;;  databyte        1    wreg     unsigned char 
;; Auto vars:     Size  Location     Type
;;  databyte        1    2[BANK0 ] unsigned char 
;; Return value:  Size  Location     Type
;;		None               void
;; Registers used:
;;		wreg
;; Tracked objects:
;;		On entry : 0/0
;;		On exit  : 0/0
;;		Unchanged: 0/0
;; Data sizes:     COMMON   BANK0   BANK1   BANK3   BANK2
;;      Params:         0       0       0       0       0
;;      Locals:         0       1       0       0       0
;;      Temps:          0       2       0       0       0
;;      Totals:         0       3       0       0       0
;;Total ram usage:        3 bytes
;; Hardware stack levels used:    1
;; Hardware stack levels required when called:    3
;; This function calls:
;;		Nothing
;; This function is called by:
;;		_lcd_set_cursor
;;		_lcd_init
;;		_UpdateDisplay
;; This function uses a non-reentrant model
;;
psect	text1096
	file	"E:\Aldnoah.Zero\Assignment3\lcd.c"
	line	18
	global	__size_of_lcd_write_control
	__size_of_lcd_write_control	equ	__end_of_lcd_write_control-_lcd_write_control
	
_lcd_write_control:	
	opt	stack 1
; Regs used in _lcd_write_control: [wreg]
;lcd_write_control@databyte stored from wreg
	bcf	status, 5	;RP0=0, select bank0
	bcf	status, 6	;RP1=0, select bank0
	movwf	(lcd_write_control@databyte)
	line	19
	
l10970:	
;lcd.c: 19: RE2 = 0;
	bcf	(74/8),(74)&7
	line	20
;lcd.c: 20: RE1 = 0;
	bcf	(73/8),(73)&7
	line	21
;lcd.c: 21: RE0 = 0;
	bcf	(72/8),(72)&7
	line	22
	
l10972:	
;lcd.c: 22: PORTD = databyte;
	movf	(lcd_write_control@databyte),w
	movwf	(8)	;volatile
	line	23
	
l10974:	
;lcd.c: 23: RE2 = 1;
	bsf	(74/8),(74)&7
	line	24
	
l10976:	
;lcd.c: 24: RE2 = 0;
	bcf	(74/8),(74)&7
	line	25
;lcd.c: 25: _delay((unsigned long)((2)*(20000000/4000.0)));
	opt asmopt_off
movlw	13
movwf	((??_lcd_write_control+0)+0+1),f
	movlw	251
movwf	((??_lcd_write_control+0)+0),f
u5827:
	decfsz	((??_lcd_write_control+0)+0),f
	goto	u5827
	decfsz	((??_lcd_write_control+0)+0+1),f
	goto	u5827
	nop2
opt asmopt_on

	line	26
	
l1399:	
	return
	opt stack 0
GLOBAL	__end_of_lcd_write_control
	__end_of_lcd_write_control:
;; =============== function _lcd_write_control ends ============

	signat	_lcd_write_control,4216
	global	_init_adc
psect	text1097,local,class=CODE,delta=2
global __ptext1097
__ptext1097:

;; *************** function _init_adc *****************
;; Defined at:
;;		line 61 in file "E:\Aldnoah.Zero\Assignment3\adc.c"
;; Parameters:    Size  Location     Type
;;		None
;; Auto vars:     Size  Location     Type
;;		None
;; Return value:  Size  Location     Type
;;		None               void
;; Registers used:
;;		wreg, status,2
;; Tracked objects:
;;		On entry : 0/0
;;		On exit  : 0/0
;;		Unchanged: 0/0
;; Data sizes:     COMMON   BANK0   BANK1   BANK3   BANK2
;;      Params:         0       0       0       0       0
;;      Locals:         0       0       0       0       0
;;      Temps:          0       1       0       0       0
;;      Totals:         0       1       0       0       0
;;Total ram usage:        1 bytes
;; Hardware stack levels used:    1
;; Hardware stack levels required when called:    3
;; This function calls:
;;		Nothing
;; This function is called by:
;;		_init
;; This function uses a non-reentrant model
;;
psect	text1097
	file	"E:\Aldnoah.Zero\Assignment3\adc.c"
	line	61
	global	__size_of_init_adc
	__size_of_init_adc	equ	__end_of_init_adc-_init_adc
	
_init_adc:	
	opt	stack 3
; Regs used in _init_adc: [wreg+status,2]
	line	63
	
l10960:	
;adc.c: 63: PORTA = 0;
	bcf	status, 5	;RP0=0, select bank0
	bcf	status, 6	;RP1=0, select bank0
	clrf	(5)	;volatile
	line	64
	
l10962:	
;adc.c: 64: TRISA = 0b00111111;
	movlw	(03Fh)
	bsf	status, 5	;RP0=1, select bank1
	bcf	status, 6	;RP1=0, select bank1
	movwf	(133)^080h	;volatile
	line	67
	
l10964:	
;adc.c: 67: ADCON0 = 0b10100001;
	movlw	(0A1h)
	bcf	status, 5	;RP0=0, select bank0
	bcf	status, 6	;RP1=0, select bank0
	movwf	(31)	;volatile
	line	68
	
l10966:	
;adc.c: 68: ADCON1 = 0b0000010;
	movlw	(02h)
	bsf	status, 5	;RP0=1, select bank1
	bcf	status, 6	;RP1=0, select bank1
	movwf	(159)^080h	;volatile
	line	70
	
l10968:	
;adc.c: 70: _delay((unsigned long)((50)*(20000000/4000000.0)));
	opt asmopt_off
movlw	83
	bcf	status, 5	;RP0=0, select bank0
	bcf	status, 6	;RP1=0, select bank0
movwf	(??_init_adc+0)+0,f
u5837:
decfsz	(??_init_adc+0)+0,f
	goto	u5837
opt asmopt_on

	line	72
	
l700:	
	return
	opt stack 0
GLOBAL	__end_of_init_adc
	__end_of_init_adc:
;; =============== function _init_adc ends ============

	signat	_init_adc,88
	global	_adc_read_channel
psect	text1098,local,class=CODE,delta=2
global __ptext1098
__ptext1098:

;; *************** function _adc_read_channel *****************
;; Defined at:
;;		line 20 in file "E:\Aldnoah.Zero\Assignment3\adc.c"
;; Parameters:    Size  Location     Type
;;  channel         1    wreg     unsigned char 
;; Auto vars:     Size  Location     Type
;;  channel         1    7[BANK0 ] unsigned char 
;; Return value:  Size  Location     Type
;;                  1    wreg      unsigned char 
;; Registers used:
;;		wreg, fsr0l, fsr0h, status,2, status,0, pclath, cstack
;; Tracked objects:
;;		On entry : 0/0
;;		On exit  : 0/0
;;		Unchanged: 0/0
;; Data sizes:     COMMON   BANK0   BANK1   BANK3   BANK2
;;      Params:         0       0       0       0       0
;;      Locals:         0       1       0       0       0
;;      Temps:          0       1       0       0       0
;;      Totals:         0       2       0       0       0
;;Total ram usage:        2 bytes
;; Hardware stack levels used:    1
;; Hardware stack levels required when called:    4
;; This function calls:
;;		_adc_read
;; This function is called by:
;;		_readDistance
;; This function uses a non-reentrant model
;;
psect	text1098
	file	"E:\Aldnoah.Zero\Assignment3\adc.c"
	line	20
	global	__size_of_adc_read_channel
	__size_of_adc_read_channel	equ	__end_of_adc_read_channel-_adc_read_channel
	
_adc_read_channel:	
	opt	stack 0
; Regs used in _adc_read_channel: [wreg-fsr0h+status,2+status,0+pclath+cstack]
;adc_read_channel@channel stored from wreg
	bcf	status, 5	;RP0=0, select bank0
	bcf	status, 6	;RP1=0, select bank0
	movwf	(adc_read_channel@channel)
	line	21
	
l10944:	
;adc.c: 21: switch(channel)
	goto	l10952
	line	23
;adc.c: 22: {
;adc.c: 23: case 0:
	
l690:	
	line	24
;adc.c: 24: CHS0 = 0;
	bcf	(251/8),(251)&7
	line	25
;adc.c: 25: CHS1 = 0;
	bcf	(252/8),(252)&7
	line	26
;adc.c: 26: CHS2 = 0;
	bcf	(253/8),(253)&7
	line	27
;adc.c: 27: break;
	goto	l10954
	line	28
;adc.c: 28: case 1:
	
l692:	
	line	29
;adc.c: 29: CHS0 = 1;
	bsf	(251/8),(251)&7
	line	30
;adc.c: 30: CHS1 = 0;
	bcf	(252/8),(252)&7
	line	31
;adc.c: 31: CHS2 = 0;
	bcf	(253/8),(253)&7
	line	32
;adc.c: 32: break;
	goto	l10954
	line	33
;adc.c: 33: case 2:
	
l693:	
	line	34
;adc.c: 34: CHS0 = 0;
	bcf	(251/8),(251)&7
	line	35
;adc.c: 35: CHS1 = 1;
	bsf	(252/8),(252)&7
	line	36
;adc.c: 36: CHS2 = 0;
	bcf	(253/8),(253)&7
	line	37
;adc.c: 37: break;
	goto	l10954
	line	38
;adc.c: 38: case 3:
	
l694:	
	line	39
;adc.c: 39: CHS0 = 1;
	bsf	(251/8),(251)&7
	line	40
;adc.c: 40: CHS1 = 1;
	bsf	(252/8),(252)&7
	line	41
;adc.c: 41: CHS2 = 0;
	bcf	(253/8),(253)&7
	line	42
;adc.c: 42: break;
	goto	l10954
	line	43
;adc.c: 43: case 4:
	
l695:	
	line	44
;adc.c: 44: CHS0 = 0;
	bcf	(251/8),(251)&7
	line	45
;adc.c: 45: CHS1 = 0;
	bcf	(252/8),(252)&7
	line	46
;adc.c: 46: CHS2 = 1;
	bsf	(253/8),(253)&7
	line	47
;adc.c: 47: break;
	goto	l10954
	line	50
;adc.c: 50: default:
	
l696:	
	line	51
	
l10946:	
;adc.c: 51: return 0;
	movlw	(0)
	goto	l697
	
l10948:	
	goto	l697
	line	52
	
l10950:	
;adc.c: 52: }
	goto	l10954
	line	21
	
l689:	
	
l10952:	
	movf	(adc_read_channel@channel),w
	; Switch size 1, requested type "space"
; Number of cases is 5, Range of values is 0 to 4
; switch strategies available:
; Name         Instructions Cycles
; simple_byte           16     9 (average)
; direct_byte           23     8 (fixed)
; jumptable            260     6 (fixed)
; rangetable             9     6 (fixed)
; spacedrange           16     9 (fixed)
; locatedrange           5     3 (fixed)
;	Chosen strategy is simple_byte

	opt asmopt_off
	xorlw	0^0	; case 0
	skipnz
	goto	l690
	xorlw	1^0	; case 1
	skipnz
	goto	l692
	xorlw	2^1	; case 2
	skipnz
	goto	l693
	xorlw	3^2	; case 3
	skipnz
	goto	l694
	xorlw	4^3	; case 4
	skipnz
	goto	l695
	goto	l10946
	opt asmopt_on

	line	52
	
l691:	
	line	54
	
l10954:	
;adc.c: 54: _delay((unsigned long)((50)*(20000000/4000000.0)));
	opt asmopt_off
movlw	83
movwf	(??_adc_read_channel+0)+0,f
u5847:
decfsz	(??_adc_read_channel+0)+0,f
	goto	u5847
opt asmopt_on

	line	56
	
l10956:	
;adc.c: 56: return adc_read();
	fcall	_adc_read
	bcf	status, 5	;RP0=0, select bank0
	bcf	status, 6	;RP1=0, select bank0
	movf	(0+(?_adc_read)),w
	goto	l697
	
l10958:	
	line	58
	
l697:	
	return
	opt stack 0
GLOBAL	__end_of_adc_read_channel
	__end_of_adc_read_channel:
;; =============== function _adc_read_channel ends ============

	signat	_adc_read_channel,4217
	global	___awmod
psect	text1099,local,class=CODE,delta=2
global __ptext1099
__ptext1099:

;; *************** function ___awmod *****************
;; Defined at:
;;		line 5 in file "C:\Program Files\HI-TECH Software\PICC\9.83\sources\awmod.c"
;; Parameters:    Size  Location     Type
;;  divisor         2    0[BANK0 ] int 
;;  dividend        2    2[BANK0 ] int 
;; Auto vars:     Size  Location     Type
;;  sign            1    6[BANK0 ] unsigned char 
;;  counter         1    5[BANK0 ] unsigned char 
;; Return value:  Size  Location     Type
;;                  2    0[BANK0 ] int 
;; Registers used:
;;		wreg, status,2, status,0
;; Tracked objects:
;;		On entry : 0/0
;;		On exit  : 0/0
;;		Unchanged: 0/0
;; Data sizes:     COMMON   BANK0   BANK1   BANK3   BANK2
;;      Params:         0       4       0       0       0
;;      Locals:         0       2       0       0       0
;;      Temps:          0       1       0       0       0
;;      Totals:         0       7       0       0       0
;;Total ram usage:        7 bytes
;; Hardware stack levels used:    1
;; Hardware stack levels required when called:    3
;; This function calls:
;;		Nothing
;; This function is called by:
;;		_UpdateDisplay
;; This function uses a non-reentrant model
;;
psect	text1099
	file	"C:\Program Files\HI-TECH Software\PICC\9.83\sources\awmod.c"
	line	5
	global	__size_of___awmod
	__size_of___awmod	equ	__end_of___awmod-___awmod
	
___awmod:	
	opt	stack 2
; Regs used in ___awmod: [wreg+status,2+status,0]
	line	8
	
l10842:	
	bcf	status, 5	;RP0=0, select bank0
	bcf	status, 6	;RP1=0, select bank0
	clrf	(___awmod@sign)
	line	9
	btfss	(___awmod@dividend+1),7
	goto	u4711
	goto	u4710
u4711:
	goto	l10846
u4710:
	line	10
	
l10844:	
	comf	(___awmod@dividend),f
	comf	(___awmod@dividend+1),f
	incf	(___awmod@dividend),f
	skipnz
	incf	(___awmod@dividend+1),f
	line	11
	clrf	(___awmod@sign)
	bsf	status,0
	rlf	(___awmod@sign),f
	goto	l10846
	line	12
	
l7702:	
	line	13
	
l10846:	
	btfss	(___awmod@divisor+1),7
	goto	u4721
	goto	u4720
u4721:
	goto	l10850
u4720:
	line	14
	
l10848:	
	comf	(___awmod@divisor),f
	comf	(___awmod@divisor+1),f
	incf	(___awmod@divisor),f
	skipnz
	incf	(___awmod@divisor+1),f
	goto	l10850
	
l7703:	
	line	15
	
l10850:	
	movf	(___awmod@divisor+1),w
	iorwf	(___awmod@divisor),w
	skipnz
	goto	u4731
	goto	u4730
u4731:
	goto	l10868
u4730:
	line	16
	
l10852:	
	clrf	(___awmod@counter)
	bsf	status,0
	rlf	(___awmod@counter),f
	line	17
	goto	l10858
	
l7706:	
	line	18
	
l10854:	
	movlw	01h
	
u4745:
	clrc
	rlf	(___awmod@divisor),f
	rlf	(___awmod@divisor+1),f
	addlw	-1
	skipz
	goto	u4745
	line	19
	
l10856:	
	movlw	(01h)
	movwf	(??___awmod+0)+0
	movf	(??___awmod+0)+0,w
	addwf	(___awmod@counter),f
	goto	l10858
	line	20
	
l7705:	
	line	17
	
l10858:	
	btfss	(___awmod@divisor+1),(15)&7
	goto	u4751
	goto	u4750
u4751:
	goto	l10854
u4750:
	goto	l10860
	
l7707:	
	goto	l10860
	line	21
	
l7708:	
	line	22
	
l10860:	
	movf	(___awmod@divisor+1),w
	subwf	(___awmod@dividend+1),w
	skipz
	goto	u4765
	movf	(___awmod@divisor),w
	subwf	(___awmod@dividend),w
u4765:
	skipc
	goto	u4761
	goto	u4760
u4761:
	goto	l10864
u4760:
	line	23
	
l10862:	
	movf	(___awmod@divisor),w
	subwf	(___awmod@dividend),f
	movf	(___awmod@divisor+1),w
	skipc
	decf	(___awmod@dividend+1),f
	subwf	(___awmod@dividend+1),f
	goto	l10864
	
l7709:	
	line	24
	
l10864:	
	movlw	01h
	
u4775:
	clrc
	rrf	(___awmod@divisor+1),f
	rrf	(___awmod@divisor),f
	addlw	-1
	skipz
	goto	u4775
	line	25
	
l10866:	
	movlw	low(01h)
	subwf	(___awmod@counter),f
	btfss	status,2
	goto	u4781
	goto	u4780
u4781:
	goto	l10860
u4780:
	goto	l10868
	
l7710:	
	goto	l10868
	line	26
	
l7704:	
	line	27
	
l10868:	
	movf	(___awmod@sign),w
	skipz
	goto	u4790
	goto	l10872
u4790:
	line	28
	
l10870:	
	comf	(___awmod@dividend),f
	comf	(___awmod@dividend+1),f
	incf	(___awmod@dividend),f
	skipnz
	incf	(___awmod@dividend+1),f
	goto	l10872
	
l7711:	
	line	29
	
l10872:	
	movf	(___awmod@dividend+1),w
	clrf	(?___awmod+1)
	addwf	(?___awmod+1)
	movf	(___awmod@dividend),w
	clrf	(?___awmod)
	addwf	(?___awmod)

	goto	l7712
	
l10874:	
	line	30
	
l7712:	
	return
	opt stack 0
GLOBAL	__end_of___awmod
	__end_of___awmod:
;; =============== function ___awmod ends ============

	signat	___awmod,8314
	global	___fttol
psect	text1100,local,class=CODE,delta=2
global __ptext1100
__ptext1100:

;; *************** function ___fttol *****************
;; Defined at:
;;		line 45 in file "C:\Program Files\HI-TECH Software\PICC\9.83\sources\fttol.c"
;; Parameters:    Size  Location     Type
;;  f1              3    8[BANK0 ] float 
;; Auto vars:     Size  Location     Type
;;  lval            4   17[BANK0 ] unsigned long 
;;  exp1            1   21[BANK0 ] unsigned char 
;;  sign1           1   16[BANK0 ] unsigned char 
;; Return value:  Size  Location     Type
;;                  4    8[BANK0 ] long 
;; Registers used:
;;		wreg, status,2, status,0
;; Tracked objects:
;;		On entry : 0/0
;;		On exit  : 0/0
;;		Unchanged: 0/0
;; Data sizes:     COMMON   BANK0   BANK1   BANK3   BANK2
;;      Params:         0       4       0       0       0
;;      Locals:         0       6       0       0       0
;;      Temps:          0       4       0       0       0
;;      Totals:         0      14       0       0       0
;;Total ram usage:       14 bytes
;; Hardware stack levels used:    1
;; Hardware stack levels required when called:    3
;; This function calls:
;;		Nothing
;; This function is called by:
;;		_main
;; This function uses a non-reentrant model
;;
psect	text1100
	file	"C:\Program Files\HI-TECH Software\PICC\9.83\sources\fttol.c"
	line	45
	global	__size_of___fttol
	__size_of___fttol	equ	__end_of___fttol-___fttol
	
___fttol:	
	opt	stack 4
; Regs used in ___fttol: [wreg+status,2+status,0]
	line	49
	
l10786:	
	bcf	status, 5	;RP0=0, select bank0
	bcf	status, 6	;RP1=0, select bank0
	movf	(___fttol@f1),w
	movwf	((??___fttol+0)+0)
	movf	(___fttol@f1+1),w
	movwf	((??___fttol+0)+0+1)
	movf	(___fttol@f1+2),w
	movwf	((??___fttol+0)+0+2)
	clrc
	rlf	(??___fttol+0)+1,w
	rlf	(??___fttol+0)+2,w
	movwf	(??___fttol+3)+0
	movf	(??___fttol+3)+0,w
	movwf	(___fttol@exp1)
	movf	((___fttol@exp1)),f
	skipz
	goto	u4601
	goto	u4600
u4601:
	goto	l10792
u4600:
	line	50
	
l10788:	
	movlw	0
	movwf	(?___fttol+3)
	movlw	0
	movwf	(?___fttol+2)
	movlw	0
	movwf	(?___fttol+1)
	movlw	0
	movwf	(?___fttol)

	goto	l7604
	
l10790:	
	goto	l7604
	
l7603:	
	line	51
	
l10792:	
	movf	(___fttol@f1),w
	movwf	((??___fttol+0)+0)
	movf	(___fttol@f1+1),w
	movwf	((??___fttol+0)+0+1)
	movf	(___fttol@f1+2),w
	movwf	((??___fttol+0)+0+2)
	movlw	017h
u4615:
	clrc
	rrf	(??___fttol+0)+2,f
	rrf	(??___fttol+0)+1,f
	rrf	(??___fttol+0)+0,f
u4610:
	addlw	-1
	skipz
	goto	u4615
	movf	0+(??___fttol+0)+0,w
	movwf	(??___fttol+3)+0
	movf	(??___fttol+3)+0,w
	movwf	(___fttol@sign1)
	line	52
	
l10794:	
	bsf	(___fttol@f1)+(15/8),(15)&7
	line	53
	
l10796:	
	movlw	0FFh
	andwf	(___fttol@f1),f
	movlw	0FFh
	andwf	(___fttol@f1+1),f
	movlw	0
	andwf	(___fttol@f1+2),f
	line	54
	
l10798:	
	movf	(___fttol@f1),w
	movwf	(___fttol@lval)
	movf	(___fttol@f1+1),w
	movwf	((___fttol@lval))+1
	movf	(___fttol@f1+2),w
	movwf	((___fttol@lval))+2
	clrf	((___fttol@lval))+3
	line	55
	
l10800:	
	movlw	low(08Eh)
	subwf	(___fttol@exp1),f
	line	56
	
l10802:	
	btfss	(___fttol@exp1),7
	goto	u4621
	goto	u4620
u4621:
	goto	l10812
u4620:
	line	57
	
l10804:	
	movf	(___fttol@exp1),w
	xorlw	80h
	addlw	-((-15)^80h)
	skipnc
	goto	u4631
	goto	u4630
u4631:
	goto	l10810
u4630:
	line	58
	
l10806:	
	movlw	0
	movwf	(?___fttol+3)
	movlw	0
	movwf	(?___fttol+2)
	movlw	0
	movwf	(?___fttol+1)
	movlw	0
	movwf	(?___fttol)

	goto	l7604
	
l10808:	
	goto	l7604
	
l7606:	
	goto	l10810
	line	59
	
l7607:	
	line	60
	
l10810:	
	movlw	01h
u4645:
	clrc
	rrf	(___fttol@lval+3),f
	rrf	(___fttol@lval+2),f
	rrf	(___fttol@lval+1),f
	rrf	(___fttol@lval),f
	addlw	-1
	skipz
	goto	u4645

	line	61
	movlw	(01h)
	movwf	(??___fttol+0)+0
	movf	(??___fttol+0)+0,w
	addwf	(___fttol@exp1),f
	btfss	status,2
	goto	u4651
	goto	u4650
u4651:
	goto	l10810
u4650:
	goto	l10822
	
l7608:	
	line	62
	goto	l10822
	
l7605:	
	line	63
	
l10812:	
	movlw	(018h)
	subwf	(___fttol@exp1),w
	skipc
	goto	u4661
	goto	u4660
u4661:
	goto	l10820
u4660:
	line	64
	
l10814:	
	movlw	0
	movwf	(?___fttol+3)
	movlw	0
	movwf	(?___fttol+2)
	movlw	0
	movwf	(?___fttol+1)
	movlw	0
	movwf	(?___fttol)

	goto	l7604
	
l10816:	
	goto	l7604
	
l7610:	
	line	65
	goto	l10820
	
l7612:	
	line	66
	
l10818:	
	movlw	01h
	movwf	(??___fttol+0)+0
u4675:
	clrc
	rlf	(___fttol@lval),f
	rlf	(___fttol@lval+1),f
	rlf	(___fttol@lval+2),f
	rlf	(___fttol@lval+3),f
	decfsz	(??___fttol+0)+0
	goto	u4675
	line	67
	movlw	low(01h)
	subwf	(___fttol@exp1),f
	goto	l10820
	line	68
	
l7611:	
	line	65
	
l10820:	
	movf	(___fttol@exp1),f
	skipz
	goto	u4681
	goto	u4680
u4681:
	goto	l10818
u4680:
	goto	l10822
	
l7613:	
	goto	l10822
	line	69
	
l7609:	
	line	70
	
l10822:	
	movf	(___fttol@sign1),w
	skipz
	goto	u4690
	goto	l10826
u4690:
	line	71
	
l10824:	
	comf	(___fttol@lval),f
	comf	(___fttol@lval+1),f
	comf	(___fttol@lval+2),f
	comf	(___fttol@lval+3),f
	incf	(___fttol@lval),f
	skipnz
	incf	(___fttol@lval+1),f
	skipnz
	incf	(___fttol@lval+2),f
	skipnz
	incf	(___fttol@lval+3),f
	goto	l10826
	
l7614:	
	line	72
	
l10826:	
	movf	(___fttol@lval+3),w
	movwf	(?___fttol+3)
	movf	(___fttol@lval+2),w
	movwf	(?___fttol+2)
	movf	(___fttol@lval+1),w
	movwf	(?___fttol+1)
	movf	(___fttol@lval),w
	movwf	(?___fttol)

	goto	l7604
	
l10828:	
	line	73
	
l7604:	
	return
	opt stack 0
GLOBAL	__end_of___fttol
	__end_of___fttol:
;; =============== function ___fttol ends ============

	signat	___fttol,4220
	global	___ftpack
psect	text1101,local,class=CODE,delta=2
global __ptext1101
__ptext1101:

;; *************** function ___ftpack *****************
;; Defined at:
;;		line 63 in file "C:\Program Files\HI-TECH Software\PICC\9.83\sources\float.c"
;; Parameters:    Size  Location     Type
;;  arg             3    0[BANK0 ] unsigned um
;;  exp             1    3[BANK0 ] unsigned char 
;;  sign            1    4[BANK0 ] unsigned char 
;; Auto vars:     Size  Location     Type
;;		None
;; Return value:  Size  Location     Type
;;                  3    0[BANK0 ] float 
;; Registers used:
;;		wreg, status,2, status,0
;; Tracked objects:
;;		On entry : 0/0
;;		On exit  : 0/0
;;		Unchanged: 0/0
;; Data sizes:     COMMON   BANK0   BANK1   BANK3   BANK2
;;      Params:         0       5       0       0       0
;;      Locals:         0       0       0       0       0
;;      Temps:          0       3       0       0       0
;;      Totals:         0       8       0       0       0
;;Total ram usage:        8 bytes
;; Hardware stack levels used:    1
;; Hardware stack levels required when called:    3
;; This function calls:
;;		Nothing
;; This function is called by:
;;		___ftmul
;;		___awtoft
;;		___ftadd
;;		___ftdiv
;;		___lbtoft
;;		___abtoft
;;		___lwtoft
;;		___altoft
;;		___lltoft
;;		___attoft
;;		___lttoft
;; This function uses a non-reentrant model
;;
psect	text1101
	file	"C:\Program Files\HI-TECH Software\PICC\9.83\sources\float.c"
	line	63
	global	__size_of___ftpack
	__size_of___ftpack	equ	__end_of___ftpack-___ftpack
	
___ftpack:	
	opt	stack 3
; Regs used in ___ftpack: [wreg+status,2+status,0]
	line	64
	
l10712:	
	bcf	status, 5	;RP0=0, select bank0
	bcf	status, 6	;RP1=0, select bank0
	movf	(___ftpack@exp),w
	skipz
	goto	u4410
	goto	l10716
u4410:
	
l10714:	
	movf	(___ftpack@arg+2),w
	iorwf	(___ftpack@arg+1),w
	iorwf	(___ftpack@arg),w
	skipz
	goto	u4421
	goto	u4420
u4421:
	goto	l10722
u4420:
	goto	l10716
	
l7828:	
	line	65
	
l10716:	
	movlw	0x0
	movwf	(?___ftpack)
	movlw	0x0
	movwf	(?___ftpack+1)
	movlw	0x0
	movwf	(?___ftpack+2)
	goto	l7829
	
l10718:	
	goto	l7829
	
l7826:	
	line	66
	goto	l10722
	
l7831:	
	line	67
	
l10720:	
	movlw	(01h)
	movwf	(??___ftpack+0)+0
	movf	(??___ftpack+0)+0,w
	addwf	(___ftpack@exp),f
	line	68
	movlw	01h
u4435:
	clrc
	rrf	(___ftpack@arg+2),f
	rrf	(___ftpack@arg+1),f
	rrf	(___ftpack@arg),f
	addlw	-1
	skipz
	goto	u4435

	goto	l10722
	line	69
	
l7830:	
	line	66
	
l10722:	
	movlw	low highword(0FE0000h)
	andwf	(___ftpack@arg+2),w
	btfss	status,2
	goto	u4441
	goto	u4440
u4441:
	goto	l10720
u4440:
	goto	l7833
	
l7832:	
	line	70
	goto	l7833
	
l7834:	
	line	71
	
l10724:	
	movlw	(01h)
	movwf	(??___ftpack+0)+0
	movf	(??___ftpack+0)+0,w
	addwf	(___ftpack@exp),f
	line	72
	
l10726:	
	movlw	01h
	addwf	(___ftpack@arg),f
	movlw	0
	skipnc
movlw 1
	addwf	(___ftpack@arg+1),f
	movlw	0
	skipnc
movlw 1
	addwf	(___ftpack@arg+2),f
	line	73
	
l10728:	
	movlw	01h
u4455:
	clrc
	rrf	(___ftpack@arg+2),f
	rrf	(___ftpack@arg+1),f
	rrf	(___ftpack@arg),f
	addlw	-1
	skipz
	goto	u4455

	line	74
	
l7833:	
	line	70
	movlw	low highword(0FF0000h)
	andwf	(___ftpack@arg+2),w
	btfss	status,2
	goto	u4461
	goto	u4460
u4461:
	goto	l10724
u4460:
	goto	l10732
	
l7835:	
	line	75
	goto	l10732
	
l7837:	
	line	76
	
l10730:	
	movlw	low(01h)
	subwf	(___ftpack@exp),f
	line	77
	movlw	01h
u4475:
	clrc
	rlf	(___ftpack@arg),f
	rlf	(___ftpack@arg+1),f
	rlf	(___ftpack@arg+2),f
	addlw	-1
	skipz
	goto	u4475
	goto	l10732
	line	78
	
l7836:	
	line	75
	
l10732:	
	btfss	(___ftpack@arg+1),(15)&7
	goto	u4481
	goto	u4480
u4481:
	goto	l10730
u4480:
	
l7838:	
	line	79
	btfsc	(___ftpack@exp),(0)&7
	goto	u4491
	goto	u4490
u4491:
	goto	l7839
u4490:
	line	80
	
l10734:	
	movlw	0FFh
	andwf	(___ftpack@arg),f
	movlw	07Fh
	andwf	(___ftpack@arg+1),f
	movlw	0FFh
	andwf	(___ftpack@arg+2),f
	
l7839:	
	line	81
	clrc
	rrf	(___ftpack@exp),f

	line	82
	
l10736:	
	movf	(___ftpack@exp),w
	movwf	((??___ftpack+0)+0)
	clrf	((??___ftpack+0)+0+1)
	clrf	((??___ftpack+0)+0+2)
	movlw	010h
u4505:
	clrc
	rlf	(??___ftpack+0)+0,f
	rlf	(??___ftpack+0)+1,f
	rlf	(??___ftpack+0)+2,f
u4500:
	addlw	-1
	skipz
	goto	u4505
	movf	0+(??___ftpack+0)+0,w
	iorwf	(___ftpack@arg),f
	movf	1+(??___ftpack+0)+0,w
	iorwf	(___ftpack@arg+1),f
	movf	2+(??___ftpack+0)+0,w
	iorwf	(___ftpack@arg+2),f
	line	83
	
l10738:	
	movf	(___ftpack@sign),w
	skipz
	goto	u4510
	goto	l7840
u4510:
	line	84
	
l10740:	
	bsf	(___ftpack@arg)+(23/8),(23)&7
	
l7840:	
	line	85
	line	86
	
l7829:	
	return
	opt stack 0
GLOBAL	__end_of___ftpack
	__end_of___ftpack:
;; =============== function ___ftpack ends ============

	signat	___ftpack,12411
	global	___lwmod
psect	text1102,local,class=CODE,delta=2
global __ptext1102
__ptext1102:

;; *************** function ___lwmod *****************
;; Defined at:
;;		line 5 in file "C:\Program Files\HI-TECH Software\PICC\9.83\sources\lwmod.c"
;; Parameters:    Size  Location     Type
;;  divisor         2   14[BANK0 ] unsigned int 
;;  dividend        2   16[BANK0 ] unsigned int 
;; Auto vars:     Size  Location     Type
;;  counter         1   19[BANK0 ] unsigned char 
;; Return value:  Size  Location     Type
;;                  2   14[BANK0 ] unsigned int 
;; Registers used:
;;		wreg, status,2, status,0
;; Tracked objects:
;;		On entry : 0/0
;;		On exit  : 0/0
;;		Unchanged: 0/0
;; Data sizes:     COMMON   BANK0   BANK1   BANK3   BANK2
;;      Params:         0       4       0       0       0
;;      Locals:         0       1       0       0       0
;;      Temps:          0       1       0       0       0
;;      Totals:         0       6       0       0       0
;;Total ram usage:        6 bytes
;; Hardware stack levels used:    1
;; Hardware stack levels required when called:    3
;; This function calls:
;;		Nothing
;; This function is called by:
;;		_sprintf
;; This function uses a non-reentrant model
;;
psect	text1102
	file	"C:\Program Files\HI-TECH Software\PICC\9.83\sources\lwmod.c"
	line	5
	global	__size_of___lwmod
	__size_of___lwmod	equ	__end_of___lwmod-___lwmod
	
___lwmod:	
	opt	stack 1
; Regs used in ___lwmod: [wreg+status,2+status,0]
	line	8
	
l10620:	
	bcf	status, 5	;RP0=0, select bank0
	bcf	status, 6	;RP1=0, select bank0
	movf	(___lwmod@divisor+1),w
	iorwf	(___lwmod@divisor),w
	skipnz
	goto	u4111
	goto	u4110
u4111:
	goto	l10638
u4110:
	line	9
	
l10622:	
	clrf	(___lwmod@counter)
	bsf	status,0
	rlf	(___lwmod@counter),f
	line	10
	goto	l10628
	
l7512:	
	line	11
	
l10624:	
	movlw	01h
	
u4125:
	clrc
	rlf	(___lwmod@divisor),f
	rlf	(___lwmod@divisor+1),f
	addlw	-1
	skipz
	goto	u4125
	line	12
	
l10626:	
	movlw	(01h)
	movwf	(??___lwmod+0)+0
	movf	(??___lwmod+0)+0,w
	addwf	(___lwmod@counter),f
	goto	l10628
	line	13
	
l7511:	
	line	10
	
l10628:	
	btfss	(___lwmod@divisor+1),(15)&7
	goto	u4131
	goto	u4130
u4131:
	goto	l10624
u4130:
	goto	l10630
	
l7513:	
	goto	l10630
	line	14
	
l7514:	
	line	15
	
l10630:	
	movf	(___lwmod@divisor+1),w
	subwf	(___lwmod@dividend+1),w
	skipz
	goto	u4145
	movf	(___lwmod@divisor),w
	subwf	(___lwmod@dividend),w
u4145:
	skipc
	goto	u4141
	goto	u4140
u4141:
	goto	l10634
u4140:
	line	16
	
l10632:	
	movf	(___lwmod@divisor),w
	subwf	(___lwmod@dividend),f
	movf	(___lwmod@divisor+1),w
	skipc
	decf	(___lwmod@dividend+1),f
	subwf	(___lwmod@dividend+1),f
	goto	l10634
	
l7515:	
	line	17
	
l10634:	
	movlw	01h
	
u4155:
	clrc
	rrf	(___lwmod@divisor+1),f
	rrf	(___lwmod@divisor),f
	addlw	-1
	skipz
	goto	u4155
	line	18
	
l10636:	
	movlw	low(01h)
	subwf	(___lwmod@counter),f
	btfss	status,2
	goto	u4161
	goto	u4160
u4161:
	goto	l10630
u4160:
	goto	l10638
	
l7516:	
	goto	l10638
	line	19
	
l7510:	
	line	20
	
l10638:	
	movf	(___lwmod@dividend+1),w
	clrf	(?___lwmod+1)
	addwf	(?___lwmod+1)
	movf	(___lwmod@dividend),w
	clrf	(?___lwmod)
	addwf	(?___lwmod)

	goto	l7517
	
l10640:	
	line	21
	
l7517:	
	return
	opt stack 0
GLOBAL	__end_of___lwmod
	__end_of___lwmod:
;; =============== function ___lwmod ends ============

	signat	___lwmod,8314
	global	___lwdiv
psect	text1103,local,class=CODE,delta=2
global __ptext1103
__ptext1103:

;; *************** function ___lwdiv *****************
;; Defined at:
;;		line 5 in file "C:\Program Files\HI-TECH Software\PICC\9.83\sources\lwdiv.c"
;; Parameters:    Size  Location     Type
;;  divisor         2    6[BANK0 ] unsigned int 
;;  dividend        2    8[BANK0 ] unsigned int 
;; Auto vars:     Size  Location     Type
;;  quotient        2   11[BANK0 ] unsigned int 
;;  counter         1   13[BANK0 ] unsigned char 
;; Return value:  Size  Location     Type
;;                  2    6[BANK0 ] unsigned int 
;; Registers used:
;;		wreg, status,2, status,0
;; Tracked objects:
;;		On entry : 0/0
;;		On exit  : 0/0
;;		Unchanged: 0/0
;; Data sizes:     COMMON   BANK0   BANK1   BANK3   BANK2
;;      Params:         0       4       0       0       0
;;      Locals:         0       3       0       0       0
;;      Temps:          0       1       0       0       0
;;      Totals:         0       8       0       0       0
;;Total ram usage:        8 bytes
;; Hardware stack levels used:    1
;; Hardware stack levels required when called:    3
;; This function calls:
;;		Nothing
;; This function is called by:
;;		_readAvgDistance
;;		_ADCconvert
;;		_sprintf
;; This function uses a non-reentrant model
;;
psect	text1103
	file	"C:\Program Files\HI-TECH Software\PICC\9.83\sources\lwdiv.c"
	line	5
	global	__size_of___lwdiv
	__size_of___lwdiv	equ	__end_of___lwdiv-___lwdiv
	
___lwdiv:	
	opt	stack 1
; Regs used in ___lwdiv: [wreg+status,2+status,0]
	line	9
	
l10594:	
	bcf	status, 5	;RP0=0, select bank0
	bcf	status, 6	;RP1=0, select bank0
	clrf	(___lwdiv@quotient)
	clrf	(___lwdiv@quotient+1)
	line	10
	
l10596:	
	movf	(___lwdiv@divisor+1),w
	iorwf	(___lwdiv@divisor),w
	skipnz
	goto	u4041
	goto	u4040
u4041:
	goto	l10616
u4040:
	line	11
	
l10598:	
	clrf	(___lwdiv@counter)
	bsf	status,0
	rlf	(___lwdiv@counter),f
	line	12
	goto	l10604
	
l7502:	
	line	13
	
l10600:	
	movlw	01h
	
u4055:
	clrc
	rlf	(___lwdiv@divisor),f
	rlf	(___lwdiv@divisor+1),f
	addlw	-1
	skipz
	goto	u4055
	line	14
	
l10602:	
	movlw	(01h)
	movwf	(??___lwdiv+0)+0
	movf	(??___lwdiv+0)+0,w
	addwf	(___lwdiv@counter),f
	goto	l10604
	line	15
	
l7501:	
	line	12
	
l10604:	
	btfss	(___lwdiv@divisor+1),(15)&7
	goto	u4061
	goto	u4060
u4061:
	goto	l10600
u4060:
	goto	l10606
	
l7503:	
	goto	l10606
	line	16
	
l7504:	
	line	17
	
l10606:	
	movlw	01h
	
u4075:
	clrc
	rlf	(___lwdiv@quotient),f
	rlf	(___lwdiv@quotient+1),f
	addlw	-1
	skipz
	goto	u4075
	line	18
	movf	(___lwdiv@divisor+1),w
	subwf	(___lwdiv@dividend+1),w
	skipz
	goto	u4085
	movf	(___lwdiv@divisor),w
	subwf	(___lwdiv@dividend),w
u4085:
	skipc
	goto	u4081
	goto	u4080
u4081:
	goto	l10612
u4080:
	line	19
	
l10608:	
	movf	(___lwdiv@divisor),w
	subwf	(___lwdiv@dividend),f
	movf	(___lwdiv@divisor+1),w
	skipc
	decf	(___lwdiv@dividend+1),f
	subwf	(___lwdiv@dividend+1),f
	line	20
	
l10610:	
	bsf	(___lwdiv@quotient)+(0/8),(0)&7
	goto	l10612
	line	21
	
l7505:	
	line	22
	
l10612:	
	movlw	01h
	
u4095:
	clrc
	rrf	(___lwdiv@divisor+1),f
	rrf	(___lwdiv@divisor),f
	addlw	-1
	skipz
	goto	u4095
	line	23
	
l10614:	
	movlw	low(01h)
	subwf	(___lwdiv@counter),f
	btfss	status,2
	goto	u4101
	goto	u4100
u4101:
	goto	l10606
u4100:
	goto	l10616
	
l7506:	
	goto	l10616
	line	24
	
l7500:	
	line	25
	
l10616:	
	movf	(___lwdiv@quotient+1),w
	clrf	(?___lwdiv+1)
	addwf	(?___lwdiv+1)
	movf	(___lwdiv@quotient),w
	clrf	(?___lwdiv)
	addwf	(?___lwdiv)

	goto	l7507
	
l10618:	
	line	26
	
l7507:	
	return
	opt stack 0
GLOBAL	__end_of___lwdiv
	__end_of___lwdiv:
;; =============== function ___lwdiv ends ============

	signat	___lwdiv,8314
	global	___wmul
psect	text1104,local,class=CODE,delta=2
global __ptext1104
__ptext1104:

;; *************** function ___wmul *****************
;; Defined at:
;;		line 3 in file "C:\Program Files\HI-TECH Software\PICC\9.83\sources\wmul.c"
;; Parameters:    Size  Location     Type
;;  multiplier      2    0[BANK0 ] unsigned int 
;;  multiplicand    2    2[BANK0 ] unsigned int 
;; Auto vars:     Size  Location     Type
;;  product         2    4[BANK0 ] unsigned int 
;; Return value:  Size  Location     Type
;;                  2    0[BANK0 ] unsigned int 
;; Registers used:
;;		wreg, status,2, status,0
;; Tracked objects:
;;		On entry : 0/0
;;		On exit  : 0/0
;;		Unchanged: 0/0
;; Data sizes:     COMMON   BANK0   BANK1   BANK3   BANK2
;;      Params:         0       4       0       0       0
;;      Locals:         0       2       0       0       0
;;      Temps:          0       0       0       0       0
;;      Totals:         0       6       0       0       0
;;Total ram usage:        6 bytes
;; Hardware stack levels used:    1
;; Hardware stack levels required when called:    3
;; This function calls:
;;		Nothing
;; This function is called by:
;;		_ADCconvert
;;		_abs
;; This function uses a non-reentrant model
;;
psect	text1104
	file	"C:\Program Files\HI-TECH Software\PICC\9.83\sources\wmul.c"
	line	3
	global	__size_of___wmul
	__size_of___wmul	equ	__end_of___wmul-___wmul
	
___wmul:	
	opt	stack 2
; Regs used in ___wmul: [wreg+status,2+status,0]
	line	4
	
l10582:	
	bcf	status, 5	;RP0=0, select bank0
	bcf	status, 6	;RP1=0, select bank0
	clrf	(___wmul@product)
	clrf	(___wmul@product+1)
	goto	l10584
	line	6
	
l7494:	
	line	7
	
l10584:	
	btfss	(___wmul@multiplier),(0)&7
	goto	u4001
	goto	u4000
u4001:
	goto	l7495
u4000:
	line	8
	
l10586:	
	movf	(___wmul@multiplicand),w
	addwf	(___wmul@product),f
	skipnc
	incf	(___wmul@product+1),f
	movf	(___wmul@multiplicand+1),w
	addwf	(___wmul@product+1),f
	
l7495:	
	line	9
	movlw	01h
	
u4015:
	clrc
	rlf	(___wmul@multiplicand),f
	rlf	(___wmul@multiplicand+1),f
	addlw	-1
	skipz
	goto	u4015
	line	10
	
l10588:	
	movlw	01h
	
u4025:
	clrc
	rrf	(___wmul@multiplier+1),f
	rrf	(___wmul@multiplier),f
	addlw	-1
	skipz
	goto	u4025
	line	11
	movf	((___wmul@multiplier+1)),w
	iorwf	((___wmul@multiplier)),w
	skipz
	goto	u4031
	goto	u4030
u4031:
	goto	l10584
u4030:
	goto	l10590
	
l7496:	
	line	12
	
l10590:	
	movf	(___wmul@product+1),w
	clrf	(?___wmul+1)
	addwf	(?___wmul+1)
	movf	(___wmul@product),w
	clrf	(?___wmul)
	addwf	(?___wmul)

	goto	l7497
	
l10592:	
	line	13
	
l7497:	
	return
	opt stack 0
GLOBAL	__end_of___wmul
	__end_of___wmul:
;; =============== function ___wmul ends ============

	signat	___wmul,8314
	global	_ser_isrx
psect	text1105,local,class=CODE,delta=2
global __ptext1105
__ptext1105:

;; *************** function _ser_isrx *****************
;; Defined at:
;;		line 45 in file "E:\Aldnoah.Zero\Assignment3\ser.c"
;; Parameters:    Size  Location     Type
;;		None
;; Auto vars:     Size  Location     Type
;;		None
;; Return value:  Size  Location     Type
;;		None               void
;; Registers used:
;;		wreg, status,2, status,0
;; Tracked objects:
;;		On entry : 0/0
;;		On exit  : 0/0
;;		Unchanged: 0/0
;; Data sizes:     COMMON   BANK0   BANK1   BANK3   BANK2
;;      Params:         0       0       0       0       0
;;      Locals:         0       0       0       0       0
;;      Temps:          0       0       0       0       0
;;      Totals:         0       0       0       0       0
;;Total ram usage:        0 bytes
;; Hardware stack levels used:    1
;; Hardware stack levels required when called:    3
;; This function calls:
;;		Nothing
;; This function is called by:
;;		_ser_getch
;; This function uses a non-reentrant model
;;
psect	text1105
	file	"E:\Aldnoah.Zero\Assignment3\ser.c"
	line	45
	global	__size_of_ser_isrx
	__size_of_ser_isrx	equ	__end_of_ser_isrx-_ser_isrx
	
_ser_isrx:	
	opt	stack 1
; Regs used in _ser_isrx: [wreg+status,2+status,0]
	line	46
	
l10534:	
;ser.c: 46: if(OERR) {
	bcf	status, 5	;RP0=0, select bank0
	bcf	status, 6	;RP1=0, select bank0
	btfss	(193/8),(193)&7
	goto	u3931
	goto	u3930
u3931:
	goto	l10542
u3930:
	line	47
	
l10536:	
;ser.c: 47: CREN = 0;
	bcf	(196/8),(196)&7
	line	48
;ser.c: 48: CREN = 1;
	bsf	(196/8),(196)&7
	line	49
	
l10538:	
;ser.c: 49: return 0;
	clrc
	
	goto	l6749
	
l10540:	
	goto	l6749
	line	50
	
l6748:	
	line	51
	
l10542:	
;ser.c: 50: }
;ser.c: 51: return (rxiptr!=rxoptr);
	bsf	status, 5	;RP0=1, select bank1
	bcf	status, 6	;RP1=0, select bank1
	movf	(_rxiptr)^080h,w	;volatile
	xorwf	(_rxoptr)^080h,w	;volatile
	skipz
	goto	u3941
	goto	u3940
u3941:
	goto	l10546
u3940:
	
l10544:	
	clrc
	
	goto	l6749
	
l10292:	
	
l10546:	
	setc
	
	goto	l6749
	
l10294:	
	goto	l6749
	
l10548:	
	line	52
	
l6749:	
	return
	opt stack 0
GLOBAL	__end_of_ser_isrx
	__end_of_ser_isrx:
;; =============== function _ser_isrx ends ============

	signat	_ser_isrx,88
	global	_spi_transfer
psect	text1106,local,class=CODE,delta=2
global __ptext1106
__ptext1106:

;; *************** function _spi_transfer *****************
;; Defined at:
;;		line 50 in file "E:\Aldnoah.Zero\Assignment3\steppermotor.c"
;; Parameters:    Size  Location     Type
;;  data            1    wreg     unsigned char 
;; Auto vars:     Size  Location     Type
;;  data            1    2[BANK0 ] unsigned char 
;;  temp            1    1[BANK0 ] unsigned char 
;; Return value:  Size  Location     Type
;;                  1    wreg      unsigned char 
;; Registers used:
;;		wreg
;; Tracked objects:
;;		On entry : 0/0
;;		On exit  : 0/0
;;		Unchanged: 0/0
;; Data sizes:     COMMON   BANK0   BANK1   BANK3   BANK2
;;      Params:         0       0       0       0       0
;;      Locals:         0       2       0       0       0
;;      Temps:          0       1       0       0       0
;;      Totals:         0       3       0       0       0
;;Total ram usage:        3 bytes
;; Hardware stack levels used:    1
;; Hardware stack levels required when called:    3
;; This function calls:
;;		Nothing
;; This function is called by:
;;		_rotate
;; This function uses a non-reentrant model
;;
psect	text1106
	file	"E:\Aldnoah.Zero\Assignment3\steppermotor.c"
	line	50
	global	__size_of_spi_transfer
	__size_of_spi_transfer	equ	__end_of_spi_transfer-_spi_transfer
	
_spi_transfer:	
	opt	stack 3
; Regs used in _spi_transfer: [wreg]
;spi_transfer@data stored from wreg
	bcf	status, 5	;RP0=0, select bank0
	bcf	status, 6	;RP1=0, select bank0
	movwf	(spi_transfer@data)
	line	51
	
l10482:	
;steppermotor.c: 51: unsigned char temp = 0;
	clrf	(spi_transfer@temp)
	line	53
;steppermotor.c: 53: SSPIF = 0;
	bcf	(99/8),(99)&7
	line	54
	
l10484:	
;steppermotor.c: 54: SSPBUF = data;
	movf	(spi_transfer@data),w
	movwf	(19)	;volatile
	line	56
;steppermotor.c: 56: while (SSPIF == 0);
	goto	l3711
	
l3712:	
	
l3711:	
	btfss	(99/8),(99)&7
	goto	u3771
	goto	u3770
u3771:
	goto	l3711
u3770:
	goto	l10486
	
l3713:	
	line	57
	
l10486:	
;steppermotor.c: 57: temp = SSPBUF;
	movf	(19),w	;volatile
	movwf	(??_spi_transfer+0)+0
	movf	(??_spi_transfer+0)+0,w
	movwf	(spi_transfer@temp)
	line	58
	
l10488:	
;steppermotor.c: 58: SSPIF = 0;
	bcf	(99/8),(99)&7
	goto	l3714
	line	60
	
l10490:	
	line	61
;steppermotor.c: 60: return temp;
;	Return value of _spi_transfer is never used
	
l3714:	
	return
	opt stack 0
GLOBAL	__end_of_spi_transfer
	__end_of_spi_transfer:
;; =============== function _spi_transfer ends ============

	signat	_spi_transfer,4217
	global	_ser_putch
psect	text1107,local,class=CODE,delta=2
global __ptext1107
__ptext1107:

;; *************** function _ser_putch *****************
;; Defined at:
;;		line 70 in file "E:\Aldnoah.Zero\Assignment3\ser.c"
;; Parameters:    Size  Location     Type
;;  c               1    wreg     unsigned char 
;; Auto vars:     Size  Location     Type
;;  c               1    1[BANK0 ] unsigned char 
;; Return value:  Size  Location     Type
;;		None               void
;; Registers used:
;;		wreg, fsr0l, fsr0h, status,2, status,0
;; Tracked objects:
;;		On entry : 0/0
;;		On exit  : 0/0
;;		Unchanged: 0/0
;; Data sizes:     COMMON   BANK0   BANK1   BANK3   BANK2
;;      Params:         0       0       0       0       0
;;      Locals:         0       1       0       0       0
;;      Temps:          0       1       0       0       0
;;      Totals:         0       2       0       0       0
;;Total ram usage:        2 bytes
;; Hardware stack levels used:    1
;; Hardware stack levels required when called:    3
;; This function calls:
;;		Nothing
;; This function is called by:
;;		_ChargeMode
;;		_robo_init
;;		_robot_read
;;		_RobotDrive
;;		_robotTurn
;;		_ser_puts
;;		_ser_puts2
;;		_ser_puthex
;; This function uses a non-reentrant model
;;
psect	text1107
	file	"E:\Aldnoah.Zero\Assignment3\ser.c"
	line	70
	global	__size_of_ser_putch
	__size_of_ser_putch	equ	__end_of_ser_putch-_ser_putch
	
_ser_putch:	
	opt	stack 3
; Regs used in _ser_putch: [wreg-fsr0h+status,2+status,0]
;ser_putch@c stored from wreg
	bcf	status, 5	;RP0=0, select bank0
	bcf	status, 6	;RP1=0, select bank0
	movwf	(ser_putch@c)
	line	71
	
l10470:	
;ser.c: 71: while (((txiptr+1) & (16-1))==txoptr)
	goto	l10472
	
l6759:	
	line	72
;ser.c: 72: continue;
	goto	l10472
	
l6758:	
	line	71
	
l10472:	
	bsf	status, 5	;RP0=1, select bank1
	bcf	status, 6	;RP1=0, select bank1
	movf	(_txiptr)^080h,w	;volatile
	addlw	01h
	andlw	0Fh
	xorwf	(_txoptr)^080h,w	;volatile
	skipnz
	goto	u3761
	goto	u3760
u3761:
	goto	l10472
u3760:
	
l6760:	
	line	73
;ser.c: 73: GIE=0;
	bcf	(95/8),(95)&7
	line	74
	
l10474:	
;ser.c: 74: txfifo[txiptr] = c;
	bcf	status, 5	;RP0=0, select bank0
	bcf	status, 6	;RP1=0, select bank0
	movf	(ser_putch@c),w
	movwf	(??_ser_putch+0)+0
	bsf	status, 5	;RP0=1, select bank1
	bcf	status, 6	;RP1=0, select bank1
	movf	(_txiptr)^080h,w
	addlw	_txfifo&0ffh
	movwf	fsr0
	bcf	status, 5	;RP0=0, select bank0
	bcf	status, 6	;RP1=0, select bank0
	movf	(??_ser_putch+0)+0,w
	bsf	status, 7	;select IRP bank3
	movwf	indf
	line	75
	
l10476:	
;ser.c: 75: txiptr=(txiptr+1) & (16-1);
	bsf	status, 5	;RP0=1, select bank1
	bcf	status, 6	;RP1=0, select bank1
	movf	(_txiptr)^080h,w	;volatile
	addlw	01h
	andlw	0Fh
	bcf	status, 5	;RP0=0, select bank0
	bcf	status, 6	;RP1=0, select bank0
	movwf	(??_ser_putch+0)+0
	movf	(??_ser_putch+0)+0,w
	bsf	status, 5	;RP0=1, select bank1
	bcf	status, 6	;RP1=0, select bank1
	movwf	(_txiptr)^080h	;volatile
	line	76
	
l10478:	
;ser.c: 76: TXIE=1;
	bsf	(1124/8)^080h,(1124)&7
	line	77
	
l10480:	
;ser.c: 77: GIE=1;
	bsf	(95/8),(95)&7
	line	78
	
l6761:	
	return
	opt stack 0
GLOBAL	__end_of_ser_putch
	__end_of_ser_putch:
;; =============== function _ser_putch ends ============

	signat	_ser_putch,4216
	global	_Menu
psect	text1108,local,class=CODE,delta=2
global __ptext1108
__ptext1108:

;; *************** function _Menu *****************
;; Defined at:
;;		line 201 in file "E:\Aldnoah.Zero\Assignment3\HMI.c"
;; Parameters:    Size  Location     Type
;;  BTN_input       1    wreg     unsigned char 
;; Auto vars:     Size  Location     Type
;;  BTN_input       1    0[BANK0 ] unsigned char 
;; Return value:  Size  Location     Type
;;                  1    wreg      unsigned char 
;; Registers used:
;;		wreg, fsr0l, fsr0h, status,2, status,0
;; Tracked objects:
;;		On entry : 0/0
;;		On exit  : 0/0
;;		Unchanged: 0/0
;; Data sizes:     COMMON   BANK0   BANK1   BANK3   BANK2
;;      Params:         0       0       0       0       0
;;      Locals:         0       1       0       0       0
;;      Temps:          0       0       0       0       0
;;      Totals:         0       1       0       0       0
;;Total ram usage:        1 bytes
;; Hardware stack levels used:    1
;; Hardware stack levels required when called:    3
;; This function calls:
;;		Nothing
;; This function is called by:
;;		_main
;; This function uses a non-reentrant model
;;
psect	text1108
	file	"E:\Aldnoah.Zero\Assignment3\HMI.c"
	line	201
	global	__size_of_Menu
	__size_of_Menu	equ	__end_of_Menu-_Menu
	
_Menu:	
	opt	stack 4
; Regs used in _Menu: [wreg-fsr0h+status,2+status,0]
;Menu@BTN_input stored from wreg
	bcf	status, 5	;RP0=0, select bank0
	bcf	status, 6	;RP1=0, select bank0
	movwf	(Menu@BTN_input)
	line	202
	
l10446:	
;HMI.c: 202: switch (BTN_input)
	goto	l10464
	line	204
;HMI.c: 203: {
;HMI.c: 204: case 1:
	
l4518:	
	line	206
;HMI.c: 206: break;
	goto	l10466
	line	207
;HMI.c: 207: case 2:
	
l4520:	
	line	209
;HMI.c: 209: break;
	goto	l10466
	line	210
;HMI.c: 210: case 3:
	
l4521:	
	line	211
	
l10448:	
;HMI.c: 211: pos--;
	movlw	low(-1)
	bsf	status, 5	;RP0=1, select bank1
	bcf	status, 6	;RP1=0, select bank1
	addwf	(_pos)^080h,f
	skipnc
	incf	(_pos+1)^080h,f
	movlw	high(-1)
	addwf	(_pos+1)^080h,f
	line	212
	
l10450:	
;HMI.c: 212: if (pos < 0)
	btfss	(_pos+1)^080h,7
	goto	u3741
	goto	u3740
u3741:
	goto	l10466
u3740:
	line	213
	
l10452:	
;HMI.c: 213: pos = 6 - 1;
	movlw	low(05h)
	movwf	(_pos)^080h
	movlw	high(05h)
	movwf	((_pos)^080h)+1
	goto	l10466
	
l4522:	
	line	215
;HMI.c: 215: break;
	goto	l10466
	line	216
;HMI.c: 216: case 4:
	
l4523:	
	line	217
	
l10454:	
;HMI.c: 217: pos++;
	movlw	low(01h)
	bsf	status, 5	;RP0=1, select bank1
	bcf	status, 6	;RP1=0, select bank1
	addwf	(_pos)^080h,f
	skipnc
	incf	(_pos+1)^080h,f
	movlw	high(01h)
	addwf	(_pos+1)^080h,f
	line	218
;HMI.c: 218: if (pos == 6)
	movlw	06h
	xorwf	(_pos)^080h,w
	iorwf	(_pos+1)^080h,w
	skipz
	goto	u3751
	goto	u3750
u3751:
	goto	l10466
u3750:
	line	219
	
l10456:	
;HMI.c: 219: pos = 0;
	clrf	(_pos)^080h
	clrf	(_pos+1)^080h
	goto	l10466
	
l4524:	
	line	221
;HMI.c: 221: break;
	goto	l10466
	line	222
;HMI.c: 222: case 5:
	
l4525:	
	line	223
	
l10458:	
;HMI.c: 223: return pos;
	bsf	status, 5	;RP0=1, select bank1
	bcf	status, 6	;RP1=0, select bank1
	movf	(_pos)^080h,w
	goto	l4526
	
l10460:	
	goto	l4526
	line	226
;HMI.c: 226: default:
	
l4527:	
	line	228
;HMI.c: 228: break;
	goto	l10466
	line	229
	
l10462:	
;HMI.c: 229: }
	goto	l10466
	line	202
	
l4517:	
	
l10464:	
	bcf	status, 5	;RP0=0, select bank0
	movf	(Menu@BTN_input),w
	; Switch size 1, requested type "space"
; Number of cases is 5, Range of values is 1 to 5
; switch strategies available:
; Name         Instructions Cycles
; simple_byte           16     9 (average)
; direct_byte           26    11 (fixed)
; jumptable            263     9 (fixed)
;	Chosen strategy is simple_byte

	opt asmopt_off
	xorlw	1^0	; case 1
	skipnz
	goto	l10466
	xorlw	2^1	; case 2
	skipnz
	goto	l10466
	xorlw	3^2	; case 3
	skipnz
	goto	l10448
	xorlw	4^3	; case 4
	skipnz
	goto	l10454
	xorlw	5^4	; case 5
	skipnz
	goto	l10458
	goto	l10466
	opt asmopt_on

	line	229
	
l4519:	
	line	230
	
l10466:	
;HMI.c: 230: return 255;
	movlw	(0FFh)
	goto	l4526
	
l10468:	
	line	231
	
l4526:	
	return
	opt stack 0
GLOBAL	__end_of_Menu
	__end_of_Menu:
;; =============== function _Menu ends ============

	signat	_Menu,4217
	global	_ser_init
psect	text1109,local,class=CODE,delta=2
global __ptext1109
__ptext1109:

;; *************** function _ser_init *****************
;; Defined at:
;;		line 113 in file "E:\Aldnoah.Zero\Assignment3\ser.c"
;; Parameters:    Size  Location     Type
;;		None
;; Auto vars:     Size  Location     Type
;;		None
;; Return value:  Size  Location     Type
;;		None               void
;; Registers used:
;;		wreg, status,2, status,0
;; Tracked objects:
;;		On entry : 0/0
;;		On exit  : 0/0
;;		Unchanged: 0/0
;; Data sizes:     COMMON   BANK0   BANK1   BANK3   BANK2
;;      Params:         0       0       0       0       0
;;      Locals:         0       0       0       0       0
;;      Temps:          0       1       0       0       0
;;      Totals:         0       1       0       0       0
;;Total ram usage:        1 bytes
;; Hardware stack levels used:    1
;; Hardware stack levels required when called:    3
;; This function calls:
;;		Nothing
;; This function is called by:
;;		_init
;; This function uses a non-reentrant model
;;
psect	text1109
	file	"E:\Aldnoah.Zero\Assignment3\ser.c"
	line	113
	global	__size_of_ser_init
	__size_of_ser_init	equ	__end_of_ser_init-_ser_init
	
_ser_init:	
	opt	stack 3
; Regs used in _ser_init: [wreg+status,2+status,0]
	line	114
	
l10420:	
;ser.c: 114: TRISC |= 0b10000000;
	bsf	status, 5	;RP0=1, select bank1
	bcf	status, 6	;RP1=0, select bank1
	bsf	(135)^080h+(7/8),(7)&7	;volatile
	line	115
	
l10422:	
;ser.c: 115: TRISC &= 0b10111111;
	movlw	(0BFh)
	bcf	status, 5	;RP0=0, select bank0
	bcf	status, 6	;RP1=0, select bank0
	movwf	(??_ser_init+0)+0
	movf	(??_ser_init+0)+0,w
	bsf	status, 5	;RP0=1, select bank1
	bcf	status, 6	;RP1=0, select bank1
	andwf	(135)^080h,f	;volatile
	line	116
	
l10424:	
;ser.c: 116: BRGH=1;
	bsf	(1218/8)^080h,(1218)&7
	line	118
	
l10426:	
;ser.c: 118: SPBRG=20;
	movlw	(014h)
	movwf	(153)^080h	;volatile
	line	121
	
l10428:	
;ser.c: 121: TX9=0;
	bcf	(1222/8)^080h,(1222)&7
	line	122
	
l10430:	
;ser.c: 122: RX9=0;
	bcf	status, 5	;RP0=0, select bank0
	bcf	status, 6	;RP1=0, select bank0
	bcf	(198/8),(198)&7
	line	124
	
l10432:	
;ser.c: 124: SYNC=0;
	bsf	status, 5	;RP0=1, select bank1
	bcf	status, 6	;RP1=0, select bank1
	bcf	(1220/8)^080h,(1220)&7
	line	125
	
l10434:	
;ser.c: 125: SPEN=1;
	bcf	status, 5	;RP0=0, select bank0
	bcf	status, 6	;RP1=0, select bank0
	bsf	(199/8),(199)&7
	line	126
	
l10436:	
;ser.c: 126: CREN=1;
	bsf	(196/8),(196)&7
	line	127
	
l10438:	
;ser.c: 127: TXIE=0;
	bsf	status, 5	;RP0=1, select bank1
	bcf	status, 6	;RP1=0, select bank1
	bcf	(1124/8)^080h,(1124)&7
	line	128
	
l10440:	
;ser.c: 128: RCIE=1;
	bsf	(1125/8)^080h,(1125)&7
	line	129
	
l10442:	
;ser.c: 129: TXEN=1;
	bsf	(1221/8)^080h,(1221)&7
	line	132
	
l10444:	
;ser.c: 132: rxiptr=rxoptr=txiptr=txoptr=0;
	movlw	(0)
	movwf	(_txoptr)^080h	;volatile
	movwf	(_txiptr)^080h	;volatile
	movwf	(_rxoptr)^080h	;volatile
	bcf	status, 5	;RP0=0, select bank0
	bcf	status, 6	;RP1=0, select bank0
	movwf	(??_ser_init+0)+0
	movf	(??_ser_init+0)+0,w
	bsf	status, 5	;RP0=1, select bank1
	bcf	status, 6	;RP1=0, select bank1
	movwf	(_rxiptr)^080h	;volatile
	line	133
	
l6783:	
	return
	opt stack 0
GLOBAL	__end_of_ser_init
	__end_of_ser_init:
;; =============== function _ser_init ends ============

	signat	_ser_init,88
	global	_adc_read
psect	text1110,local,class=CODE,delta=2
global __ptext1110
__ptext1110:

;; *************** function _adc_read *****************
;; Defined at:
;;		line 76 in file "E:\Aldnoah.Zero\Assignment3\adc.c"
;; Parameters:    Size  Location     Type
;;		None
;; Auto vars:     Size  Location     Type
;;  adc_value       2    4[BANK0 ] volatile unsigned int 
;; Return value:  Size  Location     Type
;;                  2    0[BANK0 ] unsigned int 
;; Registers used:
;;		wreg, status,2, status,0
;; Tracked objects:
;;		On entry : 0/0
;;		On exit  : 0/0
;;		Unchanged: 0/0
;; Data sizes:     COMMON   BANK0   BANK1   BANK3   BANK2
;;      Params:         0       2       0       0       0
;;      Locals:         0       2       0       0       0
;;      Temps:          0       2       0       0       0
;;      Totals:         0       6       0       0       0
;;Total ram usage:        6 bytes
;; Hardware stack levels used:    1
;; Hardware stack levels required when called:    3
;; This function calls:
;;		Nothing
;; This function is called by:
;;		_adc_read_channel
;; This function uses a non-reentrant model
;;
psect	text1110
	file	"E:\Aldnoah.Zero\Assignment3\adc.c"
	line	76
	global	__size_of_adc_read
	__size_of_adc_read	equ	__end_of_adc_read-_adc_read
	
_adc_read:	
	opt	stack 0
; Regs used in _adc_read: [wreg+status,2+status,0]
	line	79
	
l10300:	
;adc.c: 77: volatile unsigned int adc_value;
;adc.c: 79: ADRESH = 0;
	bcf	status, 5	;RP0=0, select bank0
	bcf	status, 6	;RP1=0, select bank0
	clrf	(30)	;volatile
	line	81
	
l10302:	
;adc.c: 81: GO = 1;
	bsf	(250/8),(250)&7
	line	82
;adc.c: 82: while(GO) continue;
	goto	l703
	
l704:	
	
l703:	
	btfsc	(250/8),(250)&7
	goto	u3551
	goto	u3550
u3551:
	goto	l703
u3550:
	
l705:	
	line	83
# 83 "E:\Aldnoah.Zero\Assignment3\adc.c"
nop ;#
	line	84
# 84 "E:\Aldnoah.Zero\Assignment3\adc.c"
nop ;#
	line	85
# 85 "E:\Aldnoah.Zero\Assignment3\adc.c"
nop ;#
psect	text1110
	line	88
	
l10304:	
;adc.c: 88: adc_value = ADRESH;
	bcf	status, 5	;RP0=0, select bank0
	bcf	status, 6	;RP1=0, select bank0
	movf	(30),w	;volatile
	movwf	(??_adc_read+0)+0
	clrf	(??_adc_read+0)+0+1
	movf	0+(??_adc_read+0)+0,w
	movwf	(adc_read@adc_value)	;volatile
	movf	1+(??_adc_read+0)+0,w
	movwf	(adc_read@adc_value+1)	;volatile
	line	89
;adc.c: 89: adc_value <<= 1;
	movlw	01h
	
u3565:
	clrc
	rlf	(adc_read@adc_value),f	;volatile
	rlf	(adc_read@adc_value+1),f	;volatile
	addlw	-1
	skipz
	goto	u3565
	line	90
;adc.c: 90: adc_value |= (ADRESL >> 15);
	bsf	status, 5	;RP0=1, select bank1
	bcf	status, 6	;RP1=0, select bank1
	movf	(158)^080h,w	;volatile
	line	93
	
l10306:	
;adc.c: 93: return (adc_value);
	bcf	status, 5	;RP0=0, select bank0
	bcf	status, 6	;RP1=0, select bank0
	movf	(adc_read@adc_value+1),w	;volatile
	clrf	(?_adc_read+1)
	addwf	(?_adc_read+1)
	movf	(adc_read@adc_value),w	;volatile
	clrf	(?_adc_read)
	addwf	(?_adc_read)

	goto	l706
	
l10308:	
	line	94
	
l706:	
	return
	opt stack 0
GLOBAL	__end_of_adc_read
	__end_of_adc_read:
;; =============== function _adc_read ends ============

	signat	_adc_read,90
	global	_isr1
psect	text1111,local,class=CODE,delta=2
global __ptext1111
__ptext1111:

;; *************** function _isr1 *****************
;; Defined at:
;;		line 109 in file "E:\Aldnoah.Zero\Assignment3\Main.c"
;; Parameters:    Size  Location     Type
;;		None
;; Auto vars:     Size  Location     Type
;;		None
;; Return value:  Size  Location     Type
;;		None               void
;; Registers used:
;;		wreg, fsr0l, fsr0h, fsr1l, fsr1h, status,2, status,0, btemp+1, pclath, cstack
;; Tracked objects:
;;		On entry : 0/0
;;		On exit  : 0/0
;;		Unchanged: 0/0
;; Data sizes:     COMMON   BANK0   BANK1   BANK3   BANK2
;;      Params:         0       0       0       0       0
;;      Locals:         0       0       0       0       0
;;      Temps:          5       0       0       0       0
;;      Totals:         5       0       0       0       0
;;Total ram usage:        5 bytes
;; Hardware stack levels used:    1
;; Hardware stack levels required when called:    2
;; This function calls:
;;		i1___lwmod
;;		_ReadButtons
;; This function is called by:
;;		Interrupt level 1
;; This function uses a non-reentrant model
;;
psect	text1111
	file	"E:\Aldnoah.Zero\Assignment3\Main.c"
	line	109
	global	__size_of_isr1
	__size_of_isr1	equ	__end_of_isr1-_isr1
	
_isr1:	
	opt	stack 0
; Regs used in _isr1: [allreg]
psect	intentry,class=CODE,delta=2
global __pintentry
__pintentry:
global interrupt_function
interrupt_function:
	global saved_w
	saved_w	set	btemp+0
	movwf	saved_w
	swapf	status,w
	movwf	(??_isr1+1)
	movf	fsr0,w
	movwf	(??_isr1+2)
	movf	pclath,w
	movwf	(??_isr1+3)
	bcf	status, 5	;RP0=0, select bank0
	bcf	status, 6	;RP1=0, select bank0
	movf	btemp+1,w
	movwf	(??_isr1+4)
	ljmp	_isr1
psect	text1111
	line	110
	
i1l10336:	
;Main.c: 110: if(TMR0IF)
	btfss	(90/8),(90)&7
	goto	u360_21
	goto	u360_20
u360_21:
	goto	i1l10358
u360_20:
	line	112
	
i1l10338:	
;Main.c: 111: {
;Main.c: 112: TMR0IF = 0;
	bcf	(90/8),(90)&7
	line	113
	
i1l10340:	
;Main.c: 113: TMR0 = 100;
	movlw	(064h)
	movwf	(1)	;volatile
	line	115
;Main.c: 115: RTC_Counter++;
	movlw	low(01h)
	bsf	status, 5	;RP0=1, select bank1
	bcf	status, 6	;RP1=0, select bank1
	addwf	(_RTC_Counter)^080h,f	;volatile
	skipnc
	incf	(_RTC_Counter+1)^080h,f	;volatile
	movlw	high(01h)
	addwf	(_RTC_Counter+1)^080h,f	;volatile
	line	118
	
i1l10342:	
;Main.c: 118: RTC_FLAG_1MS = 1;
	bsf	(_RTC_FLAG_1MS/8),(_RTC_FLAG_1MS)&7
	line	119
	
i1l10344:	
;Main.c: 119: if(RTC_Counter % 250 == 0)
	movlw	low(0FAh)
	movwf	(?i1___lwmod)
	movlw	high(0FAh)
	movwf	((?i1___lwmod))+1
	movf	(_RTC_Counter+1)^080h,w	;volatile
	clrf	1+(?i1___lwmod)+02h
	addwf	1+(?i1___lwmod)+02h
	movf	(_RTC_Counter)^080h,w	;volatile
	clrf	0+(?i1___lwmod)+02h
	addwf	0+(?i1___lwmod)+02h

	fcall	i1___lwmod
	movf	((1+(?i1___lwmod))),w
	iorwf	((0+(?i1___lwmod))),w
	skipz
	goto	u361_21
	goto	u361_20
u361_21:
	goto	i1l10348
u361_20:
	line	121
	
i1l10346:	
;Main.c: 120: {
;Main.c: 121: RTC_FLAG_250MS = 1;
	bsf	(_RTC_FLAG_250MS/8),(_RTC_FLAG_250MS)&7
	goto	i1l10348
	line	122
	
i1l2217:	
	line	123
	
i1l10348:	
;Main.c: 122: }
;Main.c: 123: if(RTC_Counter % 500 == 0)
	movlw	low(01F4h)
	movwf	(?i1___lwmod)
	movlw	high(01F4h)
	movwf	((?i1___lwmod))+1
	bsf	status, 5	;RP0=1, select bank1
	bcf	status, 6	;RP1=0, select bank1
	movf	(_RTC_Counter+1)^080h,w	;volatile
	clrf	1+(?i1___lwmod)+02h
	addwf	1+(?i1___lwmod)+02h
	movf	(_RTC_Counter)^080h,w	;volatile
	clrf	0+(?i1___lwmod)+02h
	addwf	0+(?i1___lwmod)+02h

	fcall	i1___lwmod
	movf	((1+(?i1___lwmod))),w
	iorwf	((0+(?i1___lwmod))),w
	skipz
	goto	u362_21
	goto	u362_20
u362_21:
	goto	i1l10354
u362_20:
	line	125
	
i1l10350:	
;Main.c: 124: {
;Main.c: 125: RTC_FLAG_500MS = 1;
	bsf	(_RTC_FLAG_500MS/8),(_RTC_FLAG_500MS)&7
	line	126
	
i1l10352:	
;Main.c: 126: RB0 ^= 0x01;
	bcf	status, 5	;RP0=0, select bank0
	bcf	status, 6	;RP1=0, select bank0
	movlw	1<<((48)&7)
	xorwf	((48)/8),f
	goto	i1l10354
	line	127
	
i1l2218:	
	line	128
	
i1l10354:	
;Main.c: 127: }
;Main.c: 128: if (buttonPressed == 0)
	movf	(_buttonPressed),f
	skipz	;volatile
	goto	u363_21
	goto	u363_20
u363_21:
	goto	i1l10358
u363_20:
	line	130
	
i1l10356:	
;Main.c: 129: {
;Main.c: 130: buttonPressed = ReadButtons();
	fcall	_ReadButtons
	movwf	(??_isr1+0)+0
	movf	(??_isr1+0)+0,w
	movwf	(_buttonPressed)	;volatile
	goto	i1l10358
	line	131
	
i1l2219:	
	goto	i1l10358
	line	132
	
i1l2216:	
	line	133
	
i1l10358:	
;Main.c: 131: }
;Main.c: 132: }
;Main.c: 133: if (RCIF) { rxfifo[rxiptr]=RCREG; ser_tmp=(rxiptr+1) & (16-1); if (ser_tmp!=rxoptr) rxiptr=ser_tmp; } if (TXIF && TXIE) { TXREG = txfifo[txoptr]; ++txoptr; txoptr &= (16-1); if (txoptr==txiptr) { TXIE = 0; } };
	bcf	status, 5	;RP0=0, select bank0
	bcf	status, 6	;RP1=0, select bank0
	btfss	(101/8),(101)&7
	goto	u364_21
	goto	u364_20
u364_21:
	goto	i1l10368
u364_20:
	
i1l10360:	
	movf	(26),w	;volatile
	movwf	(??_isr1+0)+0
	bsf	status, 5	;RP0=1, select bank1
	bcf	status, 6	;RP1=0, select bank1
	movf	(_rxiptr)^080h,w
	addlw	_rxfifo&0ffh
	movwf	fsr0
	movf	(??_isr1+0)+0,w
	bcf	status, 7	;select IRP bank1
	movwf	indf
	
i1l10362:	
	movf	(_rxiptr)^080h,w	;volatile
	addlw	01h
	andlw	0Fh
	movwf	(??_isr1+0)+0
	movf	(??_isr1+0)+0,w
	movwf	(_ser_tmp)^080h
	
i1l10364:	
	movf	(_ser_tmp)^080h,w
	xorwf	(_rxoptr)^080h,w	;volatile
	skipnz
	goto	u365_21
	goto	u365_20
u365_21:
	goto	i1l10368
u365_20:
	
i1l10366:	
	movf	(_ser_tmp)^080h,w
	movwf	(??_isr1+0)+0
	movf	(??_isr1+0)+0,w
	movwf	(_rxiptr)^080h	;volatile
	goto	i1l10368
	
i1l2221:	
	goto	i1l10368
	
i1l2220:	
	
i1l10368:	
	bcf	status, 5	;RP0=0, select bank0
	btfss	(100/8),(100)&7
	goto	u366_21
	goto	u366_20
u366_21:
	goto	i1l2224
u366_20:
	
i1l10370:	
	bsf	status, 5	;RP0=1, select bank1
	bcf	status, 6	;RP1=0, select bank1
	btfss	(1124/8)^080h,(1124)&7
	goto	u367_21
	goto	u367_20
u367_21:
	goto	i1l2224
u367_20:
	
i1l10372:	
	movf	(_txoptr)^080h,w
	addlw	_txfifo&0ffh
	movwf	fsr0
	bsf	status, 7	;select IRP bank3
	movf	indf,w
	bcf	status, 5	;RP0=0, select bank0
	bcf	status, 6	;RP1=0, select bank0
	movwf	(25)	;volatile
	
i1l10374:	
	movlw	(01h)
	movwf	(??_isr1+0)+0
	movf	(??_isr1+0)+0,w
	bsf	status, 5	;RP0=1, select bank1
	bcf	status, 6	;RP1=0, select bank1
	addwf	(_txoptr)^080h,f	;volatile
	
i1l10376:	
	movlw	(0Fh)
	movwf	(??_isr1+0)+0
	movf	(??_isr1+0)+0,w
	andwf	(_txoptr)^080h,f	;volatile
	
i1l10378:	
	movf	(_txoptr)^080h,w	;volatile
	xorwf	(_txiptr)^080h,w	;volatile
	skipz
	goto	u368_21
	goto	u368_20
u368_21:
	goto	i1l2224
u368_20:
	
i1l10380:	
	bcf	(1124/8)^080h,(1124)&7
	goto	i1l2224
	
i1l2223:	
	goto	i1l2224
	
i1l2222:	
	line	134
	
i1l2224:	
	movf	(??_isr1+4),w
	bcf	status, 5	;RP0=0, select bank0
	movwf	btemp+1
	movf	(??_isr1+3),w
	movwf	pclath
	movf	(??_isr1+2),w
	movwf	fsr0
	swapf	(??_isr1+1)^0FFFFFF80h,w
	movwf	status
	swapf	saved_w,f
	swapf	saved_w,w
	retfie
	opt stack 0
GLOBAL	__end_of_isr1
	__end_of_isr1:
;; =============== function _isr1 ends ============

	signat	_isr1,88
	global	_ReadButtons
psect	text1112,local,class=CODE,delta=2
global __ptext1112
__ptext1112:

;; *************** function _ReadButtons *****************
;; Defined at:
;;		line 159 in file "E:\Aldnoah.Zero\Assignment3\HMI.c"
;; Parameters:    Size  Location     Type
;;		None
;; Auto vars:     Size  Location     Type
;;		None
;; Return value:  Size  Location     Type
;;                  1    wreg      unsigned char 
;; Registers used:
;;		wreg, status,2, status,0, pclath, cstack
;; Tracked objects:
;;		On entry : 0/0
;;		On exit  : 0/0
;;		Unchanged: 0/0
;; Data sizes:     COMMON   BANK0   BANK1   BANK3   BANK2
;;      Params:         0       0       0       0       0
;;      Locals:         0       0       0       0       0
;;      Temps:          0       0       0       0       0
;;      Totals:         0       0       0       0       0
;;Total ram usage:        0 bytes
;; Hardware stack levels used:    1
;; Hardware stack levels required when called:    1
;; This function calls:
;;		_Debounce
;; This function is called by:
;;		_isr1
;; This function uses a non-reentrant model
;;
psect	text1112
	file	"E:\Aldnoah.Zero\Assignment3\HMI.c"
	line	159
	global	__size_of_ReadButtons
	__size_of_ReadButtons	equ	__end_of_ReadButtons-_ReadButtons
	
_ReadButtons:	
	opt	stack 0
; Regs used in _ReadButtons: [wreg+status,2+status,0+pclath+cstack]
	line	161
	
i1l10382:	
;HMI.c: 161: Debounce();
	fcall	_Debounce
	line	163
	
i1l10384:	
;HMI.c: 163: if(UpPressed)
	btfss	(_UpPressed/8),(_UpPressed)&7
	goto	u369_21
	goto	u369_20
u369_21:
	goto	i1l4509
u369_20:
	line	165
	
i1l10386:	
;HMI.c: 164: {
;HMI.c: 165: UpPressed = 0;
	bcf	(_UpPressed/8),(_UpPressed)&7
	line	166
	
i1l10388:	
;HMI.c: 166: return 1;
	movlw	(01h)
	goto	i1l4510
	
i1l10390:	
	goto	i1l4510
	line	168
	
i1l4509:	
	line	170
;HMI.c: 168: }
;HMI.c: 170: if(DownPressed)
	btfss	(_DownPressed/8),(_DownPressed)&7
	goto	u370_21
	goto	u370_20
u370_21:
	goto	i1l4511
u370_20:
	line	172
	
i1l10392:	
;HMI.c: 171: {
;HMI.c: 172: DownPressed = 0;
	bcf	(_DownPressed/8),(_DownPressed)&7
	line	173
	
i1l10394:	
;HMI.c: 173: return 2;
	movlw	(02h)
	goto	i1l4510
	
i1l10396:	
	goto	i1l4510
	line	175
	
i1l4511:	
	line	176
;HMI.c: 175: }
;HMI.c: 176: if(LeftPressed)
	btfss	(_LeftPressed/8),(_LeftPressed)&7
	goto	u371_21
	goto	u371_20
u371_21:
	goto	i1l4512
u371_20:
	line	178
	
i1l10398:	
;HMI.c: 177: {
;HMI.c: 178: LeftPressed = 0;
	bcf	(_LeftPressed/8),(_LeftPressed)&7
	line	179
	
i1l10400:	
;HMI.c: 179: return 3;
	movlw	(03h)
	goto	i1l4510
	
i1l10402:	
	goto	i1l4510
	line	181
	
i1l4512:	
	line	182
;HMI.c: 181: }
;HMI.c: 182: if(RightPressed)
	btfss	(_RightPressed/8),(_RightPressed)&7
	goto	u372_21
	goto	u372_20
u372_21:
	goto	i1l4513
u372_20:
	line	184
	
i1l10404:	
;HMI.c: 183: {
;HMI.c: 184: RightPressed = 0;
	bcf	(_RightPressed/8),(_RightPressed)&7
	line	185
	
i1l10406:	
;HMI.c: 185: return 4;
	movlw	(04h)
	goto	i1l4510
	
i1l10408:	
	goto	i1l4510
	line	187
	
i1l4513:	
	line	189
;HMI.c: 187: }
;HMI.c: 189: if(CenterPressed)
	btfss	(_CenterPressed/8),(_CenterPressed)&7
	goto	u373_21
	goto	u373_20
u373_21:
	goto	i1l10416
u373_20:
	line	191
	
i1l10410:	
;HMI.c: 190: {
;HMI.c: 191: CenterPressed = 0;
	bcf	(_CenterPressed/8),(_CenterPressed)&7
	line	192
	
i1l10412:	
;HMI.c: 192: return 5;
	movlw	(05h)
	goto	i1l4510
	
i1l10414:	
	goto	i1l4510
	line	194
	
i1l4514:	
	line	195
	
i1l10416:	
;HMI.c: 194: }
;HMI.c: 195: return 0;
	movlw	(0)
	goto	i1l4510
	
i1l10418:	
	line	196
	
i1l4510:	
	return
	opt stack 0
GLOBAL	__end_of_ReadButtons
	__end_of_ReadButtons:
;; =============== function _ReadButtons ends ============

	signat	_ReadButtons,89
	global	i1___lwmod
psect	text1113,local,class=CODE,delta=2
global __ptext1113
__ptext1113:

;; *************** function i1___lwmod *****************
;; Defined at:
;;		line 5 in file "C:\Program Files\HI-TECH Software\PICC\9.83\sources\lwmod.c"
;; Parameters:    Size  Location     Type
;;  __lwmod         2    0[COMMON] unsigned int 
;;  __lwmod         2    2[COMMON] unsigned int 
;; Auto vars:     Size  Location     Type
;;  __lwmod         1    5[COMMON] unsigned char 
;; Return value:  Size  Location     Type
;;                  2    0[COMMON] unsigned int 
;; Registers used:
;;		wreg, status,2, status,0
;; Tracked objects:
;;		On entry : 0/0
;;		On exit  : 0/0
;;		Unchanged: 0/0
;; Data sizes:     COMMON   BANK0   BANK1   BANK3   BANK2
;;      Params:         4       0       0       0       0
;;      Locals:         1       0       0       0       0
;;      Temps:          1       0       0       0       0
;;      Totals:         6       0       0       0       0
;;Total ram usage:        6 bytes
;; Hardware stack levels used:    1
;; This function calls:
;;		Nothing
;; This function is called by:
;;		_isr1
;; This function uses a non-reentrant model
;;
psect	text1113
	file	"C:\Program Files\HI-TECH Software\PICC\9.83\sources\lwmod.c"
	line	5
	global	__size_ofi1___lwmod
	__size_ofi1___lwmod	equ	__end_ofi1___lwmod-i1___lwmod
	
i1___lwmod:	
	opt	stack 1
; Regs used in i1___lwmod: [wreg+status,2+status,0]
	line	8
	
i1l10922:	
	movf	(i1___lwmod@divisor+1),w
	iorwf	(i1___lwmod@divisor),w
	skipnz
	goto	u486_21
	goto	u486_20
u486_21:
	goto	i1l10940
u486_20:
	line	9
	
i1l10924:	
	clrf	(i1___lwmod@counter)
	bsf	status,0
	rlf	(i1___lwmod@counter),f
	line	10
	goto	i1l10930
	
i1l7512:	
	line	11
	
i1l10926:	
	movlw	01h
	
u487_25:
	clrc
	rlf	(i1___lwmod@divisor),f
	rlf	(i1___lwmod@divisor+1),f
	addlw	-1
	skipz
	goto	u487_25
	line	12
	
i1l10928:	
	movlw	(01h)
	movwf	(??i1___lwmod+0)+0
	movf	(??i1___lwmod+0)+0,w
	addwf	(i1___lwmod@counter),f
	goto	i1l10930
	line	13
	
i1l7511:	
	line	10
	
i1l10930:	
	btfss	(i1___lwmod@divisor+1),(15)&7
	goto	u488_21
	goto	u488_20
u488_21:
	goto	i1l10926
u488_20:
	goto	i1l10932
	
i1l7513:	
	goto	i1l10932
	line	14
	
i1l7514:	
	line	15
	
i1l10932:	
	movf	(i1___lwmod@divisor+1),w
	subwf	(i1___lwmod@dividend+1),w
	skipz
	goto	u489_25
	movf	(i1___lwmod@divisor),w
	subwf	(i1___lwmod@dividend),w
u489_25:
	skipc
	goto	u489_21
	goto	u489_20
u489_21:
	goto	i1l10936
u489_20:
	line	16
	
i1l10934:	
	movf	(i1___lwmod@divisor),w
	subwf	(i1___lwmod@dividend),f
	movf	(i1___lwmod@divisor+1),w
	skipc
	decf	(i1___lwmod@dividend+1),f
	subwf	(i1___lwmod@dividend+1),f
	goto	i1l10936
	
i1l7515:	
	line	17
	
i1l10936:	
	movlw	01h
	
u490_25:
	clrc
	rrf	(i1___lwmod@divisor+1),f
	rrf	(i1___lwmod@divisor),f
	addlw	-1
	skipz
	goto	u490_25
	line	18
	
i1l10938:	
	movlw	low(01h)
	subwf	(i1___lwmod@counter),f
	btfss	status,2
	goto	u491_21
	goto	u491_20
u491_21:
	goto	i1l10932
u491_20:
	goto	i1l10940
	
i1l7516:	
	goto	i1l10940
	line	19
	
i1l7510:	
	line	20
	
i1l10940:	
	movf	(i1___lwmod@dividend+1),w
	clrf	(?i1___lwmod+1)
	addwf	(?i1___lwmod+1)
	movf	(i1___lwmod@dividend),w
	clrf	(?i1___lwmod)
	addwf	(?i1___lwmod)

	goto	i1l7517
	
i1l10942:	
	line	21
	
i1l7517:	
	return
	opt stack 0
GLOBAL	__end_ofi1___lwmod
	__end_ofi1___lwmod:
;; =============== function i1___lwmod ends ============

	signat	i1___lwmod,90
	global	_Debounce
psect	text1114,local,class=CODE,delta=2
global __ptext1114
__ptext1114:

;; *************** function _Debounce *****************
;; Defined at:
;;		line 77 in file "E:\Aldnoah.Zero\Assignment3\HMI.c"
;; Parameters:    Size  Location     Type
;;		None
;; Auto vars:     Size  Location     Type
;;		None
;; Return value:  Size  Location     Type
;;		None               void
;; Registers used:
;;		wreg, status,2, status,0
;; Tracked objects:
;;		On entry : 0/0
;;		On exit  : 0/0
;;		Unchanged: 0/0
;; Data sizes:     COMMON   BANK0   BANK1   BANK3   BANK2
;;      Params:         0       0       0       0       0
;;      Locals:         0       0       0       0       0
;;      Temps:          1       0       0       0       0
;;      Totals:         1       0       0       0       0
;;Total ram usage:        1 bytes
;; Hardware stack levels used:    1
;; This function calls:
;;		Nothing
;; This function is called by:
;;		_ReadButtons
;; This function uses a non-reentrant model
;;
psect	text1114
	file	"E:\Aldnoah.Zero\Assignment3\HMI.c"
	line	77
	global	__size_of_Debounce
	__size_of_Debounce	equ	__end_of_Debounce-_Debounce
	
_Debounce:	
	opt	stack 0
; Regs used in _Debounce: [wreg+status,2+status,0]
	line	79
	
i1l10492:	
;HMI.c: 79: if(!RB2)
	bcf	status, 5	;RP0=0, select bank0
	bcf	status, 6	;RP1=0, select bank0
	btfsc	(50/8),(50)&7
	goto	u378_21
	goto	u378_20
u378_21:
	goto	i1l4491
u378_20:
	line	81
	
i1l10494:	
;HMI.c: 80: {
;HMI.c: 81: UpDebounceCount++;
	movlw	(01h)
	movwf	(??_Debounce+0)+0
	movf	(??_Debounce+0)+0,w
	bsf	status, 5	;RP0=1, select bank1
	bcf	status, 6	;RP1=0, select bank1
	addwf	(_UpDebounceCount)^080h,f	;volatile
	line	82
	
i1l10496:	
;HMI.c: 82: if(UpDebounceCount >= 10 & UpReleased)
	movlw	(0Ah)
	subwf	(_UpDebounceCount)^080h,w	;volatile
	skipc
	goto	u379_21
	goto	u379_20
u379_21:
	goto	i1l4493
u379_20:
	
i1l10498:	
	btfss	(_UpReleased/8),(_UpReleased)&7
	goto	u380_21
	goto	u380_20
u380_21:
	goto	i1l4493
u380_20:
	line	84
	
i1l10500:	
;HMI.c: 83: {
;HMI.c: 84: UpPressed = 1;
	bsf	(_UpPressed/8),(_UpPressed)&7
	line	85
;HMI.c: 85: UpReleased = 0;
	bcf	(_UpReleased/8),(_UpReleased)&7
	goto	i1l4493
	line	86
	
i1l4492:	
	line	87
;HMI.c: 86: }
;HMI.c: 87: }
	goto	i1l4493
	line	88
	
i1l4491:	
	line	90
;HMI.c: 88: else
;HMI.c: 89: {
;HMI.c: 90: UpDebounceCount = 0;
	bsf	status, 5	;RP0=1, select bank1
	bcf	status, 6	;RP1=0, select bank1
	clrf	(_UpDebounceCount)^080h	;volatile
	line	91
;HMI.c: 91: UpReleased = 1;
	bsf	(_UpReleased/8),(_UpReleased)&7
	line	92
	
i1l4493:	
	line	95
;HMI.c: 92: }
;HMI.c: 95: if(!RB3)
	bcf	status, 5	;RP0=0, select bank0
	bcf	status, 6	;RP1=0, select bank0
	btfsc	(51/8),(51)&7
	goto	u381_21
	goto	u381_20
u381_21:
	goto	i1l4494
u381_20:
	line	97
	
i1l10502:	
;HMI.c: 96: {
;HMI.c: 97: DownDebounceCount++;
	movlw	(01h)
	movwf	(??_Debounce+0)+0
	movf	(??_Debounce+0)+0,w
	bsf	status, 5	;RP0=1, select bank1
	bcf	status, 6	;RP1=0, select bank1
	addwf	(_DownDebounceCount)^080h,f	;volatile
	line	98
	
i1l10504:	
;HMI.c: 98: if(DownDebounceCount >= 10 & DownReleased)
	movlw	(0Ah)
	subwf	(_DownDebounceCount)^080h,w	;volatile
	skipc
	goto	u382_21
	goto	u382_20
u382_21:
	goto	i1l4496
u382_20:
	
i1l10506:	
	btfss	(_DownReleased/8),(_DownReleased)&7
	goto	u383_21
	goto	u383_20
u383_21:
	goto	i1l4496
u383_20:
	line	100
	
i1l10508:	
;HMI.c: 99: {
;HMI.c: 100: DownPressed = 1;
	bsf	(_DownPressed/8),(_DownPressed)&7
	line	101
;HMI.c: 101: DownReleased = 0;
	bcf	(_DownReleased/8),(_DownReleased)&7
	goto	i1l4496
	line	102
	
i1l4495:	
	line	103
;HMI.c: 102: }
;HMI.c: 103: }
	goto	i1l4496
	line	104
	
i1l4494:	
	line	106
;HMI.c: 104: else
;HMI.c: 105: {
;HMI.c: 106: DownDebounceCount = 0;
	bsf	status, 5	;RP0=1, select bank1
	bcf	status, 6	;RP1=0, select bank1
	clrf	(_DownDebounceCount)^080h	;volatile
	line	107
;HMI.c: 107: DownReleased = 1;
	bsf	(_DownReleased/8),(_DownReleased)&7
	line	108
	
i1l4496:	
	line	110
;HMI.c: 108: }
;HMI.c: 110: if(!RB4)
	bcf	status, 5	;RP0=0, select bank0
	bcf	status, 6	;RP1=0, select bank0
	btfsc	(52/8),(52)&7
	goto	u384_21
	goto	u384_20
u384_21:
	goto	i1l4497
u384_20:
	line	112
	
i1l10510:	
;HMI.c: 111: {
;HMI.c: 112: LeftDebounceCount++;
	movlw	(01h)
	movwf	(??_Debounce+0)+0
	movf	(??_Debounce+0)+0,w
	bsf	status, 5	;RP0=1, select bank1
	bcf	status, 6	;RP1=0, select bank1
	addwf	(_LeftDebounceCount)^080h,f	;volatile
	line	113
	
i1l10512:	
;HMI.c: 113: if(LeftDebounceCount >= 10 & LeftReleased)
	movlw	(0Ah)
	subwf	(_LeftDebounceCount)^080h,w	;volatile
	skipc
	goto	u385_21
	goto	u385_20
u385_21:
	goto	i1l4499
u385_20:
	
i1l10514:	
	btfss	(_LeftReleased/8),(_LeftReleased)&7
	goto	u386_21
	goto	u386_20
u386_21:
	goto	i1l4499
u386_20:
	line	115
	
i1l10516:	
;HMI.c: 114: {
;HMI.c: 115: LeftPressed = 1;
	bsf	(_LeftPressed/8),(_LeftPressed)&7
	line	116
;HMI.c: 116: LeftReleased = 0;
	bcf	(_LeftReleased/8),(_LeftReleased)&7
	goto	i1l4499
	line	117
	
i1l4498:	
	line	118
;HMI.c: 117: }
;HMI.c: 118: }
	goto	i1l4499
	line	119
	
i1l4497:	
	line	121
;HMI.c: 119: else
;HMI.c: 120: {
;HMI.c: 121: LeftDebounceCount = 0;
	bsf	status, 5	;RP0=1, select bank1
	bcf	status, 6	;RP1=0, select bank1
	clrf	(_LeftDebounceCount)^080h	;volatile
	line	122
;HMI.c: 122: LeftReleased = 1;
	bsf	(_LeftReleased/8),(_LeftReleased)&7
	line	123
	
i1l4499:	
	line	125
;HMI.c: 123: }
;HMI.c: 125: if(!RB5)
	bcf	status, 5	;RP0=0, select bank0
	bcf	status, 6	;RP1=0, select bank0
	btfsc	(53/8),(53)&7
	goto	u387_21
	goto	u387_20
u387_21:
	goto	i1l4500
u387_20:
	line	127
	
i1l10518:	
;HMI.c: 126: {
;HMI.c: 127: RightDebounceCount++;
	movlw	(01h)
	movwf	(??_Debounce+0)+0
	movf	(??_Debounce+0)+0,w
	bsf	status, 5	;RP0=1, select bank1
	bcf	status, 6	;RP1=0, select bank1
	addwf	(_RightDebounceCount)^080h,f	;volatile
	line	128
	
i1l10520:	
;HMI.c: 128: if(RightDebounceCount >= 10 & RightReleased)
	movlw	(0Ah)
	subwf	(_RightDebounceCount)^080h,w	;volatile
	skipc
	goto	u388_21
	goto	u388_20
u388_21:
	goto	i1l4502
u388_20:
	
i1l10522:	
	btfss	(_RightReleased/8),(_RightReleased)&7
	goto	u389_21
	goto	u389_20
u389_21:
	goto	i1l4502
u389_20:
	line	130
	
i1l10524:	
;HMI.c: 129: {
;HMI.c: 130: RightPressed = 1;
	bsf	(_RightPressed/8),(_RightPressed)&7
	line	131
;HMI.c: 131: RightReleased = 0;
	bcf	(_RightReleased/8),(_RightReleased)&7
	goto	i1l4502
	line	132
	
i1l4501:	
	line	133
;HMI.c: 132: }
;HMI.c: 133: }
	goto	i1l4502
	line	134
	
i1l4500:	
	line	136
;HMI.c: 134: else
;HMI.c: 135: {
;HMI.c: 136: RightDebounceCount = 0;
	bsf	status, 5	;RP0=1, select bank1
	bcf	status, 6	;RP1=0, select bank1
	clrf	(_RightDebounceCount)^080h	;volatile
	line	137
;HMI.c: 137: RightReleased = 1;
	bsf	(_RightReleased/8),(_RightReleased)&7
	line	138
	
i1l4502:	
	line	140
;HMI.c: 138: }
;HMI.c: 140: if(!RB6)
	bcf	status, 5	;RP0=0, select bank0
	bcf	status, 6	;RP1=0, select bank0
	btfsc	(54/8),(54)&7
	goto	u390_21
	goto	u390_20
u390_21:
	goto	i1l4503
u390_20:
	line	142
	
i1l10526:	
;HMI.c: 141: {
;HMI.c: 142: CenterDebounceCount++;
	movlw	(01h)
	movwf	(??_Debounce+0)+0
	movf	(??_Debounce+0)+0,w
	bsf	status, 5	;RP0=1, select bank1
	bcf	status, 6	;RP1=0, select bank1
	addwf	(_CenterDebounceCount)^080h,f	;volatile
	line	143
	
i1l10528:	
;HMI.c: 143: if(CenterDebounceCount >= 10 & CenterReleased)
	movlw	(0Ah)
	subwf	(_CenterDebounceCount)^080h,w	;volatile
	skipc
	goto	u391_21
	goto	u391_20
u391_21:
	goto	i1l4506
u391_20:
	
i1l10530:	
	btfss	(_CenterReleased/8),(_CenterReleased)&7
	goto	u392_21
	goto	u392_20
u392_21:
	goto	i1l4506
u392_20:
	line	145
	
i1l10532:	
;HMI.c: 144: {
;HMI.c: 145: CenterPressed = 1;
	bsf	(_CenterPressed/8),(_CenterPressed)&7
	line	146
;HMI.c: 146: CenterReleased = 0;
	bcf	(_CenterReleased/8),(_CenterReleased)&7
	goto	i1l4506
	line	147
	
i1l4504:	
	line	148
;HMI.c: 147: }
;HMI.c: 148: }
	goto	i1l4506
	line	149
	
i1l4503:	
	line	151
;HMI.c: 149: else
;HMI.c: 150: {
;HMI.c: 151: CenterDebounceCount = 0;
	bsf	status, 5	;RP0=1, select bank1
	bcf	status, 6	;RP1=0, select bank1
	clrf	(_CenterDebounceCount)^080h	;volatile
	line	152
;HMI.c: 152: CenterReleased = 1;
	bsf	(_CenterReleased/8),(_CenterReleased)&7
	goto	i1l4506
	line	153
	
i1l4505:	
	line	154
	
i1l4506:	
	return
	opt stack 0
GLOBAL	__end_of_Debounce
	__end_of_Debounce:
;; =============== function _Debounce ends ============

	signat	_Debounce,88
psect	text1115,local,class=CODE,delta=2
global __ptext1115
__ptext1115:
	global	btemp
	btemp set 07Eh

	DABS	1,126,2	;btemp
	global	wtemp0
	wtemp0 set btemp
	end
