HI-TECH Software C Compiler 

Linker command line:

--edf=C:\Program Files\HI-TECH Software\PICC\9.83\dat\en_msgs.txt -cs \
  -h+Assignment3_AldnoahZero.sym -z -Q16F877A -ol.obj \
  -MAssignment3_AldnoahZero.map -E1 -ACONST=00h-0FFhx32 -ACODE=00h-07FFhx4 \
  -ASTRCODE=00h-01FFFh -AENTRY=00h-0FFhx32 -ASTRING=00h-0FFhx32 \
  -ABANK0=020h-06Fh -ABANK1=0A0h-0EFh -ABANK2=0110h-016Fh \
  -ABANK3=0190h-01EFh -ARAM=020h-06Fh,0A0h-0EFh,0110h-016Fh,0190h-01EFh \
  -AABS1=020h-07Fh,0A0h-0EFh,0110h-016Fh,0190h-01EFh -ACOMMON=070h-07Fh \
  -ASFR0=00h-01Fh -ASFR1=080h-09Fh -ASFR2=0100h-010Fh -ASFR3=0180h-018Fh \
  -preset_vec=00h,intentry=04h,init,end_init -ppowerup=CODE -pfunctab=CODE \
  -ACONFIG=02007h-02007h -pconfig=CONFIG -DCONFIG=2 -AIDLOC=02000h-02003h \
  -pidloc=IDLOC -DIDLOC=2 -AEEDATA=00h-0FFh/02100h -peeprom_data=EEDATA \
  -DEEDATA=2 -DCODE=2 -DSTRCODE=2 -DSTRING=2 -DCONST=2 -DENTRY=2 -k \
  startup.obj Assignment3_AldnoahZero.obj 

Object code version is 3.10

Machine type is 16F877A



                Name                               Link     Load   Length Selector   Space Scale
startup.obj     end_init                             12       12        3        8       0
                reset_vec                             0        0        3        0       0
Assignment3_AldnoahZero.obj
                intentry                              4        4        E        8       0
                config                             2007     2007        1     400E       0
                text1010                            BF7      BF7       98     17EE       0
                text1009                           17BC     17BC       44     2F78       0
                text1008                           16E3     16E3       30     2DC6       0
                text1007                            D37      D37       AB     1A6E       0
                text1006                           1583     1583       29     2B06       0
                text1005                           1686     1686       2E     2D0C       0
                text1004                            958      958       47     12B0       0
                text1003                           155D     155D       26     2ABA       0
                text1002                           1509     1509       14     2A12       0
                text1001                            8B3      8B3       19     1166       0
                text1000                           1602     1602       2C     2C04       0
                text999                             99F      99F       50     133E       0
                text998                             8CC      8CC       46     1198       0
                text997                             A9D      A9D       68     153A       0
                text996                            1781     1781       3B     2F02       0
                text995                            1531     1531       16     2A62       0
                text994                            151D     151D       14     2A3A       0
                text993                            14E3     14E3       13     29C6       0
                text992                             7DE      7DE       19        8       0
                text991                             9EF      9EF       50     13DE       0
                text990                              15       15      223        8       0
                text989                             DE2      DE2      100     1BC4       0
                text988                            162E     162E       2C     2C5C       0
                text987                            1748     1748       39     2E90       0
                text986                             B05      B05       74     160A       0
                text985                            1713     1713       35     2E26       0
                text984                            14CB     14CB        B     2996       0
                text983                            165A     165A       2C     2CB4       0
                text982                            15AC     15AC       2B     2B58       0
                text981                             EE2      EE2      11E     1DC4       0
                text980                            1547     1547       16     2A8E       0
                text979                            16B4     16B4       2F     2D68       0
                text978                             B79      B79       7E     16F2       0
                text977                             5C3      5C3      15F        8       0
                text976                             A3F      A3F       5E     147E       0
                text975                             C8F      C8F       A8     191E       0
                text974                             722      722       BC        8       0
                text973                             449      449      17A        8       0
                text972                             912      912       46     1224       0
                maintext                            238      238      211        8       0
                cstackBANK0                          20       20       4C       20       1
                cstackCOMMON                         72       72        B       70       1
                inittext                           14F6     14F6       13     29EC       0
                clrtext                             7F7      7F7        8        8       0
                bssBANK3                            190      190       20      190       1
                dataBANK1                            DC       DC        D       A0       1
                bssBANK1                             A0       A0       3C       A0       1
                bssBANK0                             6C       6C        4       20       1
                bssCOMMON                            7D       7D        1       70       1
                bitbssCOMMON                        380       70        D       70       1     8
                cinit                              15D7     15D7       2B     2BAE       0
                strings                             800      800       AD     1000       0
                idataBANK1                         14D6     14D6        D     29AC       0

TOTAL           Name                               Link     Load   Length     Space
        CLASS   CONST          

        CLASS   CODE           
                end_init                             12       12        3         0
                intentry                              4        4        E         0
                reset_vec                             0        0        3         0
                text1010                            BF7      BF7       98         0
                text1009                           17BC     17BC       44         0
                text1008                           16E3     16E3       30         0
                text1007                            D37      D37       AB         0
                text1006                           1583     1583       29         0
                text1005                           1686     1686       2E         0
                text1004                            958      958       47         0
                text1003                           155D     155D       26         0
                text1002                           1509     1509       14         0
                text1001                            8B3      8B3       19         0
                text1000                           1602     1602       2C         0
                text999                             99F      99F       50         0
                text998                             8CC      8CC       46         0
                text997                             A9D      A9D       68         0
                text996                            1781     1781       3B         0
                text995                            1531     1531       16         0
                text994                            151D     151D       14         0
                text993                            14E3     14E3       13         0
                text992                             7DE      7DE       19         0
                text991                             9EF      9EF       50         0
                text990                              15       15      223         0
                text989                             DE2      DE2      100         0
                text988                            162E     162E       2C         0
                text987                            1748     1748       39         0
                text986                             B05      B05       74         0
                text985                            1713     1713       35         0
                text984                            14CB     14CB        B         0
                text983                            165A     165A       2C         0
                text982                            15AC     15AC       2B         0
                text981                             EE2      EE2      11E         0
                text980                            1547     1547       16         0
                text979                            16B4     16B4       2F         0
                text978                             B79      B79       7E         0
                text977                             5C3      5C3      15F         0
                text976                             A3F      A3F       5E         0
                text975                             C8F      C8F       A8         0
                text974                             722      722       BC         0
                text973                             449      449      17A         0
                text972                             912      912       46         0
                maintext                            238      238      211         0
                inittext                           14F6     14F6       13         0
                clrtext                             7F7      7F7        8         0
                cinit                              15D7     15D7       2B         0
                idataBANK1                         14D6     14D6        D         0

        CLASS   STRCODE        

        CLASS   ENTRY          

        CLASS   STRING         
                strings                             800      800       AD         0

        CLASS   BANK0          
                cstackBANK0                          20       20       4C         1
                bssBANK0                             6C       6C        4         1

        CLASS   BANK1          
                dataBANK1                            DC       DC        D         1
                bssBANK1                             A0       A0       3C         1

        CLASS   BANK2          

        CLASS   BANK3          
                bssBANK3                            190      190       20         1

        CLASS   RAM            

        CLASS   ABS1           
                abs_s1                               7E       7E        2         1

        CLASS   COMMON         
                cstackCOMMON                         72       72        B         1
                bssCOMMON                            7D       7D        1         1
                bitbssCOMMON                        380       70        D         1

        CLASS   SFR0           

        CLASS   SFR1           

        CLASS   SFR2           

        CLASS   SFR3           

        CLASS   CONFIG         
                config                             2007     2007        1         0

        CLASS   IDLOC          

        CLASS   EEDATA         



SEGMENTS        Name                           Load    Length   Top    Selector   Space  Class     Delta

                reset_vec                      000000  000003  000003         0       0  CODE        2
                intentry                       000004  0007FB  0007FF         8       0  CODE        2
                cstackBANK0                    000020  000050  000070        20       1  BANK0       1
                bitbssCOMMON                   000070  00000E  00007E        70       1  COMMON      1
                bssBANK1                       0000A0  000049  0000E9        A0       1  BANK1       1
                bssBANK3                       000190  000020  0001B0       190       1  BANK3       1
                strings                        000800  0000AD  0008AD      1000       0  STRING      2
                text1001                       0008B3  000019  0008CC      1166       0  CODE        2
                text998                        0008CC  000046  000912      1198       0  CODE        2
                text972                        000912  000046  000958      1224       0  CODE        2
                text1004                       000958  000047  00099F      12B0       0  CODE        2
                text999                        00099F  000050  0009EF      133E       0  CODE        2
                text991                        0009EF  000050  000A3F      13DE       0  CODE        2
                text976                        000A3F  00005E  000A9D      147E       0  CODE        2
                text997                        000A9D  000068  000B05      153A       0  CODE        2
                text986                        000B05  000074  000B79      160A       0  CODE        2
                text978                        000B79  00007E  000BF7      16F2       0  CODE        2
                text1010                       000BF7  000098  000C8F      17EE       0  CODE        2
                text975                        000C8F  0000A8  000D37      191E       0  CODE        2
                text1007                       000D37  0000AB  000DE2      1A6E       0  CODE        2
                text989                        000DE2  000100  000EE2      1BC4       0  CODE        2
                text981                        000EE2  00011E  001000      1DC4       0  CODE        2
                text984                        0014CB  00000B  0014D6      2996       0  CODE        2
                idataBANK1                     0014D6  00000D  0014E3      29AC       0  CODE        2
                text993                        0014E3  000013  0014F6      29C6       0  CODE        2
                inittext                       0014F6  000013  001509      29EC       0  CODE        2
                text1002                       001509  000014  00151D      2A12       0  CODE        2
                text994                        00151D  000014  001531      2A3A       0  CODE        2
                text995                        001531  000016  001547      2A62       0  CODE        2
                text980                        001547  000016  00155D      2A8E       0  CODE        2
                text1003                       00155D  000026  001583      2ABA       0  CODE        2
                text1006                       001583  000029  0015AC      2B06       0  CODE        2
                text982                        0015AC  00002B  0015D7      2B58       0  CODE        2
                cinit                          0015D7  00002B  001602      2BAE       0  CODE        2
                text1000                       001602  00002C  00162E      2C04       0  CODE        2
                text988                        00162E  00002C  00165A      2C5C       0  CODE        2
                text983                        00165A  00002C  001686      2CB4       0  CODE        2
                text1005                       001686  00002E  0016B4      2D0C       0  CODE        2
                text979                        0016B4  00002F  0016E3      2D68       0  CODE        2
                text1008                       0016E3  000030  001713      2DC6       0  CODE        2
                text985                        001713  000035  001748      2E26       0  CODE        2
                text987                        001748  000039  001781      2E90       0  CODE        2
                text996                        001781  00003B  0017BC      2F02       0  CODE        2
                text1009                       0017BC  000044  001800      2F78       0  CODE        2
                config                         002007  000001  002008      400E       0  CONFIG      2


UNUSED ADDRESS RANGES

        Name                Unused          Largest block    Delta
        BANK1            00E9-00EF              7           1
        BANK2            0110-016F             60           1
        BANK3            01B0-01EF             40           1
        CODE             0003-0003              1           2
                         07FF-07FF              1
                         08AD-08B2              6
                         1000-14CA            4CB
                         1800-1FFF            800
        CONST            0003-0003              1           2
                         07FF-07FF              1
                         08AD-08B2              6
                         1000-14CA            100
                         1800-1FFF            100
        EEDATA           2100-21FF            100           2
        ENTRY            0003-0003              1           2
                         07FF-07FF              1
                         08AD-08B2              6
                         1000-14CA            100
                         1800-1FFF            100
        IDLOC            2000-2003              4           2
        RAM              00E9-00EF              7           1
                         0110-016F             60
                         01B0-01EF             40
        SFR0             0000-001F             20           1
        SFR1             0080-009F             20           1
        SFR2             0100-010F             10           1
        SFR3             0180-018F             10           1
        STRCODE          0003-0003              1           2
                         07FF-07FF              1
                         08AD-08B2              6
                         1000-14CA            4CB
                         1800-1FFF            800
        STRING           0003-0003              1           2
                         07FF-07FF              1
                         08AD-08B2              6
                         1000-14CA            100
                         1800-1FFF            100

                                  Symbol Table

??_ADCconvert               cstackBANK0  002E
??_ChargeMode               cstackBANK0  0059
??_Debounce                 cstackCOMMON 0072
??_Menu                     cstackBANK0  0020
??_ReadButtons              cstackCOMMON 0073
??_RobotDrive               cstackBANK0  0026
??_UpdateDisplay            cstackBANK0  0045
??___awmod                  cstackBANK0  0024
??___lwdiv                  cstackBANK0  002A
??___lwmod                  cstackBANK0  0032
??___wmul                   cstackBANK0  0024
??_abs                      cstackBANK0  0028
??_adc_read                 cstackBANK0  0022
??_adc_read_channel         cstackBANK0  0026
??_calibrateIR              cstackBANK0  0059
??_init                     cstackBANK0  0023
??_init_adc                 cstackBANK0  0020
??_isr1                     cstackCOMMON 0078
??_lcd_init                 cstackBANK0  0023
??_lcd_set_cursor           cstackBANK0  0023
??_lcd_write_control        cstackBANK0  0020
??_lcd_write_data           cstackBANK0  0020
??_lcd_write_string         cstackBANK0  0029
??_main                     cstackBANK0  0064
??_readAvgDistance          cstackBANK0  0030
??_readDistance             cstackBANK0  002A
??_robo_init                cstackBANK0  0022
??_robotFollow              cstackBANK0  005F
??_robotMoveSpeed           cstackBANK0  005D
??_robotTurn                cstackBANK0  0024
??_robotTurnSpeed           cstackBANK0  005D
??_robot_read               cstackBANK0  0022
??_rotate                   cstackBANK0  0026
??_ser_getch                cstackBANK0  0020
??_ser_init                 cstackBANK0  0020
??_ser_isrx                 cstackBANK0  0020
??_ser_putch                cstackBANK0  0020
??_spi_transfer             cstackBANK0  0020
??_sprintf                  cstackBANK0  0039
??i1___lwmod                cstackCOMMON 0076
?_ADCconvert                cstackCOMMON 0072
?_ChargeMode                cstackCOMMON 0072
?_Debounce                  cstackCOMMON 0072
?_Menu                      cstackCOMMON 0072
?_ReadButtons               cstackCOMMON 0072
?_RobotDrive                cstackBANK0  0022
?_UpdateDisplay             cstackCOMMON 0072
?___awmod                   cstackBANK0  0020
?___lwdiv                   cstackBANK0  0026
?___lwmod                   cstackBANK0  002E
?___wmul                    cstackBANK0  0020
?_abs                       cstackBANK0  0026
?_adc_read                  cstackBANK0  0020
?_adc_read_channel          cstackCOMMON 0072
?_calibrateIR               cstackCOMMON 0072
?_init                      cstackCOMMON 0072
?_init_adc                  cstackCOMMON 0072
?_isr1                      cstackCOMMON 0072
?_lcd_init                  cstackCOMMON 0072
?_lcd_set_cursor            cstackCOMMON 0072
?_lcd_write_control         cstackCOMMON 0072
?_lcd_write_data            cstackCOMMON 0072
?_lcd_write_string          cstackBANK0  0027
?_main                      cstackCOMMON 0072
?_readAvgDistance           cstackCOMMON 0072
?_readDistance              cstackBANK0  0028
?_robo_init                 cstackCOMMON 0072
?_robotFollow               cstackBANK0  0059
?_robotMoveSpeed            cstackBANK0  0059
?_robotTurn                 cstackBANK0  0022
?_robotTurnSpeed            cstackBANK0  0059
?_robot_read                cstackCOMMON 0072
?_rotate                    cstackBANK0  0023
?_ser_getch                 cstackCOMMON 0072
?_ser_init                  cstackCOMMON 0072
?_ser_isrx                  cstackCOMMON 0072
?_ser_putch                 cstackCOMMON 0072
?_spi_transfer              cstackCOMMON 0072
?_sprintf                   cstackBANK0  0034
?i1___lwmod                 cstackCOMMON 0072
AT25256A@CS0                (abs)        0038
AT25256A@CS1                (abs)        0039
Menu@BTN_input              cstackBANK0  0020
RobotDrive@radius           cstackBANK0  0024
RobotDrive@radiushighByte   cstackBANK0  002A
RobotDrive@radiuslowByte    cstackBANK0  0029
RobotDrive@speed            cstackBANK0  0022
RobotDrive@speedhighByte    cstackBANK0  0028
RobotDrive@speedlowByte     cstackBANK0  0027
UpdateDisplay@F1249         bssBANK3     0190
UpdateDisplay@LCDOutput     cstackBANK0  0049
_ADCON0                     (abs)        001F
_ADCON1                     (abs)        009F
_ADCconvert                 text990      0015
_ADRESH                     (abs)        001E
_ADRESL                     (abs)        009E
_AngleHighByte              bssBANK1     00C8
_AngleLowByte               bssBANK1     00C9
_BRGH                       (abs)        04C2
_BumpSensors                bssBANK0     006E
_CARRY                      (abs)        0018
_CHS0                       (abs)        00FB
_CHS1                       (abs)        00FC
_CHS2                       (abs)        00FD
_CREN                       (abs)        00C4
_CenterDebounceCount        bssBANK1     00CA
_CenterPressed              bitbssCOMMON 0380
_CenterReleased             bitbssCOMMON 0381
_ChargeMode                 text972      0912
_Debounce                   text1010     0BF7
_Disp1                      bssBANK1     00B0
_Disp2                      bssBANK1     00B2
_DistHighByte               bssBANK1     00CB
_DistLowByte                bssBANK1     00CC
_DownDebounceCount          bssBANK1     00CD
_DownPressed                bitbssCOMMON 0382
_DownReleased               bitbssCOMMON 0383
_EEADR                      (abs)        010D
_EECON1                     (abs)        018C
_EECON2                     (abs)        018D
_EEDATA                     (abs)        010C
_GIE                        (abs)        005F
_GO                         (abs)        00FA
_IRdistance                 bssBANK1     00B4
_LeftDebounceCount          bssBANK1     00CE
_LeftPressed                bitbssCOMMON 0384
_LeftReleased               bitbssCOMMON 0385
_Menu                       text1004     0958
_OERR                       (abs)        00C1
_OPTION_REG                 (abs)        0081
_PEIE                       (abs)        005E
_PORTA                      (abs)        0005
_PORTD                      (abs)        0008
_PORTE                      (abs)        0009
_RB0                        (abs)        0030
_RB2                        (abs)        0032
_RB3                        (abs)        0033
_RB4                        (abs)        0034
_RB5                        (abs)        0035
_RB6                        (abs)        0036
_RC0                        (abs)        0038
_RC1                        (abs)        0039
_RC2                        (abs)        003A
_RCIE                       (abs)        0465
_RCIF                       (abs)        0065
_RCREG                      (abs)        001A
_RD                         (abs)        0C60
_RE0                        (abs)        0048
_RE1                        (abs)        0049
_RE2                        (abs)        004A
_ROBOTerror                 bssBANK1     00CF
_RTC_Counter                bssBANK1     00B6
_RTC_FLAG_1MS               bitbssCOMMON 0386
_RTC_FLAG_250MS             bitbssCOMMON 0387
_RTC_FLAG_500MS             bitbssCOMMON 0388
_RX9                        (abs)        00C6
_ReadButtons                text1008     16E3
_RightDebounceCount         bssBANK1     00D0
_RightPressed               bitbssCOMMON 0389
_RightReleased              bitbssCOMMON 038A
_RobotDrive                 text987      1748
_SPBRG                      (abs)        0099
_SPEN                       (abs)        00C7
_SSPBUF                     (abs)        0013
_SSPCON                     (abs)        0014
_SSPIF                      (abs)        0063
_SSPSTAT                    (abs)        0094
_SYNC                       (abs)        04C4
_TMR0                       (abs)        0001
_TMR0IE                     (abs)        005D
_TMR0IF                     (abs)        005A
_TRISA                      (abs)        0085
_TRISB                      (abs)        0086
_TRISC                      (abs)        0087
_TRISD                      (abs)        0088
_TRISE                      (abs)        0089
_TX9                        (abs)        04C6
_TXEN                       (abs)        04C5
_TXIE                       (abs)        0464
_TXIF                       (abs)        0064
_TXREG                      (abs)        0019
_TotalDistTravelled         bssBANK1     00B8
_UpDebounceCount            bssBANK1     00D1
_UpPressed                  bitbssCOMMON 038B
_UpReleased                 bitbssCOMMON 038C
_UpdateDisplay              text977      05C3
_VwallSensor                bssBANK1     00D2
_WR                         (abs)        0C61
_WREN                       (abs)        0C62
__Habs1                     abs1         0000
__Hbank0                    bank0        0000
__Hbank1                    bank1        0000
__Hbank2                    bank2        0000
__Hbank3                    bank3        0000
__HbitbssCOMMON             bitbssCOMMON 0000
__HbssBANK0                 bssBANK0     0000
__HbssBANK1                 bssBANK1     0000
__HbssBANK3                 bssBANK3     0000
__HbssCOMMON                bssCOMMON    0000
__Hcinit                    cinit        0000
__Hclrtext                  clrtext      0000
__Hcode                     code         0000
__Hcommon                   common       0000
__Hconfig                   config       2008
__HcstackBANK0              cstackBANK0  0000
__HcstackCOMMON             cstackCOMMON 0000
__HdataBANK1                dataBANK1    0000
__Heeprom_data              eeprom_data  0000
__Hend_init                 end_init     0015
__Hfunctab                  functab      0000
__HidataBANK1               idataBANK1   0000
__Hidloc                    idloc        0000
__Hinit                     init         0012
__Hinittext                 inittext     0000
__Hintentry                 intentry     0012
__Hmaintext                 maintext     0000
__Hpowerup                  powerup      0000
__Hram                      ram          0000
__Hreset_vec                reset_vec    0003
__Hsfr0                     sfr0         0000
__Hsfr1                     sfr1         0000
__Hsfr2                     sfr2         0000
__Hsfr3                     sfr3         0000
__Hstrings                  strings      0000
__Htext                     text         0000
__Labs1                     abs1         0000
__Lbank0                    bank0        0000
__Lbank1                    bank1        0000
__Lbank2                    bank2        0000
__Lbank3                    bank3        0000
__LbitbssCOMMON             bitbssCOMMON 0000
__LbssBANK0                 bssBANK0     0000
__LbssBANK1                 bssBANK1     0000
__LbssBANK3                 bssBANK3     0000
__LbssCOMMON                bssCOMMON    0000
__Lcinit                    cinit        0000
__Lclrtext                  clrtext      0000
__Lcode                     code         0000
__Lcommon                   common       0000
__Lconfig                   config       2007
__LcstackBANK0              cstackBANK0  0000
__LcstackCOMMON             cstackCOMMON 0000
__LdataBANK1                dataBANK1    0000
__Leeprom_data              eeprom_data  0000
__Lend_init                 end_init     0012
__Lfunctab                  functab      0000
__LidataBANK1               idataBANK1   0000
__Lidloc                    idloc        0000
__Linit                     init         0012
__Linittext                 inittext     0000
__Lintentry                 intentry     0004
__Lmaintext                 maintext     0000
__Lpowerup                  powerup      0000
__Lram                      ram          0000
__Lreset_vec                reset_vec    0000
__Lsfr0                     sfr0         0000
__Lsfr1                     sfr1         0000
__Lsfr2                     sfr2         0000
__Lsfr3                     sfr3         0000
__Lstrings                  strings      0000
__Ltext                     text         0000
__S0                        (abs)        2008
__S1                        (abs)        01B0
__S2                        (abs)        0000
___awmod                    text997      0A9D
___awmod@counter            cstackBANK0  0025
___awmod@dividend           cstackBANK0  0022
___awmod@divisor            cstackBANK0  0020
___awmod@sign               cstackBANK0  0026
___lwdiv                    text999      099F
___lwdiv@counter            cstackBANK0  002D
___lwdiv@dividend           cstackBANK0  0028
___lwdiv@divisor            cstackBANK0  0026
___lwdiv@quotient           cstackBANK0  002B
___lwmod                    text998      08CC
___lwmod@counter            cstackBANK0  0033
___lwmod@dividend           cstackBANK0  0030
___lwmod@divisor            cstackBANK0  002E
___wmul                     text1000     1602
___wmul@multiplicand        cstackBANK0  0022
___wmul@multiplier          cstackBANK0  0020
___wmul@product             cstackBANK0  0024
__end_of_ADCconvert         text990      0238
__end_of_ChargeMode         text972      0958
__end_of_Debounce           text1010     0C8F
__end_of_Menu               text1004     099F
__end_of_ReadButtons        text1008     1713
__end_of_RobotDrive         text987      1781
__end_of_UpdateDisplay      text977      0722
__end_of___awmod            text997      0B05
__end_of___lwdiv            text999      09EF
__end_of___lwmod            text998      0912
__end_of___wmul             text1000     162E
__end_of_abs                text985      1748
__end_of_adc_read           text1006     15AC
__end_of_adc_read_channel   text996      17BC
__end_of_calibrateIR        text976      0A9D
__end_of_init               text979      16E3
__end_of_init_adc           text995      1547
__end_of_isr1               text1007     0DE2
__end_of_lcd_init           text982      15D7
__end_of_lcd_set_cursor     text984      14D6
__end_of_lcd_write_control  text994      1531
__end_of_lcd_write_data     text993      14F6
__end_of_lcd_write_string   text983      1686
__end_of_main               maintext     0449
__end_of_readAvgDistance    text978      0BF7
__end_of_readDistance       text980      155D
__end_of_robo_init          text992      07F7
__end_of_robotFollow        text973      05C3
__end_of_robotMoveSpeed     text974      07DE
__end_of_robotTurn          text986      0B79
__end_of_robotTurnSpeed     text975      0D37
__end_of_robot_read         text981      1000
__end_of_rotate             text991      0A3F
__end_of_ser_getch          text988      165A
__end_of_ser_init           text1005     16B4
__end_of_ser_isrx           text1001     08CC
__end_of_ser_putch          text1003     1583
__end_of_spi_transfer       text1002     151D
__end_of_sprintf            text989      0EE2
__end_ofi1___lwmod          text1009     1800
__pbitbssCOMMON             bitbssCOMMON 0380
__pbssBANK0                 bssBANK0     006C
__pbssBANK1                 bssBANK1     00A0
__pbssBANK3                 bssBANK3     0190
__pbssCOMMON                bssCOMMON    007D
__pcstackBANK0              cstackBANK0  0020
__pcstackCOMMON             cstackCOMMON 0072
__pdataBANK1                dataBANK1    00DC
__pidataBANK1               idataBANK1   14D6
__pintentry                 intentry     0004
__pmaintext                 maintext     0238
__pstrings                  strings      0800
__ptext1000                 text1000     1602
__ptext1001                 text1001     08B3
__ptext1002                 text1002     1509
__ptext1003                 text1003     155D
__ptext1004                 text1004     0958
__ptext1005                 text1005     1686
__ptext1006                 text1006     1583
__ptext1007                 text1007     0D37
__ptext1008                 text1008     16E3
__ptext1009                 text1009     17BC
__ptext1010                 text1010     0BF7
__ptext1011                 text1011     0000
__ptext972                  text972      0912
__ptext973                  text973      0449
__ptext974                  text974      0722
__ptext975                  text975      0C8F
__ptext976                  text976      0A3F
__ptext977                  text977      05C3
__ptext978                  text978      0B79
__ptext979                  text979      16B4
__ptext980                  text980      1547
__ptext981                  text981      0EE2
__ptext982                  text982      15AC
__ptext983                  text983      165A
__ptext984                  text984      14CB
__ptext985                  text985      1713
__ptext986                  text986      0B05
__ptext987                  text987      1748
__ptext988                  text988      162E
__ptext989                  text989      0DE2
__ptext990                  text990      0015
__ptext991                  text991      09EF
__ptext992                  text992      07DE
__ptext993                  text993      14E3
__ptext994                  text994      151D
__ptext995                  text995      1531
__ptext996                  text996      1781
__ptext997                  text997      0A9D
__ptext998                  text998      08CC
__ptext999                  text999      099F
__size_of_ADCconvert        (abs)        0000
__size_of_ChargeMode        (abs)        0000
__size_of_Debounce          (abs)        0000
__size_of_Menu              (abs)        0000
__size_of_ReadButtons       (abs)        0000
__size_of_RobotDrive        (abs)        0000
__size_of_UpdateDisplay     (abs)        0000
__size_of___awmod           (abs)        0000
__size_of___lwdiv           (abs)        0000
__size_of___lwmod           (abs)        0000
__size_of___wmul            (abs)        0000
__size_of_abs               (abs)        0000
__size_of_adc_read          (abs)        0000
__size_of_adc_read_channel  (abs)        0000
__size_of_calibrateIR       (abs)        0000
__size_of_init              (abs)        0000
__size_of_init_adc          (abs)        0000
__size_of_isr1              (abs)        0000
__size_of_lcd_init          (abs)        0000
__size_of_lcd_set_cursor    (abs)        0000
__size_of_lcd_write_control (abs)        0000
__size_of_lcd_write_data    (abs)        0000
__size_of_lcd_write_string  (abs)        0000
__size_of_main              (abs)        0000
__size_of_readAvgDistance   (abs)        0000
__size_of_readDistance      (abs)        0000
__size_of_robo_init         (abs)        0000
__size_of_robotFollow       (abs)        0000
__size_of_robotMoveSpeed    (abs)        0000
__size_of_robotTurn         (abs)        0000
__size_of_robotTurnSpeed    (abs)        0000
__size_of_robot_read        (abs)        0000
__size_of_rotate            (abs)        0000
__size_of_ser_getch         (abs)        0000
__size_of_ser_init          (abs)        0000
__size_of_ser_isrx          (abs)        0000
__size_of_ser_putch         (abs)        0000
__size_of_spi_transfer      (abs)        0000
__size_of_sprintf           (abs)        0000
__size_ofi1___lwmod         (abs)        0000
_abs                        text985      1713
_adcVal                     bssBANK0     006C
_adc_read                   text1006     1583
_adc_read_channel           text996      1781
_angleTurned                bssBANK1     00BA
_buttonPressed              bssCOMMON    007D
_calibrateIR                text976      0A3F
_currentMenu                bssBANK1     00D3
_current_step               dataBANK1    00E8
_distTravelled              bssBANK1     00BC
_dist_high                  bssBANK1     00BE
_dist_low                   bssBANK1     00C0
_dpowers                    strings      0810
_exit                       init         0012
_highByte                   bssBANK1     00D4
_init                       text979      16B4
_init_adc                   text995      1531
_isr1                       text1007     0D37
_lcd_init                   text982      15AC
_lcd_set_cursor             text984      14CB
_lcd_write_control          text994      151D
_lcd_write_data             text993      14E3
_lcd_write_string           text983      165A
_lowByte                    bssBANK1     00D5
_main                       maintext     0238
_menuStrings                dataBANK1    00DC
_pos                        bssBANK1     00C2
_readAvgDistance            text978      0B79
_readDistance               text980      1547
_robo_init                  text992      07DE
_robotFollow                text973      0449
_robotMoveSpeed             text974      0722
_robotTurn                  text986      0B05
_robotTurnSpeed             text975      0C8F
_robot_read                 text981      0EE2
_rotate                     text991      09EF
_rxfifo                     bssBANK1     00A0
_rxiptr                     bssBANK1     00D6
_rxoptr                     bssBANK1     00D7
_ser_getch                  text988      162E
_ser_init                   text1005     1686
_ser_isrx                   text1001     08B3
_ser_putch                  text1003     155D
_ser_tmp                    bssBANK1     00D8
_shortMenuStrings           dataBANK1    00E2
_spi_transfer               text1002     1509
_sprintf                    text989      0DE2
_total                      bssBANK1     00C4
_totalSteps                 bssBANK1     00C6
_turnhighByte               bssBANK1     00D9
_turnlowByte                bssBANK1     00DA
_txfifo                     bssBANK3     01A0
_txiptr                     bssBANK0     006F
_txoptr                     bssBANK1     00DB
abs@v                       cstackBANK0  0026
adc_read@adc_value          cstackBANK0  0024
adc_read_channel@channel    cstackBANK0  0027
btemp                       (abs)        007E
clear_ram                   clrtext      07F7
end_of_initialization       cinit        15FE
i1___lwmod                  text1009     17BC
i1___lwmod@counter          cstackCOMMON 0077
i1___lwmod@dividend         cstackCOMMON 0074
i1___lwmod@divisor          cstackCOMMON 0072
init_fetch                  inittext     14F6
init_ram                    inittext     14FA
interrupt_function          intentry     0004
intlevel0                   functab      0000
intlevel1                   functab      0000
intlevel2                   functab      0000
intlevel3                   functab      0000
intlevel4                   functab      0000
intlevel5                   functab      0000
lcd_set_cursor@address      cstackBANK0  0023
lcd_write_control@databyte  cstackBANK0  0022
lcd_write_data@databyte     cstackBANK0  0022
lcd_write_string@s          cstackBANK0  0027
main@a                      cstackBANK0  0069
main@choice                 cstackBANK0  006B
main@shortwall              cstackBANK0  0067
readAvgDistance@fullval     cstackBANK0  0030
readAvgDistance@i           cstackBANK0  0036
readAvgDistance@j           cstackBANK0  0032
readAvgDistance@tempIR      cstackBANK0  0034
readDistance@readVal        cstackBANK0  002C
reset_vec                   reset_vec    0000
robotFollow@AdcTarget       cstackBANK0  005D
robotFollow@distance        cstackBANK0  0059
robotFollow@speed           cstackBANK0  005B
robotFollow@temp1           cstackBANK0  0062
robotMoveSpeed@distance     cstackBANK0  0059
robotMoveSpeed@speed        cstackBANK0  005B
robotMoveSpeed@temp1        cstackBANK0  0060
robotTurn@angle             cstackBANK0  0022
robotTurnSpeed@angle        cstackBANK0  0059
robotTurnSpeed@speed        cstackBANK0  005B
robotTurnSpeed@temp1        cstackBANK0  0060
robot_read@readType         cstackBANK0  0024
rotate@direction            cstackBANK0  0025
rotate@i                    cstackBANK0  0028
rotate@numsteps             cstackBANK0  0023
saved_w                     (abs)        007E
ser_getch@c                 cstackBANK0  0021
ser_putch@c                 cstackBANK0  0021
spi_transfer@data           cstackBANK0  0022
spi_transfer@temp           cstackBANK0  0021
sprintf@_val                cstackBANK0  003F
sprintf@ap                  cstackBANK0  003C
sprintf@c                   cstackBANK0  0044
sprintf@f                   cstackBANK0  0034
sprintf@flag                cstackBANK0  003D
sprintf@prec                cstackBANK0  003E
sprintf@sp                  cstackBANK0  0043
start                       init         0012
start_initialization        cinit        15D7
wtemp0                      (abs)        007E
