

HI-TECH Software PIC LITE Macro Assembler V9.83 build 10920 
                                                                                               Fri Apr 17 13:14:47 2015

HI-TECH Software Omniscient Code Generator (Lite mode) build 10920
     1  0000                     opt subtitle "HI-TECH Software Omniscient Code Generator (Lite mode) build 10920"
     2                           
     3                           opt pagewidth 120
     4                           
     5                           	opt lm
     6                           
     7                           	processor	16F877A
     8                           clrc	macro
     9                           	bcf	3,0
    10  0000                     	endm
    11                           clrz	macro
    12                           	bcf	3,2
    13  0000                     	endm
    14                           setc	macro
    15                           	bsf	3,0
    16  0000                     	endm
    17                           setz	macro
    18                           	bsf	3,2
    19  0000                     	endm
    20                           skipc	macro
    21                           	btfss	3,0
    22  0000                     	endm
    23                           skipz	macro
    24                           	btfss	3,2
    25  0000                     	endm
    26                           skipnc	macro
    27                           	btfsc	3,0
    28  0000                     	endm
    29                           skipnz	macro
    30                           	btfsc	3,2
    31  0000                     	endm
    32  0000                     indf	equ	0
    33  0000                     indf0	equ	0
    34  0002                     pc	equ	2
    35  0002                     pcl	equ	2
    36  0003                     status	equ	3
    37  0004                     fsr	equ	4
    38  0004                     fsr0	equ	4
    39  0001                     c	equ	1
    40  0000                     z	equ	0
    41  000A                     pclath	equ	10
    42                           # 34 "H:\Aldnoah.Zero\trunk\Assignment3\Main.c"
    43                           	psect config,class=CONFIG,delta=2 ;#
    44                           # 34 "H:\Aldnoah.Zero\trunk\Assignment3\Main.c"
    45  2007  FF32               	dw 0xFFFE & 0xFFFB & 0xFFFF & 0xFFBF & 0xFFF7 & 0xFFFF & 0xFF7F & 0xFFFF ;#
    46                           	FNCALL	_main,_init
    47                           	FNCALL	_main,_Menu
    48                           	FNCALL	_init,_init_adc
    49                           	FNCALL	_init,_lcd_init
    50                           	FNCALL	_init,_ser_init
    51                           	FNCALL	_lcd_init,_lcd_write_control
    52                           	FNROOT	_main
    53                           	FNCALL	_isr1,___lwmod
    54                           	FNCALL	_isr1,_readAvgDistance
    55                           	FNCALL	_isr1,_UpdateDisplay
    56                           	FNCALL	_isr1,_ReadButtons
    57                           	FNCALL	_UpdateDisplay,i1_lcd_write_control
    58                           	FNCALL	_UpdateDisplay,_sprintf
    59                           	FNCALL	_UpdateDisplay,_lcd_set_cursor
    60                           	FNCALL	_UpdateDisplay,_lcd_write_string
    61                           	FNCALL	_UpdateDisplay,___awmod
    62                           	FNCALL	_readAvgDistance,_readDistance
    63                           	FNCALL	_readAvgDistance,___lwdiv
    64                           	FNCALL	_readAvgDistance,_ADCconvert
    65                           	FNCALL	_ADCconvert,___lwtoft
    66                           	FNCALL	_ADCconvert,___ftge
    67                           	FNCALL	_ADCconvert,___ftneg
    68                           	FNCALL	_ADCconvert,___ftadd
    69                           	FNCALL	_ADCconvert,___ftmul
    70                           	FNCALL	_ADCconvert,___ftdiv
    71                           	FNCALL	_ADCconvert,___fttol
    72                           	FNCALL	_ADCconvert,___wmul
    73                           	FNCALL	_ADCconvert,___lwdiv
    74                           	FNCALL	_readDistance,_adc_read_channel
    75                           	FNCALL	_lcd_write_string,_lcd_write_data
    76                           	FNCALL	_lcd_set_cursor,i1_lcd_write_control
    77                           	FNCALL	___lwtoft,___ftpack
    78                           	FNCALL	___ftmul,___ftpack
    79                           	FNCALL	___ftdiv,___ftpack
    80                           	FNCALL	___ftadd,___ftpack
    81                           	FNCALL	_sprintf,___lwdiv
    82                           	FNCALL	_sprintf,___lwmod
    83                           	FNCALL	_ReadButtons,_Debounce
    84                           	FNCALL	_adc_read_channel,_adc_read
    85                           	FNCALL	intlevel1,_isr1
    86                           	global	intlevel1
    87                           	FNROOT	intlevel1
    88                           	global	_menuStrings
    89                           	global	_shortMenuStrings
    90                           	global	_current_step
    91                           psect	idataBANK1,class=CODE,space=0,delta=2
    92                           global __pidataBANK1
    93  1634                     __pidataBANK1:
    94                           	file	"H:\Aldnoah.Zero\trunk\Assignment3\HMI.c"
    95                           	line	34
    96                           
    97                           ;initializer for _menuStrings
    98  1634  341A               	retlw	(STR_1-__stringbase)&0ffh
    99  1635  3421               	retlw	(STR_2-__stringbase)&0ffh
   100  1636  3428               	retlw	(STR_3-__stringbase)&0ffh
   101  1637  342F               	retlw	(STR_4-__stringbase)&0ffh
   102  1638  3436               	retlw	(STR_5-__stringbase)&0ffh
   103                           	line	35
   104                           
   105                           ;initializer for _shortMenuStrings
   106  1639  343D               	retlw	(STR_6-__stringbase)&0ffh
   107  163A  3441               	retlw	(STR_7-__stringbase)&0ffh
   108  163B  3445               	retlw	(STR_8-__stringbase)&0ffh
   109  163C  3449               	retlw	(STR_9-__stringbase)&0ffh
   110  163D  344D               	retlw	(STR_10-__stringbase)&0ffh
   111                           	file	"E:\Aldnoah.Zero\Assignment3\steppermotor.c"
   112                           	line	21
   113                           
   114                           ;initializer for _current_step
   115  163E  343C               	retlw	03Ch
   116                           	global	_dpowers
   117                           psect	strings,class=STRING,delta=2
   118                           global __pstrings
   119  0800                     __pstrings:
   120                           ;	global	stringdir,stringtab,__stringbase
   121  0800                     stringtab:
   122                           ;	String table - string pointers are 1 byte each
   123  0800  1BFF               	btfsc	(btemp+1),7
   124  0801  280A               	ljmp	stringcode
   125  0802  1383               	bcf	status,7
   126  0803  187F               	btfsc	(btemp+1),0
   127  0804  1783               	bsf	status,7
   128  0805  0800               	movf	indf,w
   129  0806  0A84               	incf fsr
   130  0807  1903               skipnz
   131  0808  0AFF               incf btemp+1
   132  0809  0008               	return
   133  080A                     stringcode:stringdir:
      + 080A                     stringdir:	
   134  080A  3008               movlw high(stringdir)
   135  080B  008A               movwf pclath
   136  080C  0804               movf fsr,w
   137  080D  0A84               incf fsr
   138  080E  0782               	addwf pc
   139  080F                     __stringbase:
   140  080F  3400               	retlw	0
   141                           psect	strings
   142                           	file	"C:\Program Files (x86)\HI-TECH Software\PICC\9.83\lib\doprnt.c"
   143                           	line	350
   144  0810                     _dpowers:
   145  0810  3401               	retlw	01h
   146  0811  3400               	retlw	0
   147                           
   148  0812  340A               	retlw	0Ah
   149  0813  3400               	retlw	0
   150                           
   151  0814  3464               	retlw	064h
   152  0815  3400               	retlw	0
   153                           
   154  0816  34E8               	retlw	0E8h
   155  0817  3403               	retlw	03h
   156                           
   157  0818  3410               	retlw	010h
   158  0819  3427               	retlw	027h
   159                           
   160                           	global	_dpowers
   161                           	global	_adcVal
   162                           	global	_rxiptr
   163                           	global	_txiptr
   164                           	global	_CenterPressed
   165                           	global	_CenterReleased
   166                           	global	_DownPressed
   167                           	global	_DownReleased
   168                           	global	_LeftPressed
   169                           	global	_LeftReleased
   170                           	global	_RTC_FLAG_10MS
   171                           	global	_RTC_FLAG_1MS
   172                           	global	_RTC_FLAG_250MS
   173                           	global	_RTC_FLAG_500MS
   174                           	global	_RTC_FLAG_50MS
   175                           	global	_RightPressed
   176                           	global	_RightReleased
   177                           	global	_UpPressed
   178                           	global	_UpReleased
   179                           	global	UpdateDisplay@F1206
   180                           	global	_rxfifo
   181                           	global	_txfifo
   182                           	global	_RTC_Counter
   183                           	global	_distance
   184                           	global	_pos
   185                           	global	_CenterDebounceCount
   186                           	global	_DownDebounceCount
   187                           	global	_LeftDebounceCount
   188                           	global	_RightDebounceCount
   189                           	global	_UpDebounceCount
   190                           	global	_buttonPressed
   191                           	global	_current_direction
   192                           	global	_rxoptr
   193                           	global	_ser_tmp
   194                           	global	_txoptr
   195                           	global	_ADCON0
   196  001F                     _ADCON0	set	31
   197                           	global	_ADRESH
   198  001E                     _ADRESH	set	30
   199                           	global	_PORTA
   200  0005                     _PORTA	set	5
   201                           	global	_PORTC
   202  0007                     _PORTC	set	7
   203                           	global	_PORTD
   204  0008                     _PORTD	set	8
   205                           	global	_PORTE
   206  0009                     _PORTE	set	9
   207                           	global	_RCREG
   208  001A                     _RCREG	set	26
   209                           	global	_TMR0
   210  0001                     _TMR0	set	1
   211                           	global	_TXREG
   212  0019                     _TXREG	set	25
   213                           	global	_CARRY
   214  0018                     _CARRY	set	24
   215                           	global	_CHS0
   216  00FB                     _CHS0	set	251
   217                           	global	_CHS1
   218  00FC                     _CHS1	set	252
   219                           	global	_CHS2
   220  00FD                     _CHS2	set	253
   221                           	global	_CREN
   222  00C4                     _CREN	set	196
   223                           	global	_GIE
   224  005F                     _GIE	set	95
   225                           	global	_GO
   226  00FA                     _GO	set	250
   227                           	global	_OERR
   228  00C1                     _OERR	set	193
   229                           	global	_RB0
   230  0030                     _RB0	set	48
   231                           	global	_RB1
   232  0031                     _RB1	set	49
   233                           	global	_RB2
   234  0032                     _RB2	set	50
   235                           	global	_RB3
   236  0033                     _RB3	set	51
   237                           	global	_RB4
   238  0034                     _RB4	set	52
   239                           	global	_RB5
   240  0035                     _RB5	set	53
   241                           	global	_RB6
   242  0036                     _RB6	set	54
   243                           	global	_RCIF
   244  0065                     _RCIF	set	101
   245                           	global	_RE0
   246  0048                     _RE0	set	72
   247                           	global	_RE1
   248  0049                     _RE1	set	73
   249                           	global	_RE2
   250  004A                     _RE2	set	74
   251                           	global	_RX9
   252  00C6                     _RX9	set	198
   253                           	global	_SPEN
   254  00C7                     _SPEN	set	199
   255                           	global	_TMR0IE
   256  005D                     _TMR0IE	set	93
   257                           	global	_TMR0IF
   258  005A                     _TMR0IF	set	90
   259                           	global	_TXIF
   260  0064                     _TXIF	set	100
   261                           	global	_ADCON1
   262  009F                     _ADCON1	set	159
   263                           	global	_ADRESL
   264  009E                     _ADRESL	set	158
   265                           	global	_OPTION_REG
   266  0081                     _OPTION_REG	set	129
   267                           	global	_SPBRG
   268  0099                     _SPBRG	set	153
   269                           	global	_TRISA
   270  0085                     _TRISA	set	133
   271                           	global	_TRISB
   272  0086                     _TRISB	set	134
   273                           	global	_TRISC
   274  0087                     _TRISC	set	135
   275                           	global	_TRISD
   276  0088                     _TRISD	set	136
   277                           	global	_TRISE
   278  0089                     _TRISE	set	137
   279                           	global	_BRGH
   280  04C2                     _BRGH	set	1218
   281                           	global	_RCIE
   282  0465                     _RCIE	set	1125
   283                           	global	_SYNC
   284  04C4                     _SYNC	set	1220
   285                           	global	_TX9
   286  04C6                     _TX9	set	1222
   287                           	global	_TXEN
   288  04C5                     _TXEN	set	1221
   289                           	global	_TXIE
   290  0464                     _TXIE	set	1124
   291                           	global	_EEADR
   292  010D                     _EEADR	set	269
   293                           	global	_EEDATA
   294  010C                     _EEDATA	set	268
   295                           	global	_EECON1
   296  018C                     _EECON1	set	396
   297                           	global	_EECON2
   298  018D                     _EECON2	set	397
   299                           	global	_RD
   300  0C60                     _RD	set	3168
   301                           	global	_WR
   302  0C61                     _WR	set	3169
   303                           	global	_WREN
   304  0C62                     _WREN	set	3170
   305                           	
   306  081A                     STR_11:	
   307  081A  3441               	retlw	65	;'A'
   308  081B  3444               	retlw	68	;'D'
   309  081C  3443               	retlw	67	;'C'
   310  081D  343A               	retlw	58	;':'
   311  081E  3425               	retlw	37	;'%'
   312  081F  3464               	retlw	100	;'d'
   313  0820  3420               	retlw	32	;' '
   314  0821  3444               	retlw	68	;'D'
   315  0822  3469               	retlw	105	;'i'
   316  0823  3473               	retlw	115	;'s'
   317  0824  3474               	retlw	116	;'t'
   318  0825  343A               	retlw	58	;':'
   319  0826  3425               	retlw	37	;'%'
   320  0827  3464               	retlw	100	;'d'
   321  0828  3400               	retlw	0
   322                           psect	strings
   323                           	
   324  0829                     STR_1:	
   325  0829  3454               	retlw	84	;'T'
   326  082A  3468               	retlw	104	;'h'
   327  082B  3469               	retlw	105	;'i'
   328  082C  346E               	retlw	110	;'n'
   329  082D  3467               	retlw	103	;'g'
   330  082E  3431               	retlw	49	;'1'
   331  082F  3400               	retlw	0
   332                           psect	strings
   333                           	
   334  0830                     STR_2:	
   335  0830  3454               	retlw	84	;'T'
   336  0831  3468               	retlw	104	;'h'
   337  0832  3469               	retlw	105	;'i'
   338  0833  346E               	retlw	110	;'n'
   339  0834  3467               	retlw	103	;'g'
   340  0835  3432               	retlw	50	;'2'
   341  0836  3400               	retlw	0
   342                           psect	strings
   343                           	
   344  0837                     STR_3:	
   345  0837  3454               	retlw	84	;'T'
   346  0838  3468               	retlw	104	;'h'
   347  0839  3469               	retlw	105	;'i'
   348  083A  346E               	retlw	110	;'n'
   349  083B  3467               	retlw	103	;'g'
   350  083C  3433               	retlw	51	;'3'
   351  083D  3400               	retlw	0
   352                           psect	strings
   353                           	
   354  083E                     STR_4:	
   355  083E  3454               	retlw	84	;'T'
   356  083F  3468               	retlw	104	;'h'
   357  0840  3469               	retlw	105	;'i'
   358  0841  346E               	retlw	110	;'n'
   359  0842  3467               	retlw	103	;'g'
   360  0843  3434               	retlw	52	;'4'
   361  0844  3400               	retlw	0
   362                           psect	strings
   363                           	
   364  0845                     STR_5:	
   365  0845  3454               	retlw	84	;'T'
   366  0846  3468               	retlw	104	;'h'
   367  0847  3469               	retlw	105	;'i'
   368  0848  346E               	retlw	110	;'n'
   369  0849  3467               	retlw	103	;'g'
   370  084A  3435               	retlw	53	;'5'
   371  084B  3400               	retlw	0
   372                           psect	strings
   373                           	
   374  084C                     STR_6:	
   375  084C  3454               	retlw	84	;'T'
   376  084D  3468               	retlw	104	;'h'
   377  084E  3431               	retlw	49	;'1'
   378  084F  3400               	retlw	0
   379                           psect	strings
   380                           	
   381  0850                     STR_7:	
   382  0850  3454               	retlw	84	;'T'
   383  0851  3468               	retlw	104	;'h'
   384  0852  3432               	retlw	50	;'2'
   385  0853  3400               	retlw	0
   386                           psect	strings
   387                           	
   388  0854                     STR_8:	
   389  0854  3454               	retlw	84	;'T'
   390  0855  3468               	retlw	104	;'h'
   391  0856  3433               	retlw	51	;'3'
   392  0857  3400               	retlw	0
   393                           psect	strings
   394                           	
   395  0858                     STR_9:	
   396  0858  3454               	retlw	84	;'T'
   397  0859  3468               	retlw	104	;'h'
   398  085A  3434               	retlw	52	;'4'
   399  085B  3400               	retlw	0
   400                           psect	strings
   401                           	
   402  085C                     STR_10:	
   403  085C  3454               	retlw	84	;'T'
   404  085D  3468               	retlw	104	;'h'
   405  085E  3435               	retlw	53	;'5'
   406  085F  3400               	retlw	0
   407                           psect	strings
   408                           	file	"Assignment3_AldnoahZero.as"
   409                           	line	#
   410                           psect cinit,class=CODE,delta=2
   411                           global start_initialization
   412  16E0                     start_initialization:
   413                           
   414                           psect	bitbssBANK0,class=BANK0,bit,space=1
   415                           global __pbitbssBANK0
   416  0350                     __pbitbssBANK0:
   417  0350                     _CenterPressed:
   418  0350                            ds      1
   419                           
   420  0351                     _CenterReleased:
   421  0351                            ds      1
   422                           
   423  0352                     _DownPressed:
   424  0352                            ds      1
   425                           
   426  0353                     _DownReleased:
   427  0353                            ds      1
   428                           
   429  0354                     _LeftPressed:
   430  0354                            ds      1
   431                           
   432  0355                     _LeftReleased:
   433  0355                            ds      1
   434                           
   435  0356                     _RTC_FLAG_10MS:
   436  0356                            ds      1
   437                           
   438  0357                     _RTC_FLAG_1MS:
   439  0357                            ds      1
   440                           
   441  0358                     _RTC_FLAG_250MS:
   442  0358                            ds      1
   443                           
   444  0359                     _RTC_FLAG_500MS:
   445  0359                            ds      1
   446                           
   447  035A                     _RTC_FLAG_50MS:
   448  035A                            ds      1
   449                           
   450  035B                     _RightPressed:
   451  035B                            ds      1
   452                           
   453  035C                     _RightReleased:
   454  035C                            ds      1
   455                           
   456  035D                     _UpPressed:
   457  035D                            ds      1
   458                           
   459  035E                     _UpReleased:
   460  035E                            ds      1
   461                           
   462                           psect	bssBANK0,class=BANK0,space=1
   463                           global __pbssBANK0
   464  006C                     __pbssBANK0:
   465  006C                     _adcVal:
   466  006C                            ds      2
   467                           
   468  006E                     _rxiptr:
   469  006E                            ds      1
   470                           
   471  006F                     _txiptr:
   472  006F                            ds      1
   473                           
   474                           psect	bssBANK1,class=BANK1,space=1
   475                           global __pbssBANK1
   476  00A0                     __pbssBANK1:
   477  00A0                     UpdateDisplay@F1206:
   478  00A0                            ds      16
   479                           
   480  00B0                     _rxfifo:
   481  00B0                            ds      16
   482                           
   483  00C0                     _txfifo:
   484  00C0                            ds      16
   485                           
   486  00D0                     _RTC_Counter:
   487  00D0                            ds      2
   488                           
   489  00D2                     _distance:
   490  00D2                            ds      2
   491                           
   492  00D4                     _pos:
   493  00D4                            ds      2
   494                           
   495  00D6                     _CenterDebounceCount:
   496  00D6                            ds      1
   497                           
   498  00D7                     _DownDebounceCount:
   499  00D7                            ds      1
   500                           
   501  00D8                     _LeftDebounceCount:
   502  00D8                            ds      1
   503                           
   504  00D9                     _RightDebounceCount:
   505  00D9                            ds      1
   506                           
   507  00DA                     _UpDebounceCount:
   508  00DA                            ds      1
   509                           
   510  00DB                     _buttonPressed:
   511  00DB                            ds      1
   512                           
   513  00DC                     _current_direction:
   514  00DC                            ds      1
   515                           
   516  00DD                     _rxoptr:
   517  00DD                            ds      1
   518                           
   519  00DE                     _ser_tmp:
   520  00DE                            ds      1
   521                           
   522  00DF                     _txoptr:
   523  00DF                            ds      1
   524                           
   525                           psect	dataBANK1,class=BANK1,space=1
   526                           global __pdataBANK1
   527  00E0                     __pdataBANK1:
   528                           	file	"H:\Aldnoah.Zero\trunk\Assignment3\HMI.c"
   529                           	line	34
   530  00E0                     _menuStrings:
   531  00E0                            ds      5
   532                           
   533                           psect	dataBANK1
   534                           	file	"H:\Aldnoah.Zero\trunk\Assignment3\HMI.c"
   535                           	line	35
   536  00E5                     _shortMenuStrings:
   537  00E5                            ds      5
   538                           
   539                           psect	dataBANK1
   540                           	file	"E:\Aldnoah.Zero\Assignment3\steppermotor.c"
   541                           	line	21
   542  00EA                     _current_step:
   543  00EA                            ds      1
   544                           
   545                           psect clrtext,class=CODE,delta=2
   546                           global clear_ram
   547                           ;	Called with FSR containing the base address, and
   548                           ;	W with the last address+1
   549  1623                     clear_ram:
   550  1623  0064               	clrwdt			;clear the watchdog before getting into this loop
   551  1624                     clrloop:
   552  1624  0180               	clrf	indf		;clear RAM location pointed to by FSR
   553  1625  0A84               	incf	fsr,f		;increment pointer
   554  1626  0604               	xorwf	fsr,w		;XOR with final address
   555  1627  1903               	btfsc	status,2	;have we reached the end yet?
   556  1628  3400               	retlw	0		;all done for this memory range, return
   557  1629  0604               	xorwf	fsr,w		;XOR again to restore value
   558  162A  2E24               	goto	clrloop		;do the next byte
   559                           
   560                           ; Clear objects allocated to BITBANK0
   561                           psect cinit,class=CODE,delta=2
   562  16E0  01EA               	clrf	((__pbitbssBANK0/8)+0)&07Fh
   563  16E1  01EB               	clrf	((__pbitbssBANK0/8)+1)&07Fh
   564                           ; Clear objects allocated to BANK0
   565                           psect cinit,class=CODE,delta=2
   566  16E2  01EC               	clrf	((__pbssBANK0)+0)&07Fh
   567  16E3  01ED               	clrf	((__pbssBANK0)+1)&07Fh
   568  16E4  01EE               	clrf	((__pbssBANK0)+2)&07Fh
   569  16E5  01EF               	clrf	((__pbssBANK0)+3)&07Fh
   570                           ; Clear objects allocated to BANK1
   571                           psect cinit,class=CODE,delta=2
   572  16E6  1383               	bcf	status, 7	;select IRP bank0
   573  16E7  30A0               	movlw	low(__pbssBANK1)
   574  16E8  0084               	movwf	fsr
   575  16E9  30E0               	movlw	low((__pbssBANK1)+040h)
   576  16EA  160A  118A  2623   	fcall	clear_ram
              160A  118A         
   577                           global btemp
   578                           psect inittext,class=CODE,delta=2
   579                           global init_fetch,btemp
   580                           ;	Called with low address in FSR and high address in W
   581  165E                     init_fetch:
   582  165E  087E               	movf btemp,w
   583  165F  008A               	movwf pclath
   584  1660  087F               	movf btemp+1,w
   585  1661  0082               	movwf pc
   586                           global init_ram
   587                           ;Called with:
   588                           ;	high address of idata address in btemp 
   589                           ;	low address of idata address in btemp+1 
   590                           ;	low address of data in FSR
   591                           ;	high address + 1 of data in btemp-1
   592  1662                     init_ram:
   593  1662  160A  118A  265E   	fcall init_fetch
              160A  118A         
   594  1667  0080               	movwf indf,f
   595  1668  0A84               	incf fsr,f
   596  1669  0804               	movf fsr,w
   597  166A  067D               	xorwf btemp-1,w
   598  166B  1903               	btfsc status,2
   599  166C  3400               	retlw 0
   600  166D  0AFF               	incf btemp+1,f
   601  166E  1903               	btfsc status,2
   602  166F  0AFE               	incf btemp,f
   603  1670  2E62               	goto init_ram
   604                           ; Initialize objects allocated to BANK1
   605                           psect cinit,class=CODE,delta=2
   606                           global init_ram, __pidataBANK1
   607  16EF  30EB               	movlw low(__pdataBANK1+11)
   608  16F0  00FD               	movwf btemp-1,f
   609  16F1  3016               	movlw high(__pidataBANK1)
   610  16F2  00FE               	movwf btemp,f
   611  16F3  3034               	movlw low(__pidataBANK1)
   612  16F4  00FF               	movwf btemp+1,f
   613  16F5  30E0               	movlw low(__pdataBANK1)
   614  16F6  0084               	movwf fsr,f
   615  16F7  160A  118A  2662   	fcall init_ram
              160A  118A         
   616                           psect cinit,class=CODE,delta=2
   617                           global end_of_initialization
   618                           
   619                           ;End of C runtime variable initialization code
   620                           
   621  16FC                     end_of_initialization:
   622  16FC  0183               clrf status
   623  16FD  120A  158A  2A66   ljmp _main	;jump to C main() function
   624                           psect	cstackBANK1,class=BANK1,space=1
   625                           global __pcstackBANK1
   626  00EB                     __pcstackBANK1:
   627                           	global	??_ser_init
   628  00EB                     ??_ser_init:	; 0 bytes @ 0x0
   629                           	global	??_Menu
   630  00EB                     ??_Menu:	; 0 bytes @ 0x0
   631                           	global	??_init_adc
   632  00EB                     ??_init_adc:	; 0 bytes @ 0x0
   633                           	global	??_lcd_write_control
   634  00EB                     ??_lcd_write_control:	; 0 bytes @ 0x0
   635                           	global	Menu@input
   636  00EB                     Menu@input:	; 1 bytes @ 0x0
   637  00EB                     	ds	2
   638                           	global	lcd_write_control@databyte
   639  00ED                     lcd_write_control@databyte:	; 1 bytes @ 0x2
   640  00ED                     	ds	1
   641                           	global	??_lcd_init
   642  00EE                     ??_lcd_init:	; 0 bytes @ 0x3
   643                           	global	??_init
   644  00EE                     ??_init:	; 0 bytes @ 0x3
   645                           	global	??_main
   646  00EE                     ??_main:	; 0 bytes @ 0x3
   647                           psect	cstackCOMMON,class=COMMON,space=1
   648                           global __pcstackCOMMON
   649  0070                     __pcstackCOMMON:
   650                           	global	?_readAvgDistance
   651  0070                     ?_readAvgDistance:	; 0 bytes @ 0x0
   652                           	global	?_UpdateDisplay
   653  0070                     ?_UpdateDisplay:	; 0 bytes @ 0x0
   654                           	global	?_ser_init
   655  0070                     ?_ser_init:	; 0 bytes @ 0x0
   656                           	global	?_Menu
   657  0070                     ?_Menu:	; 0 bytes @ 0x0
   658                           	global	?_ADCconvert
   659  0070                     ?_ADCconvert:	; 0 bytes @ 0x0
   660                           	global	?_init_adc
   661  0070                     ?_init_adc:	; 0 bytes @ 0x0
   662                           	global	?_lcd_write_control
   663  0070                     ?_lcd_write_control:	; 0 bytes @ 0x0
   664                           	global	?_lcd_write_data
   665  0070                     ?_lcd_write_data:	; 0 bytes @ 0x0
   666                           	global	??_lcd_write_data
   667  0070                     ??_lcd_write_data:	; 0 bytes @ 0x0
   668                           	global	?_lcd_set_cursor
   669  0070                     ?_lcd_set_cursor:	; 0 bytes @ 0x0
   670                           	global	?_lcd_init
   671  0070                     ?_lcd_init:	; 0 bytes @ 0x0
   672                           	global	?_isr1
   673  0070                     ?_isr1:	; 0 bytes @ 0x0
   674                           	global	?_init
   675  0070                     ?_init:	; 0 bytes @ 0x0
   676                           	global	?_main
   677  0070                     ?_main:	; 0 bytes @ 0x0
   678                           	global	?_Debounce
   679  0070                     ?_Debounce:	; 0 bytes @ 0x0
   680                           	global	??_Debounce
   681  0070                     ??_Debounce:	; 0 bytes @ 0x0
   682                           	global	?i1_lcd_write_control
   683  0070                     ?i1_lcd_write_control:	; 0 bytes @ 0x0
   684                           	global	??i1_lcd_write_control
   685  0070                     ??i1_lcd_write_control:	; 0 bytes @ 0x0
   686                           	global	?_ReadButtons
   687  0070                     ?_ReadButtons:	; 1 bytes @ 0x0
   688                           	global	?_adc_read_channel
   689  0070                     ?_adc_read_channel:	; 1 bytes @ 0x0
   690                           	global	?_adc_read
   691  0070                     ?_adc_read:	; 2 bytes @ 0x0
   692                           	global	?___wmul
   693  0070                     ?___wmul:	; 2 bytes @ 0x0
   694                           	global	?___awmod
   695  0070                     ?___awmod:	; 2 bytes @ 0x0
   696                           	global	?___ftpack
   697  0070                     ?___ftpack:	; 3 bytes @ 0x0
   698                           	global	___wmul@multiplier
   699  0070                     ___wmul@multiplier:	; 2 bytes @ 0x0
   700                           	global	___awmod@divisor
   701  0070                     ___awmod@divisor:	; 2 bytes @ 0x0
   702                           	global	___ftpack@arg
   703  0070                     ___ftpack@arg:	; 3 bytes @ 0x0
   704  0070                     	ds	1
   705                           	global	??_ReadButtons
   706  0071                     ??_ReadButtons:	; 0 bytes @ 0x1
   707  0071                     	ds	1
   708                           	global	??_adc_read
   709  0072                     ??_adc_read:	; 0 bytes @ 0x2
   710                           	global	lcd_write_data@databyte
   711  0072                     lcd_write_data@databyte:	; 1 bytes @ 0x2
   712                           	global	i1lcd_write_control@databyte
   713  0072                     i1lcd_write_control@databyte:	; 1 bytes @ 0x2
   714                           	global	___wmul@multiplicand
   715  0072                     ___wmul@multiplicand:	; 2 bytes @ 0x2
   716                           	global	___awmod@dividend
   717  0072                     ___awmod@dividend:	; 2 bytes @ 0x2
   718  0072                     	ds	1
   719                           	global	??_lcd_set_cursor
   720  0073                     ??_lcd_set_cursor:	; 0 bytes @ 0x3
   721                           	global	lcd_set_cursor@address
   722  0073                     lcd_set_cursor@address:	; 1 bytes @ 0x3
   723                           	global	___ftpack@exp
   724  0073                     ___ftpack@exp:	; 1 bytes @ 0x3
   725  0073                     	ds	1
   726                           	global	??___wmul
   727  0074                     ??___wmul:	; 0 bytes @ 0x4
   728                           	global	??___awmod
   729  0074                     ??___awmod:	; 0 bytes @ 0x4
   730                           	global	___ftpack@sign
   731  0074                     ___ftpack@sign:	; 1 bytes @ 0x4
   732                           	global	adc_read@adc_value
   733  0074                     adc_read@adc_value:	; 2 bytes @ 0x4
   734                           	global	___wmul@product
   735  0074                     ___wmul@product:	; 2 bytes @ 0x4
   736  0074                     	ds	1
   737                           	global	??___ftpack
   738  0075                     ??___ftpack:	; 0 bytes @ 0x5
   739                           	global	___awmod@counter
   740  0075                     ___awmod@counter:	; 1 bytes @ 0x5
   741  0075                     	ds	1
   742                           	global	??_adc_read_channel
   743  0076                     ??_adc_read_channel:	; 0 bytes @ 0x6
   744                           	global	?___lwdiv
   745  0076                     ?___lwdiv:	; 2 bytes @ 0x6
   746                           	global	___awmod@sign
   747  0076                     ___awmod@sign:	; 1 bytes @ 0x6
   748                           	global	___lwdiv@divisor
   749  0076                     ___lwdiv@divisor:	; 2 bytes @ 0x6
   750  0076                     	ds	1
   751                           	global	?_lcd_write_string
   752  0077                     ?_lcd_write_string:	; 0 bytes @ 0x7
   753                           	global	adc_read_channel@channel
   754  0077                     adc_read_channel@channel:	; 1 bytes @ 0x7
   755                           	global	lcd_write_string@s
   756  0077                     lcd_write_string@s:	; 2 bytes @ 0x7
   757  0077                     	ds	1
   758                           	global	?___ftge
   759  0078                     ?___ftge:	; 1 bit 
   760                           	global	?_readDistance
   761  0078                     ?_readDistance:	; 2 bytes @ 0x8
   762                           	global	?___ftneg
   763  0078                     ?___ftneg:	; 3 bytes @ 0x8
   764                           	global	___lwdiv@dividend
   765  0078                     ___lwdiv@dividend:	; 2 bytes @ 0x8
   766                           	global	___ftneg@f1
   767  0078                     ___ftneg@f1:	; 3 bytes @ 0x8
   768                           	global	___ftge@ff1
   769  0078                     ___ftge@ff1:	; 3 bytes @ 0x8
   770  0078                     	ds	1
   771                           	global	??_lcd_write_string
   772  0079                     ??_lcd_write_string:	; 0 bytes @ 0x9
   773  0079                     	ds	1
   774                           	global	??_readDistance
   775  007A                     ??_readDistance:	; 0 bytes @ 0xA
   776                           	global	??___lwdiv
   777  007A                     ??___lwdiv:	; 0 bytes @ 0xA
   778  007A                     	ds	1
   779                           	global	??___ftneg
   780  007B                     ??___ftneg:	; 0 bytes @ 0xB
   781                           	global	___lwdiv@quotient
   782  007B                     ___lwdiv@quotient:	; 2 bytes @ 0xB
   783                           	global	___ftge@ff2
   784  007B                     ___ftge@ff2:	; 3 bytes @ 0xB
   785  007B                     	ds	1
   786                           	global	readDistance@fullval
   787  007C                     readDistance@fullval:	; 2 bytes @ 0xC
   788  007C                     	ds	1
   789                           	global	___lwdiv@counter
   790  007D                     ___lwdiv@counter:	; 1 bytes @ 0xD
   791  007D                     	ds	1
   792                           	global	??_readAvgDistance
   793  007E                     ??_readAvgDistance:	; 0 bytes @ 0xE
   794                           psect	cstackBANK0,class=BANK0,space=1
   795                           global __pcstackBANK0
   796  0020                     __pcstackBANK0:
   797                           	global	??___ftge
   798  0020                     ??___ftge:	; 0 bytes @ 0x0
   799                           	global	?___lwmod
   800  0020                     ?___lwmod:	; 2 bytes @ 0x0
   801                           	global	?___fttol
   802  0020                     ?___fttol:	; 4 bytes @ 0x0
   803                           	global	___lwmod@divisor
   804  0020                     ___lwmod@divisor:	; 2 bytes @ 0x0
   805                           	global	___fttol@f1
   806  0020                     ___fttol@f1:	; 3 bytes @ 0x0
   807  0020                     	ds	2
   808                           	global	___lwmod@dividend
   809  0022                     ___lwmod@dividend:	; 2 bytes @ 0x2
   810  0022                     	ds	2
   811                           	global	??___lwmod
   812  0024                     ??___lwmod:	; 0 bytes @ 0x4
   813                           	global	??___fttol
   814  0024                     ??___fttol:	; 0 bytes @ 0x4
   815  0024                     	ds	1
   816                           	global	___lwmod@counter
   817  0025                     ___lwmod@counter:	; 1 bytes @ 0x5
   818  0025                     	ds	1
   819                           	global	?_sprintf
   820  0026                     ?_sprintf:	; 2 bytes @ 0x6
   821                           	global	sprintf@f
   822  0026                     sprintf@f:	; 1 bytes @ 0x6
   823  0026                     	ds	2
   824                           	global	___fttol@sign1
   825  0028                     ___fttol@sign1:	; 1 bytes @ 0x8
   826  0028                     	ds	1
   827                           	global	___fttol@lval
   828  0029                     ___fttol@lval:	; 4 bytes @ 0x9
   829  0029                     	ds	2
   830                           	global	??_sprintf
   831  002B                     ??_sprintf:	; 0 bytes @ 0xB
   832  002B                     	ds	2
   833                           	global	___fttol@exp1
   834  002D                     ___fttol@exp1:	; 1 bytes @ 0xD
   835  002D                     	ds	1
   836                           	global	?___lwtoft
   837  002E                     ?___lwtoft:	; 3 bytes @ 0xE
   838                           	global	sprintf@ap
   839  002E                     sprintf@ap:	; 1 bytes @ 0xE
   840                           	global	___lwtoft@c
   841  002E                     ___lwtoft@c:	; 2 bytes @ 0xE
   842  002E                     	ds	1
   843                           	global	sprintf@flag
   844  002F                     sprintf@flag:	; 1 bytes @ 0xF
   845  002F                     	ds	1
   846                           	global	sprintf@prec
   847  0030                     sprintf@prec:	; 1 bytes @ 0x10
   848  0030                     	ds	1
   849                           	global	??___lwtoft
   850  0031                     ??___lwtoft:	; 0 bytes @ 0x11
   851                           	global	sprintf@_val
   852  0031                     sprintf@_val:	; 4 bytes @ 0x11
   853  0031                     	ds	1
   854                           	global	?___ftadd
   855  0032                     ?___ftadd:	; 3 bytes @ 0x12
   856                           	global	___ftadd@f1
   857  0032                     ___ftadd@f1:	; 3 bytes @ 0x12
   858  0032                     	ds	3
   859                           	global	sprintf@sp
   860  0035                     sprintf@sp:	; 1 bytes @ 0x15
   861                           	global	___ftadd@f2
   862  0035                     ___ftadd@f2:	; 3 bytes @ 0x15
   863  0035                     	ds	1
   864                           	global	sprintf@c
   865  0036                     sprintf@c:	; 1 bytes @ 0x16
   866  0036                     	ds	1
   867                           	global	??_UpdateDisplay
   868  0037                     ??_UpdateDisplay:	; 0 bytes @ 0x17
   869  0037                     	ds	1
   870                           	global	??___ftadd
   871  0038                     ??___ftadd:	; 0 bytes @ 0x18
   872  0038                     	ds	3
   873                           	global	UpdateDisplay@adcOutput
   874  003B                     UpdateDisplay@adcOutput:	; 16 bytes @ 0x1B
   875  003B                     	ds	1
   876                           	global	___ftadd@sign
   877  003C                     ___ftadd@sign:	; 1 bytes @ 0x1C
   878  003C                     	ds	1
   879                           	global	___ftadd@exp2
   880  003D                     ___ftadd@exp2:	; 1 bytes @ 0x1D
   881  003D                     	ds	1
   882                           	global	___ftadd@exp1
   883  003E                     ___ftadd@exp1:	; 1 bytes @ 0x1E
   884  003E                     	ds	1
   885                           	global	?___ftmul
   886  003F                     ?___ftmul:	; 3 bytes @ 0x1F
   887                           	global	___ftmul@f1
   888  003F                     ___ftmul@f1:	; 3 bytes @ 0x1F
   889  003F                     	ds	3
   890                           	global	___ftmul@f2
   891  0042                     ___ftmul@f2:	; 3 bytes @ 0x22
   892  0042                     	ds	3
   893                           	global	??___ftmul
   894  0045                     ??___ftmul:	; 0 bytes @ 0x25
   895  0045                     	ds	4
   896                           	global	___ftmul@exp
   897  0049                     ___ftmul@exp:	; 1 bytes @ 0x29
   898  0049                     	ds	1
   899                           	global	___ftmul@f3_as_product
   900  004A                     ___ftmul@f3_as_product:	; 3 bytes @ 0x2A
   901  004A                     	ds	3
   902                           	global	___ftmul@cntr
   903  004D                     ___ftmul@cntr:	; 1 bytes @ 0x2D
   904  004D                     	ds	1
   905                           	global	___ftmul@sign
   906  004E                     ___ftmul@sign:	; 1 bytes @ 0x2E
   907  004E                     	ds	1
   908                           	global	?___ftdiv
   909  004F                     ?___ftdiv:	; 3 bytes @ 0x2F
   910                           	global	___ftdiv@f2
   911  004F                     ___ftdiv@f2:	; 3 bytes @ 0x2F
   912  004F                     	ds	3
   913                           	global	___ftdiv@f1
   914  0052                     ___ftdiv@f1:	; 3 bytes @ 0x32
   915  0052                     	ds	3
   916                           	global	??___ftdiv
   917  0055                     ??___ftdiv:	; 0 bytes @ 0x35
   918  0055                     	ds	4
   919                           	global	___ftdiv@cntr
   920  0059                     ___ftdiv@cntr:	; 1 bytes @ 0x39
   921  0059                     	ds	1
   922                           	global	___ftdiv@f3
   923  005A                     ___ftdiv@f3:	; 3 bytes @ 0x3A
   924  005A                     	ds	3
   925                           	global	___ftdiv@exp
   926  005D                     ___ftdiv@exp:	; 1 bytes @ 0x3D
   927  005D                     	ds	1
   928                           	global	___ftdiv@sign
   929  005E                     ___ftdiv@sign:	; 1 bytes @ 0x3E
   930  005E                     	ds	1
   931                           	global	??_ADCconvert
   932  005F                     ??_ADCconvert:	; 0 bytes @ 0x3F
   933  005F                     	ds	2
   934                           	global	readAvgDistance@fullval
   935  0061                     readAvgDistance@fullval:	; 2 bytes @ 0x41
   936  0061                     	ds	2
   937                           	global	readAvgDistance@i
   938  0063                     readAvgDistance@i:	; 2 bytes @ 0x43
   939  0063                     	ds	2
   940                           	global	??_isr1
   941  0065                     ??_isr1:	; 0 bytes @ 0x45
   942  0065                     	ds	5
   943 ;;Data sizes: Strings 70, constant 10, data 11, bss 68, persistent 0 stack 0
   944 ;;Auto spaces:   Size  Autos    Used
   945 ;; COMMON          14     14      14
   946 ;; BANK0           80     74      80
   947 ;; BANK1           80      3      78
   948 ;; BANK3           96      0       0
   949 ;; BANK2           96      0       0
   950                           
   951 ;;
   952 ;; Pointer list with targets:
   953                           
   954 ;; ?___ftpack	float  size(1) Largest target is 0
   955 ;;
   956 ;; ?___awmod	int  size(1) Largest target is 0
   957 ;;
   958 ;; ?___fttol	long  size(1) Largest target is 0
   959 ;;
   960 ;; ?___wmul	unsigned int  size(1) Largest target is 0
   961 ;;
   962 ;; ?___ftneg	float  size(1) Largest target is 0
   963 ;;
   964 ;; ?___ftmul	float  size(1) Largest target is 0
   965 ;;
   966 ;; ?___ftdiv	float  size(1) Largest target is 0
   967 ;;
   968 ;; ?___ftadd	float  size(1) Largest target is 0
   969 ;;
   970 ;; ?___lwtoft	float  size(1) Largest target is 0
   971 ;;
   972 ;; ?_readDistance	unsigned int  size(1) Largest target is 0
   973 ;;
   974 ;; ?___lwdiv	unsigned int  size(1) Largest target is 0
   975 ;;
   976 ;; ?___lwmod	unsigned int  size(1) Largest target is 0
   977 ;;
   978 ;; ?_adc_read	unsigned int  size(1) Largest target is 0
   979 ;;
   980 ;; sprintf@f	PTR const unsigned char  size(1) Largest target is 15
   981 ;;		 -> STR_11(CODE[15]), 
   982 ;;
   983 ;; sprintf@sp	PTR unsigned char  size(1) Largest target is 16
   984 ;;		 -> UpdateDisplay@adcOutput(BANK0[16]), 
   985 ;;
   986 ;; ?_sprintf	int  size(1) Largest target is 0
   987 ;;
   988 ;; sprintf@ap	PTR void [1] size(1) Largest target is 2
   989 ;;		 -> ?_sprintf(BANK0[2]), 
   990 ;;
   991 ;; S6353$_cp	PTR const unsigned char  size(1) Largest target is 0
   992 ;;
   993 ;; _val._str._cp	PTR const unsigned char  size(1) Largest target is 0
   994 ;;
   995 ;; shortMenuStrings	PTR const unsigned char [5] size(1) Largest target is 4
   996 ;;		 -> STR_10(CODE[4]), STR_9(CODE[4]), STR_8(CODE[4]), STR_7(CODE[4]), 
   997 ;;		 -> STR_6(CODE[4]), 
   998 ;;
   999 ;; menuStrings	PTR const unsigned char [5] size(1) Largest target is 7
  1000 ;;		 -> STR_5(CODE[7]), STR_4(CODE[7]), STR_3(CODE[7]), STR_2(CODE[7]), 
  1001 ;;		 -> STR_1(CODE[7]), 
  1002 ;;
  1003 ;; lcd_write_string@s	PTR unsigned char  size(2) Largest target is 16
  1004 ;;		 -> UpdateDisplay@adcOutput(BANK0[16]), STR_10(CODE[4]), STR_9(CODE[4]), STR_8(CODE[4]), 
  1005 ;;		 -> STR_7(CODE[4]), STR_6(CODE[4]), STR_5(CODE[7]), STR_4(CODE[7]), 
  1006 ;;		 -> STR_3(CODE[7]), STR_2(CODE[7]), STR_1(CODE[7]), 
  1007 ;;
  1008                           
  1009                           
  1010 ;;
  1011 ;; Critical Paths under _main in COMMON
  1012 ;;
  1013 ;;   None.
  1014 ;;
  1015 ;; Critical Paths under _isr1 in COMMON
  1016 ;;
  1017 ;;   _readAvgDistance->_readDistance
  1018 ;;   _readAvgDistance->___lwdiv
  1019 ;;   _ADCconvert->___ftge
  1020 ;;   _ADCconvert->___lwdiv
  1021 ;;   _readDistance->_adc_read_channel
  1022 ;;   _lcd_write_string->___awmod
  1023 ;;   _lcd_set_cursor->i1_lcd_write_control
  1024 ;;   ___lwtoft->___ftge
  1025 ;;   _sprintf->___lwdiv
  1026 ;;   _ReadButtons->_Debounce
  1027 ;;   _adc_read_channel->_adc_read
  1028 ;;   ___ftge->___ftpack
  1029 ;;   ___ftneg->___ftpack
  1030 ;;   ___fttol->___ftneg
  1031 ;;   ___lwmod->___lwdiv
  1032 ;;   ___lwdiv->___wmul
  1033 ;;
  1034 ;; Critical Paths under _main in BANK0
  1035 ;;
  1036 ;;   None.
  1037 ;;
  1038 ;; Critical Paths under _isr1 in BANK0
  1039 ;;
  1040 ;;   _isr1->_readAvgDistance
  1041 ;;   _UpdateDisplay->_sprintf
  1042 ;;   _readAvgDistance->_ADCconvert
  1043 ;;   _ADCconvert->___ftdiv
  1044 ;;   ___lwtoft->___fttol
  1045 ;;   ___ftmul->___ftadd
  1046 ;;   ___ftdiv->___ftmul
  1047 ;;   ___ftadd->___lwtoft
  1048 ;;   _sprintf->___lwmod
  1049 ;;
  1050 ;; Critical Paths under _main in BANK1
  1051 ;;
  1052 ;;   _lcd_init->_lcd_write_control
  1053 ;;
  1054 ;; Critical Paths under _isr1 in BANK1
  1055 ;;
  1056 ;;   None.
  1057 ;;
  1058 ;; Critical Paths under _main in BANK3
  1059 ;;
  1060 ;;   None.
  1061 ;;
  1062 ;; Critical Paths under _isr1 in BANK3
  1063 ;;
  1064 ;;   None.
  1065 ;;
  1066 ;; Critical Paths under _main in BANK2
  1067 ;;
  1068 ;;   None.
  1069 ;;
  1070 ;; Critical Paths under _isr1 in BANK2
  1071 ;;
  1072 ;;   None.
  1073                           
  1074 ;;
  1075 ;;Main: autosize = 0, tempsize = 0, incstack = 0, save=0
  1076 ;;
  1077                           
  1078 ;;
  1079 ;;Call Graph Tables:
  1080 ;;
  1081 ;; ---------------------------------------------------------------------------------
  1082 ;; (Depth) Function   	        Calls       Base Space   Used Autos Params    Refs
  1083 ;; ---------------------------------------------------------------------------------
  1084 ;; (0) _main                                                 0     0      0      44
  1085 ;;                               _init
  1086 ;;                               _Menu
  1087 ;; ---------------------------------------------------------------------------------
  1088 ;; (1) _init                                                 0     0      0      22
  1089 ;;                           _init_adc
  1090 ;;                           _lcd_init
  1091 ;;                           _ser_init
  1092 ;; ---------------------------------------------------------------------------------
  1093 ;; (2) _lcd_init                                             0     0      0      22
  1094 ;;                  _lcd_write_control
  1095 ;; ---------------------------------------------------------------------------------
  1096 ;; (3) _lcd_write_control                                    3     3      0      22
  1097 ;;                                              0 BANK1      3     3      0
  1098 ;; ---------------------------------------------------------------------------------
  1099 ;; (2) _init_adc                                             1     1      0       0
  1100 ;;                                              0 BANK1      1     1      0
  1101 ;; ---------------------------------------------------------------------------------
  1102 ;; (1) _Menu                                                 1     1      0      22
  1103 ;;                                              0 BANK1      1     1      0
  1104 ;; ---------------------------------------------------------------------------------
  1105 ;; (2) _ser_init                                             1     1      0       0
  1106 ;;                                              0 BANK1      1     1      0
  1107 ;; ---------------------------------------------------------------------------------
  1108 ;; Estimated maximum stack depth 3
  1109 ;; ---------------------------------------------------------------------------------
  1110 ;; (Depth) Function   	        Calls       Base Space   Used Autos Params    Refs
  1111 ;; ---------------------------------------------------------------------------------
  1112 ;; (4) _isr1                                                 5     5      0    4836
  1113 ;;                                             69 BANK0      5     5      0
  1114 ;;                            ___lwmod
  1115 ;;                    _readAvgDistance
  1116 ;;                      _UpdateDisplay
  1117 ;;                        _ReadButtons
  1118 ;; ---------------------------------------------------------------------------------
  1119 ;; (5) _UpdateDisplay                                       20    20      0    1385
  1120 ;;                                             23 BANK0     20    20      0
  1121 ;;                i1_lcd_write_control
  1122 ;;                            _sprintf
  1123 ;;                     _lcd_set_cursor
  1124 ;;                   _lcd_write_string
  1125 ;;                            ___awmod
  1126 ;; ---------------------------------------------------------------------------------
  1127 ;; (5) _readAvgDistance                                      4     4      0    3292
  1128 ;;                                             65 BANK0      4     4      0
  1129 ;;                       _readDistance
  1130 ;;                            ___lwdiv
  1131 ;;                         _ADCconvert
  1132 ;; ---------------------------------------------------------------------------------
  1133 ;; (6) _ADCconvert                                           2     2      0    2991
  1134 ;;                                             63 BANK0      2     2      0
  1135 ;;                           ___lwtoft
  1136 ;;                             ___ftge
  1137 ;;                            ___ftneg
  1138 ;;                            ___ftadd
  1139 ;;                            ___ftmul
  1140 ;;                            ___ftdiv
  1141 ;;                            ___fttol
  1142 ;;                             ___wmul
  1143 ;;                            ___lwdiv
  1144 ;; ---------------------------------------------------------------------------------
  1145 ;; (6) _readDistance                                         6     4      2      69
  1146 ;;                                              8 COMMON     6     4      2
  1147 ;;                   _adc_read_channel
  1148 ;; ---------------------------------------------------------------------------------
  1149 ;; (6) _lcd_write_string                                     2     0      2      67
  1150 ;;                                              7 COMMON     2     0      2
  1151 ;;                     _lcd_write_data
  1152 ;;                            ___awmod (ARG)
  1153 ;; ---------------------------------------------------------------------------------
  1154 ;; (6) _lcd_set_cursor                                       1     1      0      96
  1155 ;;                                              3 COMMON     1     1      0
  1156 ;;                i1_lcd_write_control
  1157 ;; ---------------------------------------------------------------------------------
  1158 ;; (7) i1_lcd_write_control                                  3     3      0      73
  1159 ;;                                              0 COMMON     3     3      0
  1160 ;; ---------------------------------------------------------------------------------
  1161 ;; (7) ___lwtoft                                             4     1      3     231
  1162 ;;                                             14 BANK0      4     1      3
  1163 ;;                           ___ftpack
  1164 ;;                             ___ftge (ARG)
  1165 ;;                            ___ftneg (ARG)
  1166 ;;                            ___fttol (ARG)
  1167 ;; ---------------------------------------------------------------------------------
  1168 ;; (7) ___ftmul                                             16    10      6     535
  1169 ;;                                             31 BANK0     16    10      6
  1170 ;;                           ___ftpack
  1171 ;;                            ___ftadd (ARG)
  1172 ;;                            ___ftneg (ARG)
  1173 ;;                           ___lwtoft (ARG)
  1174 ;;                            ___fttol (ARG)
  1175 ;; ---------------------------------------------------------------------------------
  1176 ;; (7) ___ftdiv                                             16    10      6     489
  1177 ;;                                             47 BANK0     16    10      6
  1178 ;;                           ___ftpack
  1179 ;;                            ___ftmul (ARG)
  1180 ;;                            ___ftadd (ARG)
  1181 ;;                            ___ftneg (ARG)
  1182 ;;                           ___lwtoft (ARG)
  1183 ;;                            ___fttol (ARG)
  1184 ;; ---------------------------------------------------------------------------------
  1185 ;; (7) ___ftadd                                             13     7      6    1049
  1186 ;;                                             18 BANK0     13     7      6
  1187 ;;                           ___ftpack
  1188 ;;                            ___ftneg (ARG)
  1189 ;;                           ___lwtoft (ARG)
  1190 ;;                            ___fttol (ARG)
  1191 ;; ---------------------------------------------------------------------------------
  1192 ;; (6) _sprintf                                             17    12      5     798
  1193 ;;                                              6 BANK0     17    12      5
  1194 ;;                            ___lwdiv
  1195 ;;                            ___lwmod
  1196 ;; ---------------------------------------------------------------------------------
  1197 ;; (5) _ReadButtons                                          0     0      0       0
  1198 ;;                           _Debounce
  1199 ;; ---------------------------------------------------------------------------------
  1200 ;; (7) _lcd_write_data                                       3     3      0      22
  1201 ;;                                              0 COMMON     3     3      0
  1202 ;; ---------------------------------------------------------------------------------
  1203 ;; (7) _adc_read_channel                                     2     2      0      46
  1204 ;;                                              6 COMMON     2     2      0
  1205 ;;                           _adc_read
  1206 ;; ---------------------------------------------------------------------------------
  1207 ;; (6) ___awmod                                              7     3      4     296
  1208 ;;                                              0 COMMON     7     3      4
  1209 ;; ---------------------------------------------------------------------------------
  1210 ;; (7) ___ftge                                              12     6      6     136
  1211 ;;                                              8 COMMON     6     0      6
  1212 ;;                                              0 BANK0      6     6      0
  1213 ;;                           ___ftpack (ARG)
  1214 ;; ---------------------------------------------------------------------------------
  1215 ;; (7) ___ftneg                                              3     0      3      45
  1216 ;;                                              8 COMMON     3     0      3
  1217 ;;                           ___ftpack (ARG)
  1218 ;; ---------------------------------------------------------------------------------
  1219 ;; (7) ___fttol                                             14    10      4     252
  1220 ;;                                              0 BANK0     14    10      4
  1221 ;;                           ___ftpack (ARG)
  1222 ;;                            ___ftneg (ARG)
  1223 ;; ---------------------------------------------------------------------------------
  1224 ;; (8) ___ftpack                                             8     3      5     209
  1225 ;;                                              0 COMMON     8     3      5
  1226 ;; ---------------------------------------------------------------------------------
  1227 ;; (7) ___lwmod                                              6     2      4     159
  1228 ;;                                              0 BANK0      6     2      4
  1229 ;;                            ___lwdiv (ARG)
  1230 ;; ---------------------------------------------------------------------------------
  1231 ;; (7) ___lwdiv                                              8     4      4     162
  1232 ;;                                              6 COMMON     8     4      4
  1233 ;;                             ___wmul (ARG)
  1234 ;; ---------------------------------------------------------------------------------
  1235 ;; (7) ___wmul                                               6     2      4      92
  1236 ;;                                              0 COMMON     6     2      4
  1237 ;; ---------------------------------------------------------------------------------
  1238 ;; (6) _Debounce                                             1     1      0       0
  1239 ;;                                              0 COMMON     1     1      0
  1240 ;; ---------------------------------------------------------------------------------
  1241 ;; (8) _adc_read                                             6     4      2      24
  1242 ;;                                              0 COMMON     6     4      2
  1243 ;; ---------------------------------------------------------------------------------
  1244 ;; Estimated maximum stack depth 8
  1245 ;; ---------------------------------------------------------------------------------
  1246                           
  1247 ;; Call Graph Graphs:
  1248                           
  1249 ;; _main (ROOT)
  1250 ;;   _init
  1251 ;;     _init_adc
  1252 ;;     _lcd_init
  1253 ;;       _lcd_write_control
  1254 ;;     _ser_init
  1255 ;;   _Menu
  1256 ;;
  1257 ;; _isr1 (ROOT)
  1258 ;;   ___lwmod
  1259 ;;     ___lwdiv (ARG)
  1260 ;;       ___wmul (ARG)
  1261 ;;   _readAvgDistance
  1262 ;;     _readDistance
  1263 ;;       _adc_read_channel
  1264 ;;         _adc_read
  1265 ;;     ___lwdiv
  1266 ;;       ___wmul (ARG)
  1267 ;;     _ADCconvert
  1268 ;;       ___lwtoft
  1269 ;;         ___ftpack
  1270 ;;         ___ftge (ARG)
  1271 ;;           ___ftpack (ARG)
  1272 ;;         ___ftneg (ARG)
  1273 ;;           ___ftpack (ARG)
  1274 ;;         ___fttol (ARG)
  1275 ;;           ___ftpack (ARG)
  1276 ;;           ___ftneg (ARG)
  1277 ;;             ___ftpack (ARG)
  1278 ;;       ___ftge
  1279 ;;         ___ftpack (ARG)
  1280 ;;       ___ftneg
  1281 ;;         ___ftpack (ARG)
  1282 ;;       ___ftadd
  1283 ;;         ___ftpack
  1284 ;;         ___ftneg (ARG)
  1285 ;;           ___ftpack (ARG)
  1286 ;;         ___lwtoft (ARG)
  1287 ;;           ___ftpack
  1288 ;;           ___ftge (ARG)
  1289 ;;             ___ftpack (ARG)
  1290 ;;           ___ftneg (ARG)
  1291 ;;             ___ftpack (ARG)
  1292 ;;           ___fttol (ARG)
  1293 ;;             ___ftpack (ARG)
  1294 ;;             ___ftneg (ARG)
  1295 ;;               ___ftpack (ARG)
  1296 ;;         ___fttol (ARG)
  1297 ;;           ___ftpack (ARG)
  1298 ;;           ___ftneg (ARG)
  1299 ;;             ___ftpack (ARG)
  1300 ;;       ___ftmul
  1301 ;;         ___ftpack
  1302 ;;         ___ftadd (ARG)
  1303 ;;           ___ftpack
  1304 ;;           ___ftneg (ARG)
  1305 ;;             ___ftpack (ARG)
  1306 ;;           ___lwtoft (ARG)
  1307 ;;             ___ftpack
  1308 ;;             ___ftge (ARG)
  1309 ;;               ___ftpack (ARG)
  1310 ;;             ___ftneg (ARG)
  1311 ;;               ___ftpack (ARG)
  1312 ;;             ___fttol (ARG)
  1313 ;;               ___ftpack (ARG)
  1314 ;;               ___ftneg (ARG)
  1315 ;;                 ___ftpack (ARG)
  1316 ;;           ___fttol (ARG)
  1317 ;;             ___ftpack (ARG)
  1318 ;;             ___ftneg (ARG)
  1319 ;;               ___ftpack (ARG)
  1320 ;;         ___ftneg (ARG)
  1321 ;;           ___ftpack (ARG)
  1322 ;;         ___lwtoft (ARG)
  1323 ;;           ___ftpack
  1324 ;;           ___ftge (ARG)
  1325 ;;             ___ftpack (ARG)
  1326 ;;           ___ftneg (ARG)
  1327 ;;             ___ftpack (ARG)
  1328 ;;           ___fttol (ARG)
  1329 ;;             ___ftpack (ARG)
  1330 ;;             ___ftneg (ARG)
  1331 ;;               ___ftpack (ARG)
  1332 ;;         ___fttol (ARG)
  1333 ;;           ___ftpack (ARG)
  1334 ;;           ___ftneg (ARG)
  1335 ;;             ___ftpack (ARG)
  1336 ;;       ___ftdiv
  1337 ;;         ___ftpack
  1338 ;;         ___ftmul (ARG)
  1339 ;;           ___ftpack
  1340 ;;           ___ftadd (ARG)
  1341 ;;             ___ftpack
  1342 ;;             ___ftneg (ARG)
  1343 ;;               ___ftpack (ARG)
  1344 ;;             ___lwtoft (ARG)
  1345 ;;               ___ftpack
  1346 ;;               ___ftge (ARG)
  1347 ;;                 ___ftpack (ARG)
  1348 ;;               ___ftneg (ARG)
  1349 ;;                 ___ftpack (ARG)
  1350 ;;               ___fttol (ARG)
  1351 ;;                 ___ftpack (ARG)
  1352 ;;                 ___ftneg (ARG)
  1353 ;;                   ___ftpack (ARG)
  1354 ;;             ___fttol (ARG)
  1355 ;;               ___ftpack (ARG)
  1356 ;;               ___ftneg (ARG)
  1357 ;;                 ___ftpack (ARG)
  1358 ;;           ___ftneg (ARG)
  1359 ;;             ___ftpack (ARG)
  1360 ;;           ___lwtoft (ARG)
  1361 ;;             ___ftpack
  1362 ;;             ___ftge (ARG)
  1363 ;;               ___ftpack (ARG)
  1364 ;;             ___ftneg (ARG)
  1365 ;;               ___ftpack (ARG)
  1366 ;;             ___fttol (ARG)
  1367 ;;               ___ftpack (ARG)
  1368 ;;               ___ftneg (ARG)
  1369 ;;                 ___ftpack (ARG)
  1370 ;;           ___fttol (ARG)
  1371 ;;             ___ftpack (ARG)
  1372 ;;             ___ftneg (ARG)
  1373 ;;               ___ftpack (ARG)
  1374 ;;         ___ftadd (ARG)
  1375 ;;           ___ftpack
  1376 ;;           ___ftneg (ARG)
  1377 ;;             ___ftpack (ARG)
  1378 ;;           ___lwtoft (ARG)
  1379 ;;             ___ftpack
  1380 ;;             ___ftge (ARG)
  1381 ;;               ___ftpack (ARG)
  1382 ;;             ___ftneg (ARG)
  1383 ;;               ___ftpack (ARG)
  1384 ;;             ___fttol (ARG)
  1385 ;;               ___ftpack (ARG)
  1386 ;;               ___ftneg (ARG)
  1387 ;;                 ___ftpack (ARG)
  1388 ;;           ___fttol (ARG)
  1389 ;;             ___ftpack (ARG)
  1390 ;;             ___ftneg (ARG)
  1391 ;;               ___ftpack (ARG)
  1392 ;;         ___ftneg (ARG)
  1393 ;;           ___ftpack (ARG)
  1394 ;;         ___lwtoft (ARG)
  1395 ;;           ___ftpack
  1396 ;;           ___ftge (ARG)
  1397 ;;             ___ftpack (ARG)
  1398 ;;           ___ftneg (ARG)
  1399 ;;             ___ftpack (ARG)
  1400 ;;           ___fttol (ARG)
  1401 ;;             ___ftpack (ARG)
  1402 ;;             ___ftneg (ARG)
  1403 ;;               ___ftpack (ARG)
  1404 ;;         ___fttol (ARG)
  1405 ;;           ___ftpack (ARG)
  1406 ;;           ___ftneg (ARG)
  1407 ;;             ___ftpack (ARG)
  1408 ;;       ___fttol
  1409 ;;         ___ftpack (ARG)
  1410 ;;         ___ftneg (ARG)
  1411 ;;           ___ftpack (ARG)
  1412 ;;       ___wmul
  1413 ;;       ___lwdiv
  1414 ;;         ___wmul (ARG)
  1415 ;;   _UpdateDisplay
  1416 ;;     i1_lcd_write_control
  1417 ;;     _sprintf
  1418 ;;       ___lwdiv
  1419 ;;         ___wmul (ARG)
  1420 ;;       ___lwmod
  1421 ;;         ___lwdiv (ARG)
  1422 ;;           ___wmul (ARG)
  1423 ;;     _lcd_set_cursor
  1424 ;;       i1_lcd_write_control
  1425 ;;     _lcd_write_string
  1426 ;;       _lcd_write_data
  1427 ;;       ___awmod (ARG)
  1428 ;;     ___awmod
  1429 ;;   _ReadButtons
  1430 ;;     _Debounce
  1431 ;;
  1432                           
  1433 ;; Address spaces:
  1434                           
  1435 ;;Name               Size   Autos  Total    Cost      Usage
  1436 ;;BANK3               60      0       0       9        0.0%
  1437 ;;BITBANK3            60      0       0       8        0.0%
  1438 ;;SFR3                 0      0       0       4        0.0%
  1439 ;;BITSFR3              0      0       0       4        0.0%
  1440 ;;BANK2               60      0       0      11        0.0%
  1441 ;;BITBANK2            60      0       0      10        0.0%
  1442 ;;SFR2                 0      0       0       5        0.0%
  1443 ;;BITSFR2              0      0       0       5        0.0%
  1444 ;;SFR1                 0      0       0       2        0.0%
  1445 ;;BITSFR1              0      0       0       2        0.0%
  1446 ;;BANK1               50      3      4E       7       97.5%
  1447 ;;BITBANK1            50      0       0       6        0.0%
  1448 ;;CODE                 0      0       0       0        0.0%
  1449 ;;DATA                 0      0      B9      12        0.0%
  1450 ;;ABS                  0      0      AC       3        0.0%
  1451 ;;NULL                 0      0       0       0        0.0%
  1452 ;;STACK                0      0       D       2        0.0%
  1453 ;;BANK0               50     4A      50       5      100.0%
  1454 ;;BITBANK0            50      0       2       4        2.5%
  1455 ;;SFR0                 0      0       0       1        0.0%
  1456 ;;BITSFR0              0      0       0       1        0.0%
  1457 ;;COMMON               E      E       E       1      100.0%
  1458 ;;BITCOMMON            E      0       0       0        0.0%
  1459 ;;EEDATA             100      0       0       0        0.0%
  1460                           
  1461                           	global	_main
  1462                           psect	maintext,global,class=CODE,delta=2
  1463                           global __pmaintext
  1464  0A66                     __pmaintext:
  1465                           
  1466 ;; *************** function _main *****************
  1467 ;; Defined at:
  1468 ;;		line 140 in file "H:\Aldnoah.Zero\trunk\Assignment3\Main.c"
  1469 ;; Parameters:    Size  Location     Type
  1470 ;;		None
  1471 ;; Auto vars:     Size  Location     Type
  1472 ;;		None
  1473 ;; Return value:  Size  Location     Type
  1474 ;;		None               void
  1475 ;; Registers used:
  1476 ;;		wreg, fsr0l, fsr0h, status,2, status,0, pclath, cstack
  1477 ;; Tracked objects:
  1478 ;;		On entry : 17F/0
  1479 ;;		On exit  : 0/0
  1480 ;;		Unchanged: 0/0
  1481 ;; Data sizes:     COMMON   BANK0   BANK1   BANK3   BANK2
  1482 ;;      Params:         0       0       0       0       0
  1483 ;;      Locals:         0       0       0       0       0
  1484 ;;      Temps:          0       0       0       0       0
  1485 ;;      Totals:         0       0       0       0       0
  1486 ;;Total ram usage:        0 bytes
  1487 ;; Hardware stack levels required when called:    8
  1488 ;; This function calls:
  1489 ;;		_init
  1490 ;;		_Menu
  1491 ;; This function is called by:
  1492 ;;		Startup code after reset
  1493 ;; This function uses a non-reentrant model
  1494 ;;
  1495                           psect	maintext
  1496                           	file	"H:\Aldnoah.Zero\trunk\Assignment3\Main.c"
  1497                           	line	140
  1498                           	global	__size_of_main
  1499  0067                     	__size_of_main	equ	__end_of_main-_main
  1500                           	
  1501  0A66                     _main:	
  1502                           	opt	stack 0
  1503                           ; Regs used in _main: [wreg-fsr0h+status,2+status,0+pclath+cstack]
  1504                           	line	145
  1505                           	
  1506  0A66                     l10039:	
  1507                           ;Main.c: 145: init();
  1508  0A66  160A  118A  26AD   	fcall	_init
              120A  158A         
  1509  0A6B  2AB5               	goto	l10073
  1510                           	line	151
  1511                           ;Main.c: 151: while(1)
  1512                           	
  1513  0A6C                     l2172:	
  1514                           	line	154
  1515                           ;Main.c: 152: {
  1516                           ;Main.c: 154: switch (buttonPressed)
  1517  0A6C  2AB5               	goto	l10073
  1518                           	line	156
  1519                           ;Main.c: 155: {
  1520                           ;Main.c: 156: case 1:
  1521                           	
  1522  0A6D                     l2174:	
  1523                           	line	157
  1524                           	
  1525  0A6D                     l10041:	
  1526                           ;Main.c: 157: Menu(1);
  1527  0A6D  3001               	movlw	(01h)
  1528  0A6E  120A  158A  21A6   	fcall	_Menu
              120A  158A         
  1529                           	line	158
  1530                           	
  1531  0A73                     l10043:	
  1532                           ;Main.c: 158: RB1 ^= 0x01;
  1533  0A73  1283               	bcf	status, 5	;RP0=0, select bank0
  1534  0A74  1303               	bcf	status, 6	;RP1=0, select bank0
  1535  0A75  3002               	movlw	1<<((49)&7)
  1536  0A76  0686               	xorwf	((49)/8),f
  1537                           	line	159
  1538                           	
  1539  0A77                     l10045:	
  1540                           ;Main.c: 159: buttonPressed = 0;
  1541  0A77  1683               	bsf	status, 5	;RP0=1, select bank1
  1542  0A78  1303               	bcf	status, 6	;RP1=0, select bank1
  1543  0A79  01DB               	clrf	(_buttonPressed)^080h	;volatile
  1544                           	line	161
  1545                           ;Main.c: 161: break;
  1546  0A7A  2AB5               	goto	l10073
  1547                           	line	162
  1548                           ;Main.c: 162: case 2:
  1549                           	
  1550  0A7B                     l2176:	
  1551                           	line	163
  1552                           	
  1553  0A7B                     l10047:	
  1554                           ;Main.c: 163: Menu(2);
  1555  0A7B  3002               	movlw	(02h)
  1556  0A7C  120A  158A  21A6   	fcall	_Menu
              120A  158A         
  1557                           	line	164
  1558                           	
  1559  0A81                     l10049:	
  1560                           ;Main.c: 164: RB1 ^= 0x01;
  1561  0A81  1283               	bcf	status, 5	;RP0=0, select bank0
  1562  0A82  1303               	bcf	status, 6	;RP1=0, select bank0
  1563  0A83  3002               	movlw	1<<((49)&7)
  1564  0A84  0686               	xorwf	((49)/8),f
  1565                           	line	165
  1566                           	
  1567  0A85                     l10051:	
  1568                           ;Main.c: 165: buttonPressed = 0;
  1569  0A85  1683               	bsf	status, 5	;RP0=1, select bank1
  1570  0A86  1303               	bcf	status, 6	;RP1=0, select bank1
  1571  0A87  01DB               	clrf	(_buttonPressed)^080h	;volatile
  1572                           	line	167
  1573                           ;Main.c: 167: break;
  1574  0A88  2AB5               	goto	l10073
  1575                           	line	168
  1576                           ;Main.c: 168: case 3:
  1577                           	
  1578  0A89                     l2177:	
  1579                           	line	169
  1580                           	
  1581  0A89                     l10053:	
  1582                           ;Main.c: 169: Menu(3);
  1583  0A89  3003               	movlw	(03h)
  1584  0A8A  120A  158A  21A6   	fcall	_Menu
              120A  158A         
  1585                           	line	170
  1586                           	
  1587  0A8F                     l10055:	
  1588                           ;Main.c: 170: RB1 ^= 0x01;
  1589  0A8F  1283               	bcf	status, 5	;RP0=0, select bank0
  1590  0A90  1303               	bcf	status, 6	;RP1=0, select bank0
  1591  0A91  3002               	movlw	1<<((49)&7)
  1592  0A92  0686               	xorwf	((49)/8),f
  1593                           	line	171
  1594                           	
  1595  0A93                     l10057:	
  1596                           ;Main.c: 171: buttonPressed = 0;
  1597  0A93  1683               	bsf	status, 5	;RP0=1, select bank1
  1598  0A94  1303               	bcf	status, 6	;RP1=0, select bank1
  1599  0A95  01DB               	clrf	(_buttonPressed)^080h	;volatile
  1600                           	line	173
  1601                           ;Main.c: 173: break;
  1602  0A96  2AB5               	goto	l10073
  1603                           	line	174
  1604                           ;Main.c: 174: case 4:
  1605                           	
  1606  0A97                     l2178:	
  1607                           	line	175
  1608                           	
  1609  0A97                     l10059:	
  1610                           ;Main.c: 175: Menu(4);
  1611  0A97  3004               	movlw	(04h)
  1612  0A98  120A  158A  21A6   	fcall	_Menu
              120A  158A         
  1613                           	line	176
  1614                           	
  1615  0A9D                     l10061:	
  1616                           ;Main.c: 176: RB1 ^= 0x01;
  1617  0A9D  1283               	bcf	status, 5	;RP0=0, select bank0
  1618  0A9E  1303               	bcf	status, 6	;RP1=0, select bank0
  1619  0A9F  3002               	movlw	1<<((49)&7)
  1620  0AA0  0686               	xorwf	((49)/8),f
  1621                           	line	177
  1622                           	
  1623  0AA1                     l10063:	
  1624                           ;Main.c: 177: buttonPressed = 0;
  1625  0AA1  1683               	bsf	status, 5	;RP0=1, select bank1
  1626  0AA2  1303               	bcf	status, 6	;RP1=0, select bank1
  1627  0AA3  01DB               	clrf	(_buttonPressed)^080h	;volatile
  1628                           	line	179
  1629                           ;Main.c: 179: break;
  1630  0AA4  2AB5               	goto	l10073
  1631                           	line	180
  1632                           ;Main.c: 180: case 5:
  1633                           	
  1634  0AA5                     l2179:	
  1635                           	line	181
  1636                           	
  1637  0AA5                     l10065:	
  1638                           ;Main.c: 181: Menu(5);
  1639  0AA5  3005               	movlw	(05h)
  1640  0AA6  120A  158A  21A6   	fcall	_Menu
              120A  158A         
  1641                           	line	182
  1642                           	
  1643  0AAB                     l10067:	
  1644                           ;Main.c: 182: RB1 ^= 0x01;
  1645  0AAB  1283               	bcf	status, 5	;RP0=0, select bank0
  1646  0AAC  1303               	bcf	status, 6	;RP1=0, select bank0
  1647  0AAD  3002               	movlw	1<<((49)&7)
  1648  0AAE  0686               	xorwf	((49)/8),f
  1649                           	line	183
  1650                           	
  1651  0AAF                     l10069:	
  1652                           ;Main.c: 183: buttonPressed = 0;
  1653  0AAF  1683               	bsf	status, 5	;RP0=1, select bank1
  1654  0AB0  1303               	bcf	status, 6	;RP1=0, select bank1
  1655  0AB1  01DB               	clrf	(_buttonPressed)^080h	;volatile
  1656                           	line	185
  1657                           ;Main.c: 185: break;
  1658  0AB2  2AB5               	goto	l10073
  1659                           	line	186
  1660                           ;Main.c: 186: default:
  1661                           	
  1662  0AB3                     l2180:	
  1663                           	line	188
  1664                           ;Main.c: 188: break;
  1665  0AB3  2AB5               	goto	l10073
  1666                           	line	189
  1667                           	
  1668  0AB4                     l10071:	
  1669                           ;Main.c: 189: }
  1670  0AB4  2AB5               	goto	l10073
  1671                           	line	154
  1672                           	
  1673  0AB5                     l2173:	
  1674                           	
  1675  0AB5                     l10073:	
  1676  0AB5  1683               	bsf	status, 5	;RP0=1, select bank1
  1677  0AB6  1303               	bcf	status, 6	;RP1=0, select bank1
  1678  0AB7  085B               	movf	(_buttonPressed)^080h,w	;volatile
  1679                           	; Switch size 1, requested type "space"
  1680                           ; Number of cases is 5, Range of values is 1 to 5
  1681                           ; switch strategies available:
  1682                           ; Name         Instructions Cycles
  1683                           ; simple_byte           16     9 (average)
  1684                           ; direct_byte           26    11 (fixed)
  1685                           ; jumptable            263     9 (fixed)
  1686                           ;	Chosen strategy is simple_byte
  1687                           
  1688                           	opt asmopt_off
  1689  0AB8  3A01               	xorlw	1^0	; case 1
  1690  0AB9  1903               	skipnz
  1691  0ABA  2A6D               	goto	l10041
  1692  0ABB  3A03               	xorlw	2^1	; case 2
  1693  0ABC  1903               	skipnz
  1694  0ABD  2A7B               	goto	l10047
  1695  0ABE  3A01               	xorlw	3^2	; case 3
  1696  0ABF  1903               	skipnz
  1697  0AC0  2A89               	goto	l10053
  1698  0AC1  3A07               	xorlw	4^3	; case 4
  1699  0AC2  1903               	skipnz
  1700  0AC3  2A97               	goto	l10059
  1701  0AC4  3A01               	xorlw	5^4	; case 5
  1702  0AC5  1903               	skipnz
  1703  0AC6  2AA5               	goto	l10065
  1704  0AC7  2AB5               	goto	l10073
  1705                           	opt asmopt_on
  1706                           
  1707                           	line	189
  1708                           	
  1709  0AC8                     l2175:	
  1710  0AC8  2AB5               	goto	l10073
  1711                           	line	255
  1712                           	
  1713  0AC9                     l2181:	
  1714                           	line	151
  1715  0AC9  2AB5               	goto	l10073
  1716                           	
  1717  0ACA                     l2182:	
  1718                           	line	256
  1719                           	
  1720  0ACA                     l2183:	
  1721                           	global	start
  1722  0ACA  120A  118A  2812   	ljmp	start
  1723                           	opt stack 0
  1724                           GLOBAL	__end_of_main
  1725  0ACD                     	__end_of_main:
  1726 ;; =============== function _main ends ============
  1727                           
  1728                           	signat	_main,88
  1729                           	global	_init
  1730                           psect	text758,local,class=CODE,delta=2
  1731                           global __ptext758
  1732  16AD                     __ptext758:
  1733                           
  1734 ;; *************** function _init *****************
  1735 ;; Defined at:
  1736 ;;		line 111 in file "H:\Aldnoah.Zero\trunk\Assignment3\Main.c"
  1737 ;; Parameters:    Size  Location     Type
  1738 ;;		None
  1739 ;; Auto vars:     Size  Location     Type
  1740 ;;		None
  1741 ;; Return value:  Size  Location     Type
  1742 ;;		None               void
  1743 ;; Registers used:
  1744 ;;		wreg, status,2, status,0, pclath, cstack
  1745 ;; Tracked objects:
  1746 ;;		On entry : 0/0
  1747 ;;		On exit  : 0/0
  1748 ;;		Unchanged: 0/0
  1749 ;; Data sizes:     COMMON   BANK0   BANK1   BANK3   BANK2
  1750 ;;      Params:         0       0       0       0       0
  1751 ;;      Locals:         0       0       0       0       0
  1752 ;;      Temps:          0       0       0       0       0
  1753 ;;      Totals:         0       0       0       0       0
  1754 ;;Total ram usage:        0 bytes
  1755 ;; Hardware stack levels used:    1
  1756 ;; Hardware stack levels required when called:    7
  1757 ;; This function calls:
  1758 ;;		_init_adc
  1759 ;;		_lcd_init
  1760 ;;		_ser_init
  1761 ;; This function is called by:
  1762 ;;		_main
  1763 ;; This function uses a non-reentrant model
  1764 ;;
  1765                           psect	text758
  1766                           	file	"H:\Aldnoah.Zero\trunk\Assignment3\Main.c"
  1767                           	line	111
  1768                           	global	__size_of_init
  1769  0018                     	__size_of_init	equ	__end_of_init-_init
  1770                           	
  1771  16AD                     _init:	
  1772                           	opt	stack 0
  1773                           ; Regs used in _init: [wreg+status,2+status,0+pclath+cstack]
  1774                           	line	112
  1775                           	
  1776  16AD                     l10029:	
  1777                           ;Main.c: 112: init_adc();
  1778  16AD  160A  118A  2699   	fcall	_init_adc
              160A  118A         
  1779                           	line	113
  1780                           ;Main.c: 113: lcd_init();
  1781  16B2  160A  118A  27A3   	fcall	_lcd_init
              160A  118A         
  1782                           	line	114
  1783                           ;Main.c: 114: ser_init();
  1784  16B7  160A  118A  2727   	fcall	_ser_init
              160A  118A         
  1785                           	line	116
  1786                           	
  1787  16BC                     l10031:	
  1788                           ;Main.c: 116: TRISB = 0b11111100;
  1789  16BC  30FC               	movlw	(0FCh)
  1790  16BD  1683               	bsf	status, 5	;RP0=1, select bank1
  1791  16BE  1303               	bcf	status, 6	;RP1=0, select bank1
  1792  16BF  0086               	movwf	(134)^080h	;volatile
  1793                           	line	122
  1794                           	
  1795  16C0                     l10033:	
  1796                           ;Main.c: 122: OPTION_REG = 0b00000100;
  1797  16C0  3004               	movlw	(04h)
  1798  16C1  0081               	movwf	(129)^080h	;volatile
  1799                           	line	125
  1800                           	
  1801  16C2                     l10035:	
  1802                           ;Main.c: 125: TMR0IE = 1;
  1803  16C2  168B               	bsf	(93/8),(93)&7
  1804                           	line	128
  1805                           	
  1806  16C3                     l10037:	
  1807                           ;Main.c: 128: (GIE = 1);
  1808  16C3  178B               	bsf	(95/8),(95)&7
  1809                           	line	129
  1810                           	
  1811  16C4                     l2169:	
  1812  16C4  0008               	return
  1813                           	opt stack 0
  1814                           GLOBAL	__end_of_init
  1815  16C5                     	__end_of_init:
  1816 ;; =============== function _init ends ============
  1817                           
  1818                           	signat	_init,88
  1819                           	global	_lcd_init
  1820                           psect	text759,local,class=CODE,delta=2
  1821                           global __ptext759
  1822  17A3                     __ptext759:
  1823                           
  1824 ;; *************** function _lcd_init *****************
  1825 ;; Defined at:
  1826 ;;		line 101 in file "E:\Aldnoah.Zero\Assignment3\lcd.c"
  1827 ;; Parameters:    Size  Location     Type
  1828 ;;		None
  1829 ;; Auto vars:     Size  Location     Type
  1830 ;;		None
  1831 ;; Return value:  Size  Location     Type
  1832 ;;		None               void
  1833 ;; Registers used:
  1834 ;;		wreg, status,2, status,0, pclath, cstack
  1835 ;; Tracked objects:
  1836 ;;		On entry : 0/0
  1837 ;;		On exit  : 0/0
  1838 ;;		Unchanged: 0/0
  1839 ;; Data sizes:     COMMON   BANK0   BANK1   BANK3   BANK2
  1840 ;;      Params:         0       0       0       0       0
  1841 ;;      Locals:         0       0       0       0       0
  1842 ;;      Temps:          0       0       0       0       0
  1843 ;;      Totals:         0       0       0       0       0
  1844 ;;Total ram usage:        0 bytes
  1845 ;; Hardware stack levels used:    1
  1846 ;; Hardware stack levels required when called:    6
  1847 ;; This function calls:
  1848 ;;		_lcd_write_control
  1849 ;; This function is called by:
  1850 ;;		_init
  1851 ;; This function uses a non-reentrant model
  1852 ;;
  1853                           psect	text759
  1854                           	file	"E:\Aldnoah.Zero\Assignment3\lcd.c"
  1855                           	line	101
  1856                           	global	__size_of_lcd_init
  1857  002B                     	__size_of_lcd_init	equ	__end_of_lcd_init-_lcd_init
  1858                           	
  1859  17A3                     _lcd_init:	
  1860                           	opt	stack 0
  1861                           ; Regs used in _lcd_init: [wreg+status,2+status,0+pclath+cstack]
  1862                           	line	105
  1863                           	
  1864  17A3                     l10009:	
  1865                           ;lcd.c: 105: ADCON1 = 0b00000010;
  1866  17A3  3002               	movlw	(02h)
  1867  17A4  1683               	bsf	status, 5	;RP0=1, select bank1
  1868  17A5  1303               	bcf	status, 6	;RP1=0, select bank1
  1869  17A6  009F               	movwf	(159)^080h	;volatile
  1870                           	line	108
  1871                           	
  1872  17A7                     l10011:	
  1873                           ;lcd.c: 108: PORTD = 0;
  1874  17A7  1283               	bcf	status, 5	;RP0=0, select bank0
  1875  17A8  1303               	bcf	status, 6	;RP1=0, select bank0
  1876  17A9  0188               	clrf	(8)	;volatile
  1877                           	line	109
  1878                           	
  1879  17AA                     l10013:	
  1880                           ;lcd.c: 109: PORTE = 0;
  1881  17AA  0189               	clrf	(9)	;volatile
  1882                           	line	111
  1883                           	
  1884  17AB                     l10015:	
  1885                           ;lcd.c: 111: TRISD = 0b00000000;
  1886  17AB  1683               	bsf	status, 5	;RP0=1, select bank1
  1887  17AC  1303               	bcf	status, 6	;RP1=0, select bank1
  1888  17AD  0188               	clrf	(136)^080h	;volatile
  1889                           	line	112
  1890                           	
  1891  17AE                     l10017:	
  1892                           ;lcd.c: 112: TRISE = 0b00000000;
  1893  17AE  0189               	clrf	(137)^080h	;volatile
  1894                           	line	115
  1895                           	
  1896  17AF                     l10019:	
  1897                           ;lcd.c: 115: lcd_write_control(0b00000001);
  1898  17AF  3001               	movlw	(01h)
  1899  17B0  120A  158A  2060   	fcall	_lcd_write_control
              160A  118A         
  1900                           	line	116
  1901                           	
  1902  17B5                     l10021:	
  1903                           ;lcd.c: 116: lcd_write_control(0b00111000);
  1904  17B5  3038               	movlw	(038h)
  1905  17B6  120A  158A  2060   	fcall	_lcd_write_control
              160A  118A         
  1906                           	line	117
  1907                           	
  1908  17BB                     l10023:	
  1909                           ;lcd.c: 117: lcd_write_control(0b00001100);
  1910  17BB  300C               	movlw	(0Ch)
  1911  17BC  120A  158A  2060   	fcall	_lcd_write_control
              160A  118A         
  1912                           	line	118
  1913                           	
  1914  17C1                     l10025:	
  1915                           ;lcd.c: 118: lcd_write_control(0b00000110);
  1916  17C1  3006               	movlw	(06h)
  1917  17C2  120A  158A  2060   	fcall	_lcd_write_control
              160A  118A         
  1918                           	line	119
  1919                           	
  1920  17C7                     l10027:	
  1921                           ;lcd.c: 119: lcd_write_control(0b00000010);
  1922  17C7  3002               	movlw	(02h)
  1923  17C8  120A  158A  2060   	fcall	_lcd_write_control
              160A  118A         
  1924                           	line	121
  1925                           	
  1926  17CD                     l1423:	
  1927  17CD  0008               	return
  1928                           	opt stack 0
  1929                           GLOBAL	__end_of_lcd_init
  1930  17CE                     	__end_of_lcd_init:
  1931 ;; =============== function _lcd_init ends ============
  1932                           
  1933                           	signat	_lcd_init,88
  1934                           	global	_lcd_write_control
  1935                           psect	text760,local,class=CODE,delta=2
  1936                           global __ptext760
  1937  0860                     __ptext760:
  1938                           
  1939 ;; *************** function _lcd_write_control *****************
  1940 ;; Defined at:
  1941 ;;		line 18 in file "E:\Aldnoah.Zero\Assignment3\lcd.c"
  1942 ;; Parameters:    Size  Location     Type
  1943 ;;  databyte        1    wreg     unsigned char 
  1944 ;; Auto vars:     Size  Location     Type
  1945 ;;  databyte        1    2[BANK1 ] unsigned char 
  1946 ;; Return value:  Size  Location     Type
  1947 ;;		None               void
  1948 ;; Registers used:
  1949 ;;		wreg
  1950 ;; Tracked objects:
  1951 ;;		On entry : 0/0
  1952 ;;		On exit  : 0/0
  1953 ;;		Unchanged: 0/0
  1954 ;; Data sizes:     COMMON   BANK0   BANK1   BANK3   BANK2
  1955 ;;      Params:         0       0       0       0       0
  1956 ;;      Locals:         0       0       1       0       0
  1957 ;;      Temps:          0       0       2       0       0
  1958 ;;      Totals:         0       0       3       0       0
  1959 ;;Total ram usage:        3 bytes
  1960 ;; Hardware stack levels used:    1
  1961 ;; Hardware stack levels required when called:    5
  1962 ;; This function calls:
  1963 ;;		Nothing
  1964 ;; This function is called by:
  1965 ;;		_lcd_init
  1966 ;; This function uses a non-reentrant model
  1967 ;;
  1968                           psect	text760
  1969                           	file	"E:\Aldnoah.Zero\Assignment3\lcd.c"
  1970                           	line	18
  1971                           	global	__size_of_lcd_write_control
  1972  001C                     	__size_of_lcd_write_control	equ	__end_of_lcd_write_control-_lcd_write_control
  1973                           	
  1974  0860                     _lcd_write_control:	
  1975                           	opt	stack 0
  1976                           ; Regs used in _lcd_write_control: [wreg]
  1977                           ;lcd_write_control@databyte stored from wreg
  1978  0860  1683               	bsf	status, 5	;RP0=1, select bank1
  1979  0861  1303               	bcf	status, 6	;RP1=0, select bank1
  1980  0862  00ED               	movwf	(lcd_write_control@databyte)^080h
  1981                           	line	19
  1982                           	
  1983  0863                     l10001:	
  1984                           ;lcd.c: 19: RE2 = 0;
  1985  0863  1283               	bcf	status, 5	;RP0=0, select bank0
  1986  0864  1303               	bcf	status, 6	;RP1=0, select bank0
  1987  0865  1109               	bcf	(74/8),(74)&7
  1988                           	line	20
  1989                           ;lcd.c: 20: RE1 = 0;
  1990  0866  1089               	bcf	(73/8),(73)&7
  1991                           	line	21
  1992                           ;lcd.c: 21: RE0 = 0;
  1993  0867  1009               	bcf	(72/8),(72)&7
  1994                           	line	22
  1995                           	
  1996  0868                     l10003:	
  1997                           ;lcd.c: 22: PORTD = databyte;
  1998  0868  1683               	bsf	status, 5	;RP0=1, select bank1
  1999  0869  1303               	bcf	status, 6	;RP1=0, select bank1
  2000  086A  086D               	movf	(lcd_write_control@databyte)^080h,w
  2001  086B  1283               	bcf	status, 5	;RP0=0, select bank0
  2002  086C  1303               	bcf	status, 6	;RP1=0, select bank0
  2003  086D  0088               	movwf	(8)	;volatile
  2004                           	line	23
  2005                           	
  2006  086E                     l10005:	
  2007                           ;lcd.c: 23: RE2 = 1;
  2008  086E  1509               	bsf	(74/8),(74)&7
  2009                           	line	24
  2010                           	
  2011  086F                     l10007:	
  2012                           ;lcd.c: 24: RE2 = 0;
  2013  086F  1109               	bcf	(74/8),(74)&7
  2014                           	line	25
  2015                           ;lcd.c: 25: _delay((unsigned long)((2)*(20000000/4000.0)));
  2016                           	opt asmopt_off
  2017  0870  300D               movlw	13
  2018  0871  1683               	bsf	status, 5	;RP0=1, select bank1
  2019  0872  1303               	bcf	status, 6	;RP1=0, select bank1
  2020  0873  00EC               movwf	((??_lcd_write_control+0)^080h+0+1),f
  2021  0874  30FB               	movlw	251
  2022  0875  00EB               movwf	((??_lcd_write_control+0)^080h+0),f
  2023  0876                     u4867:
  2024  0876  0BEB               	decfsz	((??_lcd_write_control+0)^080h+0),f
  2025  0877  2876               	goto	u4867
  2026  0878  0BEC               	decfsz	((??_lcd_write_control+0)^080h+0+1),f
  2027  0879  2876               	goto	u4867
  2028  087A  287B               	nop2
  2029                           opt asmopt_on
  2030                           
  2031                           	line	26
  2032                           	
  2033  087B                     l1393:	
  2034  087B  0008               	return
  2035                           	opt stack 0
  2036                           GLOBAL	__end_of_lcd_write_control
  2037  087C                     	__end_of_lcd_write_control:
  2038 ;; =============== function _lcd_write_control ends ============
  2039                           
  2040                           	signat	_lcd_write_control,4216
  2041                           	global	_init_adc
  2042                           psect	text761,local,class=CODE,delta=2
  2043                           global __ptext761
  2044  1699                     __ptext761:
  2045                           
  2046 ;; *************** function _init_adc *****************
  2047 ;; Defined at:
  2048 ;;		line 46 in file "E:\Aldnoah.Zero\Assignment3\adc.c"
  2049 ;; Parameters:    Size  Location     Type
  2050 ;;		None
  2051 ;; Auto vars:     Size  Location     Type
  2052 ;;		None
  2053 ;; Return value:  Size  Location     Type
  2054 ;;		None               void
  2055 ;; Registers used:
  2056 ;;		wreg, status,2
  2057 ;; Tracked objects:
  2058 ;;		On entry : 0/0
  2059 ;;		On exit  : 0/0
  2060 ;;		Unchanged: 0/0
  2061 ;; Data sizes:     COMMON   BANK0   BANK1   BANK3   BANK2
  2062 ;;      Params:         0       0       0       0       0
  2063 ;;      Locals:         0       0       0       0       0
  2064 ;;      Temps:          0       0       1       0       0
  2065 ;;      Totals:         0       0       1       0       0
  2066 ;;Total ram usage:        1 bytes
  2067 ;; Hardware stack levels used:    1
  2068 ;; Hardware stack levels required when called:    5
  2069 ;; This function calls:
  2070 ;;		Nothing
  2071 ;; This function is called by:
  2072 ;;		_init
  2073 ;; This function uses a non-reentrant model
  2074 ;;
  2075                           psect	text761
  2076                           	file	"E:\Aldnoah.Zero\Assignment3\adc.c"
  2077                           	line	46
  2078                           	global	__size_of_init_adc
  2079  0014                     	__size_of_init_adc	equ	__end_of_init_adc-_init_adc
  2080                           	
  2081  1699                     _init_adc:	
  2082                           	opt	stack 1
  2083                           ; Regs used in _init_adc: [wreg+status,2]
  2084                           	line	48
  2085                           	
  2086  1699                     l9991:	
  2087                           ;adc.c: 48: PORTA = 0;
  2088  1699  1283               	bcf	status, 5	;RP0=0, select bank0
  2089  169A  1303               	bcf	status, 6	;RP1=0, select bank0
  2090  169B  0185               	clrf	(5)	;volatile
  2091                           	line	49
  2092                           	
  2093  169C                     l9993:	
  2094                           ;adc.c: 49: TRISA = 0b00111111;
  2095  169C  303F               	movlw	(03Fh)
  2096  169D  1683               	bsf	status, 5	;RP0=1, select bank1
  2097  169E  1303               	bcf	status, 6	;RP1=0, select bank1
  2098  169F  0085               	movwf	(133)^080h	;volatile
  2099                           	line	52
  2100                           	
  2101  16A0                     l9995:	
  2102                           ;adc.c: 52: ADCON0 = 0b10100001;
  2103  16A0  30A1               	movlw	(0A1h)
  2104  16A1  1283               	bcf	status, 5	;RP0=0, select bank0
  2105  16A2  1303               	bcf	status, 6	;RP1=0, select bank0
  2106  16A3  009F               	movwf	(31)	;volatile
  2107                           	line	53
  2108                           	
  2109  16A4                     l9997:	
  2110                           ;adc.c: 53: ADCON1 = 0b0000010;
  2111  16A4  3002               	movlw	(02h)
  2112  16A5  1683               	bsf	status, 5	;RP0=1, select bank1
  2113  16A6  1303               	bcf	status, 6	;RP1=0, select bank1
  2114  16A7  009F               	movwf	(159)^080h	;volatile
  2115                           	line	55
  2116                           	
  2117  16A8                     l9999:	
  2118                           ;adc.c: 55: _delay((unsigned long)((50)*(20000000/4000000.0)));
  2119                           	opt asmopt_off
  2120  16A8  3053               movlw	83
  2121  16A9  00EB               movwf	(??_init_adc+0)^080h+0,f
  2122  16AA                     u4877:
  2123  16AA  0BEB               decfsz	(??_init_adc+0)^080h+0,f
  2124  16AB  2EAA               	goto	u4877
  2125                           opt asmopt_on
  2126                           
  2127                           	line	57
  2128                           	
  2129  16AC                     l700:	
  2130  16AC  0008               	return
  2131                           	opt stack 0
  2132                           GLOBAL	__end_of_init_adc
  2133  16AD                     	__end_of_init_adc:
  2134 ;; =============== function _init_adc ends ============
  2135                           
  2136                           	signat	_init_adc,88
  2137                           	global	_Menu
  2138                           psect	text762,local,class=CODE,delta=2
  2139                           global __ptext762
  2140  09A6                     __ptext762:
  2141                           
  2142 ;; *************** function _Menu *****************
  2143 ;; Defined at:
  2144 ;;		line 182 in file "H:\Aldnoah.Zero\trunk\Assignment3\HMI.c"
  2145 ;; Parameters:    Size  Location     Type
  2146 ;;  input           1    wreg     unsigned char 
  2147 ;; Auto vars:     Size  Location     Type
  2148 ;;  input           1    0[BANK1 ] unsigned char 
  2149 ;; Return value:  Size  Location     Type
  2150 ;;		None               void
  2151 ;; Registers used:
  2152 ;;		wreg, fsr0l, fsr0h, status,2, status,0
  2153 ;; Tracked objects:
  2154 ;;		On entry : 0/0
  2155 ;;		On exit  : 0/0
  2156 ;;		Unchanged: 0/0
  2157 ;; Data sizes:     COMMON   BANK0   BANK1   BANK3   BANK2
  2158 ;;      Params:         0       0       0       0       0
  2159 ;;      Locals:         0       0       1       0       0
  2160 ;;      Temps:          0       0       0       0       0
  2161 ;;      Totals:         0       0       1       0       0
  2162 ;;Total ram usage:        1 bytes
  2163 ;; Hardware stack levels used:    1
  2164 ;; Hardware stack levels required when called:    5
  2165 ;; This function calls:
  2166 ;;		Nothing
  2167 ;; This function is called by:
  2168 ;;		_main
  2169 ;; This function uses a non-reentrant model
  2170 ;;
  2171                           psect	text762
  2172                           	file	"H:\Aldnoah.Zero\trunk\Assignment3\HMI.c"
  2173                           	line	182
  2174                           	global	__size_of_Menu
  2175  005A                     	__size_of_Menu	equ	__end_of_Menu-_Menu
  2176                           	
  2177  09A6                     _Menu:	
  2178                           	opt	stack 2
  2179                           ; Regs used in _Menu: [wreg-fsr0h+status,2+status,0]
  2180                           ;Menu@input stored from wreg
  2181  09A6  1683               	bsf	status, 5	;RP0=1, select bank1
  2182  09A7  1303               	bcf	status, 6	;RP1=0, select bank1
  2183  09A8  00EB               	movwf	(Menu@input)^080h
  2184                           	line	183
  2185                           	
  2186  09A9                     l9247:	
  2187                           ;HMI.c: 183: switch (input)
  2188  09A9  29EE               	goto	l9265
  2189                           	line	185
  2190                           ;HMI.c: 184: {
  2191                           ;HMI.c: 185: case 1:
  2192                           	
  2193  09AA                     l5110:	
  2194                           	line	187
  2195                           ;HMI.c: 187: break;
  2196  09AA  29FF               	goto	l5127
  2197                           	line	188
  2198                           ;HMI.c: 188: case 2:
  2199                           	
  2200  09AB                     l5112:	
  2201                           	line	190
  2202                           ;HMI.c: 190: break;
  2203  09AB  29FF               	goto	l5127
  2204                           	line	191
  2205                           ;HMI.c: 191: case 3:
  2206                           	
  2207  09AC                     l5113:	
  2208                           	line	192
  2209                           	
  2210  09AC                     l9249:	
  2211                           ;HMI.c: 192: pos--;
  2212  09AC  30FF               	movlw	low(-1)
  2213  09AD  07D4               	addwf	(_pos)^080h,f
  2214  09AE  1803               	skipnc
  2215  09AF  0AD5               	incf	(_pos+1)^080h,f
  2216  09B0  30FF               	movlw	high(-1)
  2217  09B1  07D5               	addwf	(_pos+1)^080h,f
  2218                           	line	193
  2219                           	
  2220  09B2                     l9251:	
  2221                           ;HMI.c: 193: if (pos < 0)
  2222  09B2  1FD5               	btfss	(_pos+1)^080h,7
  2223  09B3  29B5               	goto	u3271
  2224  09B4  29B6               	goto	u3270
  2225  09B5                     u3271:
  2226  09B5  29FF               	goto	l5127
  2227  09B6                     u3270:
  2228                           	line	194
  2229                           	
  2230  09B6                     l9253:	
  2231                           ;HMI.c: 194: pos = 5 - 1;
  2232  09B6  3004               	movlw	low(04h)
  2233  09B7  00D4               	movwf	(_pos)^080h
  2234  09B8  3000               	movlw	high(04h)
  2235  09B9  00D5               	movwf	((_pos)^080h)+1
  2236  09BA  29FF               	goto	l5127
  2237                           	
  2238  09BB                     l5114:	
  2239                           	line	196
  2240                           ;HMI.c: 196: break;
  2241  09BB  29FF               	goto	l5127
  2242                           	line	197
  2243                           ;HMI.c: 197: case 4:
  2244                           	
  2245  09BC                     l5115:	
  2246                           	line	198
  2247                           	
  2248  09BC                     l9255:	
  2249                           ;HMI.c: 198: pos++;
  2250  09BC  3001               	movlw	low(01h)
  2251  09BD  07D4               	addwf	(_pos)^080h,f
  2252  09BE  1803               	skipnc
  2253  09BF  0AD5               	incf	(_pos+1)^080h,f
  2254  09C0  3000               	movlw	high(01h)
  2255  09C1  07D5               	addwf	(_pos+1)^080h,f
  2256                           	line	199
  2257                           ;HMI.c: 199: if (pos == 5)
  2258  09C2  3005               	movlw	05h
  2259  09C3  0654               	xorwf	(_pos)^080h,w
  2260  09C4  0455               	iorwf	(_pos+1)^080h,w
  2261  09C5  1D03               	skipz
  2262  09C6  29C8               	goto	u3281
  2263  09C7  29C9               	goto	u3280
  2264  09C8                     u3281:
  2265  09C8  29FF               	goto	l5127
  2266  09C9                     u3280:
  2267                           	line	200
  2268                           	
  2269  09C9                     l9257:	
  2270                           ;HMI.c: 200: pos = 0;
  2271  09C9  01D4               	clrf	(_pos)^080h
  2272  09CA  01D5               	clrf	(_pos+1)^080h
  2273  09CB  29FF               	goto	l5127
  2274                           	
  2275  09CC                     l5116:	
  2276                           	line	202
  2277                           ;HMI.c: 202: break;
  2278  09CC  29FF               	goto	l5127
  2279                           	line	203
  2280                           ;HMI.c: 203: case 5:
  2281                           	
  2282  09CD                     l5117:	
  2283                           	line	204
  2284                           ;HMI.c: 204: switch (pos)
  2285  09CD  29D5               	goto	l9261
  2286                           	line	206
  2287                           ;HMI.c: 205: {
  2288                           ;HMI.c: 206: case 0:
  2289                           	
  2290  09CE                     l5119:	
  2291                           	line	208
  2292                           ;HMI.c: 208: break;
  2293  09CE  29FF               	goto	l5127
  2294                           	line	209
  2295                           ;HMI.c: 209: case 1:
  2296                           	
  2297  09CF                     l5121:	
  2298                           	line	211
  2299                           ;HMI.c: 211: break;
  2300  09CF  29FF               	goto	l5127
  2301                           	line	212
  2302                           ;HMI.c: 212: case 2:
  2303                           	
  2304  09D0                     l5122:	
  2305                           	line	214
  2306                           ;HMI.c: 214: break;
  2307  09D0  29FF               	goto	l5127
  2308                           	line	215
  2309                           ;HMI.c: 215: case 3:
  2310                           	
  2311  09D1                     l5123:	
  2312                           	line	217
  2313                           ;HMI.c: 217: break;
  2314  09D1  29FF               	goto	l5127
  2315                           	line	218
  2316                           ;HMI.c: 218: case 4:
  2317                           	
  2318  09D2                     l5124:	
  2319                           	line	220
  2320                           ;HMI.c: 220: break;
  2321  09D2  29FF               	goto	l5127
  2322                           	line	221
  2323                           ;HMI.c: 221: default:
  2324                           	
  2325  09D3                     l5125:	
  2326                           	line	222
  2327                           ;HMI.c: 222: break;
  2328  09D3  29FF               	goto	l5127
  2329                           	line	223
  2330                           	
  2331  09D4                     l9259:	
  2332                           ;HMI.c: 223: }
  2333  09D4  29FF               	goto	l5127
  2334                           	line	204
  2335                           	
  2336  09D5                     l5118:	
  2337                           	
  2338  09D5                     l9261:	
  2339                           	; Switch on 2 bytes has been partitioned into a top level switch of size 1, and 1 sub-s
                                 witches
  2340                           ; Switch size 1, requested type "space"
  2341                           ; Number of cases is 1, Range of values is 0 to 0
  2342                           ; switch strategies available:
  2343                           ; Name         Instructions Cycles
  2344                           ; simple_byte            4     3 (average)
  2345                           ; direct_byte           11     8 (fixed)
  2346                           ; jumptable            260     6 (fixed)
  2347                           ; rangetable             5     6 (fixed)
  2348                           ; spacedrange            8     9 (fixed)
  2349                           ; locatedrange           1     3 (fixed)
  2350                           ;	Chosen strategy is simple_byte
  2351                           
  2352  09D5  0855               	movf (_pos+1)^080h,w
  2353                           	opt asmopt_off
  2354  09D6  3A00               	xorlw	0^0	; case 0
  2355  09D7  1903               	skipnz
  2356  09D8  29DA               	goto	l10085
  2357  09D9  29FF               	goto	l5127
  2358                           	opt asmopt_on
  2359                           	
  2360  09DA                     l10085:	
  2361                           ; Switch size 1, requested type "space"
  2362                           ; Number of cases is 5, Range of values is 0 to 4
  2363                           ; switch strategies available:
  2364                           ; Name         Instructions Cycles
  2365                           ; simple_byte           16     9 (average)
  2366                           ; direct_byte           23     8 (fixed)
  2367                           ; jumptable            260     6 (fixed)
  2368                           ; rangetable             9     6 (fixed)
  2369                           ; spacedrange           16     9 (fixed)
  2370                           ; locatedrange           5     3 (fixed)
  2371                           ;	Chosen strategy is simple_byte
  2372                           
  2373  09DA  0854               	movf (_pos)^080h,w
  2374                           	opt asmopt_off
  2375  09DB  3A00               	xorlw	0^0	; case 0
  2376  09DC  1903               	skipnz
  2377  09DD  29FF               	goto	l5127
  2378  09DE  3A01               	xorlw	1^0	; case 1
  2379  09DF  1903               	skipnz
  2380  09E0  29FF               	goto	l5127
  2381  09E1  3A03               	xorlw	2^1	; case 2
  2382  09E2  1903               	skipnz
  2383  09E3  29FF               	goto	l5127
  2384  09E4  3A01               	xorlw	3^2	; case 3
  2385  09E5  1903               	skipnz
  2386  09E6  29FF               	goto	l5127
  2387  09E7  3A07               	xorlw	4^3	; case 4
  2388  09E8  1903               	skipnz
  2389  09E9  29FF               	goto	l5127
  2390  09EA  29FF               	goto	l5127
  2391                           	opt asmopt_on
  2392                           
  2393                           	line	223
  2394                           	
  2395  09EB                     l5120:	
  2396                           	line	224
  2397                           ;HMI.c: 224: break;
  2398  09EB  29FF               	goto	l5127
  2399                           	line	226
  2400                           ;HMI.c: 226: default:
  2401                           	
  2402  09EC                     l5126:	
  2403                           	line	228
  2404                           ;HMI.c: 228: break;
  2405  09EC  29FF               	goto	l5127
  2406                           	line	229
  2407                           	
  2408  09ED                     l9263:	
  2409                           ;HMI.c: 229: }
  2410  09ED  29FF               	goto	l5127
  2411                           	line	183
  2412                           	
  2413  09EE                     l5109:	
  2414                           	
  2415  09EE                     l9265:	
  2416  09EE  086B               	movf	(Menu@input)^080h,w
  2417                           	; Switch size 1, requested type "space"
  2418                           ; Number of cases is 5, Range of values is 1 to 5
  2419                           ; switch strategies available:
  2420                           ; Name         Instructions Cycles
  2421                           ; simple_byte           16     9 (average)
  2422                           ; direct_byte           26    11 (fixed)
  2423                           ; jumptable            263     9 (fixed)
  2424                           ;	Chosen strategy is simple_byte
  2425                           
  2426                           	opt asmopt_off
  2427  09EF  3A01               	xorlw	1^0	; case 1
  2428  09F0  1903               	skipnz
  2429  09F1  29FF               	goto	l5127
  2430  09F2  3A03               	xorlw	2^1	; case 2
  2431  09F3  1903               	skipnz
  2432  09F4  29FF               	goto	l5127
  2433  09F5  3A01               	xorlw	3^2	; case 3
  2434  09F6  1903               	skipnz
  2435  09F7  29AC               	goto	l9249
  2436  09F8  3A07               	xorlw	4^3	; case 4
  2437  09F9  1903               	skipnz
  2438  09FA  29BC               	goto	l9255
  2439  09FB  3A01               	xorlw	5^4	; case 5
  2440  09FC  1903               	skipnz
  2441  09FD  29D5               	goto	l9261
  2442  09FE  29FF               	goto	l5127
  2443                           	opt asmopt_on
  2444                           
  2445                           	line	229
  2446                           	
  2447  09FF                     l5111:	
  2448                           	line	230
  2449                           	
  2450  09FF                     l5127:	
  2451  09FF  0008               	return
  2452                           	opt stack 0
  2453                           GLOBAL	__end_of_Menu
  2454  0A00                     	__end_of_Menu:
  2455 ;; =============== function _Menu ends ============
  2456                           
  2457                           	signat	_Menu,4216
  2458                           	global	_ser_init
  2459                           psect	text763,local,class=CODE,delta=2
  2460                           global __ptext763
  2461  1727                     __ptext763:
  2462                           
  2463 ;; *************** function _ser_init *****************
  2464 ;; Defined at:
  2465 ;;		line 113 in file "H:\Aldnoah.Zero\trunk\Assignment3\ser.c"
  2466 ;; Parameters:    Size  Location     Type
  2467 ;;		None
  2468 ;; Auto vars:     Size  Location     Type
  2469 ;;		None
  2470 ;; Return value:  Size  Location     Type
  2471 ;;		None               void
  2472 ;; Registers used:
  2473 ;;		wreg, status,2, status,0
  2474 ;; Tracked objects:
  2475 ;;		On entry : 0/0
  2476 ;;		On exit  : 0/0
  2477 ;;		Unchanged: 0/0
  2478 ;; Data sizes:     COMMON   BANK0   BANK1   BANK3   BANK2
  2479 ;;      Params:         0       0       0       0       0
  2480 ;;      Locals:         0       0       0       0       0
  2481 ;;      Temps:          0       0       1       0       0
  2482 ;;      Totals:         0       0       1       0       0
  2483 ;;Total ram usage:        1 bytes
  2484 ;; Hardware stack levels used:    1
  2485 ;; Hardware stack levels required when called:    5
  2486 ;; This function calls:
  2487 ;;		Nothing
  2488 ;; This function is called by:
  2489 ;;		_init
  2490 ;; This function uses a non-reentrant model
  2491 ;;
  2492                           psect	text763
  2493                           	file	"H:\Aldnoah.Zero\trunk\Assignment3\ser.c"
  2494                           	line	113
  2495                           	global	__size_of_ser_init
  2496  0028                     	__size_of_ser_init	equ	__end_of_ser_init-_ser_init
  2497                           	
  2498  1727                     _ser_init:	
  2499                           	opt	stack 1
  2500                           ; Regs used in _ser_init: [wreg+status,2+status,0]
  2501                           	line	114
  2502                           	
  2503  1727                     l9221:	
  2504                           ;ser.c: 114: TRISC |= 0b10000000;
  2505  1727  1683               	bsf	status, 5	;RP0=1, select bank1
  2506  1728  1303               	bcf	status, 6	;RP1=0, select bank1
  2507  1729  1787               	bsf	(135)^080h+(7/8),(7)&7	;volatile
  2508                           	line	115
  2509                           	
  2510  172A                     l9223:	
  2511                           ;ser.c: 115: TRISC &= 0b10111111;
  2512  172A  30BF               	movlw	(0BFh)
  2513  172B  00EB               	movwf	(??_ser_init+0)^080h+0
  2514  172C  086B               	movf	(??_ser_init+0)^080h+0,w
  2515  172D  0587               	andwf	(135)^080h,f	;volatile
  2516                           	line	116
  2517                           	
  2518  172E                     l9225:	
  2519                           ;ser.c: 116: BRGH=1;
  2520  172E  1518               	bsf	(1218/8)^080h,(1218)&7
  2521                           	line	118
  2522                           	
  2523  172F                     l9227:	
  2524                           ;ser.c: 118: SPBRG=20;
  2525  172F  3014               	movlw	(014h)
  2526  1730  0099               	movwf	(153)^080h	;volatile
  2527                           	line	121
  2528                           	
  2529  1731                     l9229:	
  2530                           ;ser.c: 121: TX9=0;
  2531  1731  1318               	bcf	(1222/8)^080h,(1222)&7
  2532                           	line	122
  2533                           	
  2534  1732                     l9231:	
  2535                           ;ser.c: 122: RX9=0;
  2536  1732  1283               	bcf	status, 5	;RP0=0, select bank0
  2537  1733  1303               	bcf	status, 6	;RP1=0, select bank0
  2538  1734  1318               	bcf	(198/8),(198)&7
  2539                           	line	124
  2540                           	
  2541  1735                     l9233:	
  2542                           ;ser.c: 124: SYNC=0;
  2543  1735  1683               	bsf	status, 5	;RP0=1, select bank1
  2544  1736  1303               	bcf	status, 6	;RP1=0, select bank1
  2545  1737  1218               	bcf	(1220/8)^080h,(1220)&7
  2546                           	line	125
  2547                           	
  2548  1738                     l9235:	
  2549                           ;ser.c: 125: SPEN=1;
  2550  1738  1283               	bcf	status, 5	;RP0=0, select bank0
  2551  1739  1303               	bcf	status, 6	;RP1=0, select bank0
  2552  173A  1798               	bsf	(199/8),(199)&7
  2553                           	line	126
  2554                           	
  2555  173B                     l9237:	
  2556                           ;ser.c: 126: CREN=1;
  2557  173B  1618               	bsf	(196/8),(196)&7
  2558                           	line	127
  2559                           	
  2560  173C                     l9239:	
  2561                           ;ser.c: 127: TXIE=0;
  2562  173C  1683               	bsf	status, 5	;RP0=1, select bank1
  2563  173D  1303               	bcf	status, 6	;RP1=0, select bank1
  2564  173E  120C               	bcf	(1124/8)^080h,(1124)&7
  2565                           	line	128
  2566                           	
  2567  173F                     l9241:	
  2568                           ;ser.c: 128: RCIE=1;
  2569  173F  168C               	bsf	(1125/8)^080h,(1125)&7
  2570                           	line	129
  2571                           	
  2572  1740                     l9243:	
  2573                           ;ser.c: 129: TXEN=1;
  2574  1740  1698               	bsf	(1221/8)^080h,(1221)&7
  2575                           	line	132
  2576                           	
  2577  1741                     l9245:	
  2578                           ;ser.c: 132: rxiptr=rxoptr=txiptr=txoptr=0;
  2579  1741  3000               	movlw	(0)
  2580  1742  00DF               	movwf	(_txoptr)^080h	;volatile
  2581  1743  1283               	bcf	status, 5	;RP0=0, select bank0
  2582  1744  1303               	bcf	status, 6	;RP1=0, select bank0
  2583  1745  00EF               	movwf	(_txiptr)	;volatile
  2584  1746  1683               	bsf	status, 5	;RP0=1, select bank1
  2585  1747  1303               	bcf	status, 6	;RP1=0, select bank1
  2586  1748  00DD               	movwf	(_rxoptr)^080h	;volatile
  2587  1749  00EB               	movwf	(??_ser_init+0)^080h+0
  2588  174A  086B               	movf	(??_ser_init+0)^080h+0,w
  2589  174B  1283               	bcf	status, 5	;RP0=0, select bank0
  2590  174C  1303               	bcf	status, 6	;RP1=0, select bank0
  2591  174D  00EE               	movwf	(_rxiptr)	;volatile
  2592                           	line	133
  2593                           	
  2594  174E                     l4350:	
  2595  174E  0008               	return
  2596                           	opt stack 0
  2597                           GLOBAL	__end_of_ser_init
  2598  174F                     	__end_of_ser_init:
  2599 ;; =============== function _ser_init ends ============
  2600                           
  2601                           	signat	_ser_init,88
  2602                           	global	_isr1
  2603                           psect	text764,local,class=CODE,delta=2
  2604                           global __ptext764
  2605  0664                     __ptext764:
  2606                           
  2607 ;; *************** function _isr1 *****************
  2608 ;; Defined at:
  2609 ;;		line 75 in file "H:\Aldnoah.Zero\trunk\Assignment3\Main.c"
  2610 ;; Parameters:    Size  Location     Type
  2611 ;;		None
  2612 ;; Auto vars:     Size  Location     Type
  2613 ;;		None
  2614 ;; Return value:  Size  Location     Type
  2615 ;;		None               void
  2616 ;; Registers used:
  2617 ;;		wreg, fsr0l, fsr0h, fsr1l, fsr1h, status,2, status,0, btemp+1, pclath, cstack
  2618 ;; Tracked objects:
  2619 ;;		On entry : 0/0
  2620 ;;		On exit  : 0/0
  2621 ;;		Unchanged: 0/0
  2622 ;; Data sizes:     COMMON   BANK0   BANK1   BANK3   BANK2
  2623 ;;      Params:         0       0       0       0       0
  2624 ;;      Locals:         0       0       0       0       0
  2625 ;;      Temps:          0       5       0       0       0
  2626 ;;      Totals:         0       5       0       0       0
  2627 ;;Total ram usage:        5 bytes
  2628 ;; Hardware stack levels used:    1
  2629 ;; Hardware stack levels required when called:    4
  2630 ;; This function calls:
  2631 ;;		___lwmod
  2632 ;;		_readAvgDistance
  2633 ;;		_UpdateDisplay
  2634 ;;		_ReadButtons
  2635 ;; This function is called by:
  2636 ;;		Interrupt level 1
  2637 ;; This function uses a non-reentrant model
  2638 ;;
  2639                           psect	text764
  2640                           	file	"H:\Aldnoah.Zero\trunk\Assignment3\Main.c"
  2641                           	line	75
  2642                           	global	__size_of_isr1
  2643  011B                     	__size_of_isr1	equ	__end_of_isr1-_isr1
  2644                           	
  2645  0664                     _isr1:	
  2646                           	opt	stack 0
  2647                           ; Regs used in _isr1: [allreg]
  2648                           psect	intentry,class=CODE,delta=2
  2649                           global __pintentry
  2650  0004                     __pintentry:
  2651                           global interrupt_function
  2652  0004                     interrupt_function:
  2653                           	global saved_w
  2654  007E                     	saved_w	set	btemp+0
  2655  0004  00FE               	movwf	saved_w
  2656  0005  0E03               	swapf	status,w
  2657  0006  1283               	bcf	status, 5	;RP0=0, select bank0
  2658  0007  1303               	bcf	status, 6	;RP1=0, select bank0
  2659  0008  00E6               	movwf	(??_isr1+1)
  2660  0009  0804               	movf	fsr0,w
  2661  000A  00E7               	movwf	(??_isr1+2)
  2662  000B  080A               	movf	pclath,w
  2663  000C  00E8               	movwf	(??_isr1+3)
  2664  000D  087F               	movf	btemp+1,w
  2665  000E  00E9               	movwf	(??_isr1+4)
  2666  000F  120A  118A  2E64   	ljmp	_isr1
  2667                           psect	text764
  2668                           	line	77
  2669                           	
  2670  0664                     i1l9087:	
  2671                           ;Main.c: 77: if (RCIF) { rxfifo[rxiptr]=RCREG; ser_tmp=(rxiptr+1) & (16-1); if (ser_tmp!
                                 =rxoptr) rxiptr=ser_tmp; } if (TXIF && TXIE) { TXREG = txfifo[txoptr]; ++txoptr; txoptr 
                                 &= (16-1); if (txoptr==txiptr) { TXIE = 0; } };
  2672  0664  1E8C               	btfss	(101/8),(101)&7
  2673  0665  2E67               	goto	u307_21
  2674  0666  2E68               	goto	u307_20
  2675  0667                     u307_21:
  2676  0667  2E86               	goto	i1l9097
  2677  0668                     u307_20:
  2678                           	
  2679  0668                     i1l9089:	
  2680  0668  081A               	movf	(26),w	;volatile
  2681  0669  00E5               	movwf	(??_isr1+0)+0
  2682  066A  086E               	movf	(_rxiptr),w
  2683  066B  3EB0               	addlw	_rxfifo&0ffh
  2684  066C  0084               	movwf	fsr0
  2685  066D  0865               	movf	(??_isr1+0)+0,w
  2686  066E  1383               	bcf	status, 7	;select IRP bank1
  2687  066F  0080               	movwf	indf
  2688                           	
  2689  0670                     i1l9091:	
  2690  0670  086E               	movf	(_rxiptr),w	;volatile
  2691  0671  3E01               	addlw	01h
  2692  0672  390F               	andlw	0Fh
  2693  0673  00E5               	movwf	(??_isr1+0)+0
  2694  0674  0865               	movf	(??_isr1+0)+0,w
  2695  0675  1683               	bsf	status, 5	;RP0=1, select bank1
  2696  0676  1303               	bcf	status, 6	;RP1=0, select bank1
  2697  0677  00DE               	movwf	(_ser_tmp)^080h
  2698                           	
  2699  0678                     i1l9093:	
  2700  0678  085E               	movf	(_ser_tmp)^080h,w
  2701  0679  065D               	xorwf	(_rxoptr)^080h,w	;volatile
  2702  067A  1903               	skipnz
  2703  067B  2E7D               	goto	u308_21
  2704  067C  2E7E               	goto	u308_20
  2705  067D                     u308_21:
  2706  067D  2E86               	goto	i1l9097
  2707  067E                     u308_20:
  2708                           	
  2709  067E                     i1l9095:	
  2710  067E  085E               	movf	(_ser_tmp)^080h,w
  2711  067F  1283               	bcf	status, 5	;RP0=0, select bank0
  2712  0680  1303               	bcf	status, 6	;RP1=0, select bank0
  2713  0681  00E5               	movwf	(??_isr1+0)+0
  2714  0682  0865               	movf	(??_isr1+0)+0,w
  2715  0683  00EE               	movwf	(_rxiptr)	;volatile
  2716  0684  2E86               	goto	i1l9097
  2717                           	
  2718  0685                     i1l2157:	
  2719  0685  2E86               	goto	i1l9097
  2720                           	
  2721  0686                     i1l2156:	
  2722                           	
  2723  0686                     i1l9097:	
  2724  0686  1283               	bcf	status, 5	;RP0=0, select bank0
  2725  0687  1E0C               	btfss	(100/8),(100)&7
  2726  0688  2E8A               	goto	u309_21
  2727  0689  2E8B               	goto	u309_20
  2728  068A                     u309_21:
  2729  068A  2EB3               	goto	i1l2158
  2730  068B                     u309_20:
  2731                           	
  2732  068B                     i1l9099:	
  2733  068B  1683               	bsf	status, 5	;RP0=1, select bank1
  2734  068C  1303               	bcf	status, 6	;RP1=0, select bank1
  2735  068D  1E0C               	btfss	(1124/8)^080h,(1124)&7
  2736  068E  2E90               	goto	u310_21
  2737  068F  2E91               	goto	u310_20
  2738  0690                     u310_21:
  2739  0690  2EB3               	goto	i1l2158
  2740  0691                     u310_20:
  2741                           	
  2742  0691                     i1l9101:	
  2743  0691  085F               	movf	(_txoptr)^080h,w
  2744  0692  3EC0               	addlw	_txfifo&0ffh
  2745  0693  0084               	movwf	fsr0
  2746  0694  1383               	bcf	status, 7	;select IRP bank1
  2747  0695  0800               	movf	indf,w
  2748  0696  1283               	bcf	status, 5	;RP0=0, select bank0
  2749  0697  1303               	bcf	status, 6	;RP1=0, select bank0
  2750  0698  0099               	movwf	(25)	;volatile
  2751                           	
  2752  0699                     i1l9103:	
  2753  0699  3001               	movlw	(01h)
  2754  069A  00E5               	movwf	(??_isr1+0)+0
  2755  069B  0865               	movf	(??_isr1+0)+0,w
  2756  069C  1683               	bsf	status, 5	;RP0=1, select bank1
  2757  069D  1303               	bcf	status, 6	;RP1=0, select bank1
  2758  069E  07DF               	addwf	(_txoptr)^080h,f	;volatile
  2759                           	
  2760  069F                     i1l9105:	
  2761  069F  300F               	movlw	(0Fh)
  2762  06A0  1283               	bcf	status, 5	;RP0=0, select bank0
  2763  06A1  1303               	bcf	status, 6	;RP1=0, select bank0
  2764  06A2  00E5               	movwf	(??_isr1+0)+0
  2765  06A3  0865               	movf	(??_isr1+0)+0,w
  2766  06A4  1683               	bsf	status, 5	;RP0=1, select bank1
  2767  06A5  1303               	bcf	status, 6	;RP1=0, select bank1
  2768  06A6  05DF               	andwf	(_txoptr)^080h,f	;volatile
  2769                           	
  2770  06A7                     i1l9107:	
  2771  06A7  085F               	movf	(_txoptr)^080h,w	;volatile
  2772  06A8  1283               	bcf	status, 5	;RP0=0, select bank0
  2773  06A9  1303               	bcf	status, 6	;RP1=0, select bank0
  2774  06AA  066F               	xorwf	(_txiptr),w	;volatile
  2775  06AB  1D03               	skipz
  2776  06AC  2EAE               	goto	u311_21
  2777  06AD  2EAF               	goto	u311_20
  2778  06AE                     u311_21:
  2779  06AE  2EB3               	goto	i1l2158
  2780  06AF                     u311_20:
  2781                           	
  2782  06AF                     i1l9109:	
  2783  06AF  1683               	bsf	status, 5	;RP0=1, select bank1
  2784  06B0  1303               	bcf	status, 6	;RP1=0, select bank1
  2785  06B1  120C               	bcf	(1124/8)^080h,(1124)&7
  2786  06B2  2EB3               	goto	i1l2158
  2787                           	
  2788  06B3                     i1l2159:	
  2789                           	
  2790  06B3                     i1l2158:	
  2791                           	line	79
  2792                           ;Main.c: 79: if(TMR0IF)
  2793  06B3  1D0B               	btfss	(90/8),(90)&7
  2794  06B4  2EB6               	goto	u312_21
  2795  06B5  2EB7               	goto	u312_20
  2796  06B6                     u312_21:
  2797  06B6  2F73               	goto	i1l2166
  2798  06B7                     u312_20:
  2799                           	line	81
  2800                           	
  2801  06B7                     i1l9111:	
  2802                           ;Main.c: 80: {
  2803                           ;Main.c: 81: TMR0IF = 0;
  2804  06B7  110B               	bcf	(90/8),(90)&7
  2805                           	line	82
  2806                           	
  2807  06B8                     i1l9113:	
  2808                           ;Main.c: 82: TMR0 = 100;
  2809  06B8  3064               	movlw	(064h)
  2810  06B9  1283               	bcf	status, 5	;RP0=0, select bank0
  2811  06BA  0081               	movwf	(1)	;volatile
  2812                           	line	84
  2813                           ;Main.c: 84: RTC_Counter++;
  2814  06BB  3001               	movlw	low(01h)
  2815  06BC  1683               	bsf	status, 5	;RP0=1, select bank1
  2816  06BD  1303               	bcf	status, 6	;RP1=0, select bank1
  2817  06BE  07D0               	addwf	(_RTC_Counter)^080h,f	;volatile
  2818  06BF  1803               	skipnc
  2819  06C0  0AD1               	incf	(_RTC_Counter+1)^080h,f	;volatile
  2820  06C1  3000               	movlw	high(01h)
  2821  06C2  07D1               	addwf	(_RTC_Counter+1)^080h,f	;volatile
  2822                           	line	86
  2823                           	
  2824  06C3                     i1l9115:	
  2825                           ;Main.c: 86: RTC_FLAG_1MS = 1;
  2826  06C3  1283               	bcf	status, 5	;RP0=0, select bank0
  2827  06C4  1303               	bcf	status, 6	;RP1=0, select bank0
  2828  06C5  17EA               	bsf	(_RTC_FLAG_1MS/8),(_RTC_FLAG_1MS)&7
  2829                           	line	87
  2830                           	
  2831  06C6                     i1l9117:	
  2832                           ;Main.c: 87: if(RTC_Counter % 10 == 0) RTC_FLAG_10MS = 1;
  2833  06C6  300A               	movlw	low(0Ah)
  2834  06C7  00A0               	movwf	(?___lwmod)
  2835  06C8  3000               	movlw	high(0Ah)
  2836  06C9  00A1               	movwf	((?___lwmod))+1
  2837  06CA  1683               	bsf	status, 5	;RP0=1, select bank1
  2838  06CB  1303               	bcf	status, 6	;RP1=0, select bank1
  2839  06CC  0851               	movf	(_RTC_Counter+1)^080h,w	;volatile
  2840  06CD  1283               	bcf	status, 5	;RP0=0, select bank0
  2841  06CE  1303               	bcf	status, 6	;RP1=0, select bank0
  2842  06CF  01A3               	clrf	1+(?___lwmod)+02h
  2843  06D0  07A3               	addwf	1+(?___lwmod)+02h
  2844  06D1  1683               	bsf	status, 5	;RP0=1, select bank1
  2845  06D2  1303               	bcf	status, 6	;RP1=0, select bank1
  2846  06D3  0850               	movf	(_RTC_Counter)^080h,w	;volatile
  2847  06D4  1283               	bcf	status, 5	;RP0=0, select bank0
  2848  06D5  1303               	bcf	status, 6	;RP1=0, select bank0
  2849  06D6  01A2               	clrf	0+(?___lwmod)+02h
  2850  06D7  07A2               	addwf	0+(?___lwmod)+02h
  2851                           
  2852  06D8  120A  158A  20BD   	fcall	___lwmod
              120A  118A         
  2853  06DD  1283               	bcf	status, 5	;RP0=0, select bank0
  2854  06DE  1303               	bcf	status, 6	;RP1=0, select bank0
  2855  06DF  0821               	movf	((1+(?___lwmod))),w
  2856  06E0  0420               	iorwf	((0+(?___lwmod))),w
  2857  06E1  1D03               	skipz
  2858  06E2  2EE4               	goto	u313_21
  2859  06E3  2EE5               	goto	u313_20
  2860  06E4                     u313_21:
  2861  06E4  2EE7               	goto	i1l9121
  2862  06E5                     u313_20:
  2863                           	
  2864  06E5                     i1l9119:	
  2865  06E5  176A               	bsf	(_RTC_FLAG_10MS/8),(_RTC_FLAG_10MS)&7
  2866  06E6  2EE7               	goto	i1l9121
  2867                           	
  2868  06E7                     i1l2161:	
  2869                           	line	88
  2870                           	
  2871  06E7                     i1l9121:	
  2872                           ;Main.c: 88: if(RTC_Counter % 50 == 0) RTC_FLAG_50MS = 1;
  2873  06E7  3032               	movlw	low(032h)
  2874  06E8  00A0               	movwf	(?___lwmod)
  2875  06E9  3000               	movlw	high(032h)
  2876  06EA  00A1               	movwf	((?___lwmod))+1
  2877  06EB  1683               	bsf	status, 5	;RP0=1, select bank1
  2878  06EC  1303               	bcf	status, 6	;RP1=0, select bank1
  2879  06ED  0851               	movf	(_RTC_Counter+1)^080h,w	;volatile
  2880  06EE  1283               	bcf	status, 5	;RP0=0, select bank0
  2881  06EF  1303               	bcf	status, 6	;RP1=0, select bank0
  2882  06F0  01A3               	clrf	1+(?___lwmod)+02h
  2883  06F1  07A3               	addwf	1+(?___lwmod)+02h
  2884  06F2  1683               	bsf	status, 5	;RP0=1, select bank1
  2885  06F3  1303               	bcf	status, 6	;RP1=0, select bank1
  2886  06F4  0850               	movf	(_RTC_Counter)^080h,w	;volatile
  2887  06F5  1283               	bcf	status, 5	;RP0=0, select bank0
  2888  06F6  1303               	bcf	status, 6	;RP1=0, select bank0
  2889  06F7  01A2               	clrf	0+(?___lwmod)+02h
  2890  06F8  07A2               	addwf	0+(?___lwmod)+02h
  2891                           
  2892  06F9  120A  158A  20BD   	fcall	___lwmod
              120A  118A         
  2893  06FE  1283               	bcf	status, 5	;RP0=0, select bank0
  2894  06FF  1303               	bcf	status, 6	;RP1=0, select bank0
  2895  0700  0821               	movf	((1+(?___lwmod))),w
  2896  0701  0420               	iorwf	((0+(?___lwmod))),w
  2897  0702  1D03               	skipz
  2898  0703  2F05               	goto	u314_21
  2899  0704  2F06               	goto	u314_20
  2900  0705                     u314_21:
  2901  0705  2F08               	goto	i1l9125
  2902  0706                     u314_20:
  2903                           	
  2904  0706                     i1l9123:	
  2905  0706  156B               	bsf	(_RTC_FLAG_50MS/8),(_RTC_FLAG_50MS)&7
  2906  0707  2F08               	goto	i1l9125
  2907                           	
  2908  0708                     i1l2162:	
  2909                           	line	89
  2910                           	
  2911  0708                     i1l9125:	
  2912                           ;Main.c: 89: if(RTC_Counter % 250 == 0)
  2913  0708  30FA               	movlw	low(0FAh)
  2914  0709  00A0               	movwf	(?___lwmod)
  2915  070A  3000               	movlw	high(0FAh)
  2916  070B  00A1               	movwf	((?___lwmod))+1
  2917  070C  1683               	bsf	status, 5	;RP0=1, select bank1
  2918  070D  1303               	bcf	status, 6	;RP1=0, select bank1
  2919  070E  0851               	movf	(_RTC_Counter+1)^080h,w	;volatile
  2920  070F  1283               	bcf	status, 5	;RP0=0, select bank0
  2921  0710  1303               	bcf	status, 6	;RP1=0, select bank0
  2922  0711  01A3               	clrf	1+(?___lwmod)+02h
  2923  0712  07A3               	addwf	1+(?___lwmod)+02h
  2924  0713  1683               	bsf	status, 5	;RP0=1, select bank1
  2925  0714  1303               	bcf	status, 6	;RP1=0, select bank1
  2926  0715  0850               	movf	(_RTC_Counter)^080h,w	;volatile
  2927  0716  1283               	bcf	status, 5	;RP0=0, select bank0
  2928  0717  1303               	bcf	status, 6	;RP1=0, select bank0
  2929  0718  01A2               	clrf	0+(?___lwmod)+02h
  2930  0719  07A2               	addwf	0+(?___lwmod)+02h
  2931                           
  2932  071A  120A  158A  20BD   	fcall	___lwmod
              120A  118A         
  2933  071F  1283               	bcf	status, 5	;RP0=0, select bank0
  2934  0720  1303               	bcf	status, 6	;RP1=0, select bank0
  2935  0721  0821               	movf	((1+(?___lwmod))),w
  2936  0722  0420               	iorwf	((0+(?___lwmod))),w
  2937  0723  1D03               	skipz
  2938  0724  2F26               	goto	u315_21
  2939  0725  2F27               	goto	u315_20
  2940  0726                     u315_21:
  2941  0726  2F35               	goto	i1l9131
  2942  0727                     u315_20:
  2943                           	line	91
  2944                           	
  2945  0727                     i1l9127:	
  2946                           ;Main.c: 90: {
  2947                           ;Main.c: 91: readAvgDistance();
  2948  0727  120A  158A  2151   	fcall	_readAvgDistance
              120A  118A         
  2949                           	line	92
  2950                           ;Main.c: 92: UpdateDisplay();
  2951  072C  120A  158A  248B   	fcall	_UpdateDisplay
              120A  118A         
  2952                           	line	93
  2953                           	
  2954  0731                     i1l9129:	
  2955                           ;Main.c: 93: RTC_FLAG_250MS = 1;
  2956  0731  1283               	bcf	status, 5	;RP0=0, select bank0
  2957  0732  1303               	bcf	status, 6	;RP1=0, select bank0
  2958  0733  146B               	bsf	(_RTC_FLAG_250MS/8),(_RTC_FLAG_250MS)&7
  2959  0734  2F35               	goto	i1l9131
  2960                           	line	95
  2961                           	
  2962  0735                     i1l2163:	
  2963                           	line	96
  2964                           	
  2965  0735                     i1l9131:	
  2966                           ;Main.c: 95: }
  2967                           ;Main.c: 96: if(RTC_Counter % 500 == 0)
  2968  0735  30F4               	movlw	low(01F4h)
  2969  0736  00A0               	movwf	(?___lwmod)
  2970  0737  3001               	movlw	high(01F4h)
  2971  0738  00A1               	movwf	((?___lwmod))+1
  2972  0739  1683               	bsf	status, 5	;RP0=1, select bank1
  2973  073A  1303               	bcf	status, 6	;RP1=0, select bank1
  2974  073B  0851               	movf	(_RTC_Counter+1)^080h,w	;volatile
  2975  073C  1283               	bcf	status, 5	;RP0=0, select bank0
  2976  073D  1303               	bcf	status, 6	;RP1=0, select bank0
  2977  073E  01A3               	clrf	1+(?___lwmod)+02h
  2978  073F  07A3               	addwf	1+(?___lwmod)+02h
  2979  0740  1683               	bsf	status, 5	;RP0=1, select bank1
  2980  0741  1303               	bcf	status, 6	;RP1=0, select bank1
  2981  0742  0850               	movf	(_RTC_Counter)^080h,w	;volatile
  2982  0743  1283               	bcf	status, 5	;RP0=0, select bank0
  2983  0744  1303               	bcf	status, 6	;RP1=0, select bank0
  2984  0745  01A2               	clrf	0+(?___lwmod)+02h
  2985  0746  07A2               	addwf	0+(?___lwmod)+02h
  2986                           
  2987  0747  120A  158A  20BD   	fcall	___lwmod
              120A  118A         
  2988  074C  1283               	bcf	status, 5	;RP0=0, select bank0
  2989  074D  1303               	bcf	status, 6	;RP1=0, select bank0
  2990  074E  0821               	movf	((1+(?___lwmod))),w
  2991  074F  0420               	iorwf	((0+(?___lwmod))),w
  2992  0750  1D03               	skipz
  2993  0751  2F53               	goto	u316_21
  2994  0752  2F54               	goto	u316_20
  2995  0753                     u316_21:
  2996  0753  2F5E               	goto	i1l9139
  2997  0754                     u316_20:
  2998                           	line	98
  2999                           	
  3000  0754                     i1l9133:	
  3001                           ;Main.c: 97: {
  3002                           ;Main.c: 98: RTC_FLAG_500MS = 1;
  3003  0754  14EB               	bsf	(_RTC_FLAG_500MS/8),(_RTC_FLAG_500MS)&7
  3004                           	line	99
  3005                           	
  3006  0755                     i1l9135:	
  3007                           ;Main.c: 99: RTC_Counter = 0;
  3008  0755  1683               	bsf	status, 5	;RP0=1, select bank1
  3009  0756  1303               	bcf	status, 6	;RP1=0, select bank1
  3010  0757  01D0               	clrf	(_RTC_Counter)^080h	;volatile
  3011  0758  01D1               	clrf	(_RTC_Counter+1)^080h	;volatile
  3012                           	line	100
  3013                           	
  3014  0759                     i1l9137:	
  3015                           ;Main.c: 100: RB0 ^= 0x01;
  3016  0759  1283               	bcf	status, 5	;RP0=0, select bank0
  3017  075A  1303               	bcf	status, 6	;RP1=0, select bank0
  3018  075B  3001               	movlw	1<<((48)&7)
  3019  075C  0686               	xorwf	((48)/8),f
  3020  075D  2F5E               	goto	i1l9139
  3021                           	line	101
  3022                           	
  3023  075E                     i1l2164:	
  3024                           	line	103
  3025                           	
  3026  075E                     i1l9139:	
  3027                           ;Main.c: 101: }
  3028                           ;Main.c: 103: if (buttonPressed == 0)
  3029  075E  1683               	bsf	status, 5	;RP0=1, select bank1
  3030  075F  1303               	bcf	status, 6	;RP1=0, select bank1
  3031  0760  08DB               	movf	(_buttonPressed)^080h,f
  3032  0761  1D03               	skipz	;volatile
  3033  0762  2F64               	goto	u317_21
  3034  0763  2F65               	goto	u317_20
  3035  0764                     u317_21:
  3036  0764  2F73               	goto	i1l2166
  3037  0765                     u317_20:
  3038                           	line	105
  3039                           	
  3040  0765                     i1l9141:	
  3041                           ;Main.c: 104: {
  3042                           ;Main.c: 105: buttonPressed = ReadButtons();
  3043  0765  160A  118A  27CE   	fcall	_ReadButtons
              120A  118A         
  3044  076A  1283               	bcf	status, 5	;RP0=0, select bank0
  3045  076B  1303               	bcf	status, 6	;RP1=0, select bank0
  3046  076C  00E5               	movwf	(??_isr1+0)+0
  3047  076D  0865               	movf	(??_isr1+0)+0,w
  3048  076E  1683               	bsf	status, 5	;RP0=1, select bank1
  3049  076F  1303               	bcf	status, 6	;RP1=0, select bank1
  3050  0770  00DB               	movwf	(_buttonPressed)^080h	;volatile
  3051  0771  2F73               	goto	i1l2166
  3052                           	line	106
  3053                           	
  3054  0772                     i1l2165:	
  3055  0772  2F73               	goto	i1l2166
  3056                           	line	107
  3057                           	
  3058  0773                     i1l2160:	
  3059                           	line	108
  3060                           	
  3061  0773                     i1l2166:	
  3062  0773  1283               	bcf	status, 5	;RP0=0, select bank0
  3063  0774  0869               	movf	(??_isr1+4),w
  3064  0775  00FF               	movwf	btemp+1
  3065  0776  0868               	movf	(??_isr1+3),w
  3066  0777  008A               	movwf	pclath
  3067  0778  0867               	movf	(??_isr1+2),w
  3068  0779  0084               	movwf	fsr0
  3069  077A  0E66               	swapf	(??_isr1+1)^00h,w
  3070  077B  0083               	movwf	status
  3071  077C  0EFE               	swapf	saved_w,f
  3072  077D  0E7E               	swapf	saved_w,w
  3073  077E  0009               	retfie
  3074                           	opt stack 0
  3075                           GLOBAL	__end_of_isr1
  3076  077F                     	__end_of_isr1:
  3077 ;; =============== function _isr1 ends ============
  3078                           
  3079                           	signat	_isr1,88
  3080                           	global	_UpdateDisplay
  3081                           psect	text765,local,class=CODE,delta=2
  3082                           global __ptext765
  3083  0C8B                     __ptext765:
  3084                           
  3085 ;; *************** function _UpdateDisplay *****************
  3086 ;; Defined at:
  3087 ;;		line 233 in file "H:\Aldnoah.Zero\trunk\Assignment3\HMI.c"
  3088 ;; Parameters:    Size  Location     Type
  3089 ;;		None
  3090 ;; Auto vars:     Size  Location     Type
  3091 ;;  adcOutput      16   27[BANK0 ] unsigned char [16]
  3092 ;; Return value:  Size  Location     Type
  3093 ;;		None               void
  3094 ;; Registers used:
  3095 ;;		wreg, fsr0l, fsr0h, fsr1l, fsr1h, status,2, status,0, btemp+1, pclath, cstack
  3096 ;; Tracked objects:
  3097 ;;		On entry : 0/0
  3098 ;;		On exit  : 0/0
  3099 ;;		Unchanged: 0/0
  3100 ;; Data sizes:     COMMON   BANK0   BANK1   BANK3   BANK2
  3101 ;;      Params:         0       0       0       0       0
  3102 ;;      Locals:         0      16       0       0       0
  3103 ;;      Temps:          0       4       0       0       0
  3104 ;;      Totals:         0      20       0       0       0
  3105 ;;Total ram usage:       20 bytes
  3106 ;; Hardware stack levels used:    1
  3107 ;; Hardware stack levels required when called:    2
  3108 ;; This function calls:
  3109 ;;		i1_lcd_write_control
  3110 ;;		_sprintf
  3111 ;;		_lcd_set_cursor
  3112 ;;		_lcd_write_string
  3113 ;;		___awmod
  3114 ;; This function is called by:
  3115 ;;		_isr1
  3116 ;; This function uses a non-reentrant model
  3117 ;;
  3118                           psect	text765
  3119                           	file	"H:\Aldnoah.Zero\trunk\Assignment3\HMI.c"
  3120                           	line	233
  3121                           	global	__size_of_UpdateDisplay
  3122  00BF                     	__size_of_UpdateDisplay	equ	__end_of_UpdateDisplay-_UpdateDisplay
  3123                           	
  3124  0C8B                     _UpdateDisplay:	
  3125                           	opt	stack 1
  3126                           ; Regs used in _UpdateDisplay: [allreg]
  3127                           	line	234
  3128                           	
  3129  0C8B                     i1l9159:	
  3130                           ;HMI.c: 234: char adcOutput[16] = "";
  3131  0C8B  303B               	movlw	(UpdateDisplay@adcOutput)&0ffh
  3132  0C8C  0084               	movwf	fsr0
  3133  0C8D  30A0               	movlw	low(UpdateDisplay@F1206)
  3134  0C8E  1283               	bcf	status, 5	;RP0=0, select bank0
  3135  0C8F  1303               	bcf	status, 6	;RP1=0, select bank0
  3136  0C90  00B7               	movwf	(??_UpdateDisplay+0)+0
  3137  0C91  0804               	movf	fsr0,w
  3138  0C92  00B8               	movwf	((??_UpdateDisplay+0)+0+1)
  3139  0C93  3010               	movlw	16
  3140  0C94  00B9               	movwf	((??_UpdateDisplay+0)+0+2)
  3141  0C95                     u320_20:
  3142  0C95  0837               	movf	(??_UpdateDisplay+0)+0,w
  3143  0C96  0084               	movwf	fsr0
  3144  0C97  1383               	bcf	status, 7	;select IRP bank1
  3145                           	
  3146  0C98  0800               	movf	indf,w
  3147  0C99  00BA               	movwf	((??_UpdateDisplay+0)+0+3)
  3148  0C9A  0AB7               	incf	(??_UpdateDisplay+0)+0,f
  3149  0C9B  0838               	movf	((??_UpdateDisplay+0)+0+1),w
  3150  0C9C  0084               	movwf	fsr0
  3151                           	
  3152  0C9D  083A               	movf	((??_UpdateDisplay+0)+0+3),w
  3153  0C9E  0080               	movwf	indf
  3154  0C9F  0AB8               	incf	((??_UpdateDisplay+0)+0+1),f
  3155  0CA0  0BB9               	decfsz	((??_UpdateDisplay+0)+0+2),f
  3156  0CA1  2C95               	goto	u320_20
  3157                           	line	235
  3158                           	
  3159  0CA2                     i1l9161:	
  3160                           ;HMI.c: 235: lcd_write_control(0b00000001);
  3161  0CA2  3001               	movlw	(01h)
  3162  0CA3  160A  118A  2671   	fcall	i1_lcd_write_control
              120A  158A         
  3163                           	line	236
  3164                           	
  3165  0CA8                     i1l9163:	
  3166                           ;HMI.c: 236: sprintf(adcOutput,"ADC:%d Dist:%d",adcVal, distance);
  3167  0CA8  300B               	movlw	((STR_11-__stringbase))&0ffh
  3168  0CA9  1283               	bcf	status, 5	;RP0=0, select bank0
  3169  0CAA  1303               	bcf	status, 6	;RP1=0, select bank0
  3170  0CAB  00B7               	movwf	(??_UpdateDisplay+0)+0
  3171  0CAC  0837               	movf	(??_UpdateDisplay+0)+0,w
  3172  0CAD  00A6               	movwf	(?_sprintf)
  3173  0CAE  086D               	movf	(_adcVal+1),w	;volatile
  3174  0CAF  01A8               	clrf	1+(?_sprintf)+01h
  3175  0CB0  07A8               	addwf	1+(?_sprintf)+01h
  3176  0CB1  086C               	movf	(_adcVal),w	;volatile
  3177  0CB2  01A7               	clrf	0+(?_sprintf)+01h
  3178  0CB3  07A7               	addwf	0+(?_sprintf)+01h
  3179                           
  3180  0CB4  1683               	bsf	status, 5	;RP0=1, select bank1
  3181  0CB5  1303               	bcf	status, 6	;RP1=0, select bank1
  3182  0CB6  0853               	movf	(_distance+1)^080h,w	;volatile
  3183  0CB7  1283               	bcf	status, 5	;RP0=0, select bank0
  3184  0CB8  1303               	bcf	status, 6	;RP1=0, select bank0
  3185  0CB9  01AA               	clrf	1+(?_sprintf)+03h
  3186  0CBA  07AA               	addwf	1+(?_sprintf)+03h
  3187  0CBB  1683               	bsf	status, 5	;RP0=1, select bank1
  3188  0CBC  1303               	bcf	status, 6	;RP1=0, select bank1
  3189  0CBD  0852               	movf	(_distance)^080h,w	;volatile
  3190  0CBE  1283               	bcf	status, 5	;RP0=0, select bank0
  3191  0CBF  1303               	bcf	status, 6	;RP1=0, select bank0
  3192  0CC0  01A9               	clrf	0+(?_sprintf)+03h
  3193  0CC1  07A9               	addwf	0+(?_sprintf)+03h
  3194                           
  3195  0CC2  303B               	movlw	(UpdateDisplay@adcOutput)&0ffh
  3196  0CC3  120A  158A  2700   	fcall	_sprintf
              120A  158A         
  3197                           	line	237
  3198                           	
  3199  0CC8                     i1l9165:	
  3200                           ;HMI.c: 237: lcd_set_cursor(0x00);
  3201  0CC8  3000               	movlw	(0)
  3202  0CC9  160A  118A  262B   	fcall	_lcd_set_cursor
              120A  158A         
  3203                           	line	238
  3204                           	
  3205  0CCE                     i1l9167:	
  3206                           ;HMI.c: 238: lcd_write_string(adcOutput);
  3207  0CCE  303B               	movlw	(UpdateDisplay@adcOutput&0ffh)
  3208  0CCF  00F7               	movwf	(?_lcd_write_string)
  3209  0CD0  3000               	movlw	(0x0/2)
  3210  0CD1  00F8               	movwf	(?_lcd_write_string+1)
  3211  0CD2  160A  118A  2779   	fcall	_lcd_write_string
              120A  158A         
  3212                           	line	243
  3213                           	
  3214  0CD7                     i1l9169:	
  3215                           ;HMI.c: 243: lcd_set_cursor(0x40);
  3216  0CD7  3040               	movlw	(040h)
  3217  0CD8  160A  118A  262B   	fcall	_lcd_set_cursor
              120A  158A         
  3218                           	line	244
  3219                           	
  3220  0CDD                     i1l9171:	
  3221                           ;HMI.c: 244: if (pos > 0)
  3222  0CDD  1683               	bsf	status, 5	;RP0=1, select bank1
  3223  0CDE  1303               	bcf	status, 6	;RP1=0, select bank1
  3224  0CDF  0855               	movf	(_pos+1)^080h,w
  3225  0CE0  3A80               	xorlw	80h
  3226  0CE1  00FF               	movwf	btemp+1
  3227  0CE2  3080               	movlw	(high(01h))^80h
  3228  0CE3  027F               	subwf	btemp+1,w
  3229  0CE4  1D03               	skipz
  3230  0CE5  2CE8               	goto	u321_25
  3231  0CE6  3001               	movlw	low(01h)
  3232  0CE7  0254               	subwf	(_pos)^080h,w
  3233  0CE8                     u321_25:
  3234                           
  3235  0CE8  1C03               	skipc
  3236  0CE9  2CEB               	goto	u321_21
  3237  0CEA  2CEC               	goto	u321_20
  3238  0CEB                     u321_21:
  3239  0CEB  2CFD               	goto	i1l9175
  3240  0CEC                     u321_20:
  3241                           	line	245
  3242                           	
  3243  0CEC                     i1l9173:	
  3244                           ;HMI.c: 245: lcd_write_string(shortMenuStrings[pos - 1]);
  3245  0CEC  1683               	bsf	status, 5	;RP0=1, select bank1
  3246  0CED  1303               	bcf	status, 6	;RP1=0, select bank1
  3247  0CEE  0854               	movf	(_pos)^080h,w
  3248  0CEF  3EFF               	addlw	0FFh
  3249  0CF0  3EE5               	addlw	_shortMenuStrings&0ffh
  3250  0CF1  0084               	movwf	fsr0
  3251  0CF2  1383               	bcf	status, 7	;select IRP bank1
  3252  0CF3  0800               	movf	indf,w
  3253  0CF4  00F7               	movwf	(?_lcd_write_string)
  3254  0CF5  3080               	movlw	80h
  3255  0CF6  00F8               	movwf	(?_lcd_write_string+1)
  3256  0CF7  160A  118A  2779   	fcall	_lcd_write_string
              120A  158A         
  3257  0CFC  2D0E               	goto	i1l9177
  3258                           	line	246
  3259                           	
  3260  0CFD                     i1l5132:	
  3261                           	line	247
  3262                           	
  3263  0CFD                     i1l9175:	
  3264                           ;HMI.c: 246: else
  3265                           ;HMI.c: 247: lcd_write_string(shortMenuStrings[pos + 5 - 1]);
  3266  0CFD  1683               	bsf	status, 5	;RP0=1, select bank1
  3267  0CFE  1303               	bcf	status, 6	;RP1=0, select bank1
  3268  0CFF  0854               	movf	(_pos)^080h,w
  3269  0D00  3E04               	addlw	04h
  3270  0D01  3EE5               	addlw	_shortMenuStrings&0ffh
  3271  0D02  0084               	movwf	fsr0
  3272  0D03  1383               	bcf	status, 7	;select IRP bank1
  3273  0D04  0800               	movf	indf,w
  3274  0D05  00F7               	movwf	(?_lcd_write_string)
  3275  0D06  3080               	movlw	80h
  3276  0D07  00F8               	movwf	(?_lcd_write_string+1)
  3277  0D08  160A  118A  2779   	fcall	_lcd_write_string
              120A  158A         
  3278  0D0D  2D0E               	goto	i1l9177
  3279                           	
  3280  0D0E                     i1l5133:	
  3281                           	line	248
  3282                           	
  3283  0D0E                     i1l9177:	
  3284                           ;HMI.c: 248: lcd_set_cursor(0x44);
  3285  0D0E  3044               	movlw	(044h)
  3286  0D0F  160A  118A  262B   	fcall	_lcd_set_cursor
              120A  158A         
  3287                           	line	249
  3288                           	
  3289  0D14                     i1l9179:	
  3290                           ;HMI.c: 249: lcd_write_string(menuStrings[pos]);
  3291  0D14  1683               	bsf	status, 5	;RP0=1, select bank1
  3292  0D15  1303               	bcf	status, 6	;RP1=0, select bank1
  3293  0D16  0854               	movf	(_pos)^080h,w
  3294  0D17  3EE0               	addlw	_menuStrings&0ffh
  3295  0D18  0084               	movwf	fsr0
  3296  0D19  1383               	bcf	status, 7	;select IRP bank1
  3297  0D1A  0800               	movf	indf,w
  3298  0D1B  00F7               	movwf	(?_lcd_write_string)
  3299  0D1C  3080               	movlw	80h
  3300  0D1D  00F8               	movwf	(?_lcd_write_string+1)
  3301  0D1E  160A  118A  2779   	fcall	_lcd_write_string
              120A  158A         
  3302                           	line	250
  3303                           ;HMI.c: 250: lcd_set_cursor(0x4D);
  3304  0D23  304D               	movlw	(04Dh)
  3305  0D24  160A  118A  262B   	fcall	_lcd_set_cursor
              120A  158A         
  3306                           	line	251
  3307                           	
  3308  0D29                     i1l9181:	
  3309                           ;HMI.c: 251: lcd_write_string(shortMenuStrings[(pos + 1) % 5]);
  3310  0D29  3005               	movlw	low(05h)
  3311  0D2A  00F0               	movwf	(?___awmod)
  3312  0D2B  3000               	movlw	high(05h)
  3313  0D2C  00F1               	movwf	((?___awmod))+1
  3314  0D2D  1683               	bsf	status, 5	;RP0=1, select bank1
  3315  0D2E  1303               	bcf	status, 6	;RP1=0, select bank1
  3316  0D2F  0854               	movf	(_pos)^080h,w
  3317  0D30  3E01               	addlw	low(01h)
  3318  0D31  00F2               	movwf	0+(?___awmod)+02h
  3319  0D32  0855               	movf	(_pos+1)^080h,w
  3320  0D33  1803               	skipnc
  3321  0D34  3E01               	addlw	1
  3322  0D35  3E00               	addlw	high(01h)
  3323  0D36  00F3               	movwf	1+0+(?___awmod)+02h
  3324  0D37  120A  158A  2200   	fcall	___awmod
              120A  158A         
  3325  0D3C  0870               	movf	(0+(?___awmod)),w
  3326  0D3D  3EE5               	addlw	_shortMenuStrings&0ffh
  3327  0D3E  0084               	movwf	fsr0
  3328  0D3F  1383               	bcf	status, 7	;select IRP bank1
  3329  0D40  0800               	movf	indf,w
  3330  0D41  00F7               	movwf	(?_lcd_write_string)
  3331  0D42  3080               	movlw	80h
  3332  0D43  00F8               	movwf	(?_lcd_write_string+1)
  3333  0D44  160A  118A  2779   	fcall	_lcd_write_string
              120A  158A         
  3334                           	line	252
  3335                           	
  3336  0D49                     i1l5134:	
  3337  0D49  0008               	return
  3338                           	opt stack 0
  3339                           GLOBAL	__end_of_UpdateDisplay
  3340  0D4A                     	__end_of_UpdateDisplay:
  3341 ;; =============== function _UpdateDisplay ends ============
  3342                           
  3343                           	signat	_UpdateDisplay,88
  3344                           	global	_readAvgDistance
  3345                           psect	text766,local,class=CODE,delta=2
  3346                           global __ptext766
  3347  0951                     __ptext766:
  3348                           
  3349 ;; *************** function _readAvgDistance *****************
  3350 ;; Defined at:
  3351 ;;		line 10 in file "H:\Aldnoah.Zero\trunk\Assignment3\infrared.c"
  3352 ;; Parameters:    Size  Location     Type
  3353 ;;		None
  3354 ;; Auto vars:     Size  Location     Type
  3355 ;;  i               2   67[BANK0 ] int 
  3356 ;;  fullval         2   65[BANK0 ] unsigned int 
  3357 ;; Return value:  Size  Location     Type
  3358 ;;		None               void
  3359 ;; Registers used:
  3360 ;;		wreg, fsr0l, fsr0h, fsr1l, fsr1h, status,2, status,0, btemp+1, pclath, cstack
  3361 ;; Tracked objects:
  3362 ;;		On entry : 0/0
  3363 ;;		On exit  : 0/0
  3364 ;;		Unchanged: 0/0
  3365 ;; Data sizes:     COMMON   BANK0   BANK1   BANK3   BANK2
  3366 ;;      Params:         0       0       0       0       0
  3367 ;;      Locals:         0       4       0       0       0
  3368 ;;      Temps:          0       0       0       0       0
  3369 ;;      Totals:         0       4       0       0       0
  3370 ;;Total ram usage:        4 bytes
  3371 ;; Hardware stack levels used:    1
  3372 ;; Hardware stack levels required when called:    3
  3373 ;; This function calls:
  3374 ;;		_readDistance
  3375 ;;		___lwdiv
  3376 ;;		_ADCconvert
  3377 ;; This function is called by:
  3378 ;;		_isr1
  3379 ;; This function uses a non-reentrant model
  3380 ;;
  3381                           psect	text766
  3382                           	file	"H:\Aldnoah.Zero\trunk\Assignment3\infrared.c"
  3383                           	line	10
  3384                           	global	__size_of_readAvgDistance
  3385  0055                     	__size_of_readAvgDistance	equ	__end_of_readAvgDistance-_readAvgDistance
  3386                           	
  3387  0951                     _readAvgDistance:	
  3388                           	opt	stack 0
  3389                           ; Regs used in _readAvgDistance: [allreg]
  3390                           	line	11
  3391                           	
  3392  0951                     i1l9143:	
  3393                           ;infrared.c: 11: unsigned int fullval = 0;
  3394  0951  1283               	bcf	status, 5	;RP0=0, select bank0
  3395  0952  1303               	bcf	status, 6	;RP1=0, select bank0
  3396  0953  01E1               	clrf	(readAvgDistance@fullval)
  3397  0954  01E2               	clrf	(readAvgDistance@fullval+1)
  3398                           	line	14
  3399                           ;infrared.c: 14: for (int i = 0; i < 10; i++)
  3400  0955  01E3               	clrf	(readAvgDistance@i)
  3401  0956  01E4               	clrf	(readAvgDistance@i+1)
  3402                           	
  3403  0957                     i1l9145:	
  3404  0957  0864               	movf	(readAvgDistance@i+1),w
  3405  0958  3A80               	xorlw	80h
  3406  0959  00FF               	movwf	btemp+1
  3407  095A  3080               	movlw	(high(0Ah))^80h
  3408  095B  027F               	subwf	btemp+1,w
  3409  095C  1D03               	skipz
  3410  095D  2960               	goto	u318_25
  3411  095E  300A               	movlw	low(0Ah)
  3412  095F  0263               	subwf	(readAvgDistance@i),w
  3413  0960                     u318_25:
  3414                           
  3415  0960  1C03               	skipc
  3416  0961  2963               	goto	u318_21
  3417  0962  2964               	goto	u318_20
  3418  0963                     u318_21:
  3419  0963  2966               	goto	i1l9149
  3420  0964                     u318_20:
  3421  0964  2987               	goto	i1l9155
  3422                           	
  3423  0965                     i1l9147:	
  3424  0965  2987               	goto	i1l9155
  3425                           	line	15
  3426                           	
  3427  0966                     i1l2878:	
  3428                           	line	16
  3429                           	
  3430  0966                     i1l9149:	
  3431                           ;infrared.c: 15: {
  3432                           ;infrared.c: 16: fullval += readDistance();
  3433  0966  160A  118A  2685   	fcall	_readDistance
              120A  158A         
  3434  096B  0878               	movf	(0+(?_readDistance)),w
  3435  096C  1283               	bcf	status, 5	;RP0=0, select bank0
  3436  096D  1303               	bcf	status, 6	;RP1=0, select bank0
  3437  096E  07E1               	addwf	(readAvgDistance@fullval),f
  3438  096F  1803               	skipnc
  3439  0970  0AE2               	incf	(readAvgDistance@fullval+1),f
  3440  0971  0879               	movf	(1+(?_readDistance)),w
  3441  0972  07E2               	addwf	(readAvgDistance@fullval+1),f
  3442                           	line	14
  3443                           	
  3444  0973                     i1l9151:	
  3445  0973  3001               	movlw	low(01h)
  3446  0974  07E3               	addwf	(readAvgDistance@i),f
  3447  0975  1803               	skipnc
  3448  0976  0AE4               	incf	(readAvgDistance@i+1),f
  3449  0977  3000               	movlw	high(01h)
  3450  0978  07E4               	addwf	(readAvgDistance@i+1),f
  3451                           	
  3452  0979                     i1l9153:	
  3453  0979  0864               	movf	(readAvgDistance@i+1),w
  3454  097A  3A80               	xorlw	80h
  3455  097B  00FF               	movwf	btemp+1
  3456  097C  3080               	movlw	(high(0Ah))^80h
  3457  097D  027F               	subwf	btemp+1,w
  3458  097E  1D03               	skipz
  3459  097F  2982               	goto	u319_25
  3460  0980  300A               	movlw	low(0Ah)
  3461  0981  0263               	subwf	(readAvgDistance@i),w
  3462  0982                     u319_25:
  3463                           
  3464  0982  1C03               	skipc
  3465  0983  2985               	goto	u319_21
  3466  0984  2986               	goto	u319_20
  3467  0985                     u319_21:
  3468  0985  2966               	goto	i1l9149
  3469  0986                     u319_20:
  3470  0986  2987               	goto	i1l9155
  3471                           	
  3472  0987                     i1l2879:	
  3473                           	line	19
  3474                           	
  3475  0987                     i1l9155:	
  3476                           ;infrared.c: 18: }
  3477                           ;infrared.c: 19: adcVal = fullval / 10;
  3478  0987  300A               	movlw	low(0Ah)
  3479  0988  00F6               	movwf	(?___lwdiv)
  3480  0989  3000               	movlw	high(0Ah)
  3481  098A  00F7               	movwf	((?___lwdiv))+1
  3482  098B  1283               	bcf	status, 5	;RP0=0, select bank0
  3483  098C  1303               	bcf	status, 6	;RP1=0, select bank0
  3484  098D  0862               	movf	(readAvgDistance@fullval+1),w
  3485  098E  01F9               	clrf	1+(?___lwdiv)+02h
  3486  098F  07F9               	addwf	1+(?___lwdiv)+02h
  3487  0990  0861               	movf	(readAvgDistance@fullval),w
  3488  0991  01F8               	clrf	0+(?___lwdiv)+02h
  3489  0992  07F8               	addwf	0+(?___lwdiv)+02h
  3490                           
  3491  0993  120A  158A  2103   	fcall	___lwdiv
              120A  158A         
  3492  0998  0877               	movf	(1+(?___lwdiv)),w
  3493  0999  1283               	bcf	status, 5	;RP0=0, select bank0
  3494  099A  1303               	bcf	status, 6	;RP1=0, select bank0
  3495  099B  01ED               	clrf	(_adcVal+1)	;volatile
  3496  099C  07ED               	addwf	(_adcVal+1)	;volatile
  3497  099D  0876               	movf	(0+(?___lwdiv)),w
  3498  099E  01EC               	clrf	(_adcVal)	;volatile
  3499  099F  07EC               	addwf	(_adcVal)	;volatile
  3500                           
  3501                           	line	20
  3502                           	
  3503  09A0                     i1l9157:	
  3504                           ;infrared.c: 20: ADCconvert();
  3505  09A0  120A  118A  2015   	fcall	_ADCconvert
              120A  158A         
  3506                           	line	21
  3507                           	
  3508  09A5                     i1l2880:	
  3509  09A5  0008               	return
  3510                           	opt stack 0
  3511                           GLOBAL	__end_of_readAvgDistance
  3512  09A6                     	__end_of_readAvgDistance:
  3513 ;; =============== function _readAvgDistance ends ============
  3514                           
  3515                           	signat	_readAvgDistance,88
  3516                           	global	_ADCconvert
  3517                           psect	text767,local,class=CODE,delta=2
  3518                           global __ptext767
  3519  0015                     __ptext767:
  3520                           
  3521 ;; *************** function _ADCconvert *****************
  3522 ;; Defined at:
  3523 ;;		line 33 in file "H:\Aldnoah.Zero\trunk\Assignment3\infrared.c"
  3524 ;; Parameters:    Size  Location     Type
  3525 ;;		None
  3526 ;; Auto vars:     Size  Location     Type
  3527 ;;		None
  3528 ;; Return value:  Size  Location     Type
  3529 ;;		None               void
  3530 ;; Registers used:
  3531 ;;		wreg, fsr0l, fsr0h, fsr1l, fsr1h, status,2, status,0, btemp+1, pclath, cstack
  3532 ;; Tracked objects:
  3533 ;;		On entry : 0/0
  3534 ;;		On exit  : 0/0
  3535 ;;		Unchanged: 0/0
  3536 ;; Data sizes:     COMMON   BANK0   BANK1   BANK3   BANK2
  3537 ;;      Params:         0       0       0       0       0
  3538 ;;      Locals:         0       0       0       0       0
  3539 ;;      Temps:          0       2       0       0       0
  3540 ;;      Totals:         0       2       0       0       0
  3541 ;;Total ram usage:        2 bytes
  3542 ;; Hardware stack levels used:    1
  3543 ;; Hardware stack levels required when called:    2
  3544 ;; This function calls:
  3545 ;;		___lwtoft
  3546 ;;		___ftge
  3547 ;;		___ftneg
  3548 ;;		___ftadd
  3549 ;;		___ftmul
  3550 ;;		___ftdiv
  3551 ;;		___fttol
  3552 ;;		___wmul
  3553 ;;		___lwdiv
  3554 ;; This function is called by:
  3555 ;;		_readAvgDistance
  3556 ;; This function uses a non-reentrant model
  3557 ;;
  3558                           psect	text767
  3559                           	file	"H:\Aldnoah.Zero\trunk\Assignment3\infrared.c"
  3560                           	line	33
  3561                           	global	__size_of_ADCconvert
  3562  0509                     	__size_of_ADCconvert	equ	__end_of_ADCconvert-_ADCconvert
  3563                           	
  3564  0015                     _ADCconvert:	
  3565                           	opt	stack 0
  3566                           ; Regs used in _ADCconvert: [allreg]
  3567                           	line	39
  3568                           	
  3569  0015                     i1l9275:	
  3570                           ;infrared.c: 39: if (adcVal >= 212.5 && adcVal < 233.75)
  3571  0015  1283               	bcf	status, 5	;RP0=0, select bank0
  3572  0016  1303               	bcf	status, 6	;RP1=0, select bank0
  3573  0017  086D               	movf	(_adcVal+1),w	;volatile
  3574  0018  01AF               	clrf	(?___lwtoft+1)
  3575  0019  07AF               	addwf	(?___lwtoft+1)
  3576  001A  086C               	movf	(_adcVal),w	;volatile
  3577  001B  01AE               	clrf	(?___lwtoft)
  3578  001C  07AE               	addwf	(?___lwtoft)
  3579                           
  3580  001D  160A  118A  26C5   	fcall	___lwtoft
              120A  118A         
  3581  0022  1283               	bcf	status, 5	;RP0=0, select bank0
  3582  0023  1303               	bcf	status, 6	;RP1=0, select bank0
  3583  0024  082E               	movf	(0+(?___lwtoft)),w
  3584  0025  00F8               	movwf	(?___ftge)
  3585  0026  082F               	movf	(1+(?___lwtoft)),w
  3586  0027  00F9               	movwf	(?___ftge+1)
  3587  0028  0830               	movf	(2+(?___lwtoft)),w
  3588  0029  00FA               	movwf	(?___ftge+2)
  3589  002A  3080               	movlw	0x80
  3590  002B  00FB               	movwf	0+(?___ftge)+03h
  3591  002C  3054               	movlw	0x54
  3592  002D  00FC               	movwf	1+(?___ftge)+03h
  3593  002E  3043               	movlw	0x43
  3594  002F  00FD               	movwf	2+(?___ftge)+03h
  3595  0030  120A  158A  22CD   	fcall	___ftge
              120A  118A         
  3596  0035  1C03               	btfss	status,0
  3597  0036  2838               	goto	u329_21
  3598  0037  2839               	goto	u329_20
  3599  0038                     u329_21:
  3600  0038  28DF               	goto	i1l9281
  3601  0039                     u329_20:
  3602                           	
  3603  0039                     i1l9277:	
  3604  0039  1283               	bcf	status, 5	;RP0=0, select bank0
  3605  003A  1303               	bcf	status, 6	;RP1=0, select bank0
  3606  003B  086D               	movf	(_adcVal+1),w	;volatile
  3607  003C  01AF               	clrf	(?___lwtoft+1)
  3608  003D  07AF               	addwf	(?___lwtoft+1)
  3609  003E  086C               	movf	(_adcVal),w	;volatile
  3610  003F  01AE               	clrf	(?___lwtoft)
  3611  0040  07AE               	addwf	(?___lwtoft)
  3612                           
  3613  0041  160A  118A  26C5   	fcall	___lwtoft
              120A  118A         
  3614  0046  1283               	bcf	status, 5	;RP0=0, select bank0
  3615  0047  1303               	bcf	status, 6	;RP1=0, select bank0
  3616  0048  082E               	movf	(0+(?___lwtoft)),w
  3617  0049  00F8               	movwf	(?___ftge)
  3618  004A  082F               	movf	(1+(?___lwtoft)),w
  3619  004B  00F9               	movwf	(?___ftge+1)
  3620  004C  0830               	movf	(2+(?___lwtoft)),w
  3621  004D  00FA               	movwf	(?___ftge+2)
  3622  004E  30C0               	movlw	0xc0
  3623  004F  00FB               	movwf	0+(?___ftge)+03h
  3624  0050  3069               	movlw	0x69
  3625  0051  00FC               	movwf	1+(?___ftge)+03h
  3626  0052  3043               	movlw	0x43
  3627  0053  00FD               	movwf	2+(?___ftge)+03h
  3628  0054  120A  158A  22CD   	fcall	___ftge
              120A  118A         
  3629  0059  1803               	btfsc	status,0
  3630  005A  285C               	goto	u330_21
  3631  005B  285D               	goto	u330_20
  3632  005C                     u330_21:
  3633  005C  28DF               	goto	i1l9281
  3634  005D                     u330_20:
  3635                           	line	41
  3636                           	
  3637  005D                     i1l9279:	
  3638                           ;infrared.c: 40: {
  3639                           ;infrared.c: 41: distance = 15 + ((20-15)*(2.75-adcVal))/(20-15);
  3640  005D  1283               	bcf	status, 5	;RP0=0, select bank0
  3641  005E  1303               	bcf	status, 6	;RP1=0, select bank0
  3642  005F  086D               	movf	(_adcVal+1),w	;volatile
  3643  0060  01AF               	clrf	(?___lwtoft+1)
  3644  0061  07AF               	addwf	(?___lwtoft+1)
  3645  0062  086C               	movf	(_adcVal),w	;volatile
  3646  0063  01AE               	clrf	(?___lwtoft)
  3647  0064  07AE               	addwf	(?___lwtoft)
  3648                           
  3649  0065  160A  118A  26C5   	fcall	___lwtoft
              120A  118A         
  3650  006A  1283               	bcf	status, 5	;RP0=0, select bank0
  3651  006B  1303               	bcf	status, 6	;RP1=0, select bank0
  3652  006C  082E               	movf	(0+(?___lwtoft)),w
  3653  006D  00F8               	movwf	(?___ftneg)
  3654  006E  082F               	movf	(1+(?___lwtoft)),w
  3655  006F  00F9               	movwf	(?___ftneg+1)
  3656  0070  0830               	movf	(2+(?___lwtoft)),w
  3657  0071  00FA               	movwf	(?___ftneg+2)
  3658  0072  160A  118A  263F   	fcall	___ftneg
              120A  118A         
  3659  0077  0878               	movf	(0+(?___ftneg)),w
  3660  0078  1283               	bcf	status, 5	;RP0=0, select bank0
  3661  0079  1303               	bcf	status, 6	;RP1=0, select bank0
  3662  007A  00B5               	movwf	0+(?___ftadd)+03h
  3663  007B  0879               	movf	(1+(?___ftneg)),w
  3664  007C  00B6               	movwf	1+(?___ftadd)+03h
  3665  007D  087A               	movf	(2+(?___ftneg)),w
  3666  007E  00B7               	movwf	2+(?___ftadd)+03h
  3667  007F  3000               	movlw	0x0
  3668  0080  00B2               	movwf	(?___ftadd)
  3669  0081  3030               	movlw	0x30
  3670  0082  00B3               	movwf	(?___ftadd+1)
  3671  0083  3040               	movlw	0x40
  3672  0084  00B4               	movwf	(?___ftadd+2)
  3673  0085  120A  118A  251E   	fcall	___ftadd
              120A  118A         
  3674  008A  1283               	bcf	status, 5	;RP0=0, select bank0
  3675  008B  1303               	bcf	status, 6	;RP1=0, select bank0
  3676  008C  0832               	movf	(0+(?___ftadd)),w
  3677  008D  00C2               	movwf	0+(?___ftmul)+03h
  3678  008E  0833               	movf	(1+(?___ftadd)),w
  3679  008F  00C3               	movwf	1+(?___ftmul)+03h
  3680  0090  0834               	movf	(2+(?___ftadd)),w
  3681  0091  00C4               	movwf	2+(?___ftmul)+03h
  3682  0092  3000               	movlw	0x0
  3683  0093  00BF               	movwf	(?___ftmul)
  3684  0094  30A0               	movlw	0xa0
  3685  0095  00C0               	movwf	(?___ftmul+1)
  3686  0096  3040               	movlw	0x40
  3687  0097  00C1               	movwf	(?___ftmul+2)
  3688  0098  120A  158A  2612   	fcall	___ftmul
              120A  118A         
  3689  009D  1283               	bcf	status, 5	;RP0=0, select bank0
  3690  009E  1303               	bcf	status, 6	;RP1=0, select bank0
  3691  009F  083F               	movf	(0+(?___ftmul)),w
  3692  00A0  00D2               	movwf	0+(?___ftdiv)+03h
  3693  00A1  0840               	movf	(1+(?___ftmul)),w
  3694  00A2  00D3               	movwf	1+(?___ftdiv)+03h
  3695  00A3  0841               	movf	(2+(?___ftmul)),w
  3696  00A4  00D4               	movwf	2+(?___ftdiv)+03h
  3697  00A5  3000               	movlw	0x0
  3698  00A6  00CF               	movwf	(?___ftdiv)
  3699  00A7  30A0               	movlw	0xa0
  3700  00A8  00D0               	movwf	(?___ftdiv+1)
  3701  00A9  3040               	movlw	0x40
  3702  00AA  00D1               	movwf	(?___ftdiv+2)
  3703  00AB  120A  158A  254A   	fcall	___ftdiv
              120A  118A         
  3704  00B0  1283               	bcf	status, 5	;RP0=0, select bank0
  3705  00B1  1303               	bcf	status, 6	;RP1=0, select bank0
  3706  00B2  084F               	movf	(0+(?___ftdiv)),w
  3707  00B3  00B5               	movwf	0+(?___ftadd)+03h
  3708  00B4  0850               	movf	(1+(?___ftdiv)),w
  3709  00B5  00B6               	movwf	1+(?___ftadd)+03h
  3710  00B6  0851               	movf	(2+(?___ftdiv)),w
  3711  00B7  00B7               	movwf	2+(?___ftadd)+03h
  3712  00B8  3000               	movlw	0x0
  3713  00B9  00B2               	movwf	(?___ftadd)
  3714  00BA  3070               	movlw	0x70
  3715  00BB  00B3               	movwf	(?___ftadd+1)
  3716  00BC  3041               	movlw	0x41
  3717  00BD  00B4               	movwf	(?___ftadd+2)
  3718  00BE  120A  118A  251E   	fcall	___ftadd
              120A  118A         
  3719  00C3  1283               	bcf	status, 5	;RP0=0, select bank0
  3720  00C4  1303               	bcf	status, 6	;RP1=0, select bank0
  3721  00C5  0832               	movf	(0+(?___ftadd)),w
  3722  00C6  00A0               	movwf	(?___fttol)
  3723  00C7  0833               	movf	(1+(?___ftadd)),w
  3724  00C8  00A1               	movwf	(?___fttol+1)
  3725  00C9  0834               	movf	(2+(?___ftadd)),w
  3726  00CA  00A2               	movwf	(?___fttol+2)
  3727  00CB  120A  158A  233D   	fcall	___fttol
              120A  118A         
  3728  00D0  1283               	bcf	status, 5	;RP0=0, select bank0
  3729  00D1  1303               	bcf	status, 6	;RP1=0, select bank0
  3730  00D2  0821               	movf	1+(((0+(?___fttol)))),w
  3731  00D3  1683               	bsf	status, 5	;RP0=1, select bank1
  3732  00D4  1303               	bcf	status, 6	;RP1=0, select bank1
  3733  00D5  01D3               	clrf	(_distance+1)^080h	;volatile
  3734  00D6  07D3               	addwf	(_distance+1)^080h	;volatile
  3735  00D7  1283               	bcf	status, 5	;RP0=0, select bank0
  3736  00D8  1303               	bcf	status, 6	;RP1=0, select bank0
  3737  00D9  0820               	movf	0+(((0+(?___fttol)))),w
  3738  00DA  1683               	bsf	status, 5	;RP0=1, select bank1
  3739  00DB  1303               	bcf	status, 6	;RP1=0, select bank1
  3740  00DC  01D2               	clrf	(_distance)^080h	;volatile
  3741  00DD  07D2               	addwf	(_distance)^080h	;volatile
  3742                           
  3743                           	line	42
  3744                           ;infrared.c: 42: }
  3745  00DE  2D1D               	goto	i1l2899
  3746                           	line	43
  3747                           	
  3748  00DF                     i1l2886:	
  3749                           	
  3750  00DF                     i1l9281:	
  3751                           ;infrared.c: 43: else if (adcVal >= 170 && adcVal < 212.5)
  3752  00DF  3000               	movlw	high(0AAh)
  3753  00E0  1283               	bcf	status, 5	;RP0=0, select bank0
  3754  00E1  1303               	bcf	status, 6	;RP1=0, select bank0
  3755  00E2  026D               	subwf	(_adcVal+1),w	;volatile
  3756  00E3  30AA               	movlw	low(0AAh)
  3757  00E4  1903               	skipnz
  3758  00E5  026C               	subwf	(_adcVal),w	;volatile
  3759  00E6  1C03               	skipc
  3760  00E7  28E9               	goto	u331_21
  3761  00E8  28EA               	goto	u331_20
  3762  00E9                     u331_21:
  3763  00E9  298E               	goto	i1l9287
  3764  00EA                     u331_20:
  3765                           	
  3766  00EA                     i1l9283:	
  3767  00EA  086D               	movf	(_adcVal+1),w	;volatile
  3768  00EB  01AF               	clrf	(?___lwtoft+1)
  3769  00EC  07AF               	addwf	(?___lwtoft+1)
  3770  00ED  086C               	movf	(_adcVal),w	;volatile
  3771  00EE  01AE               	clrf	(?___lwtoft)
  3772  00EF  07AE               	addwf	(?___lwtoft)
  3773                           
  3774  00F0  160A  118A  26C5   	fcall	___lwtoft
              120A  118A         
  3775  00F5  1283               	bcf	status, 5	;RP0=0, select bank0
  3776  00F6  1303               	bcf	status, 6	;RP1=0, select bank0
  3777  00F7  082E               	movf	(0+(?___lwtoft)),w
  3778  00F8  00F8               	movwf	(?___ftge)
  3779  00F9  082F               	movf	(1+(?___lwtoft)),w
  3780  00FA  00F9               	movwf	(?___ftge+1)
  3781  00FB  0830               	movf	(2+(?___lwtoft)),w
  3782  00FC  00FA               	movwf	(?___ftge+2)
  3783  00FD  3080               	movlw	0x80
  3784  00FE  00FB               	movwf	0+(?___ftge)+03h
  3785  00FF  3054               	movlw	0x54
  3786  0100  00FC               	movwf	1+(?___ftge)+03h
  3787  0101  3043               	movlw	0x43
  3788  0102  00FD               	movwf	2+(?___ftge)+03h
  3789  0103  120A  158A  22CD   	fcall	___ftge
              120A  118A         
  3790  0108  1803               	btfsc	status,0
  3791  0109  290B               	goto	u332_21
  3792  010A  290C               	goto	u332_20
  3793  010B                     u332_21:
  3794  010B  298E               	goto	i1l9287
  3795  010C                     u332_20:
  3796                           	line	45
  3797                           	
  3798  010C                     i1l9285:	
  3799                           ;infrared.c: 44: {
  3800                           ;infrared.c: 45: distance = 20 + ((30-20)*(2.5-adcVal))/(30-20);
  3801  010C  1283               	bcf	status, 5	;RP0=0, select bank0
  3802  010D  1303               	bcf	status, 6	;RP1=0, select bank0
  3803  010E  086D               	movf	(_adcVal+1),w	;volatile
  3804  010F  01AF               	clrf	(?___lwtoft+1)
  3805  0110  07AF               	addwf	(?___lwtoft+1)
  3806  0111  086C               	movf	(_adcVal),w	;volatile
  3807  0112  01AE               	clrf	(?___lwtoft)
  3808  0113  07AE               	addwf	(?___lwtoft)
  3809                           
  3810  0114  160A  118A  26C5   	fcall	___lwtoft
              120A  118A         
  3811  0119  1283               	bcf	status, 5	;RP0=0, select bank0
  3812  011A  1303               	bcf	status, 6	;RP1=0, select bank0
  3813  011B  082E               	movf	(0+(?___lwtoft)),w
  3814  011C  00F8               	movwf	(?___ftneg)
  3815  011D  082F               	movf	(1+(?___lwtoft)),w
  3816  011E  00F9               	movwf	(?___ftneg+1)
  3817  011F  0830               	movf	(2+(?___lwtoft)),w
  3818  0120  00FA               	movwf	(?___ftneg+2)
  3819  0121  160A  118A  263F   	fcall	___ftneg
              120A  118A         
  3820  0126  0878               	movf	(0+(?___ftneg)),w
  3821  0127  1283               	bcf	status, 5	;RP0=0, select bank0
  3822  0128  1303               	bcf	status, 6	;RP1=0, select bank0
  3823  0129  00B5               	movwf	0+(?___ftadd)+03h
  3824  012A  0879               	movf	(1+(?___ftneg)),w
  3825  012B  00B6               	movwf	1+(?___ftadd)+03h
  3826  012C  087A               	movf	(2+(?___ftneg)),w
  3827  012D  00B7               	movwf	2+(?___ftadd)+03h
  3828  012E  3000               	movlw	0x0
  3829  012F  00B2               	movwf	(?___ftadd)
  3830  0130  3020               	movlw	0x20
  3831  0131  00B3               	movwf	(?___ftadd+1)
  3832  0132  3040               	movlw	0x40
  3833  0133  00B4               	movwf	(?___ftadd+2)
  3834  0134  120A  118A  251E   	fcall	___ftadd
              120A  118A         
  3835  0139  1283               	bcf	status, 5	;RP0=0, select bank0
  3836  013A  1303               	bcf	status, 6	;RP1=0, select bank0
  3837  013B  0832               	movf	(0+(?___ftadd)),w
  3838  013C  00C2               	movwf	0+(?___ftmul)+03h
  3839  013D  0833               	movf	(1+(?___ftadd)),w
  3840  013E  00C3               	movwf	1+(?___ftmul)+03h
  3841  013F  0834               	movf	(2+(?___ftadd)),w
  3842  0140  00C4               	movwf	2+(?___ftmul)+03h
  3843  0141  3000               	movlw	0x0
  3844  0142  00BF               	movwf	(?___ftmul)
  3845  0143  3020               	movlw	0x20
  3846  0144  00C0               	movwf	(?___ftmul+1)
  3847  0145  3041               	movlw	0x41
  3848  0146  00C1               	movwf	(?___ftmul+2)
  3849  0147  120A  158A  2612   	fcall	___ftmul
              120A  118A         
  3850  014C  1283               	bcf	status, 5	;RP0=0, select bank0
  3851  014D  1303               	bcf	status, 6	;RP1=0, select bank0
  3852  014E  083F               	movf	(0+(?___ftmul)),w
  3853  014F  00D2               	movwf	0+(?___ftdiv)+03h
  3854  0150  0840               	movf	(1+(?___ftmul)),w
  3855  0151  00D3               	movwf	1+(?___ftdiv)+03h
  3856  0152  0841               	movf	(2+(?___ftmul)),w
  3857  0153  00D4               	movwf	2+(?___ftdiv)+03h
  3858  0154  3000               	movlw	0x0
  3859  0155  00CF               	movwf	(?___ftdiv)
  3860  0156  3020               	movlw	0x20
  3861  0157  00D0               	movwf	(?___ftdiv+1)
  3862  0158  3041               	movlw	0x41
  3863  0159  00D1               	movwf	(?___ftdiv+2)
  3864  015A  120A  158A  254A   	fcall	___ftdiv
              120A  118A         
  3865  015F  1283               	bcf	status, 5	;RP0=0, select bank0
  3866  0160  1303               	bcf	status, 6	;RP1=0, select bank0
  3867  0161  084F               	movf	(0+(?___ftdiv)),w
  3868  0162  00B5               	movwf	0+(?___ftadd)+03h
  3869  0163  0850               	movf	(1+(?___ftdiv)),w
  3870  0164  00B6               	movwf	1+(?___ftadd)+03h
  3871  0165  0851               	movf	(2+(?___ftdiv)),w
  3872  0166  00B7               	movwf	2+(?___ftadd)+03h
  3873  0167  3000               	movlw	0x0
  3874  0168  00B2               	movwf	(?___ftadd)
  3875  0169  30A0               	movlw	0xa0
  3876  016A  00B3               	movwf	(?___ftadd+1)
  3877  016B  3041               	movlw	0x41
  3878  016C  00B4               	movwf	(?___ftadd+2)
  3879  016D  120A  118A  251E   	fcall	___ftadd
              120A  118A         
  3880  0172  1283               	bcf	status, 5	;RP0=0, select bank0
  3881  0173  1303               	bcf	status, 6	;RP1=0, select bank0
  3882  0174  0832               	movf	(0+(?___ftadd)),w
  3883  0175  00A0               	movwf	(?___fttol)
  3884  0176  0833               	movf	(1+(?___ftadd)),w
  3885  0177  00A1               	movwf	(?___fttol+1)
  3886  0178  0834               	movf	(2+(?___ftadd)),w
  3887  0179  00A2               	movwf	(?___fttol+2)
  3888  017A  120A  158A  233D   	fcall	___fttol
              120A  118A         
  3889  017F  1283               	bcf	status, 5	;RP0=0, select bank0
  3890  0180  1303               	bcf	status, 6	;RP1=0, select bank0
  3891  0181  0821               	movf	1+(((0+(?___fttol)))),w
  3892  0182  1683               	bsf	status, 5	;RP0=1, select bank1
  3893  0183  1303               	bcf	status, 6	;RP1=0, select bank1
  3894  0184  01D3               	clrf	(_distance+1)^080h	;volatile
  3895  0185  07D3               	addwf	(_distance+1)^080h	;volatile
  3896  0186  1283               	bcf	status, 5	;RP0=0, select bank0
  3897  0187  1303               	bcf	status, 6	;RP1=0, select bank0
  3898  0188  0820               	movf	0+(((0+(?___fttol)))),w
  3899  0189  1683               	bsf	status, 5	;RP0=1, select bank1
  3900  018A  1303               	bcf	status, 6	;RP1=0, select bank1
  3901  018B  01D2               	clrf	(_distance)^080h	;volatile
  3902  018C  07D2               	addwf	(_distance)^080h	;volatile
  3903                           
  3904                           	line	46
  3905                           ;infrared.c: 46: }
  3906  018D  2D1D               	goto	i1l2899
  3907                           	line	47
  3908                           	
  3909  018E                     i1l2888:	
  3910                           	
  3911  018E                     i1l9287:	
  3912                           ;infrared.c: 47: else if (adcVal >= 127.5 && adcVal < 170)
  3913  018E  1283               	bcf	status, 5	;RP0=0, select bank0
  3914  018F  1303               	bcf	status, 6	;RP1=0, select bank0
  3915  0190  086D               	movf	(_adcVal+1),w	;volatile
  3916  0191  01AF               	clrf	(?___lwtoft+1)
  3917  0192  07AF               	addwf	(?___lwtoft+1)
  3918  0193  086C               	movf	(_adcVal),w	;volatile
  3919  0194  01AE               	clrf	(?___lwtoft)
  3920  0195  07AE               	addwf	(?___lwtoft)
  3921                           
  3922  0196  160A  118A  26C5   	fcall	___lwtoft
              120A  118A         
  3923  019B  1283               	bcf	status, 5	;RP0=0, select bank0
  3924  019C  1303               	bcf	status, 6	;RP1=0, select bank0
  3925  019D  082E               	movf	(0+(?___lwtoft)),w
  3926  019E  00F8               	movwf	(?___ftge)
  3927  019F  082F               	movf	(1+(?___lwtoft)),w
  3928  01A0  00F9               	movwf	(?___ftge+1)
  3929  01A1  0830               	movf	(2+(?___lwtoft)),w
  3930  01A2  00FA               	movwf	(?___ftge+2)
  3931  01A3  3000               	movlw	0x0
  3932  01A4  00FB               	movwf	0+(?___ftge)+03h
  3933  01A5  30FF               	movlw	0xff
  3934  01A6  00FC               	movwf	1+(?___ftge)+03h
  3935  01A7  3042               	movlw	0x42
  3936  01A8  00FD               	movwf	2+(?___ftge)+03h
  3937  01A9  120A  158A  22CD   	fcall	___ftge
              120A  118A         
  3938  01AE  1C03               	btfss	status,0
  3939  01AF  29B1               	goto	u333_21
  3940  01B0  29B2               	goto	u333_20
  3941  01B1                     u333_21:
  3942  01B1  29EF               	goto	i1l9293
  3943  01B2                     u333_20:
  3944                           	
  3945  01B2                     i1l9289:	
  3946  01B2  3000               	movlw	high(0AAh)
  3947  01B3  1283               	bcf	status, 5	;RP0=0, select bank0
  3948  01B4  1303               	bcf	status, 6	;RP1=0, select bank0
  3949  01B5  026D               	subwf	(_adcVal+1),w	;volatile
  3950  01B6  30AA               	movlw	low(0AAh)
  3951  01B7  1903               	skipnz
  3952  01B8  026C               	subwf	(_adcVal),w	;volatile
  3953  01B9  1803               	skipnc
  3954  01BA  29BC               	goto	u334_21
  3955  01BB  29BD               	goto	u334_20
  3956  01BC                     u334_21:
  3957  01BC  29EF               	goto	i1l9293
  3958  01BD                     u334_20:
  3959                           	line	49
  3960                           	
  3961  01BD                     i1l9291:	
  3962                           ;infrared.c: 48: {
  3963                           ;infrared.c: 49: distance = 30 + ((40-30)*(2-adcVal))/(40-30);
  3964  01BD  300A               	movlw	low(0Ah)
  3965  01BE  00F6               	movwf	(?___lwdiv)
  3966  01BF  3000               	movlw	high(0Ah)
  3967  01C0  00F7               	movwf	((?___lwdiv))+1
  3968  01C1  096C               	comf	(_adcVal),w	;volatile
  3969  01C2  00DF               	movwf	(??_ADCconvert+0)+0
  3970  01C3  096D               	comf	(_adcVal+1),w	;volatile
  3971  01C4  00E0               	movwf	((??_ADCconvert+0)+0+1)
  3972  01C5  0ADF               	incf	(??_ADCconvert+0)+0,f
  3973  01C6  1903               	skipnz
  3974  01C7  0AE0               	incf	((??_ADCconvert+0)+0+1),f
  3975  01C8  085F               	movf	0+(??_ADCconvert+0)+0,w
  3976  01C9  3E02               	addlw	low(02h)
  3977  01CA  00F0               	movwf	(?___wmul)
  3978  01CB  0860               	movf	1+(??_ADCconvert+0)+0,w
  3979  01CC  1803               	skipnc
  3980  01CD  3E01               	addlw	1
  3981  01CE  3E00               	addlw	high(02h)
  3982  01CF  00F1               	movwf	1+(?___wmul)
  3983  01D0  300A               	movlw	low(0Ah)
  3984  01D1  00F2               	movwf	0+(?___wmul)+02h
  3985  01D2  3000               	movlw	high(0Ah)
  3986  01D3  00F3               	movwf	(0+(?___wmul)+02h)+1
  3987  01D4  160A  118A  274F   	fcall	___wmul
              120A  118A         
  3988  01D9  0871               	movf	(1+(?___wmul)),w
  3989  01DA  01F9               	clrf	1+(?___lwdiv)+02h
  3990  01DB  07F9               	addwf	1+(?___lwdiv)+02h
  3991  01DC  0870               	movf	(0+(?___wmul)),w
  3992  01DD  01F8               	clrf	0+(?___lwdiv)+02h
  3993  01DE  07F8               	addwf	0+(?___lwdiv)+02h
  3994                           
  3995  01DF  120A  158A  2103   	fcall	___lwdiv
              120A  118A         
  3996  01E4  0876               	movf	(0+(?___lwdiv)),w
  3997  01E5  3E1E               	addlw	low(01Eh)
  3998  01E6  1683               	bsf	status, 5	;RP0=1, select bank1
  3999  01E7  1303               	bcf	status, 6	;RP1=0, select bank1
  4000  01E8  00D2               	movwf	(_distance)^080h	;volatile
  4001  01E9  0877               	movf	(1+(?___lwdiv)),w
  4002  01EA  1803               	skipnc
  4003  01EB  3E01               	addlw	1
  4004  01EC  3E00               	addlw	high(01Eh)
  4005  01ED  00D3               	movwf	1+(_distance)^080h	;volatile
  4006                           	line	50
  4007                           ;infrared.c: 50: }
  4008  01EE  2D1D               	goto	i1l2899
  4009                           	line	51
  4010                           	
  4011  01EF                     i1l2890:	
  4012                           	
  4013  01EF                     i1l9293:	
  4014                           ;infrared.c: 51: else if (adcVal >= 106.25 && adcVal < 127.5)
  4015  01EF  1283               	bcf	status, 5	;RP0=0, select bank0
  4016  01F0  1303               	bcf	status, 6	;RP1=0, select bank0
  4017  01F1  086D               	movf	(_adcVal+1),w	;volatile
  4018  01F2  01AF               	clrf	(?___lwtoft+1)
  4019  01F3  07AF               	addwf	(?___lwtoft+1)
  4020  01F4  086C               	movf	(_adcVal),w	;volatile
  4021  01F5  01AE               	clrf	(?___lwtoft)
  4022  01F6  07AE               	addwf	(?___lwtoft)
  4023                           
  4024  01F7  160A  118A  26C5   	fcall	___lwtoft
              120A  118A         
  4025  01FC  1283               	bcf	status, 5	;RP0=0, select bank0
  4026  01FD  1303               	bcf	status, 6	;RP1=0, select bank0
  4027  01FE  082E               	movf	(0+(?___lwtoft)),w
  4028  01FF  00F8               	movwf	(?___ftge)
  4029  0200  082F               	movf	(1+(?___lwtoft)),w
  4030  0201  00F9               	movwf	(?___ftge+1)
  4031  0202  0830               	movf	(2+(?___lwtoft)),w
  4032  0203  00FA               	movwf	(?___ftge+2)
  4033  0204  3080               	movlw	0x80
  4034  0205  00FB               	movwf	0+(?___ftge)+03h
  4035  0206  30D4               	movlw	0xd4
  4036  0207  00FC               	movwf	1+(?___ftge)+03h
  4037  0208  3042               	movlw	0x42
  4038  0209  00FD               	movwf	2+(?___ftge)+03h
  4039  020A  120A  158A  22CD   	fcall	___ftge
              120A  118A         
  4040  020F  1C03               	btfss	status,0
  4041  0210  2A12               	goto	u335_21
  4042  0211  2A13               	goto	u335_20
  4043  0212                     u335_21:
  4044  0212  2AB9               	goto	i1l9299
  4045  0213                     u335_20:
  4046                           	
  4047  0213                     i1l9295:	
  4048  0213  1283               	bcf	status, 5	;RP0=0, select bank0
  4049  0214  1303               	bcf	status, 6	;RP1=0, select bank0
  4050  0215  086D               	movf	(_adcVal+1),w	;volatile
  4051  0216  01AF               	clrf	(?___lwtoft+1)
  4052  0217  07AF               	addwf	(?___lwtoft+1)
  4053  0218  086C               	movf	(_adcVal),w	;volatile
  4054  0219  01AE               	clrf	(?___lwtoft)
  4055  021A  07AE               	addwf	(?___lwtoft)
  4056                           
  4057  021B  160A  118A  26C5   	fcall	___lwtoft
              120A  118A         
  4058  0220  1283               	bcf	status, 5	;RP0=0, select bank0
  4059  0221  1303               	bcf	status, 6	;RP1=0, select bank0
  4060  0222  082E               	movf	(0+(?___lwtoft)),w
  4061  0223  00F8               	movwf	(?___ftge)
  4062  0224  082F               	movf	(1+(?___lwtoft)),w
  4063  0225  00F9               	movwf	(?___ftge+1)
  4064  0226  0830               	movf	(2+(?___lwtoft)),w
  4065  0227  00FA               	movwf	(?___ftge+2)
  4066  0228  3000               	movlw	0x0
  4067  0229  00FB               	movwf	0+(?___ftge)+03h
  4068  022A  30FF               	movlw	0xff
  4069  022B  00FC               	movwf	1+(?___ftge)+03h
  4070  022C  3042               	movlw	0x42
  4071  022D  00FD               	movwf	2+(?___ftge)+03h
  4072  022E  120A  158A  22CD   	fcall	___ftge
              120A  118A         
  4073  0233  1803               	btfsc	status,0
  4074  0234  2A36               	goto	u336_21
  4075  0235  2A37               	goto	u336_20
  4076  0236                     u336_21:
  4077  0236  2AB9               	goto	i1l9299
  4078  0237                     u336_20:
  4079                           	line	53
  4080                           	
  4081  0237                     i1l9297:	
  4082                           ;infrared.c: 52: {
  4083                           ;infrared.c: 53: distance = 40 + ((50-40)*(1.5-adcVal))/(50-40);
  4084  0237  1283               	bcf	status, 5	;RP0=0, select bank0
  4085  0238  1303               	bcf	status, 6	;RP1=0, select bank0
  4086  0239  086D               	movf	(_adcVal+1),w	;volatile
  4087  023A  01AF               	clrf	(?___lwtoft+1)
  4088  023B  07AF               	addwf	(?___lwtoft+1)
  4089  023C  086C               	movf	(_adcVal),w	;volatile
  4090  023D  01AE               	clrf	(?___lwtoft)
  4091  023E  07AE               	addwf	(?___lwtoft)
  4092                           
  4093  023F  160A  118A  26C5   	fcall	___lwtoft
              120A  118A         
  4094  0244  1283               	bcf	status, 5	;RP0=0, select bank0
  4095  0245  1303               	bcf	status, 6	;RP1=0, select bank0
  4096  0246  082E               	movf	(0+(?___lwtoft)),w
  4097  0247  00F8               	movwf	(?___ftneg)
  4098  0248  082F               	movf	(1+(?___lwtoft)),w
  4099  0249  00F9               	movwf	(?___ftneg+1)
  4100  024A  0830               	movf	(2+(?___lwtoft)),w
  4101  024B  00FA               	movwf	(?___ftneg+2)
  4102  024C  160A  118A  263F   	fcall	___ftneg
              120A  118A         
  4103  0251  0878               	movf	(0+(?___ftneg)),w
  4104  0252  1283               	bcf	status, 5	;RP0=0, select bank0
  4105  0253  1303               	bcf	status, 6	;RP1=0, select bank0
  4106  0254  00B5               	movwf	0+(?___ftadd)+03h
  4107  0255  0879               	movf	(1+(?___ftneg)),w
  4108  0256  00B6               	movwf	1+(?___ftadd)+03h
  4109  0257  087A               	movf	(2+(?___ftneg)),w
  4110  0258  00B7               	movwf	2+(?___ftadd)+03h
  4111  0259  3000               	movlw	0x0
  4112  025A  00B2               	movwf	(?___ftadd)
  4113  025B  30C0               	movlw	0xc0
  4114  025C  00B3               	movwf	(?___ftadd+1)
  4115  025D  303F               	movlw	0x3f
  4116  025E  00B4               	movwf	(?___ftadd+2)
  4117  025F  120A  118A  251E   	fcall	___ftadd
              120A  118A         
  4118  0264  1283               	bcf	status, 5	;RP0=0, select bank0
  4119  0265  1303               	bcf	status, 6	;RP1=0, select bank0
  4120  0266  0832               	movf	(0+(?___ftadd)),w
  4121  0267  00C2               	movwf	0+(?___ftmul)+03h
  4122  0268  0833               	movf	(1+(?___ftadd)),w
  4123  0269  00C3               	movwf	1+(?___ftmul)+03h
  4124  026A  0834               	movf	(2+(?___ftadd)),w
  4125  026B  00C4               	movwf	2+(?___ftmul)+03h
  4126  026C  3000               	movlw	0x0
  4127  026D  00BF               	movwf	(?___ftmul)
  4128  026E  3020               	movlw	0x20
  4129  026F  00C0               	movwf	(?___ftmul+1)
  4130  0270  3041               	movlw	0x41
  4131  0271  00C1               	movwf	(?___ftmul+2)
  4132  0272  120A  158A  2612   	fcall	___ftmul
              120A  118A         
  4133  0277  1283               	bcf	status, 5	;RP0=0, select bank0
  4134  0278  1303               	bcf	status, 6	;RP1=0, select bank0
  4135  0279  083F               	movf	(0+(?___ftmul)),w
  4136  027A  00D2               	movwf	0+(?___ftdiv)+03h
  4137  027B  0840               	movf	(1+(?___ftmul)),w
  4138  027C  00D3               	movwf	1+(?___ftdiv)+03h
  4139  027D  0841               	movf	(2+(?___ftmul)),w
  4140  027E  00D4               	movwf	2+(?___ftdiv)+03h
  4141  027F  3000               	movlw	0x0
  4142  0280  00CF               	movwf	(?___ftdiv)
  4143  0281  3020               	movlw	0x20
  4144  0282  00D0               	movwf	(?___ftdiv+1)
  4145  0283  3041               	movlw	0x41
  4146  0284  00D1               	movwf	(?___ftdiv+2)
  4147  0285  120A  158A  254A   	fcall	___ftdiv
              120A  118A         
  4148  028A  1283               	bcf	status, 5	;RP0=0, select bank0
  4149  028B  1303               	bcf	status, 6	;RP1=0, select bank0
  4150  028C  084F               	movf	(0+(?___ftdiv)),w
  4151  028D  00B5               	movwf	0+(?___ftadd)+03h
  4152  028E  0850               	movf	(1+(?___ftdiv)),w
  4153  028F  00B6               	movwf	1+(?___ftadd)+03h
  4154  0290  0851               	movf	(2+(?___ftdiv)),w
  4155  0291  00B7               	movwf	2+(?___ftadd)+03h
  4156  0292  3000               	movlw	0x0
  4157  0293  00B2               	movwf	(?___ftadd)
  4158  0294  3020               	movlw	0x20
  4159  0295  00B3               	movwf	(?___ftadd+1)
  4160  0296  3042               	movlw	0x42
  4161  0297  00B4               	movwf	(?___ftadd+2)
  4162  0298  120A  118A  251E   	fcall	___ftadd
              120A  118A         
  4163  029D  1283               	bcf	status, 5	;RP0=0, select bank0
  4164  029E  1303               	bcf	status, 6	;RP1=0, select bank0
  4165  029F  0832               	movf	(0+(?___ftadd)),w
  4166  02A0  00A0               	movwf	(?___fttol)
  4167  02A1  0833               	movf	(1+(?___ftadd)),w
  4168  02A2  00A1               	movwf	(?___fttol+1)
  4169  02A3  0834               	movf	(2+(?___ftadd)),w
  4170  02A4  00A2               	movwf	(?___fttol+2)
  4171  02A5  120A  158A  233D   	fcall	___fttol
              120A  118A         
  4172  02AA  1283               	bcf	status, 5	;RP0=0, select bank0
  4173  02AB  1303               	bcf	status, 6	;RP1=0, select bank0
  4174  02AC  0821               	movf	1+(((0+(?___fttol)))),w
  4175  02AD  1683               	bsf	status, 5	;RP0=1, select bank1
  4176  02AE  1303               	bcf	status, 6	;RP1=0, select bank1
  4177  02AF  01D3               	clrf	(_distance+1)^080h	;volatile
  4178  02B0  07D3               	addwf	(_distance+1)^080h	;volatile
  4179  02B1  1283               	bcf	status, 5	;RP0=0, select bank0
  4180  02B2  1303               	bcf	status, 6	;RP1=0, select bank0
  4181  02B3  0820               	movf	0+(((0+(?___fttol)))),w
  4182  02B4  1683               	bsf	status, 5	;RP0=1, select bank1
  4183  02B5  1303               	bcf	status, 6	;RP1=0, select bank1
  4184  02B6  01D2               	clrf	(_distance)^080h	;volatile
  4185  02B7  07D2               	addwf	(_distance)^080h	;volatile
  4186                           
  4187                           	line	54
  4188                           ;infrared.c: 54: }
  4189  02B8  2D1D               	goto	i1l2899
  4190                           	line	55
  4191                           	
  4192  02B9                     i1l2892:	
  4193                           	
  4194  02B9                     i1l9299:	
  4195                           ;infrared.c: 55: else if (adcVal >= 76.5 && adcVal < 106.25)
  4196  02B9  1283               	bcf	status, 5	;RP0=0, select bank0
  4197  02BA  1303               	bcf	status, 6	;RP1=0, select bank0
  4198  02BB  086D               	movf	(_adcVal+1),w	;volatile
  4199  02BC  01AF               	clrf	(?___lwtoft+1)
  4200  02BD  07AF               	addwf	(?___lwtoft+1)
  4201  02BE  086C               	movf	(_adcVal),w	;volatile
  4202  02BF  01AE               	clrf	(?___lwtoft)
  4203  02C0  07AE               	addwf	(?___lwtoft)
  4204                           
  4205  02C1  160A  118A  26C5   	fcall	___lwtoft
              120A  118A         
  4206  02C6  1283               	bcf	status, 5	;RP0=0, select bank0
  4207  02C7  1303               	bcf	status, 6	;RP1=0, select bank0
  4208  02C8  082E               	movf	(0+(?___lwtoft)),w
  4209  02C9  00F8               	movwf	(?___ftge)
  4210  02CA  082F               	movf	(1+(?___lwtoft)),w
  4211  02CB  00F9               	movwf	(?___ftge+1)
  4212  02CC  0830               	movf	(2+(?___lwtoft)),w
  4213  02CD  00FA               	movwf	(?___ftge+2)
  4214  02CE  3000               	movlw	0x0
  4215  02CF  00FB               	movwf	0+(?___ftge)+03h
  4216  02D0  3099               	movlw	0x99
  4217  02D1  00FC               	movwf	1+(?___ftge)+03h
  4218  02D2  3042               	movlw	0x42
  4219  02D3  00FD               	movwf	2+(?___ftge)+03h
  4220  02D4  120A  158A  22CD   	fcall	___ftge
              120A  118A         
  4221  02D9  1C03               	btfss	status,0
  4222  02DA  2ADC               	goto	u337_21
  4223  02DB  2ADD               	goto	u337_20
  4224  02DC                     u337_21:
  4225  02DC  2B83               	goto	i1l9305
  4226  02DD                     u337_20:
  4227                           	
  4228  02DD                     i1l9301:	
  4229  02DD  1283               	bcf	status, 5	;RP0=0, select bank0
  4230  02DE  1303               	bcf	status, 6	;RP1=0, select bank0
  4231  02DF  086D               	movf	(_adcVal+1),w	;volatile
  4232  02E0  01AF               	clrf	(?___lwtoft+1)
  4233  02E1  07AF               	addwf	(?___lwtoft+1)
  4234  02E2  086C               	movf	(_adcVal),w	;volatile
  4235  02E3  01AE               	clrf	(?___lwtoft)
  4236  02E4  07AE               	addwf	(?___lwtoft)
  4237                           
  4238  02E5  160A  118A  26C5   	fcall	___lwtoft
              120A  118A         
  4239  02EA  1283               	bcf	status, 5	;RP0=0, select bank0
  4240  02EB  1303               	bcf	status, 6	;RP1=0, select bank0
  4241  02EC  082E               	movf	(0+(?___lwtoft)),w
  4242  02ED  00F8               	movwf	(?___ftge)
  4243  02EE  082F               	movf	(1+(?___lwtoft)),w
  4244  02EF  00F9               	movwf	(?___ftge+1)
  4245  02F0  0830               	movf	(2+(?___lwtoft)),w
  4246  02F1  00FA               	movwf	(?___ftge+2)
  4247  02F2  3080               	movlw	0x80
  4248  02F3  00FB               	movwf	0+(?___ftge)+03h
  4249  02F4  30D4               	movlw	0xd4
  4250  02F5  00FC               	movwf	1+(?___ftge)+03h
  4251  02F6  3042               	movlw	0x42
  4252  02F7  00FD               	movwf	2+(?___ftge)+03h
  4253  02F8  120A  158A  22CD   	fcall	___ftge
              120A  118A         
  4254  02FD  1803               	btfsc	status,0
  4255  02FE  2B00               	goto	u338_21
  4256  02FF  2B01               	goto	u338_20
  4257  0300                     u338_21:
  4258  0300  2B83               	goto	i1l9305
  4259  0301                     u338_20:
  4260                           	line	57
  4261                           	
  4262  0301                     i1l9303:	
  4263                           ;infrared.c: 56: {
  4264                           ;infrared.c: 57: distance = 50 + ((60-50)*(1.25-adcVal))/(30-20);
  4265  0301  1283               	bcf	status, 5	;RP0=0, select bank0
  4266  0302  1303               	bcf	status, 6	;RP1=0, select bank0
  4267  0303  086D               	movf	(_adcVal+1),w	;volatile
  4268  0304  01AF               	clrf	(?___lwtoft+1)
  4269  0305  07AF               	addwf	(?___lwtoft+1)
  4270  0306  086C               	movf	(_adcVal),w	;volatile
  4271  0307  01AE               	clrf	(?___lwtoft)
  4272  0308  07AE               	addwf	(?___lwtoft)
  4273                           
  4274  0309  160A  118A  26C5   	fcall	___lwtoft
              120A  118A         
  4275  030E  1283               	bcf	status, 5	;RP0=0, select bank0
  4276  030F  1303               	bcf	status, 6	;RP1=0, select bank0
  4277  0310  082E               	movf	(0+(?___lwtoft)),w
  4278  0311  00F8               	movwf	(?___ftneg)
  4279  0312  082F               	movf	(1+(?___lwtoft)),w
  4280  0313  00F9               	movwf	(?___ftneg+1)
  4281  0314  0830               	movf	(2+(?___lwtoft)),w
  4282  0315  00FA               	movwf	(?___ftneg+2)
  4283  0316  160A  118A  263F   	fcall	___ftneg
              120A  118A         
  4284  031B  0878               	movf	(0+(?___ftneg)),w
  4285  031C  1283               	bcf	status, 5	;RP0=0, select bank0
  4286  031D  1303               	bcf	status, 6	;RP1=0, select bank0
  4287  031E  00B5               	movwf	0+(?___ftadd)+03h
  4288  031F  0879               	movf	(1+(?___ftneg)),w
  4289  0320  00B6               	movwf	1+(?___ftadd)+03h
  4290  0321  087A               	movf	(2+(?___ftneg)),w
  4291  0322  00B7               	movwf	2+(?___ftadd)+03h
  4292  0323  3000               	movlw	0x0
  4293  0324  00B2               	movwf	(?___ftadd)
  4294  0325  30A0               	movlw	0xa0
  4295  0326  00B3               	movwf	(?___ftadd+1)
  4296  0327  303F               	movlw	0x3f
  4297  0328  00B4               	movwf	(?___ftadd+2)
  4298  0329  120A  118A  251E   	fcall	___ftadd
              120A  118A         
  4299  032E  1283               	bcf	status, 5	;RP0=0, select bank0
  4300  032F  1303               	bcf	status, 6	;RP1=0, select bank0
  4301  0330  0832               	movf	(0+(?___ftadd)),w
  4302  0331  00C2               	movwf	0+(?___ftmul)+03h
  4303  0332  0833               	movf	(1+(?___ftadd)),w
  4304  0333  00C3               	movwf	1+(?___ftmul)+03h
  4305  0334  0834               	movf	(2+(?___ftadd)),w
  4306  0335  00C4               	movwf	2+(?___ftmul)+03h
  4307  0336  3000               	movlw	0x0
  4308  0337  00BF               	movwf	(?___ftmul)
  4309  0338  3020               	movlw	0x20
  4310  0339  00C0               	movwf	(?___ftmul+1)
  4311  033A  3041               	movlw	0x41
  4312  033B  00C1               	movwf	(?___ftmul+2)
  4313  033C  120A  158A  2612   	fcall	___ftmul
              120A  118A         
  4314  0341  1283               	bcf	status, 5	;RP0=0, select bank0
  4315  0342  1303               	bcf	status, 6	;RP1=0, select bank0
  4316  0343  083F               	movf	(0+(?___ftmul)),w
  4317  0344  00D2               	movwf	0+(?___ftdiv)+03h
  4318  0345  0840               	movf	(1+(?___ftmul)),w
  4319  0346  00D3               	movwf	1+(?___ftdiv)+03h
  4320  0347  0841               	movf	(2+(?___ftmul)),w
  4321  0348  00D4               	movwf	2+(?___ftdiv)+03h
  4322  0349  3000               	movlw	0x0
  4323  034A  00CF               	movwf	(?___ftdiv)
  4324  034B  3020               	movlw	0x20
  4325  034C  00D0               	movwf	(?___ftdiv+1)
  4326  034D  3041               	movlw	0x41
  4327  034E  00D1               	movwf	(?___ftdiv+2)
  4328  034F  120A  158A  254A   	fcall	___ftdiv
              120A  118A         
  4329  0354  1283               	bcf	status, 5	;RP0=0, select bank0
  4330  0355  1303               	bcf	status, 6	;RP1=0, select bank0
  4331  0356  084F               	movf	(0+(?___ftdiv)),w
  4332  0357  00B5               	movwf	0+(?___ftadd)+03h
  4333  0358  0850               	movf	(1+(?___ftdiv)),w
  4334  0359  00B6               	movwf	1+(?___ftadd)+03h
  4335  035A  0851               	movf	(2+(?___ftdiv)),w
  4336  035B  00B7               	movwf	2+(?___ftadd)+03h
  4337  035C  3000               	movlw	0x0
  4338  035D  00B2               	movwf	(?___ftadd)
  4339  035E  3048               	movlw	0x48
  4340  035F  00B3               	movwf	(?___ftadd+1)
  4341  0360  3042               	movlw	0x42
  4342  0361  00B4               	movwf	(?___ftadd+2)
  4343  0362  120A  118A  251E   	fcall	___ftadd
              120A  118A         
  4344  0367  1283               	bcf	status, 5	;RP0=0, select bank0
  4345  0368  1303               	bcf	status, 6	;RP1=0, select bank0
  4346  0369  0832               	movf	(0+(?___ftadd)),w
  4347  036A  00A0               	movwf	(?___fttol)
  4348  036B  0833               	movf	(1+(?___ftadd)),w
  4349  036C  00A1               	movwf	(?___fttol+1)
  4350  036D  0834               	movf	(2+(?___ftadd)),w
  4351  036E  00A2               	movwf	(?___fttol+2)
  4352  036F  120A  158A  233D   	fcall	___fttol
              120A  118A         
  4353  0374  1283               	bcf	status, 5	;RP0=0, select bank0
  4354  0375  1303               	bcf	status, 6	;RP1=0, select bank0
  4355  0376  0821               	movf	1+(((0+(?___fttol)))),w
  4356  0377  1683               	bsf	status, 5	;RP0=1, select bank1
  4357  0378  1303               	bcf	status, 6	;RP1=0, select bank1
  4358  0379  01D3               	clrf	(_distance+1)^080h	;volatile
  4359  037A  07D3               	addwf	(_distance+1)^080h	;volatile
  4360  037B  1283               	bcf	status, 5	;RP0=0, select bank0
  4361  037C  1303               	bcf	status, 6	;RP1=0, select bank0
  4362  037D  0820               	movf	0+(((0+(?___fttol)))),w
  4363  037E  1683               	bsf	status, 5	;RP0=1, select bank1
  4364  037F  1303               	bcf	status, 6	;RP1=0, select bank1
  4365  0380  01D2               	clrf	(_distance)^080h	;volatile
  4366  0381  07D2               	addwf	(_distance)^080h	;volatile
  4367                           
  4368                           	line	58
  4369                           ;infrared.c: 58: }
  4370  0382  2D1D               	goto	i1l2899
  4371                           	line	59
  4372                           	
  4373  0383                     i1l2894:	
  4374                           	
  4375  0383                     i1l9305:	
  4376                           ;infrared.c: 59: else if (adcVal >= 55.25 && adcVal < 76.5)
  4377  0383  1283               	bcf	status, 5	;RP0=0, select bank0
  4378  0384  1303               	bcf	status, 6	;RP1=0, select bank0
  4379  0385  086D               	movf	(_adcVal+1),w	;volatile
  4380  0386  01AF               	clrf	(?___lwtoft+1)
  4381  0387  07AF               	addwf	(?___lwtoft+1)
  4382  0388  086C               	movf	(_adcVal),w	;volatile
  4383  0389  01AE               	clrf	(?___lwtoft)
  4384  038A  07AE               	addwf	(?___lwtoft)
  4385                           
  4386  038B  160A  118A  26C5   	fcall	___lwtoft
              120A  118A         
  4387  0390  1283               	bcf	status, 5	;RP0=0, select bank0
  4388  0391  1303               	bcf	status, 6	;RP1=0, select bank0
  4389  0392  082E               	movf	(0+(?___lwtoft)),w
  4390  0393  00F8               	movwf	(?___ftge)
  4391  0394  082F               	movf	(1+(?___lwtoft)),w
  4392  0395  00F9               	movwf	(?___ftge+1)
  4393  0396  0830               	movf	(2+(?___lwtoft)),w
  4394  0397  00FA               	movwf	(?___ftge+2)
  4395  0398  3000               	movlw	0x0
  4396  0399  00FB               	movwf	0+(?___ftge)+03h
  4397  039A  305D               	movlw	0x5d
  4398  039B  00FC               	movwf	1+(?___ftge)+03h
  4399  039C  3042               	movlw	0x42
  4400  039D  00FD               	movwf	2+(?___ftge)+03h
  4401  039E  120A  158A  22CD   	fcall	___ftge
              120A  118A         
  4402  03A3  1C03               	btfss	status,0
  4403  03A4  2BA6               	goto	u339_21
  4404  03A5  2BA7               	goto	u339_20
  4405  03A6                     u339_21:
  4406  03A6  2C4D               	goto	i1l9311
  4407  03A7                     u339_20:
  4408                           	
  4409  03A7                     i1l9307:	
  4410  03A7  1283               	bcf	status, 5	;RP0=0, select bank0
  4411  03A8  1303               	bcf	status, 6	;RP1=0, select bank0
  4412  03A9  086D               	movf	(_adcVal+1),w	;volatile
  4413  03AA  01AF               	clrf	(?___lwtoft+1)
  4414  03AB  07AF               	addwf	(?___lwtoft+1)
  4415  03AC  086C               	movf	(_adcVal),w	;volatile
  4416  03AD  01AE               	clrf	(?___lwtoft)
  4417  03AE  07AE               	addwf	(?___lwtoft)
  4418                           
  4419  03AF  160A  118A  26C5   	fcall	___lwtoft
              120A  118A         
  4420  03B4  1283               	bcf	status, 5	;RP0=0, select bank0
  4421  03B5  1303               	bcf	status, 6	;RP1=0, select bank0
  4422  03B6  082E               	movf	(0+(?___lwtoft)),w
  4423  03B7  00F8               	movwf	(?___ftge)
  4424  03B8  082F               	movf	(1+(?___lwtoft)),w
  4425  03B9  00F9               	movwf	(?___ftge+1)
  4426  03BA  0830               	movf	(2+(?___lwtoft)),w
  4427  03BB  00FA               	movwf	(?___ftge+2)
  4428  03BC  3000               	movlw	0x0
  4429  03BD  00FB               	movwf	0+(?___ftge)+03h
  4430  03BE  3099               	movlw	0x99
  4431  03BF  00FC               	movwf	1+(?___ftge)+03h
  4432  03C0  3042               	movlw	0x42
  4433  03C1  00FD               	movwf	2+(?___ftge)+03h
  4434  03C2  120A  158A  22CD   	fcall	___ftge
              120A  118A         
  4435  03C7  1803               	btfsc	status,0
  4436  03C8  2BCA               	goto	u340_21
  4437  03C9  2BCB               	goto	u340_20
  4438  03CA                     u340_21:
  4439  03CA  2C4D               	goto	i1l9311
  4440  03CB                     u340_20:
  4441                           	line	61
  4442                           	
  4443  03CB                     i1l9309:	
  4444                           ;infrared.c: 60: {
  4445                           ;infrared.c: 61: distance = 60 + ((70-60)*(0.9-adcVal))/(30-20);
  4446  03CB  1283               	bcf	status, 5	;RP0=0, select bank0
  4447  03CC  1303               	bcf	status, 6	;RP1=0, select bank0
  4448  03CD  086D               	movf	(_adcVal+1),w	;volatile
  4449  03CE  01AF               	clrf	(?___lwtoft+1)
  4450  03CF  07AF               	addwf	(?___lwtoft+1)
  4451  03D0  086C               	movf	(_adcVal),w	;volatile
  4452  03D1  01AE               	clrf	(?___lwtoft)
  4453  03D2  07AE               	addwf	(?___lwtoft)
  4454                           
  4455  03D3  160A  118A  26C5   	fcall	___lwtoft
              120A  118A         
  4456  03D8  1283               	bcf	status, 5	;RP0=0, select bank0
  4457  03D9  1303               	bcf	status, 6	;RP1=0, select bank0
  4458  03DA  082E               	movf	(0+(?___lwtoft)),w
  4459  03DB  00F8               	movwf	(?___ftneg)
  4460  03DC  082F               	movf	(1+(?___lwtoft)),w
  4461  03DD  00F9               	movwf	(?___ftneg+1)
  4462  03DE  0830               	movf	(2+(?___lwtoft)),w
  4463  03DF  00FA               	movwf	(?___ftneg+2)
  4464  03E0  160A  118A  263F   	fcall	___ftneg
              120A  118A         
  4465  03E5  0878               	movf	(0+(?___ftneg)),w
  4466  03E6  1283               	bcf	status, 5	;RP0=0, select bank0
  4467  03E7  1303               	bcf	status, 6	;RP1=0, select bank0
  4468  03E8  00B5               	movwf	0+(?___ftadd)+03h
  4469  03E9  0879               	movf	(1+(?___ftneg)),w
  4470  03EA  00B6               	movwf	1+(?___ftadd)+03h
  4471  03EB  087A               	movf	(2+(?___ftneg)),w
  4472  03EC  00B7               	movwf	2+(?___ftadd)+03h
  4473  03ED  3066               	movlw	0x66
  4474  03EE  00B2               	movwf	(?___ftadd)
  4475  03EF  3066               	movlw	0x66
  4476  03F0  00B3               	movwf	(?___ftadd+1)
  4477  03F1  303F               	movlw	0x3f
  4478  03F2  00B4               	movwf	(?___ftadd+2)
  4479  03F3  120A  118A  251E   	fcall	___ftadd
              120A  118A         
  4480  03F8  1283               	bcf	status, 5	;RP0=0, select bank0
  4481  03F9  1303               	bcf	status, 6	;RP1=0, select bank0
  4482  03FA  0832               	movf	(0+(?___ftadd)),w
  4483  03FB  00C2               	movwf	0+(?___ftmul)+03h
  4484  03FC  0833               	movf	(1+(?___ftadd)),w
  4485  03FD  00C3               	movwf	1+(?___ftmul)+03h
  4486  03FE  0834               	movf	(2+(?___ftadd)),w
  4487  03FF  00C4               	movwf	2+(?___ftmul)+03h
  4488  0400  3000               	movlw	0x0
  4489  0401  00BF               	movwf	(?___ftmul)
  4490  0402  3020               	movlw	0x20
  4491  0403  00C0               	movwf	(?___ftmul+1)
  4492  0404  3041               	movlw	0x41
  4493  0405  00C1               	movwf	(?___ftmul+2)
  4494  0406  120A  158A  2612   	fcall	___ftmul
              120A  118A         
  4495  040B  1283               	bcf	status, 5	;RP0=0, select bank0
  4496  040C  1303               	bcf	status, 6	;RP1=0, select bank0
  4497  040D  083F               	movf	(0+(?___ftmul)),w
  4498  040E  00D2               	movwf	0+(?___ftdiv)+03h
  4499  040F  0840               	movf	(1+(?___ftmul)),w
  4500  0410  00D3               	movwf	1+(?___ftdiv)+03h
  4501  0411  0841               	movf	(2+(?___ftmul)),w
  4502  0412  00D4               	movwf	2+(?___ftdiv)+03h
  4503  0413  3000               	movlw	0x0
  4504  0414  00CF               	movwf	(?___ftdiv)
  4505  0415  3020               	movlw	0x20
  4506  0416  00D0               	movwf	(?___ftdiv+1)
  4507  0417  3041               	movlw	0x41
  4508  0418  00D1               	movwf	(?___ftdiv+2)
  4509  0419  120A  158A  254A   	fcall	___ftdiv
              120A  118A         
  4510  041E  1283               	bcf	status, 5	;RP0=0, select bank0
  4511  041F  1303               	bcf	status, 6	;RP1=0, select bank0
  4512  0420  084F               	movf	(0+(?___ftdiv)),w
  4513  0421  00B5               	movwf	0+(?___ftadd)+03h
  4514  0422  0850               	movf	(1+(?___ftdiv)),w
  4515  0423  00B6               	movwf	1+(?___ftadd)+03h
  4516  0424  0851               	movf	(2+(?___ftdiv)),w
  4517  0425  00B7               	movwf	2+(?___ftadd)+03h
  4518  0426  3000               	movlw	0x0
  4519  0427  00B2               	movwf	(?___ftadd)
  4520  0428  3070               	movlw	0x70
  4521  0429  00B3               	movwf	(?___ftadd+1)
  4522  042A  3042               	movlw	0x42
  4523  042B  00B4               	movwf	(?___ftadd+2)
  4524  042C  120A  118A  251E   	fcall	___ftadd
              120A  118A         
  4525  0431  1283               	bcf	status, 5	;RP0=0, select bank0
  4526  0432  1303               	bcf	status, 6	;RP1=0, select bank0
  4527  0433  0832               	movf	(0+(?___ftadd)),w
  4528  0434  00A0               	movwf	(?___fttol)
  4529  0435  0833               	movf	(1+(?___ftadd)),w
  4530  0436  00A1               	movwf	(?___fttol+1)
  4531  0437  0834               	movf	(2+(?___ftadd)),w
  4532  0438  00A2               	movwf	(?___fttol+2)
  4533  0439  120A  158A  233D   	fcall	___fttol
              120A  118A         
  4534  043E  1283               	bcf	status, 5	;RP0=0, select bank0
  4535  043F  1303               	bcf	status, 6	;RP1=0, select bank0
  4536  0440  0821               	movf	1+(((0+(?___fttol)))),w
  4537  0441  1683               	bsf	status, 5	;RP0=1, select bank1
  4538  0442  1303               	bcf	status, 6	;RP1=0, select bank1
  4539  0443  01D3               	clrf	(_distance+1)^080h	;volatile
  4540  0444  07D3               	addwf	(_distance+1)^080h	;volatile
  4541  0445  1283               	bcf	status, 5	;RP0=0, select bank0
  4542  0446  1303               	bcf	status, 6	;RP1=0, select bank0
  4543  0447  0820               	movf	0+(((0+(?___fttol)))),w
  4544  0448  1683               	bsf	status, 5	;RP0=1, select bank1
  4545  0449  1303               	bcf	status, 6	;RP1=0, select bank1
  4546  044A  01D2               	clrf	(_distance)^080h	;volatile
  4547  044B  07D2               	addwf	(_distance)^080h	;volatile
  4548                           
  4549                           	line	62
  4550                           ;infrared.c: 62: }
  4551  044C  2D1D               	goto	i1l2899
  4552                           	line	63
  4553                           	
  4554  044D                     i1l2896:	
  4555                           	
  4556  044D                     i1l9311:	
  4557                           ;infrared.c: 63: else if (adcVal >= 42.5 && adcVal < 55.25)
  4558  044D  1283               	bcf	status, 5	;RP0=0, select bank0
  4559  044E  1303               	bcf	status, 6	;RP1=0, select bank0
  4560  044F  086D               	movf	(_adcVal+1),w	;volatile
  4561  0450  01AF               	clrf	(?___lwtoft+1)
  4562  0451  07AF               	addwf	(?___lwtoft+1)
  4563  0452  086C               	movf	(_adcVal),w	;volatile
  4564  0453  01AE               	clrf	(?___lwtoft)
  4565  0454  07AE               	addwf	(?___lwtoft)
  4566                           
  4567  0455  160A  118A  26C5   	fcall	___lwtoft
              120A  118A         
  4568  045A  1283               	bcf	status, 5	;RP0=0, select bank0
  4569  045B  1303               	bcf	status, 6	;RP1=0, select bank0
  4570  045C  082E               	movf	(0+(?___lwtoft)),w
  4571  045D  00F8               	movwf	(?___ftge)
  4572  045E  082F               	movf	(1+(?___lwtoft)),w
  4573  045F  00F9               	movwf	(?___ftge+1)
  4574  0460  0830               	movf	(2+(?___lwtoft)),w
  4575  0461  00FA               	movwf	(?___ftge+2)
  4576  0462  3000               	movlw	0x0
  4577  0463  00FB               	movwf	0+(?___ftge)+03h
  4578  0464  302A               	movlw	0x2a
  4579  0465  00FC               	movwf	1+(?___ftge)+03h
  4580  0466  3042               	movlw	0x42
  4581  0467  00FD               	movwf	2+(?___ftge)+03h
  4582  0468  120A  158A  22CD   	fcall	___ftge
              120A  118A         
  4583  046D  1C03               	btfss	status,0
  4584  046E  2C70               	goto	u341_21
  4585  046F  2C71               	goto	u341_20
  4586  0470                     u341_21:
  4587  0470  2D1D               	goto	i1l2899
  4588  0471                     u341_20:
  4589                           	
  4590  0471                     i1l9313:	
  4591  0471  1283               	bcf	status, 5	;RP0=0, select bank0
  4592  0472  1303               	bcf	status, 6	;RP1=0, select bank0
  4593  0473  086D               	movf	(_adcVal+1),w	;volatile
  4594  0474  01AF               	clrf	(?___lwtoft+1)
  4595  0475  07AF               	addwf	(?___lwtoft+1)
  4596  0476  086C               	movf	(_adcVal),w	;volatile
  4597  0477  01AE               	clrf	(?___lwtoft)
  4598  0478  07AE               	addwf	(?___lwtoft)
  4599                           
  4600  0479  160A  118A  26C5   	fcall	___lwtoft
              120A  118A         
  4601  047E  1283               	bcf	status, 5	;RP0=0, select bank0
  4602  047F  1303               	bcf	status, 6	;RP1=0, select bank0
  4603  0480  082E               	movf	(0+(?___lwtoft)),w
  4604  0481  00F8               	movwf	(?___ftge)
  4605  0482  082F               	movf	(1+(?___lwtoft)),w
  4606  0483  00F9               	movwf	(?___ftge+1)
  4607  0484  0830               	movf	(2+(?___lwtoft)),w
  4608  0485  00FA               	movwf	(?___ftge+2)
  4609  0486  3000               	movlw	0x0
  4610  0487  00FB               	movwf	0+(?___ftge)+03h
  4611  0488  305D               	movlw	0x5d
  4612  0489  00FC               	movwf	1+(?___ftge)+03h
  4613  048A  3042               	movlw	0x42
  4614  048B  00FD               	movwf	2+(?___ftge)+03h
  4615  048C  120A  158A  22CD   	fcall	___ftge
              120A  118A         
  4616  0491  1803               	btfsc	status,0
  4617  0492  2C94               	goto	u342_21
  4618  0493  2C95               	goto	u342_20
  4619  0494                     u342_21:
  4620  0494  2D1D               	goto	i1l2899
  4621  0495                     u342_20:
  4622                           	line	65
  4623                           	
  4624  0495                     i1l9315:	
  4625                           ;infrared.c: 64: {
  4626                           ;infrared.c: 65: distance = 70 + ((80-70)*(0.65-adcVal))/(30-20);
  4627  0495  1283               	bcf	status, 5	;RP0=0, select bank0
  4628  0496  1303               	bcf	status, 6	;RP1=0, select bank0
  4629  0497  086D               	movf	(_adcVal+1),w	;volatile
  4630  0498  01AF               	clrf	(?___lwtoft+1)
  4631  0499  07AF               	addwf	(?___lwtoft+1)
  4632  049A  086C               	movf	(_adcVal),w	;volatile
  4633  049B  01AE               	clrf	(?___lwtoft)
  4634  049C  07AE               	addwf	(?___lwtoft)
  4635                           
  4636  049D  160A  118A  26C5   	fcall	___lwtoft
              120A  118A         
  4637  04A2  1283               	bcf	status, 5	;RP0=0, select bank0
  4638  04A3  1303               	bcf	status, 6	;RP1=0, select bank0
  4639  04A4  082E               	movf	(0+(?___lwtoft)),w
  4640  04A5  00F8               	movwf	(?___ftneg)
  4641  04A6  082F               	movf	(1+(?___lwtoft)),w
  4642  04A7  00F9               	movwf	(?___ftneg+1)
  4643  04A8  0830               	movf	(2+(?___lwtoft)),w
  4644  04A9  00FA               	movwf	(?___ftneg+2)
  4645  04AA  160A  118A  263F   	fcall	___ftneg
              120A  118A         
  4646  04AF  0878               	movf	(0+(?___ftneg)),w
  4647  04B0  1283               	bcf	status, 5	;RP0=0, select bank0
  4648  04B1  1303               	bcf	status, 6	;RP1=0, select bank0
  4649  04B2  00B5               	movwf	0+(?___ftadd)+03h
  4650  04B3  0879               	movf	(1+(?___ftneg)),w
  4651  04B4  00B6               	movwf	1+(?___ftadd)+03h
  4652  04B5  087A               	movf	(2+(?___ftneg)),w
  4653  04B6  00B7               	movwf	2+(?___ftadd)+03h
  4654  04B7  3066               	movlw	0x66
  4655  04B8  00B2               	movwf	(?___ftadd)
  4656  04B9  3026               	movlw	0x26
  4657  04BA  00B3               	movwf	(?___ftadd+1)
  4658  04BB  303F               	movlw	0x3f
  4659  04BC  00B4               	movwf	(?___ftadd+2)
  4660  04BD  120A  118A  251E   	fcall	___ftadd
              120A  118A         
  4661  04C2  1283               	bcf	status, 5	;RP0=0, select bank0
  4662  04C3  1303               	bcf	status, 6	;RP1=0, select bank0
  4663  04C4  0832               	movf	(0+(?___ftadd)),w
  4664  04C5  00C2               	movwf	0+(?___ftmul)+03h
  4665  04C6  0833               	movf	(1+(?___ftadd)),w
  4666  04C7  00C3               	movwf	1+(?___ftmul)+03h
  4667  04C8  0834               	movf	(2+(?___ftadd)),w
  4668  04C9  00C4               	movwf	2+(?___ftmul)+03h
  4669  04CA  3000               	movlw	0x0
  4670  04CB  00BF               	movwf	(?___ftmul)
  4671  04CC  3020               	movlw	0x20
  4672  04CD  00C0               	movwf	(?___ftmul+1)
  4673  04CE  3041               	movlw	0x41
  4674  04CF  00C1               	movwf	(?___ftmul+2)
  4675  04D0  120A  158A  2612   	fcall	___ftmul
              120A  118A         
  4676  04D5  1283               	bcf	status, 5	;RP0=0, select bank0
  4677  04D6  1303               	bcf	status, 6	;RP1=0, select bank0
  4678  04D7  083F               	movf	(0+(?___ftmul)),w
  4679  04D8  00D2               	movwf	0+(?___ftdiv)+03h
  4680  04D9  0840               	movf	(1+(?___ftmul)),w
  4681  04DA  00D3               	movwf	1+(?___ftdiv)+03h
  4682  04DB  0841               	movf	(2+(?___ftmul)),w
  4683  04DC  00D4               	movwf	2+(?___ftdiv)+03h
  4684  04DD  3000               	movlw	0x0
  4685  04DE  00CF               	movwf	(?___ftdiv)
  4686  04DF  3020               	movlw	0x20
  4687  04E0  00D0               	movwf	(?___ftdiv+1)
  4688  04E1  3041               	movlw	0x41
  4689  04E2  00D1               	movwf	(?___ftdiv+2)
  4690  04E3  120A  158A  254A   	fcall	___ftdiv
              120A  118A         
  4691  04E8  1283               	bcf	status, 5	;RP0=0, select bank0
  4692  04E9  1303               	bcf	status, 6	;RP1=0, select bank0
  4693  04EA  084F               	movf	(0+(?___ftdiv)),w
  4694  04EB  00B5               	movwf	0+(?___ftadd)+03h
  4695  04EC  0850               	movf	(1+(?___ftdiv)),w
  4696  04ED  00B6               	movwf	1+(?___ftadd)+03h
  4697  04EE  0851               	movf	(2+(?___ftdiv)),w
  4698  04EF  00B7               	movwf	2+(?___ftadd)+03h
  4699  04F0  3000               	movlw	0x0
  4700  04F1  00B2               	movwf	(?___ftadd)
  4701  04F2  308C               	movlw	0x8c
  4702  04F3  00B3               	movwf	(?___ftadd+1)
  4703  04F4  3042               	movlw	0x42
  4704  04F5  00B4               	movwf	(?___ftadd+2)
  4705  04F6  120A  118A  251E   	fcall	___ftadd
              120A  118A         
  4706  04FB  1283               	bcf	status, 5	;RP0=0, select bank0
  4707  04FC  1303               	bcf	status, 6	;RP1=0, select bank0
  4708  04FD  0832               	movf	(0+(?___ftadd)),w
  4709  04FE  00A0               	movwf	(?___fttol)
  4710  04FF  0833               	movf	(1+(?___ftadd)),w
  4711  0500  00A1               	movwf	(?___fttol+1)
  4712  0501  0834               	movf	(2+(?___ftadd)),w
  4713  0502  00A2               	movwf	(?___fttol+2)
  4714  0503  120A  158A  233D   	fcall	___fttol
              120A  118A         
  4715  0508  1283               	bcf	status, 5	;RP0=0, select bank0
  4716  0509  1303               	bcf	status, 6	;RP1=0, select bank0
  4717  050A  0821               	movf	1+(((0+(?___fttol)))),w
  4718  050B  1683               	bsf	status, 5	;RP0=1, select bank1
  4719  050C  1303               	bcf	status, 6	;RP1=0, select bank1
  4720  050D  01D3               	clrf	(_distance+1)^080h	;volatile
  4721  050E  07D3               	addwf	(_distance+1)^080h	;volatile
  4722  050F  1283               	bcf	status, 5	;RP0=0, select bank0
  4723  0510  1303               	bcf	status, 6	;RP1=0, select bank0
  4724  0511  0820               	movf	0+(((0+(?___fttol)))),w
  4725  0512  1683               	bsf	status, 5	;RP0=1, select bank1
  4726  0513  1303               	bcf	status, 6	;RP1=0, select bank1
  4727  0514  01D2               	clrf	(_distance)^080h	;volatile
  4728  0515  07D2               	addwf	(_distance)^080h	;volatile
  4729                           
  4730  0516  2D1D               	goto	i1l2899
  4731                           	line	66
  4732                           	
  4733  0517                     i1l2898:	
  4734  0517  2D1D               	goto	i1l2899
  4735                           	line	67
  4736                           	
  4737  0518                     i1l2897:	
  4738  0518  2D1D               	goto	i1l2899
  4739                           	
  4740  0519                     i1l2895:	
  4741  0519  2D1D               	goto	i1l2899
  4742                           	
  4743  051A                     i1l2893:	
  4744  051A  2D1D               	goto	i1l2899
  4745                           	
  4746  051B                     i1l2891:	
  4747  051B  2D1D               	goto	i1l2899
  4748                           	
  4749  051C                     i1l2889:	
  4750  051C  2D1D               	goto	i1l2899
  4751                           	
  4752  051D                     i1l2887:	
  4753                           	
  4754  051D                     i1l2899:	
  4755  051D  0008               	return
  4756                           	opt stack 0
  4757                           GLOBAL	__end_of_ADCconvert
  4758  051E                     	__end_of_ADCconvert:
  4759 ;; =============== function _ADCconvert ends ============
  4760                           
  4761                           	signat	_ADCconvert,88
  4762                           	global	_readDistance
  4763                           psect	text768,local,class=CODE,delta=2
  4764                           global __ptext768
  4765  1685                     __ptext768:
  4766                           
  4767 ;; *************** function _readDistance *****************
  4768 ;; Defined at:
  4769 ;;		line 24 in file "H:\Aldnoah.Zero\trunk\Assignment3\infrared.c"
  4770 ;; Parameters:    Size  Location     Type
  4771 ;;		None
  4772 ;; Auto vars:     Size  Location     Type
  4773 ;;  fullval         2   12[COMMON] unsigned int 
  4774 ;; Return value:  Size  Location     Type
  4775 ;;                  2    8[COMMON] unsigned int 
  4776 ;; Registers used:
  4777 ;;		wreg, fsr0l, fsr0h, status,2, status,0, pclath, cstack
  4778 ;; Tracked objects:
  4779 ;;		On entry : 0/0
  4780 ;;		On exit  : 0/0
  4781 ;;		Unchanged: 0/0
  4782 ;; Data sizes:     COMMON   BANK0   BANK1   BANK3   BANK2
  4783 ;;      Params:         2       0       0       0       0
  4784 ;;      Locals:         2       0       0       0       0
  4785 ;;      Temps:          2       0       0       0       0
  4786 ;;      Totals:         6       0       0       0       0
  4787 ;;Total ram usage:        6 bytes
  4788 ;; Hardware stack levels used:    1
  4789 ;; Hardware stack levels required when called:    2
  4790 ;; This function calls:
  4791 ;;		_adc_read_channel
  4792 ;; This function is called by:
  4793 ;;		_readAvgDistance
  4794 ;; This function uses a non-reentrant model
  4795 ;;
  4796                           psect	text768
  4797                           	file	"H:\Aldnoah.Zero\trunk\Assignment3\infrared.c"
  4798                           	line	24
  4799                           	global	__size_of_readDistance
  4800  0014                     	__size_of_readDistance	equ	__end_of_readDistance-_readDistance
  4801                           	
  4802  1685                     _readDistance:	
  4803                           	opt	stack 0
  4804                           ; Regs used in _readDistance: [wreg-fsr0h+status,2+status,0+pclath+cstack]
  4805                           	line	27
  4806                           	
  4807  1685                     i1l9269:	
  4808                           ;infrared.c: 25: unsigned int fullval ;
  4809                           ;infrared.c: 27: fullval = adc_read_channel(0);
  4810  1685  3000               	movlw	(0)
  4811  1686  120A  158A  207C   	fcall	_adc_read_channel
              160A  118A         
  4812  168B  00FA               	movwf	(??_readDistance+0)+0
  4813  168C  01FB               	clrf	(??_readDistance+0)+0+1
  4814  168D  087A               	movf	0+(??_readDistance+0)+0,w
  4815  168E  00FC               	movwf	(readDistance@fullval)
  4816  168F  087B               	movf	1+(??_readDistance+0)+0,w
  4817  1690  00FD               	movwf	(readDistance@fullval+1)
  4818                           	line	29
  4819                           	
  4820  1691                     i1l9271:	
  4821                           ;infrared.c: 29: return fullval;
  4822  1691  087D               	movf	(readDistance@fullval+1),w
  4823  1692  01F9               	clrf	(?_readDistance+1)
  4824  1693  07F9               	addwf	(?_readDistance+1)
  4825  1694  087C               	movf	(readDistance@fullval),w
  4826  1695  01F8               	clrf	(?_readDistance)
  4827  1696  07F8               	addwf	(?_readDistance)
  4828                           
  4829  1697  2E98               	goto	i1l2883
  4830                           	
  4831  1698                     i1l9273:	
  4832                           	line	30
  4833                           	
  4834  1698                     i1l2883:	
  4835  1698  0008               	return
  4836                           	opt stack 0
  4837                           GLOBAL	__end_of_readDistance
  4838  1699                     	__end_of_readDistance:
  4839 ;; =============== function _readDistance ends ============
  4840                           
  4841                           	signat	_readDistance,90
  4842                           	global	_lcd_write_string
  4843                           psect	text769,local,class=CODE,delta=2
  4844                           global __ptext769
  4845  1779                     __ptext769:
  4846                           
  4847 ;; *************** function _lcd_write_string *****************
  4848 ;; Defined at:
  4849 ;;		line 48 in file "E:\Aldnoah.Zero\Assignment3\lcd.c"
  4850 ;; Parameters:    Size  Location     Type
  4851 ;;  s               2    7[COMMON] PTR unsigned char 
  4852 ;;		 -> UpdateDisplay@adcOutput(16), STR_10(4), STR_9(4), STR_8(4), 
  4853 ;;		 -> STR_7(4), STR_6(4), STR_5(7), STR_4(7), 
  4854 ;;		 -> STR_3(7), STR_2(7), STR_1(7), 
  4855 ;; Auto vars:     Size  Location     Type
  4856 ;;		None
  4857 ;; Return value:  Size  Location     Type
  4858 ;;		None               void
  4859 ;; Registers used:
  4860 ;;		wreg, fsr0l, fsr0h, status,2, status,0, btemp+1, pclath, cstack
  4861 ;; Tracked objects:
  4862 ;;		On entry : 0/0
  4863 ;;		On exit  : 0/0
  4864 ;;		Unchanged: 0/0
  4865 ;; Data sizes:     COMMON   BANK0   BANK1   BANK3   BANK2
  4866 ;;      Params:         2       0       0       0       0
  4867 ;;      Locals:         0       0       0       0       0
  4868 ;;      Temps:          0       0       0       0       0
  4869 ;;      Totals:         2       0       0       0       0
  4870 ;;Total ram usage:        2 bytes
  4871 ;; Hardware stack levels used:    1
  4872 ;; Hardware stack levels required when called:    1
  4873 ;; This function calls:
  4874 ;;		_lcd_write_data
  4875 ;; This function is called by:
  4876 ;;		_UpdateDisplay
  4877 ;; This function uses a non-reentrant model
  4878 ;;
  4879                           psect	text769
  4880                           	file	"E:\Aldnoah.Zero\Assignment3\lcd.c"
  4881                           	line	48
  4882                           	global	__size_of_lcd_write_string
  4883  002A                     	__size_of_lcd_write_string	equ	__end_of_lcd_write_string-_lcd_write_string
  4884                           	
  4885  1779                     _lcd_write_string:	
  4886                           	opt	stack 1
  4887                           ; Regs used in _lcd_write_string: [wreg-fsr0h+status,2+status,0+btemp+1+pclath+cstack]
  4888                           	line	50
  4889                           	
  4890  1779                     i1l9053:	
  4891                           ;lcd.c: 50: while(*s) lcd_write_data(*s++);
  4892  1779  2F91               	goto	i1l9059
  4893                           	
  4894  177A                     i1l1403:	
  4895                           	
  4896  177A                     i1l9055:	
  4897  177A  0878               	movf	(lcd_write_string@s+1),w
  4898  177B  1283               	bcf	status, 5	;RP0=0, select bank0
  4899  177C  1303               	bcf	status, 6	;RP1=0, select bank0
  4900  177D  00FF               	movwf	btemp+1
  4901  177E  0877               	movf	(lcd_write_string@s),w
  4902  177F  0084               	movwf	fsr0
  4903  1780  120A  158A  2000   	fcall	stringtab
              160A  118A         
  4904  1785  160A  118A  264B   	fcall	_lcd_write_data
              160A  118A         
  4905                           	
  4906  178A                     i1l9057:	
  4907  178A  3001               	movlw	low(01h)
  4908  178B  07F7               	addwf	(lcd_write_string@s),f
  4909  178C  1803               	skipnc
  4910  178D  0AF8               	incf	(lcd_write_string@s+1),f
  4911  178E  3000               	movlw	high(01h)
  4912  178F  07F8               	addwf	(lcd_write_string@s+1),f
  4913  1790  2F91               	goto	i1l9059
  4914                           	
  4915  1791                     i1l1402:	
  4916                           	
  4917  1791                     i1l9059:	
  4918  1791  0878               	movf	(lcd_write_string@s+1),w
  4919  1792  1283               	bcf	status, 5	;RP0=0, select bank0
  4920  1793  1303               	bcf	status, 6	;RP1=0, select bank0
  4921  1794  00FF               	movwf	btemp+1
  4922  1795  0877               	movf	(lcd_write_string@s),w
  4923  1796  0084               	movwf	fsr0
  4924  1797  120A  158A  2000   	fcall	stringtab
              160A  118A         
  4925  179C  3800               	iorlw	0
  4926  179D  1D03               	skipz
  4927  179E  2FA0               	goto	u303_21
  4928  179F  2FA1               	goto	u303_20
  4929  17A0                     u303_21:
  4930  17A0  2F7A               	goto	i1l9055
  4931  17A1                     u303_20:
  4932  17A1  2FA2               	goto	i1l1405
  4933                           	
  4934  17A2                     i1l1404:	
  4935                           	line	51
  4936                           	
  4937  17A2                     i1l1405:	
  4938  17A2  0008               	return
  4939                           	opt stack 0
  4940                           GLOBAL	__end_of_lcd_write_string
  4941  17A3                     	__end_of_lcd_write_string:
  4942 ;; =============== function _lcd_write_string ends ============
  4943                           
  4944                           	signat	_lcd_write_string,4216
  4945                           	global	_lcd_set_cursor
  4946                           psect	text770,local,class=CODE,delta=2
  4947                           global __ptext770
  4948  162B                     __ptext770:
  4949                           
  4950 ;; *************** function _lcd_set_cursor *****************
  4951 ;; Defined at:
  4952 ;;		line 42 in file "E:\Aldnoah.Zero\Assignment3\lcd.c"
  4953 ;; Parameters:    Size  Location     Type
  4954 ;;  address         1    wreg     unsigned char 
  4955 ;; Auto vars:     Size  Location     Type
  4956 ;;  address         1    3[COMMON] unsigned char 
  4957 ;; Return value:  Size  Location     Type
  4958 ;;		None               void
  4959 ;; Registers used:
  4960 ;;		wreg, status,2, status,0, pclath, cstack
  4961 ;; Tracked objects:
  4962 ;;		On entry : 0/0
  4963 ;;		On exit  : 0/0
  4964 ;;		Unchanged: 0/0
  4965 ;; Data sizes:     COMMON   BANK0   BANK1   BANK3   BANK2
  4966 ;;      Params:         0       0       0       0       0
  4967 ;;      Locals:         1       0       0       0       0
  4968 ;;      Temps:          0       0       0       0       0
  4969 ;;      Totals:         1       0       0       0       0
  4970 ;;Total ram usage:        1 bytes
  4971 ;; Hardware stack levels used:    1
  4972 ;; Hardware stack levels required when called:    1
  4973 ;; This function calls:
  4974 ;;		i1_lcd_write_control
  4975 ;; This function is called by:
  4976 ;;		_UpdateDisplay
  4977 ;; This function uses a non-reentrant model
  4978 ;;
  4979                           psect	text770
  4980                           	file	"E:\Aldnoah.Zero\Assignment3\lcd.c"
  4981                           	line	42
  4982                           	global	__size_of_lcd_set_cursor
  4983  0009                     	__size_of_lcd_set_cursor	equ	__end_of_lcd_set_cursor-_lcd_set_cursor
  4984                           	
  4985  162B                     _lcd_set_cursor:	
  4986                           	opt	stack 1
  4987                           ; Regs used in _lcd_set_cursor: [wreg+status,2+status,0+pclath+cstack]
  4988                           ;lcd_set_cursor@address stored from wreg
  4989  162B  00F3               	movwf	(lcd_set_cursor@address)
  4990                           	line	43
  4991                           	
  4992  162C                     i1l9049:	
  4993                           ;lcd.c: 43: address |= 0b10000000;
  4994  162C  17F3               	bsf	(lcd_set_cursor@address)+(7/8),(7)&7
  4995                           	line	44
  4996                           	
  4997  162D                     i1l9051:	
  4998                           ;lcd.c: 44: lcd_write_control(address);
  4999  162D  0873               	movf	(lcd_set_cursor@address),w
  5000  162E  160A  118A  2671   	fcall	i1_lcd_write_control
              160A  118A         
  5001                           	line	45
  5002                           	
  5003  1633                     i1l1399:	
  5004  1633  0008               	return
  5005                           	opt stack 0
  5006                           GLOBAL	__end_of_lcd_set_cursor
  5007  1634                     	__end_of_lcd_set_cursor:
  5008 ;; =============== function _lcd_set_cursor ends ============
  5009                           
  5010                           	signat	_lcd_set_cursor,4216
  5011                           	global	i1_lcd_write_control
  5012                           psect	text771,local,class=CODE,delta=2
  5013                           global __ptext771
  5014  1671                     __ptext771:
  5015                           
  5016 ;; *************** function i1_lcd_write_control *****************
  5017 ;; Defined at:
  5018 ;;		line 18 in file "E:\Aldnoah.Zero\Assignment3\lcd.c"
  5019 ;; Parameters:    Size  Location     Type
  5020 ;;  lcd_write_co    1    wreg     unsigned char 
  5021 ;; Auto vars:     Size  Location     Type
  5022 ;;  lcd_write_co    1    2[COMMON] unsigned char 
  5023 ;; Return value:  Size  Location     Type
  5024 ;;		None               void
  5025 ;; Registers used:
  5026 ;;		wreg
  5027 ;; Tracked objects:
  5028 ;;		On entry : 0/0
  5029 ;;		On exit  : 0/0
  5030 ;;		Unchanged: 0/0
  5031 ;; Data sizes:     COMMON   BANK0   BANK1   BANK3   BANK2
  5032 ;;      Params:         0       0       0       0       0
  5033 ;;      Locals:         1       0       0       0       0
  5034 ;;      Temps:          2       0       0       0       0
  5035 ;;      Totals:         3       0       0       0       0
  5036 ;;Total ram usage:        3 bytes
  5037 ;; Hardware stack levels used:    1
  5038 ;; This function calls:
  5039 ;;		Nothing
  5040 ;; This function is called by:
  5041 ;;		_lcd_set_cursor
  5042 ;;		_UpdateDisplay
  5043 ;; This function uses a non-reentrant model
  5044 ;;
  5045                           psect	text771
  5046                           	file	"E:\Aldnoah.Zero\Assignment3\lcd.c"
  5047                           	line	18
  5048                           	global	__size_ofi1_lcd_write_control
  5049  0014                     	__size_ofi1_lcd_write_control	equ	__end_ofi1_lcd_write_control-i1_lcd_write_control
  5050                           	
  5051  1671                     i1_lcd_write_control:	
  5052                           	opt	stack 1
  5053                           ; Regs used in i1_lcd_write_control: [wreg]
  5054                           ;i1lcd_write_control@databyte stored from wreg
  5055  1671  00F2               	movwf	(i1lcd_write_control@databyte)
  5056                           	line	19
  5057                           	
  5058  1672                     i1l9983:	
  5059                           ;lcd.c: 19: RE2 = 0;
  5060  1672  1283               	bcf	status, 5	;RP0=0, select bank0
  5061  1673  1303               	bcf	status, 6	;RP1=0, select bank0
  5062  1674  1109               	bcf	(74/8),(74)&7
  5063                           	line	20
  5064                           ;lcd.c: 20: RE1 = 0;
  5065  1675  1089               	bcf	(73/8),(73)&7
  5066                           	line	21
  5067                           ;lcd.c: 21: RE0 = 0;
  5068  1676  1009               	bcf	(72/8),(72)&7
  5069                           	line	22
  5070                           	
  5071  1677                     i1l9985:	
  5072                           ;lcd.c: 22: PORTD = databyte;
  5073  1677  0872               	movf	(i1lcd_write_control@databyte),w
  5074  1678  0088               	movwf	(8)	;volatile
  5075                           	line	23
  5076                           	
  5077  1679                     i1l9987:	
  5078                           ;lcd.c: 23: RE2 = 1;
  5079  1679  1509               	bsf	(74/8),(74)&7
  5080                           	line	24
  5081                           	
  5082  167A                     i1l9989:	
  5083                           ;lcd.c: 24: RE2 = 0;
  5084  167A  1109               	bcf	(74/8),(74)&7
  5085                           	line	25
  5086                           ;lcd.c: 25: _delay((unsigned long)((2)*(20000000/4000.0)));
  5087                           	opt asmopt_off
  5088  167B  300D               movlw	13
  5089  167C  00F1               movwf	((??i1_lcd_write_control+0)+0+1),f
  5090  167D  30FB               	movlw	251
  5091  167E  00F0               movwf	((??i1_lcd_write_control+0)+0),f
  5092  167F                     u488_27:
  5093  167F  0BF0               	decfsz	((??i1_lcd_write_control+0)+0),f
  5094  1680  2E7F               	goto	u488_27
  5095  1681  0BF1               	decfsz	((??i1_lcd_write_control+0)+0+1),f
  5096  1682  2E7F               	goto	u488_27
  5097  1683  2E84               	nop2
  5098                           opt asmopt_on
  5099                           
  5100                           	line	26
  5101                           	
  5102  1684                     i1l1393:	
  5103  1684  0008               	return
  5104                           	opt stack 0
  5105                           GLOBAL	__end_ofi1_lcd_write_control
  5106  1685                     	__end_ofi1_lcd_write_control:
  5107 ;; =============== function i1_lcd_write_control ends ============
  5108                           
  5109                           	signat	i1_lcd_write_control,88
  5110                           	global	___lwtoft
  5111                           psect	text772,local,class=CODE,delta=2
  5112                           global __ptext772
  5113  16C5                     __ptext772:
  5114                           
  5115 ;; *************** function ___lwtoft *****************
  5116 ;; Defined at:
  5117 ;;		line 29 in file "C:\Program Files (x86)\HI-TECH Software\PICC\9.83\sources\lwtoft.c"
  5118 ;; Parameters:    Size  Location     Type
  5119 ;;  c               2   14[BANK0 ] unsigned int 
  5120 ;; Auto vars:     Size  Location     Type
  5121 ;;		None
  5122 ;; Return value:  Size  Location     Type
  5123 ;;                  3   14[BANK0 ] float 
  5124 ;; Registers used:
  5125 ;;		wreg, status,2, status,0, pclath, cstack
  5126 ;; Tracked objects:
  5127 ;;		On entry : 0/0
  5128 ;;		On exit  : 0/0
  5129 ;;		Unchanged: 0/0
  5130 ;; Data sizes:     COMMON   BANK0   BANK1   BANK3   BANK2
  5131 ;;      Params:         0       3       0       0       0
  5132 ;;      Locals:         0       0       0       0       0
  5133 ;;      Temps:          0       1       0       0       0
  5134 ;;      Totals:         0       4       0       0       0
  5135 ;;Total ram usage:        4 bytes
  5136 ;; Hardware stack levels used:    1
  5137 ;; Hardware stack levels required when called:    1
  5138 ;; This function calls:
  5139 ;;		___ftpack
  5140 ;; This function is called by:
  5141 ;;		_ADCconvert
  5142 ;; This function uses a non-reentrant model
  5143 ;;
  5144                           psect	text772
  5145                           	file	"C:\Program Files (x86)\HI-TECH Software\PICC\9.83\sources\lwtoft.c"
  5146                           	line	29
  5147                           	global	__size_of___lwtoft
  5148  001B                     	__size_of___lwtoft	equ	__end_of___lwtoft-___lwtoft
  5149                           	
  5150  16C5                     ___lwtoft:	
  5151                           	opt	stack 0
  5152                           ; Regs used in ___lwtoft: [wreg+status,2+status,0+pclath+cstack]
  5153                           	line	30
  5154                           	
  5155  16C5                     i1l9937:	
  5156  16C5  1283               	bcf	status, 5	;RP0=0, select bank0
  5157  16C6  1303               	bcf	status, 6	;RP1=0, select bank0
  5158  16C7  082E               	movf	(___lwtoft@c),w
  5159  16C8  00F0               	movwf	(?___ftpack)
  5160  16C9  082F               	movf	(___lwtoft@c+1),w
  5161  16CA  00F1               	movwf	(?___ftpack+1)
  5162  16CB  01F2               	clrf	(?___ftpack+2)
  5163  16CC  308E               	movlw	(08Eh)
  5164  16CD  00B1               	movwf	(??___lwtoft+0)+0
  5165  16CE  0831               	movf	(??___lwtoft+0)+0,w
  5166  16CF  00F3               	movwf	0+(?___ftpack)+03h
  5167  16D0  01F4               	clrf	0+(?___ftpack)+04h
  5168  16D1  120A  118A  277F   	fcall	___ftpack
              160A  118A         
  5169  16D6  0870               	movf	(0+(?___ftpack)),w
  5170  16D7  1283               	bcf	status, 5	;RP0=0, select bank0
  5171  16D8  1303               	bcf	status, 6	;RP1=0, select bank0
  5172  16D9  00AE               	movwf	(?___lwtoft)
  5173  16DA  0871               	movf	(1+(?___ftpack)),w
  5174  16DB  00AF               	movwf	(?___lwtoft+1)
  5175  16DC  0872               	movf	(2+(?___ftpack)),w
  5176  16DD  00B0               	movwf	(?___lwtoft+2)
  5177  16DE  2EDF               	goto	i1l6068
  5178                           	
  5179  16DF                     i1l9939:	
  5180                           	line	31
  5181                           	
  5182  16DF                     i1l6068:	
  5183  16DF  0008               	return
  5184                           	opt stack 0
  5185                           GLOBAL	__end_of___lwtoft
  5186  16E0                     	__end_of___lwtoft:
  5187 ;; =============== function ___lwtoft ends ============
  5188                           
  5189                           	signat	___lwtoft,4219
  5190                           	global	___ftmul
  5191                           psect	text773,local,class=CODE,delta=2
  5192                           global __ptext773
  5193  0E12                     __ptext773:
  5194                           
  5195 ;; *************** function ___ftmul *****************
  5196 ;; Defined at:
  5197 ;;		line 52 in file "C:\Program Files (x86)\HI-TECH Software\PICC\9.83\sources\ftmul.c"
  5198 ;; Parameters:    Size  Location     Type
  5199 ;;  f1              3   31[BANK0 ] float 
  5200 ;;  f2              3   34[BANK0 ] float 
  5201 ;; Auto vars:     Size  Location     Type
  5202 ;;  f3_as_produc    3   42[BANK0 ] unsigned um
  5203 ;;  sign            1   46[BANK0 ] unsigned char 
  5204 ;;  cntr            1   45[BANK0 ] unsigned char 
  5205 ;;  exp             1   41[BANK0 ] unsigned char 
  5206 ;; Return value:  Size  Location     Type
  5207 ;;                  3   31[BANK0 ] float 
  5208 ;; Registers used:
  5209 ;;		wreg, status,2, status,0, pclath, cstack
  5210 ;; Tracked objects:
  5211 ;;		On entry : 0/0
  5212 ;;		On exit  : 0/0
  5213 ;;		Unchanged: 0/0
  5214 ;; Data sizes:     COMMON   BANK0   BANK1   BANK3   BANK2
  5215 ;;      Params:         0       6       0       0       0
  5216 ;;      Locals:         0       6       0       0       0
  5217 ;;      Temps:          0       4       0       0       0
  5218 ;;      Totals:         0      16       0       0       0
  5219 ;;Total ram usage:       16 bytes
  5220 ;; Hardware stack levels used:    1
  5221 ;; Hardware stack levels required when called:    1
  5222 ;; This function calls:
  5223 ;;		___ftpack
  5224 ;; This function is called by:
  5225 ;;		_ADCconvert
  5226 ;; This function uses a non-reentrant model
  5227 ;;
  5228                           psect	text773
  5229                           	file	"C:\Program Files (x86)\HI-TECH Software\PICC\9.83\sources\ftmul.c"
  5230                           	line	52
  5231                           	global	__size_of___ftmul
  5232  00EE                     	__size_of___ftmul	equ	__end_of___ftmul-___ftmul
  5233                           	
  5234  0E12                     ___ftmul:	
  5235                           	opt	stack 0
  5236                           ; Regs used in ___ftmul: [wreg+status,2+status,0+pclath+cstack]
  5237                           	line	56
  5238                           	
  5239  0E12                     i1l9761:	
  5240  0E12  1283               	bcf	status, 5	;RP0=0, select bank0
  5241  0E13  1303               	bcf	status, 6	;RP1=0, select bank0
  5242  0E14  083F               	movf	(___ftmul@f1),w
  5243  0E15  00C5               	movwf	((??___ftmul+0)+0)
  5244  0E16  0840               	movf	(___ftmul@f1+1),w
  5245  0E17  00C6               	movwf	((??___ftmul+0)+0+1)
  5246  0E18  0841               	movf	(___ftmul@f1+2),w
  5247  0E19  00C7               	movwf	((??___ftmul+0)+0+2)
  5248  0E1A  1003               	clrc
  5249  0E1B  0D46               	rlf	(??___ftmul+0)+1,w
  5250  0E1C  0D47               	rlf	(??___ftmul+0)+2,w
  5251  0E1D  00C8               	movwf	(??___ftmul+3)+0
  5252  0E1E  0848               	movf	(??___ftmul+3)+0,w
  5253  0E1F  00C9               	movwf	(___ftmul@exp)
  5254  0E20  08C9               	movf	((___ftmul@exp)),f
  5255  0E21  1D03               	skipz
  5256  0E22  2E24               	goto	u439_21
  5257  0E23  2E25               	goto	u439_20
  5258  0E24                     u439_21:
  5259  0E24  2E2D               	goto	i1l9767
  5260  0E25                     u439_20:
  5261                           	line	57
  5262                           	
  5263  0E25                     i1l9763:	
  5264  0E25  3000               	movlw	0x0
  5265  0E26  00BF               	movwf	(?___ftmul)
  5266  0E27  3000               	movlw	0x0
  5267  0E28  00C0               	movwf	(?___ftmul+1)
  5268  0E29  3000               	movlw	0x0
  5269  0E2A  00C1               	movwf	(?___ftmul+2)
  5270  0E2B  2EFF               	goto	i1l5944
  5271                           	
  5272  0E2C                     i1l9765:	
  5273  0E2C  2EFF               	goto	i1l5944
  5274                           	
  5275  0E2D                     i1l5943:	
  5276                           	line	58
  5277                           	
  5278  0E2D                     i1l9767:	
  5279  0E2D  0842               	movf	(___ftmul@f2),w
  5280  0E2E  00C5               	movwf	((??___ftmul+0)+0)
  5281  0E2F  0843               	movf	(___ftmul@f2+1),w
  5282  0E30  00C6               	movwf	((??___ftmul+0)+0+1)
  5283  0E31  0844               	movf	(___ftmul@f2+2),w
  5284  0E32  00C7               	movwf	((??___ftmul+0)+0+2)
  5285  0E33  1003               	clrc
  5286  0E34  0D46               	rlf	(??___ftmul+0)+1,w
  5287  0E35  0D47               	rlf	(??___ftmul+0)+2,w
  5288  0E36  00C8               	movwf	(??___ftmul+3)+0
  5289  0E37  0848               	movf	(??___ftmul+3)+0,w
  5290  0E38  00CE               	movwf	(___ftmul@sign)
  5291  0E39  08CE               	movf	((___ftmul@sign)),f
  5292  0E3A  1D03               	skipz
  5293  0E3B  2E3D               	goto	u440_21
  5294  0E3C  2E3E               	goto	u440_20
  5295  0E3D                     u440_21:
  5296  0E3D  2E46               	goto	i1l9773
  5297  0E3E                     u440_20:
  5298                           	line	59
  5299                           	
  5300  0E3E                     i1l9769:	
  5301  0E3E  3000               	movlw	0x0
  5302  0E3F  00BF               	movwf	(?___ftmul)
  5303  0E40  3000               	movlw	0x0
  5304  0E41  00C0               	movwf	(?___ftmul+1)
  5305  0E42  3000               	movlw	0x0
  5306  0E43  00C1               	movwf	(?___ftmul+2)
  5307  0E44  2EFF               	goto	i1l5944
  5308                           	
  5309  0E45                     i1l9771:	
  5310  0E45  2EFF               	goto	i1l5944
  5311                           	
  5312  0E46                     i1l5945:	
  5313                           	line	60
  5314                           	
  5315  0E46                     i1l9773:	
  5316  0E46  084E               	movf	(___ftmul@sign),w
  5317  0E47  3E7B               	addlw	07Bh
  5318  0E48  00C5               	movwf	(??___ftmul+0)+0
  5319  0E49  0845               	movf	(??___ftmul+0)+0,w
  5320  0E4A  07C9               	addwf	(___ftmul@exp),f
  5321                           	line	61
  5322  0E4B  083F               	movf	(___ftmul@f1),w
  5323  0E4C  00C5               	movwf	((??___ftmul+0)+0)
  5324  0E4D  0840               	movf	(___ftmul@f1+1),w
  5325  0E4E  00C6               	movwf	((??___ftmul+0)+0+1)
  5326  0E4F  0841               	movf	(___ftmul@f1+2),w
  5327  0E50  00C7               	movwf	((??___ftmul+0)+0+2)
  5328  0E51  3010               	movlw	010h
  5329  0E52                     u441_25:
  5330  0E52  1003               	clrc
  5331  0E53  0CC7               	rrf	(??___ftmul+0)+2,f
  5332  0E54  0CC6               	rrf	(??___ftmul+0)+1,f
  5333  0E55  0CC5               	rrf	(??___ftmul+0)+0,f
  5334  0E56                     u441_20:
  5335  0E56  3EFF               	addlw	-1
  5336  0E57  1D03               	skipz
  5337  0E58  2E52               	goto	u441_25
  5338  0E59  0845               	movf	0+(??___ftmul+0)+0,w
  5339  0E5A  00C8               	movwf	(??___ftmul+3)+0
  5340  0E5B  0848               	movf	(??___ftmul+3)+0,w
  5341  0E5C  00CE               	movwf	(___ftmul@sign)
  5342                           	line	62
  5343  0E5D  0842               	movf	(___ftmul@f2),w
  5344  0E5E  00C5               	movwf	((??___ftmul+0)+0)
  5345  0E5F  0843               	movf	(___ftmul@f2+1),w
  5346  0E60  00C6               	movwf	((??___ftmul+0)+0+1)
  5347  0E61  0844               	movf	(___ftmul@f2+2),w
  5348  0E62  00C7               	movwf	((??___ftmul+0)+0+2)
  5349  0E63  3010               	movlw	010h
  5350  0E64                     u442_25:
  5351  0E64  1003               	clrc
  5352  0E65  0CC7               	rrf	(??___ftmul+0)+2,f
  5353  0E66  0CC6               	rrf	(??___ftmul+0)+1,f
  5354  0E67  0CC5               	rrf	(??___ftmul+0)+0,f
  5355  0E68                     u442_20:
  5356  0E68  3EFF               	addlw	-1
  5357  0E69  1D03               	skipz
  5358  0E6A  2E64               	goto	u442_25
  5359  0E6B  0845               	movf	0+(??___ftmul+0)+0,w
  5360  0E6C  00C8               	movwf	(??___ftmul+3)+0
  5361  0E6D  0848               	movf	(??___ftmul+3)+0,w
  5362  0E6E  06CE               	xorwf	(___ftmul@sign),f
  5363                           	line	63
  5364  0E6F  3080               	movlw	(080h)
  5365  0E70  00C5               	movwf	(??___ftmul+0)+0
  5366  0E71  0845               	movf	(??___ftmul+0)+0,w
  5367  0E72  05CE               	andwf	(___ftmul@sign),f
  5368                           	line	64
  5369                           	
  5370  0E73                     i1l9775:	
  5371  0E73  17C0               	bsf	(___ftmul@f1)+(15/8),(15)&7
  5372                           	line	66
  5373                           	
  5374  0E74                     i1l9777:	
  5375  0E74  17C3               	bsf	(___ftmul@f2)+(15/8),(15)&7
  5376                           	line	67
  5377                           	
  5378  0E75                     i1l9779:	
  5379  0E75  30FF               	movlw	0FFh
  5380  0E76  05C2               	andwf	(___ftmul@f2),f
  5381  0E77  30FF               	movlw	0FFh
  5382  0E78  05C3               	andwf	(___ftmul@f2+1),f
  5383  0E79  3000               	movlw	0
  5384  0E7A  05C4               	andwf	(___ftmul@f2+2),f
  5385                           	line	68
  5386                           	
  5387  0E7B                     i1l9781:	
  5388  0E7B  3000               	movlw	0
  5389  0E7C  00CA               	movwf	(___ftmul@f3_as_product)
  5390  0E7D  3000               	movlw	0
  5391  0E7E  00CB               	movwf	(___ftmul@f3_as_product+1)
  5392  0E7F  3000               	movlw	0
  5393  0E80  00CC               	movwf	(___ftmul@f3_as_product+2)
  5394                           	line	69
  5395                           	
  5396  0E81                     i1l9783:	
  5397  0E81  3007               	movlw	(07h)
  5398  0E82  00C5               	movwf	(??___ftmul+0)+0
  5399  0E83  0845               	movf	(??___ftmul+0)+0,w
  5400  0E84  00CD               	movwf	(___ftmul@cntr)
  5401  0E85  2E86               	goto	i1l9785
  5402                           	line	70
  5403                           	
  5404  0E86                     i1l5946:	
  5405                           	line	71
  5406                           	
  5407  0E86                     i1l9785:	
  5408  0E86  1C3F               	btfss	(___ftmul@f1),(0)&7
  5409  0E87  2E89               	goto	u443_21
  5410  0E88  2E8A               	goto	u443_20
  5411  0E89                     u443_21:
  5412  0E89  2E9B               	goto	i1l9789
  5413  0E8A                     u443_20:
  5414                           	line	72
  5415                           	
  5416  0E8A                     i1l9787:	
  5417  0E8A  0842               	movf	(___ftmul@f2),w
  5418  0E8B  07CA               	addwf	(___ftmul@f3_as_product),f
  5419  0E8C  0843               	movf	(___ftmul@f2+1),w
  5420  0E8D  1103               	clrz
  5421  0E8E  1803               	skipnc
  5422  0E8F  0A43               	incf	(___ftmul@f2+1),w
  5423  0E90  1903               	skipnz
  5424  0E91  2E93               	goto	u444_21
  5425  0E92  07CB               	addwf	(___ftmul@f3_as_product+1),f
  5426  0E93                     u444_21:
  5427  0E93  0844               	movf	(___ftmul@f2+2),w
  5428  0E94  1103               	clrz
  5429  0E95  1803               	skipnc
  5430  0E96  0A44               	incf	(___ftmul@f2+2),w
  5431  0E97  1903               	skipnz
  5432  0E98  2E9A               	goto	u444_22
  5433  0E99  07CC               	addwf	(___ftmul@f3_as_product+2),f
  5434  0E9A                     u444_22:
  5435                           
  5436  0E9A  2E9B               	goto	i1l9789
  5437                           	
  5438  0E9B                     i1l5947:	
  5439                           	line	73
  5440                           	
  5441  0E9B                     i1l9789:	
  5442  0E9B  3001               	movlw	01h
  5443  0E9C                     u445_25:
  5444  0E9C  1003               	clrc
  5445  0E9D  0CC1               	rrf	(___ftmul@f1+2),f
  5446  0E9E  0CC0               	rrf	(___ftmul@f1+1),f
  5447  0E9F  0CBF               	rrf	(___ftmul@f1),f
  5448  0EA0  3EFF               	addlw	-1
  5449  0EA1  1D03               	skipz
  5450  0EA2  2E9C               	goto	u445_25
  5451                           
  5452                           	line	74
  5453                           	
  5454  0EA3                     i1l9791:	
  5455  0EA3  3001               	movlw	01h
  5456  0EA4                     u446_25:
  5457  0EA4  1003               	clrc
  5458  0EA5  0DC2               	rlf	(___ftmul@f2),f
  5459  0EA6  0DC3               	rlf	(___ftmul@f2+1),f
  5460  0EA7  0DC4               	rlf	(___ftmul@f2+2),f
  5461  0EA8  3EFF               	addlw	-1
  5462  0EA9  1D03               	skipz
  5463  0EAA  2EA4               	goto	u446_25
  5464                           	line	75
  5465                           	
  5466  0EAB                     i1l9793:	
  5467  0EAB  3001               	movlw	low(01h)
  5468  0EAC  02CD               	subwf	(___ftmul@cntr),f
  5469  0EAD  1D03               	btfss	status,2
  5470  0EAE  2EB0               	goto	u447_21
  5471  0EAF  2EB1               	goto	u447_20
  5472  0EB0                     u447_21:
  5473  0EB0  2E86               	goto	i1l9785
  5474  0EB1                     u447_20:
  5475  0EB1  2EB2               	goto	i1l9795
  5476                           	
  5477  0EB2                     i1l5948:	
  5478                           	line	76
  5479                           	
  5480  0EB2                     i1l9795:	
  5481  0EB2  3009               	movlw	(09h)
  5482  0EB3  00C5               	movwf	(??___ftmul+0)+0
  5483  0EB4  0845               	movf	(??___ftmul+0)+0,w
  5484  0EB5  00CD               	movwf	(___ftmul@cntr)
  5485  0EB6  2EB7               	goto	i1l9797
  5486                           	line	77
  5487                           	
  5488  0EB7                     i1l5949:	
  5489                           	line	78
  5490                           	
  5491  0EB7                     i1l9797:	
  5492  0EB7  1C3F               	btfss	(___ftmul@f1),(0)&7
  5493  0EB8  2EBA               	goto	u448_21
  5494  0EB9  2EBB               	goto	u448_20
  5495  0EBA                     u448_21:
  5496  0EBA  2ECC               	goto	i1l9801
  5497  0EBB                     u448_20:
  5498                           	line	79
  5499                           	
  5500  0EBB                     i1l9799:	
  5501  0EBB  0842               	movf	(___ftmul@f2),w
  5502  0EBC  07CA               	addwf	(___ftmul@f3_as_product),f
  5503  0EBD  0843               	movf	(___ftmul@f2+1),w
  5504  0EBE  1103               	clrz
  5505  0EBF  1803               	skipnc
  5506  0EC0  0A43               	incf	(___ftmul@f2+1),w
  5507  0EC1  1903               	skipnz
  5508  0EC2  2EC4               	goto	u449_21
  5509  0EC3  07CB               	addwf	(___ftmul@f3_as_product+1),f
  5510  0EC4                     u449_21:
  5511  0EC4  0844               	movf	(___ftmul@f2+2),w
  5512  0EC5  1103               	clrz
  5513  0EC6  1803               	skipnc
  5514  0EC7  0A44               	incf	(___ftmul@f2+2),w
  5515  0EC8  1903               	skipnz
  5516  0EC9  2ECB               	goto	u449_22
  5517  0ECA  07CC               	addwf	(___ftmul@f3_as_product+2),f
  5518  0ECB                     u449_22:
  5519                           
  5520  0ECB  2ECC               	goto	i1l9801
  5521                           	
  5522  0ECC                     i1l5950:	
  5523                           	line	80
  5524                           	
  5525  0ECC                     i1l9801:	
  5526  0ECC  3001               	movlw	01h
  5527  0ECD                     u450_25:
  5528  0ECD  1003               	clrc
  5529  0ECE  0CC1               	rrf	(___ftmul@f1+2),f
  5530  0ECF  0CC0               	rrf	(___ftmul@f1+1),f
  5531  0ED0  0CBF               	rrf	(___ftmul@f1),f
  5532  0ED1  3EFF               	addlw	-1
  5533  0ED2  1D03               	skipz
  5534  0ED3  2ECD               	goto	u450_25
  5535                           
  5536                           	line	81
  5537                           	
  5538  0ED4                     i1l9803:	
  5539  0ED4  3001               	movlw	01h
  5540  0ED5                     u451_25:
  5541  0ED5  1003               	clrc
  5542  0ED6  0CCC               	rrf	(___ftmul@f3_as_product+2),f
  5543  0ED7  0CCB               	rrf	(___ftmul@f3_as_product+1),f
  5544  0ED8  0CCA               	rrf	(___ftmul@f3_as_product),f
  5545  0ED9  3EFF               	addlw	-1
  5546  0EDA  1D03               	skipz
  5547  0EDB  2ED5               	goto	u451_25
  5548                           
  5549                           	line	82
  5550                           	
  5551  0EDC                     i1l9805:	
  5552  0EDC  3001               	movlw	low(01h)
  5553  0EDD  02CD               	subwf	(___ftmul@cntr),f
  5554  0EDE  1D03               	btfss	status,2
  5555  0EDF  2EE1               	goto	u452_21
  5556  0EE0  2EE2               	goto	u452_20
  5557  0EE1                     u452_21:
  5558  0EE1  2EB7               	goto	i1l9797
  5559  0EE2                     u452_20:
  5560  0EE2  2EE3               	goto	i1l9807
  5561                           	
  5562  0EE3                     i1l5951:	
  5563                           	line	83
  5564                           	
  5565  0EE3                     i1l9807:	
  5566  0EE3  084A               	movf	(___ftmul@f3_as_product),w
  5567  0EE4  00F0               	movwf	(?___ftpack)
  5568  0EE5  084B               	movf	(___ftmul@f3_as_product+1),w
  5569  0EE6  00F1               	movwf	(?___ftpack+1)
  5570  0EE7  084C               	movf	(___ftmul@f3_as_product+2),w
  5571  0EE8  00F2               	movwf	(?___ftpack+2)
  5572  0EE9  0849               	movf	(___ftmul@exp),w
  5573  0EEA  00C5               	movwf	(??___ftmul+0)+0
  5574  0EEB  0845               	movf	(??___ftmul+0)+0,w
  5575  0EEC  00F3               	movwf	0+(?___ftpack)+03h
  5576  0EED  084E               	movf	(___ftmul@sign),w
  5577  0EEE  00C6               	movwf	(??___ftmul+1)+0
  5578  0EEF  0846               	movf	(??___ftmul+1)+0,w
  5579  0EF0  00F4               	movwf	0+(?___ftpack)+04h
  5580  0EF1  120A  118A  277F   	fcall	___ftpack
              120A  158A         
  5581  0EF6  0870               	movf	(0+(?___ftpack)),w
  5582  0EF7  1283               	bcf	status, 5	;RP0=0, select bank0
  5583  0EF8  1303               	bcf	status, 6	;RP1=0, select bank0
  5584  0EF9  00BF               	movwf	(?___ftmul)
  5585  0EFA  0871               	movf	(1+(?___ftpack)),w
  5586  0EFB  00C0               	movwf	(?___ftmul+1)
  5587  0EFC  0872               	movf	(2+(?___ftpack)),w
  5588  0EFD  00C1               	movwf	(?___ftmul+2)
  5589  0EFE  2EFF               	goto	i1l5944
  5590                           	
  5591  0EFF                     i1l9809:	
  5592                           	line	84
  5593                           	
  5594  0EFF                     i1l5944:	
  5595  0EFF  0008               	return
  5596                           	opt stack 0
  5597                           GLOBAL	__end_of___ftmul
  5598  0F00                     	__end_of___ftmul:
  5599 ;; =============== function ___ftmul ends ============
  5600                           
  5601                           	signat	___ftmul,8315
  5602                           	global	___ftdiv
  5603                           psect	text774,local,class=CODE,delta=2
  5604                           global __ptext774
  5605  0D4A                     __ptext774:
  5606                           
  5607 ;; *************** function ___ftdiv *****************
  5608 ;; Defined at:
  5609 ;;		line 50 in file "C:\Program Files (x86)\HI-TECH Software\PICC\9.83\sources\ftdiv.c"
  5610 ;; Parameters:    Size  Location     Type
  5611 ;;  f2              3   47[BANK0 ] float 
  5612 ;;  f1              3   50[BANK0 ] float 
  5613 ;; Auto vars:     Size  Location     Type
  5614 ;;  f3              3   58[BANK0 ] float 
  5615 ;;  sign            1   62[BANK0 ] unsigned char 
  5616 ;;  exp             1   61[BANK0 ] unsigned char 
  5617 ;;  cntr            1   57[BANK0 ] unsigned char 
  5618 ;; Return value:  Size  Location     Type
  5619 ;;                  3   47[BANK0 ] float 
  5620 ;; Registers used:
  5621 ;;		wreg, status,2, status,0, pclath, cstack
  5622 ;; Tracked objects:
  5623 ;;		On entry : 0/0
  5624 ;;		On exit  : 0/0
  5625 ;;		Unchanged: 0/0
  5626 ;; Data sizes:     COMMON   BANK0   BANK1   BANK3   BANK2
  5627 ;;      Params:         0       6       0       0       0
  5628 ;;      Locals:         0       6       0       0       0
  5629 ;;      Temps:          0       4       0       0       0
  5630 ;;      Totals:         0      16       0       0       0
  5631 ;;Total ram usage:       16 bytes
  5632 ;; Hardware stack levels used:    1
  5633 ;; Hardware stack levels required when called:    1
  5634 ;; This function calls:
  5635 ;;		___ftpack
  5636 ;; This function is called by:
  5637 ;;		_ADCconvert
  5638 ;; This function uses a non-reentrant model
  5639 ;;
  5640                           psect	text774
  5641                           	file	"C:\Program Files (x86)\HI-TECH Software\PICC\9.83\sources\ftdiv.c"
  5642                           	line	50
  5643                           	global	__size_of___ftdiv
  5644  00C8                     	__size_of___ftdiv	equ	__end_of___ftdiv-___ftdiv
  5645                           	
  5646  0D4A                     ___ftdiv:	
  5647                           	opt	stack 0
  5648                           ; Regs used in ___ftdiv: [wreg+status,2+status,0+pclath+cstack]
  5649                           	line	55
  5650                           	
  5651  0D4A                     i1l9719:	
  5652  0D4A  1283               	bcf	status, 5	;RP0=0, select bank0
  5653  0D4B  1303               	bcf	status, 6	;RP1=0, select bank0
  5654  0D4C  0852               	movf	(___ftdiv@f1),w
  5655  0D4D  00D5               	movwf	((??___ftdiv+0)+0)
  5656  0D4E  0853               	movf	(___ftdiv@f1+1),w
  5657  0D4F  00D6               	movwf	((??___ftdiv+0)+0+1)
  5658  0D50  0854               	movf	(___ftdiv@f1+2),w
  5659  0D51  00D7               	movwf	((??___ftdiv+0)+0+2)
  5660  0D52  1003               	clrc
  5661  0D53  0D56               	rlf	(??___ftdiv+0)+1,w
  5662  0D54  0D57               	rlf	(??___ftdiv+0)+2,w
  5663  0D55  00D8               	movwf	(??___ftdiv+3)+0
  5664  0D56  0858               	movf	(??___ftdiv+3)+0,w
  5665  0D57  00DD               	movwf	(___ftdiv@exp)
  5666  0D58  08DD               	movf	((___ftdiv@exp)),f
  5667  0D59  1D03               	skipz
  5668  0D5A  2D5C               	goto	u431_21
  5669  0D5B  2D5D               	goto	u431_20
  5670  0D5C                     u431_21:
  5671  0D5C  2D65               	goto	i1l9725
  5672  0D5D                     u431_20:
  5673                           	line	56
  5674                           	
  5675  0D5D                     i1l9721:	
  5676  0D5D  3000               	movlw	0x0
  5677  0D5E  00CF               	movwf	(?___ftdiv)
  5678  0D5F  3000               	movlw	0x0
  5679  0D60  00D0               	movwf	(?___ftdiv+1)
  5680  0D61  3000               	movlw	0x0
  5681  0D62  00D1               	movwf	(?___ftdiv+2)
  5682  0D63  2E11               	goto	i1l5934
  5683                           	
  5684  0D64                     i1l9723:	
  5685  0D64  2E11               	goto	i1l5934
  5686                           	
  5687  0D65                     i1l5933:	
  5688                           	line	57
  5689                           	
  5690  0D65                     i1l9725:	
  5691  0D65  084F               	movf	(___ftdiv@f2),w
  5692  0D66  00D5               	movwf	((??___ftdiv+0)+0)
  5693  0D67  0850               	movf	(___ftdiv@f2+1),w
  5694  0D68  00D6               	movwf	((??___ftdiv+0)+0+1)
  5695  0D69  0851               	movf	(___ftdiv@f2+2),w
  5696  0D6A  00D7               	movwf	((??___ftdiv+0)+0+2)
  5697  0D6B  1003               	clrc
  5698  0D6C  0D56               	rlf	(??___ftdiv+0)+1,w
  5699  0D6D  0D57               	rlf	(??___ftdiv+0)+2,w
  5700  0D6E  00D8               	movwf	(??___ftdiv+3)+0
  5701  0D6F  0858               	movf	(??___ftdiv+3)+0,w
  5702  0D70  00DE               	movwf	(___ftdiv@sign)
  5703  0D71  08DE               	movf	((___ftdiv@sign)),f
  5704  0D72  1D03               	skipz
  5705  0D73  2D75               	goto	u432_21
  5706  0D74  2D76               	goto	u432_20
  5707  0D75                     u432_21:
  5708  0D75  2D7E               	goto	i1l9731
  5709  0D76                     u432_20:
  5710                           	line	58
  5711                           	
  5712  0D76                     i1l9727:	
  5713  0D76  3000               	movlw	0x0
  5714  0D77  00CF               	movwf	(?___ftdiv)
  5715  0D78  3000               	movlw	0x0
  5716  0D79  00D0               	movwf	(?___ftdiv+1)
  5717  0D7A  3000               	movlw	0x0
  5718  0D7B  00D1               	movwf	(?___ftdiv+2)
  5719  0D7C  2E11               	goto	i1l5934
  5720                           	
  5721  0D7D                     i1l9729:	
  5722  0D7D  2E11               	goto	i1l5934
  5723                           	
  5724  0D7E                     i1l5935:	
  5725                           	line	59
  5726                           	
  5727  0D7E                     i1l9731:	
  5728  0D7E  3000               	movlw	0
  5729  0D7F  00DA               	movwf	(___ftdiv@f3)
  5730  0D80  3000               	movlw	0
  5731  0D81  00DB               	movwf	(___ftdiv@f3+1)
  5732  0D82  3000               	movlw	0
  5733  0D83  00DC               	movwf	(___ftdiv@f3+2)
  5734                           	line	60
  5735                           	
  5736  0D84                     i1l9733:	
  5737  0D84  3089               	movlw	(089h)
  5738  0D85  075E               	addwf	(___ftdiv@sign),w
  5739  0D86  00D5               	movwf	(??___ftdiv+0)+0
  5740  0D87  0855               	movf	0+(??___ftdiv+0)+0,w
  5741  0D88  02DD               	subwf	(___ftdiv@exp),f
  5742                           	line	61
  5743                           	
  5744  0D89                     i1l9735:	
  5745  0D89  0852               	movf	(___ftdiv@f1),w
  5746  0D8A  00D5               	movwf	((??___ftdiv+0)+0)
  5747  0D8B  0853               	movf	(___ftdiv@f1+1),w
  5748  0D8C  00D6               	movwf	((??___ftdiv+0)+0+1)
  5749  0D8D  0854               	movf	(___ftdiv@f1+2),w
  5750  0D8E  00D7               	movwf	((??___ftdiv+0)+0+2)
  5751  0D8F  3010               	movlw	010h
  5752  0D90                     u433_25:
  5753  0D90  1003               	clrc
  5754  0D91  0CD7               	rrf	(??___ftdiv+0)+2,f
  5755  0D92  0CD6               	rrf	(??___ftdiv+0)+1,f
  5756  0D93  0CD5               	rrf	(??___ftdiv+0)+0,f
  5757  0D94                     u433_20:
  5758  0D94  3EFF               	addlw	-1
  5759  0D95  1D03               	skipz
  5760  0D96  2D90               	goto	u433_25
  5761  0D97  0855               	movf	0+(??___ftdiv+0)+0,w
  5762  0D98  00D8               	movwf	(??___ftdiv+3)+0
  5763  0D99  0858               	movf	(??___ftdiv+3)+0,w
  5764  0D9A  00DE               	movwf	(___ftdiv@sign)
  5765                           	line	62
  5766                           	
  5767  0D9B                     i1l9737:	
  5768  0D9B  084F               	movf	(___ftdiv@f2),w
  5769  0D9C  00D5               	movwf	((??___ftdiv+0)+0)
  5770  0D9D  0850               	movf	(___ftdiv@f2+1),w
  5771  0D9E  00D6               	movwf	((??___ftdiv+0)+0+1)
  5772  0D9F  0851               	movf	(___ftdiv@f2+2),w
  5773  0DA0  00D7               	movwf	((??___ftdiv+0)+0+2)
  5774  0DA1  3010               	movlw	010h
  5775  0DA2                     u434_25:
  5776  0DA2  1003               	clrc
  5777  0DA3  0CD7               	rrf	(??___ftdiv+0)+2,f
  5778  0DA4  0CD6               	rrf	(??___ftdiv+0)+1,f
  5779  0DA5  0CD5               	rrf	(??___ftdiv+0)+0,f
  5780  0DA6                     u434_20:
  5781  0DA6  3EFF               	addlw	-1
  5782  0DA7  1D03               	skipz
  5783  0DA8  2DA2               	goto	u434_25
  5784  0DA9  0855               	movf	0+(??___ftdiv+0)+0,w
  5785  0DAA  00D8               	movwf	(??___ftdiv+3)+0
  5786  0DAB  0858               	movf	(??___ftdiv+3)+0,w
  5787  0DAC  06DE               	xorwf	(___ftdiv@sign),f
  5788                           	line	63
  5789                           	
  5790  0DAD                     i1l9739:	
  5791  0DAD  3080               	movlw	(080h)
  5792  0DAE  00D5               	movwf	(??___ftdiv+0)+0
  5793  0DAF  0855               	movf	(??___ftdiv+0)+0,w
  5794  0DB0  05DE               	andwf	(___ftdiv@sign),f
  5795                           	line	64
  5796                           	
  5797  0DB1                     i1l9741:	
  5798  0DB1  17D3               	bsf	(___ftdiv@f1)+(15/8),(15)&7
  5799                           	line	65
  5800  0DB2  30FF               	movlw	0FFh
  5801  0DB3  05D2               	andwf	(___ftdiv@f1),f
  5802  0DB4  30FF               	movlw	0FFh
  5803  0DB5  05D3               	andwf	(___ftdiv@f1+1),f
  5804  0DB6  3000               	movlw	0
  5805  0DB7  05D4               	andwf	(___ftdiv@f1+2),f
  5806                           	line	66
  5807                           	
  5808  0DB8                     i1l9743:	
  5809  0DB8  17D0               	bsf	(___ftdiv@f2)+(15/8),(15)&7
  5810                           	line	67
  5811  0DB9  30FF               	movlw	0FFh
  5812  0DBA  05CF               	andwf	(___ftdiv@f2),f
  5813  0DBB  30FF               	movlw	0FFh
  5814  0DBC  05D0               	andwf	(___ftdiv@f2+1),f
  5815  0DBD  3000               	movlw	0
  5816  0DBE  05D1               	andwf	(___ftdiv@f2+2),f
  5817                           	line	68
  5818  0DBF  3018               	movlw	(018h)
  5819  0DC0  00D5               	movwf	(??___ftdiv+0)+0
  5820  0DC1  0855               	movf	(??___ftdiv+0)+0,w
  5821  0DC2  00D9               	movwf	(___ftdiv@cntr)
  5822  0DC3  2DC4               	goto	i1l9745
  5823                           	line	69
  5824                           	
  5825  0DC4                     i1l5936:	
  5826                           	line	70
  5827                           	
  5828  0DC4                     i1l9745:	
  5829  0DC4  3001               	movlw	01h
  5830  0DC5                     u435_25:
  5831  0DC5  1003               	clrc
  5832  0DC6  0DDA               	rlf	(___ftdiv@f3),f
  5833  0DC7  0DDB               	rlf	(___ftdiv@f3+1),f
  5834  0DC8  0DDC               	rlf	(___ftdiv@f3+2),f
  5835  0DC9  3EFF               	addlw	-1
  5836  0DCA  1D03               	skipz
  5837  0DCB  2DC5               	goto	u435_25
  5838                           	line	71
  5839                           	
  5840  0DCC                     i1l9747:	
  5841  0DCC  0851               	movf	(___ftdiv@f2+2),w
  5842  0DCD  0254               	subwf	(___ftdiv@f1+2),w
  5843  0DCE  1D03               	skipz
  5844  0DCF  2DD6               	goto	u436_25
  5845  0DD0  0850               	movf	(___ftdiv@f2+1),w
  5846  0DD1  0253               	subwf	(___ftdiv@f1+1),w
  5847  0DD2  1D03               	skipz
  5848  0DD3  2DD6               	goto	u436_25
  5849  0DD4  084F               	movf	(___ftdiv@f2),w
  5850  0DD5  0252               	subwf	(___ftdiv@f1),w
  5851  0DD6                     u436_25:
  5852  0DD6  1C03               	skipc
  5853  0DD7  2DD9               	goto	u436_21
  5854  0DD8  2DDA               	goto	u436_20
  5855  0DD9                     u436_21:
  5856  0DD9  2DE6               	goto	i1l9753
  5857  0DDA                     u436_20:
  5858                           	line	72
  5859                           	
  5860  0DDA                     i1l9749:	
  5861  0DDA  084F               	movf	(___ftdiv@f2),w
  5862  0DDB  02D2               	subwf	(___ftdiv@f1),f
  5863  0DDC  0850               	movf	(___ftdiv@f2+1),w
  5864  0DDD  1C03               	skipc
  5865  0DDE  0F50               	incfsz	(___ftdiv@f2+1),w
  5866  0DDF  02D3               	subwf	(___ftdiv@f1+1),f
  5867  0DE0  0851               	movf	(___ftdiv@f2+2),w
  5868  0DE1  1C03               	skipc
  5869  0DE2  0A51               	incf	(___ftdiv@f2+2),w
  5870  0DE3  02D4               	subwf	(___ftdiv@f1+2),f
  5871                           	line	73
  5872                           	
  5873  0DE4                     i1l9751:	
  5874  0DE4  145A               	bsf	(___ftdiv@f3)+(0/8),(0)&7
  5875  0DE5  2DE6               	goto	i1l9753
  5876                           	line	74
  5877                           	
  5878  0DE6                     i1l5937:	
  5879                           	line	75
  5880                           	
  5881  0DE6                     i1l9753:	
  5882  0DE6  3001               	movlw	01h
  5883  0DE7                     u437_25:
  5884  0DE7  1003               	clrc
  5885  0DE8  0DD2               	rlf	(___ftdiv@f1),f
  5886  0DE9  0DD3               	rlf	(___ftdiv@f1+1),f
  5887  0DEA  0DD4               	rlf	(___ftdiv@f1+2),f
  5888  0DEB  3EFF               	addlw	-1
  5889  0DEC  1D03               	skipz
  5890  0DED  2DE7               	goto	u437_25
  5891                           	line	76
  5892                           	
  5893  0DEE                     i1l9755:	
  5894  0DEE  3001               	movlw	low(01h)
  5895  0DEF  02D9               	subwf	(___ftdiv@cntr),f
  5896  0DF0  1D03               	btfss	status,2
  5897  0DF1  2DF3               	goto	u438_21
  5898  0DF2  2DF4               	goto	u438_20
  5899  0DF3                     u438_21:
  5900  0DF3  2DC4               	goto	i1l9745
  5901  0DF4                     u438_20:
  5902  0DF4  2DF5               	goto	i1l9757
  5903                           	
  5904  0DF5                     i1l5938:	
  5905                           	line	77
  5906                           	
  5907  0DF5                     i1l9757:	
  5908  0DF5  085A               	movf	(___ftdiv@f3),w
  5909  0DF6  00F0               	movwf	(?___ftpack)
  5910  0DF7  085B               	movf	(___ftdiv@f3+1),w
  5911  0DF8  00F1               	movwf	(?___ftpack+1)
  5912  0DF9  085C               	movf	(___ftdiv@f3+2),w
  5913  0DFA  00F2               	movwf	(?___ftpack+2)
  5914  0DFB  085D               	movf	(___ftdiv@exp),w
  5915  0DFC  00D5               	movwf	(??___ftdiv+0)+0
  5916  0DFD  0855               	movf	(??___ftdiv+0)+0,w
  5917  0DFE  00F3               	movwf	0+(?___ftpack)+03h
  5918  0DFF  085E               	movf	(___ftdiv@sign),w
  5919  0E00  00D6               	movwf	(??___ftdiv+1)+0
  5920  0E01  0856               	movf	(??___ftdiv+1)+0,w
  5921  0E02  00F4               	movwf	0+(?___ftpack)+04h
  5922  0E03  120A  118A  277F   	fcall	___ftpack
              120A  158A         
  5923  0E08  0870               	movf	(0+(?___ftpack)),w
  5924  0E09  1283               	bcf	status, 5	;RP0=0, select bank0
  5925  0E0A  1303               	bcf	status, 6	;RP1=0, select bank0
  5926  0E0B  00CF               	movwf	(?___ftdiv)
  5927  0E0C  0871               	movf	(1+(?___ftpack)),w
  5928  0E0D  00D0               	movwf	(?___ftdiv+1)
  5929  0E0E  0872               	movf	(2+(?___ftpack)),w
  5930  0E0F  00D1               	movwf	(?___ftdiv+2)
  5931  0E10  2E11               	goto	i1l5934
  5932                           	
  5933  0E11                     i1l9759:	
  5934                           	line	78
  5935                           	
  5936  0E11                     i1l5934:	
  5937  0E11  0008               	return
  5938                           	opt stack 0
  5939                           GLOBAL	__end_of___ftdiv
  5940  0E12                     	__end_of___ftdiv:
  5941 ;; =============== function ___ftdiv ends ============
  5942                           
  5943                           	signat	___ftdiv,8315
  5944                           	global	___ftadd
  5945                           psect	text775,local,class=CODE,delta=2
  5946                           global __ptext775
  5947  051E                     __ptext775:
  5948                           
  5949 ;; *************** function ___ftadd *****************
  5950 ;; Defined at:
  5951 ;;		line 87 in file "C:\Program Files (x86)\HI-TECH Software\PICC\9.83\sources\ftadd.c"
  5952 ;; Parameters:    Size  Location     Type
  5953 ;;  f1              3   18[BANK0 ] float 
  5954 ;;  f2              3   21[BANK0 ] float 
  5955 ;; Auto vars:     Size  Location     Type
  5956 ;;  exp1            1   30[BANK0 ] unsigned char 
  5957 ;;  exp2            1   29[BANK0 ] unsigned char 
  5958 ;;  sign            1   28[BANK0 ] unsigned char 
  5959 ;; Return value:  Size  Location     Type
  5960 ;;                  3   18[BANK0 ] float 
  5961 ;; Registers used:
  5962 ;;		wreg, status,2, status,0, pclath, cstack
  5963 ;; Tracked objects:
  5964 ;;		On entry : 0/0
  5965 ;;		On exit  : 0/0
  5966 ;;		Unchanged: 0/0
  5967 ;; Data sizes:     COMMON   BANK0   BANK1   BANK3   BANK2
  5968 ;;      Params:         0       6       0       0       0
  5969 ;;      Locals:         0       3       0       0       0
  5970 ;;      Temps:          0       4       0       0       0
  5971 ;;      Totals:         0      13       0       0       0
  5972 ;;Total ram usage:       13 bytes
  5973 ;; Hardware stack levels used:    1
  5974 ;; Hardware stack levels required when called:    1
  5975 ;; This function calls:
  5976 ;;		___ftpack
  5977 ;; This function is called by:
  5978 ;;		_ADCconvert
  5979 ;;		___ftsub
  5980 ;; This function uses a non-reentrant model
  5981 ;;
  5982                           psect	text775
  5983                           	file	"C:\Program Files (x86)\HI-TECH Software\PICC\9.83\sources\ftadd.c"
  5984                           	line	87
  5985                           	global	__size_of___ftadd
  5986  0146                     	__size_of___ftadd	equ	__end_of___ftadd-___ftadd
  5987                           	
  5988  051E                     ___ftadd:	
  5989                           	opt	stack 0
  5990                           ; Regs used in ___ftadd: [wreg+status,2+status,0+pclath+cstack]
  5991                           	line	90
  5992                           	
  5993  051E                     i1l9613:	
  5994  051E  1283               	bcf	status, 5	;RP0=0, select bank0
  5995  051F  1303               	bcf	status, 6	;RP1=0, select bank0
  5996  0520  0832               	movf	(___ftadd@f1),w
  5997  0521  00B8               	movwf	((??___ftadd+0)+0)
  5998  0522  0833               	movf	(___ftadd@f1+1),w
  5999  0523  00B9               	movwf	((??___ftadd+0)+0+1)
  6000  0524  0834               	movf	(___ftadd@f1+2),w
  6001  0525  00BA               	movwf	((??___ftadd+0)+0+2)
  6002  0526  1003               	clrc
  6003  0527  0D39               	rlf	(??___ftadd+0)+1,w
  6004  0528  0D3A               	rlf	(??___ftadd+0)+2,w
  6005  0529  00BB               	movwf	(??___ftadd+3)+0
  6006  052A  083B               	movf	(??___ftadd+3)+0,w
  6007  052B  00BE               	movwf	(___ftadd@exp1)
  6008                           	line	91
  6009  052C  0835               	movf	(___ftadd@f2),w
  6010  052D  00B8               	movwf	((??___ftadd+0)+0)
  6011  052E  0836               	movf	(___ftadd@f2+1),w
  6012  052F  00B9               	movwf	((??___ftadd+0)+0+1)
  6013  0530  0837               	movf	(___ftadd@f2+2),w
  6014  0531  00BA               	movwf	((??___ftadd+0)+0+2)
  6015  0532  1003               	clrc
  6016  0533  0D39               	rlf	(??___ftadd+0)+1,w
  6017  0534  0D3A               	rlf	(??___ftadd+0)+2,w
  6018  0535  00BB               	movwf	(??___ftadd+3)+0
  6019  0536  083B               	movf	(??___ftadd+3)+0,w
  6020  0537  00BD               	movwf	(___ftadd@exp2)
  6021                           	line	92
  6022                           	
  6023  0538                     i1l9615:	
  6024  0538  083E               	movf	(___ftadd@exp1),w
  6025  0539  1D03               	skipz
  6026  053A  2D3C               	goto	u396_20
  6027  053B  2D4D               	goto	i1l9621
  6028  053C                     u396_20:
  6029                           	
  6030  053C                     i1l9617:	
  6031  053C  083D               	movf	(___ftadd@exp2),w
  6032  053D  023E               	subwf	(___ftadd@exp1),w
  6033  053E  1803               	skipnc
  6034  053F  2D41               	goto	u397_21
  6035  0540  2D42               	goto	u397_20
  6036  0541                     u397_21:
  6037  0541  2D55               	goto	i1l9625
  6038  0542                     u397_20:
  6039                           	
  6040  0542                     i1l9619:	
  6041  0542  033E               	decf	(___ftadd@exp1),w
  6042  0543  3AFF               	xorlw	0ffh
  6043  0544  073D               	addwf	(___ftadd@exp2),w
  6044  0545  00B8               	movwf	(??___ftadd+0)+0
  6045  0546  3019               	movlw	(019h)
  6046  0547  0238               	subwf	0+(??___ftadd+0)+0,w
  6047  0548  1C03               	skipc
  6048  0549  2D4B               	goto	u398_21
  6049  054A  2D4C               	goto	u398_20
  6050  054B                     u398_21:
  6051  054B  2D55               	goto	i1l9625
  6052  054C                     u398_20:
  6053  054C  2D4D               	goto	i1l9621
  6054                           	
  6055  054D                     i1l5891:	
  6056                           	line	93
  6057                           	
  6058  054D                     i1l9621:	
  6059  054D  0835               	movf	(___ftadd@f2),w
  6060  054E  00B2               	movwf	(?___ftadd)
  6061  054F  0836               	movf	(___ftadd@f2+1),w
  6062  0550  00B3               	movwf	(?___ftadd+1)
  6063  0551  0837               	movf	(___ftadd@f2+2),w
  6064  0552  00B4               	movwf	(?___ftadd+2)
  6065  0553  2E63               	goto	i1l5892
  6066                           	
  6067  0554                     i1l9623:	
  6068  0554  2E63               	goto	i1l5892
  6069                           	
  6070  0555                     i1l5889:	
  6071                           	line	94
  6072                           	
  6073  0555                     i1l9625:	
  6074  0555  083D               	movf	(___ftadd@exp2),w
  6075  0556  1D03               	skipz
  6076  0557  2D59               	goto	u399_20
  6077  0558  2D69               	goto	i1l5895
  6078  0559                     u399_20:
  6079                           	
  6080  0559                     i1l9627:	
  6081  0559  083E               	movf	(___ftadd@exp1),w
  6082  055A  023D               	subwf	(___ftadd@exp2),w
  6083  055B  1803               	skipnc
  6084  055C  2D5E               	goto	u400_21
  6085  055D  2D5F               	goto	u400_20
  6086  055E                     u400_21:
  6087  055E  2D6A               	goto	i1l9631
  6088  055F                     u400_20:
  6089                           	
  6090  055F                     i1l9629:	
  6091  055F  033D               	decf	(___ftadd@exp2),w
  6092  0560  3AFF               	xorlw	0ffh
  6093  0561  073E               	addwf	(___ftadd@exp1),w
  6094  0562  00B8               	movwf	(??___ftadd+0)+0
  6095  0563  3019               	movlw	(019h)
  6096  0564  0238               	subwf	0+(??___ftadd+0)+0,w
  6097  0565  1C03               	skipc
  6098  0566  2D68               	goto	u401_21
  6099  0567  2D69               	goto	u401_20
  6100  0568                     u401_21:
  6101  0568  2D6A               	goto	i1l9631
  6102  0569                     u401_20:
  6103                           	
  6104  0569                     i1l5895:	
  6105                           	line	95
  6106  0569  2E63               	goto	i1l5892
  6107                           	
  6108  056A                     i1l5893:	
  6109                           	line	96
  6110                           	
  6111  056A                     i1l9631:	
  6112  056A  3006               	movlw	(06h)
  6113  056B  00B8               	movwf	(??___ftadd+0)+0
  6114  056C  0838               	movf	(??___ftadd+0)+0,w
  6115  056D  00BC               	movwf	(___ftadd@sign)
  6116                           	line	97
  6117                           	
  6118  056E                     i1l9633:	
  6119  056E  1FB4               	btfss	(___ftadd@f1+2),(23)&7
  6120  056F  2D71               	goto	u402_21
  6121  0570  2D72               	goto	u402_20
  6122  0571                     u402_21:
  6123  0571  2D73               	goto	i1l5896
  6124  0572                     u402_20:
  6125                           	line	98
  6126                           	
  6127  0572                     i1l9635:	
  6128  0572  17BC               	bsf	(___ftadd@sign)+(7/8),(7)&7
  6129                           	
  6130  0573                     i1l5896:	
  6131                           	line	99
  6132  0573  1FB7               	btfss	(___ftadd@f2+2),(23)&7
  6133  0574  2D76               	goto	u403_21
  6134  0575  2D77               	goto	u403_20
  6135  0576                     u403_21:
  6136  0576  2D78               	goto	i1l5897
  6137  0577                     u403_20:
  6138                           	line	100
  6139                           	
  6140  0577                     i1l9637:	
  6141  0577  173C               	bsf	(___ftadd@sign)+(6/8),(6)&7
  6142                           	
  6143  0578                     i1l5897:	
  6144                           	line	101
  6145  0578  17B3               	bsf	(___ftadd@f1)+(15/8),(15)&7
  6146                           	line	102
  6147                           	
  6148  0579                     i1l9639:	
  6149  0579  30FF               	movlw	0FFh
  6150  057A  05B2               	andwf	(___ftadd@f1),f
  6151  057B  30FF               	movlw	0FFh
  6152  057C  05B3               	andwf	(___ftadd@f1+1),f
  6153  057D  3000               	movlw	0
  6154  057E  05B4               	andwf	(___ftadd@f1+2),f
  6155                           	line	103
  6156                           	
  6157  057F                     i1l9641:	
  6158  057F  17B6               	bsf	(___ftadd@f2)+(15/8),(15)&7
  6159                           	line	104
  6160  0580  30FF               	movlw	0FFh
  6161  0581  05B5               	andwf	(___ftadd@f2),f
  6162  0582  30FF               	movlw	0FFh
  6163  0583  05B6               	andwf	(___ftadd@f2+1),f
  6164  0584  3000               	movlw	0
  6165  0585  05B7               	andwf	(___ftadd@f2+2),f
  6166                           	line	106
  6167  0586  083D               	movf	(___ftadd@exp2),w
  6168  0587  023E               	subwf	(___ftadd@exp1),w
  6169  0588  1803               	skipnc
  6170  0589  2D8B               	goto	u404_21
  6171  058A  2D8C               	goto	u404_20
  6172  058B                     u404_21:
  6173  058B  2DBD               	goto	i1l9653
  6174  058C                     u404_20:
  6175  058C  2D8D               	goto	i1l9643
  6176                           	line	109
  6177                           	
  6178  058D                     i1l5899:	
  6179                           	line	110
  6180                           	
  6181  058D                     i1l9643:	
  6182  058D  3001               	movlw	01h
  6183  058E                     u405_25:
  6184  058E  1003               	clrc
  6185  058F  0DB5               	rlf	(___ftadd@f2),f
  6186  0590  0DB6               	rlf	(___ftadd@f2+1),f
  6187  0591  0DB7               	rlf	(___ftadd@f2+2),f
  6188  0592  3EFF               	addlw	-1
  6189  0593  1D03               	skipz
  6190  0594  2D8E               	goto	u405_25
  6191                           	line	111
  6192  0595  3001               	movlw	low(01h)
  6193  0596  02BD               	subwf	(___ftadd@exp2),f
  6194                           	line	112
  6195                           	
  6196  0597                     i1l9645:	
  6197  0597  083D               	movf	(___ftadd@exp2),w
  6198  0598  063E               	xorwf	(___ftadd@exp1),w
  6199  0599  1903               	skipnz
  6200  059A  2D9C               	goto	u406_21
  6201  059B  2D9D               	goto	u406_20
  6202  059C                     u406_21:
  6203  059C  2DB5               	goto	i1l9651
  6204  059D                     u406_20:
  6205                           	
  6206  059D                     i1l9647:	
  6207  059D  3001               	movlw	low(01h)
  6208  059E  02BC               	subwf	(___ftadd@sign),f
  6209  059F  083C               	movf	((___ftadd@sign)),w
  6210  05A0  3907               	andlw	07h
  6211  05A1  1D03               	btfss	status,2
  6212  05A2  2DA4               	goto	u407_21
  6213  05A3  2DA5               	goto	u407_20
  6214  05A4                     u407_21:
  6215  05A4  2D8D               	goto	i1l9643
  6216  05A5                     u407_20:
  6217  05A5  2DB5               	goto	i1l9651
  6218                           	
  6219  05A6                     i1l5901:	
  6220  05A6  2DB5               	goto	i1l9651
  6221                           	
  6222  05A7                     i1l5902:	
  6223                           	line	113
  6224  05A7  2DB5               	goto	i1l9651
  6225                           	
  6226  05A8                     i1l5904:	
  6227                           	line	114
  6228                           	
  6229  05A8                     i1l9649:	
  6230  05A8  3001               	movlw	01h
  6231  05A9                     u408_25:
  6232  05A9  1003               	clrc
  6233  05AA  0CB4               	rrf	(___ftadd@f1+2),f
  6234  05AB  0CB3               	rrf	(___ftadd@f1+1),f
  6235  05AC  0CB2               	rrf	(___ftadd@f1),f
  6236  05AD  3EFF               	addlw	-1
  6237  05AE  1D03               	skipz
  6238  05AF  2DA9               	goto	u408_25
  6239                           
  6240                           	line	115
  6241  05B0  3001               	movlw	(01h)
  6242  05B1  00B8               	movwf	(??___ftadd+0)+0
  6243  05B2  0838               	movf	(??___ftadd+0)+0,w
  6244  05B3  07BE               	addwf	(___ftadd@exp1),f
  6245  05B4  2DB5               	goto	i1l9651
  6246                           	line	116
  6247                           	
  6248  05B5                     i1l5903:	
  6249                           	line	113
  6250                           	
  6251  05B5                     i1l9651:	
  6252  05B5  083E               	movf	(___ftadd@exp1),w
  6253  05B6  063D               	xorwf	(___ftadd@exp2),w
  6254  05B7  1D03               	skipz
  6255  05B8  2DBA               	goto	u409_21
  6256  05B9  2DBB               	goto	u409_20
  6257  05BA                     u409_21:
  6258  05BA  2DA8               	goto	i1l9649
  6259  05BB                     u409_20:
  6260  05BB  2DF4               	goto	i1l5906
  6261                           	
  6262  05BC                     i1l5905:	
  6263                           	line	117
  6264  05BC  2DF4               	goto	i1l5906
  6265                           	
  6266  05BD                     i1l5898:	
  6267                           	
  6268  05BD                     i1l9653:	
  6269  05BD  083E               	movf	(___ftadd@exp1),w
  6270  05BE  023D               	subwf	(___ftadd@exp2),w
  6271  05BF  1803               	skipnc
  6272  05C0  2DC2               	goto	u410_21
  6273  05C1  2DC3               	goto	u410_20
  6274  05C2                     u410_21:
  6275  05C2  2DF4               	goto	i1l5906
  6276  05C3                     u410_20:
  6277  05C3  2DC4               	goto	i1l9655
  6278                           	line	120
  6279                           	
  6280  05C4                     i1l5908:	
  6281                           	line	121
  6282                           	
  6283  05C4                     i1l9655:	
  6284  05C4  3001               	movlw	01h
  6285  05C5                     u411_25:
  6286  05C5  1003               	clrc
  6287  05C6  0DB2               	rlf	(___ftadd@f1),f
  6288  05C7  0DB3               	rlf	(___ftadd@f1+1),f
  6289  05C8  0DB4               	rlf	(___ftadd@f1+2),f
  6290  05C9  3EFF               	addlw	-1
  6291  05CA  1D03               	skipz
  6292  05CB  2DC5               	goto	u411_25
  6293                           	line	122
  6294  05CC  3001               	movlw	low(01h)
  6295  05CD  02BE               	subwf	(___ftadd@exp1),f
  6296                           	line	123
  6297                           	
  6298  05CE                     i1l9657:	
  6299  05CE  083D               	movf	(___ftadd@exp2),w
  6300  05CF  063E               	xorwf	(___ftadd@exp1),w
  6301  05D0  1903               	skipnz
  6302  05D1  2DD3               	goto	u412_21
  6303  05D2  2DD4               	goto	u412_20
  6304  05D3                     u412_21:
  6305  05D3  2DEC               	goto	i1l9663
  6306  05D4                     u412_20:
  6307                           	
  6308  05D4                     i1l9659:	
  6309  05D4  3001               	movlw	low(01h)
  6310  05D5  02BC               	subwf	(___ftadd@sign),f
  6311  05D6  083C               	movf	((___ftadd@sign)),w
  6312  05D7  3907               	andlw	07h
  6313  05D8  1D03               	btfss	status,2
  6314  05D9  2DDB               	goto	u413_21
  6315  05DA  2DDC               	goto	u413_20
  6316  05DB                     u413_21:
  6317  05DB  2DC4               	goto	i1l9655
  6318  05DC                     u413_20:
  6319  05DC  2DEC               	goto	i1l9663
  6320                           	
  6321  05DD                     i1l5910:	
  6322  05DD  2DEC               	goto	i1l9663
  6323                           	
  6324  05DE                     i1l5911:	
  6325                           	line	124
  6326  05DE  2DEC               	goto	i1l9663
  6327                           	
  6328  05DF                     i1l5913:	
  6329                           	line	125
  6330                           	
  6331  05DF                     i1l9661:	
  6332  05DF  3001               	movlw	01h
  6333  05E0                     u414_25:
  6334  05E0  1003               	clrc
  6335  05E1  0CB7               	rrf	(___ftadd@f2+2),f
  6336  05E2  0CB6               	rrf	(___ftadd@f2+1),f
  6337  05E3  0CB5               	rrf	(___ftadd@f2),f
  6338  05E4  3EFF               	addlw	-1
  6339  05E5  1D03               	skipz
  6340  05E6  2DE0               	goto	u414_25
  6341                           
  6342                           	line	126
  6343  05E7  3001               	movlw	(01h)
  6344  05E8  00B8               	movwf	(??___ftadd+0)+0
  6345  05E9  0838               	movf	(??___ftadd+0)+0,w
  6346  05EA  07BD               	addwf	(___ftadd@exp2),f
  6347  05EB  2DEC               	goto	i1l9663
  6348                           	line	127
  6349                           	
  6350  05EC                     i1l5912:	
  6351                           	line	124
  6352                           	
  6353  05EC                     i1l9663:	
  6354  05EC  083E               	movf	(___ftadd@exp1),w
  6355  05ED  063D               	xorwf	(___ftadd@exp2),w
  6356  05EE  1D03               	skipz
  6357  05EF  2DF1               	goto	u415_21
  6358  05F0  2DF2               	goto	u415_20
  6359  05F1                     u415_21:
  6360  05F1  2DDF               	goto	i1l9661
  6361  05F2                     u415_20:
  6362  05F2  2DF4               	goto	i1l5906
  6363                           	
  6364  05F3                     i1l5914:	
  6365  05F3  2DF4               	goto	i1l5906
  6366                           	line	128
  6367                           	
  6368  05F4                     i1l5907:	
  6369                           	line	129
  6370                           	
  6371  05F4                     i1l5906:	
  6372  05F4  1FBC               	btfss	(___ftadd@sign),(7)&7
  6373  05F5  2DF7               	goto	u416_21
  6374  05F6  2DF8               	goto	u416_20
  6375  05F7                     u416_21:
  6376  05F7  2E09               	goto	i1l9667
  6377  05F8                     u416_20:
  6378                           	line	131
  6379                           	
  6380  05F8                     i1l9665:	
  6381  05F8  30FF               	movlw	0FFh
  6382  05F9  06B2               	xorwf	(___ftadd@f1),f
  6383  05FA  30FF               	movlw	0FFh
  6384  05FB  06B3               	xorwf	(___ftadd@f1+1),f
  6385  05FC  30FF               	movlw	0FFh
  6386  05FD  06B4               	xorwf	(___ftadd@f1+2),f
  6387                           	line	132
  6388  05FE  3001               	movlw	01h
  6389  05FF  07B2               	addwf	(___ftadd@f1),f
  6390  0600  3000               	movlw	0
  6391  0601  1803               	skipnc
  6392  0602  3001               movlw 1
  6393  0603  07B3               	addwf	(___ftadd@f1+1),f
  6394  0604  3000               	movlw	0
  6395  0605  1803               	skipnc
  6396  0606  3001               movlw 1
  6397  0607  07B4               	addwf	(___ftadd@f1+2),f
  6398  0608  2E09               	goto	i1l9667
  6399                           	line	133
  6400                           	
  6401  0609                     i1l5915:	
  6402                           	line	134
  6403                           	
  6404  0609                     i1l9667:	
  6405  0609  1F3C               	btfss	(___ftadd@sign),(6)&7
  6406  060A  2E0C               	goto	u417_21
  6407  060B  2E0D               	goto	u417_20
  6408  060C                     u417_21:
  6409  060C  2E1E               	goto	i1l9671
  6410  060D                     u417_20:
  6411                           	line	136
  6412                           	
  6413  060D                     i1l9669:	
  6414  060D  30FF               	movlw	0FFh
  6415  060E  06B5               	xorwf	(___ftadd@f2),f
  6416  060F  30FF               	movlw	0FFh
  6417  0610  06B6               	xorwf	(___ftadd@f2+1),f
  6418  0611  30FF               	movlw	0FFh
  6419  0612  06B7               	xorwf	(___ftadd@f2+2),f
  6420                           	line	137
  6421  0613  3001               	movlw	01h
  6422  0614  07B5               	addwf	(___ftadd@f2),f
  6423  0615  3000               	movlw	0
  6424  0616  1803               	skipnc
  6425  0617  3001               movlw 1
  6426  0618  07B6               	addwf	(___ftadd@f2+1),f
  6427  0619  3000               	movlw	0
  6428  061A  1803               	skipnc
  6429  061B  3001               movlw 1
  6430  061C  07B7               	addwf	(___ftadd@f2+2),f
  6431  061D  2E1E               	goto	i1l9671
  6432                           	line	138
  6433                           	
  6434  061E                     i1l5916:	
  6435                           	line	139
  6436                           	
  6437  061E                     i1l9671:	
  6438  061E  01BC               	clrf	(___ftadd@sign)
  6439                           	line	140
  6440  061F  0832               	movf	(___ftadd@f1),w
  6441  0620  07B5               	addwf	(___ftadd@f2),f
  6442  0621  0833               	movf	(___ftadd@f1+1),w
  6443  0622  1103               	clrz
  6444  0623  1803               	skipnc
  6445  0624  0A33               	incf	(___ftadd@f1+1),w
  6446  0625  1903               	skipnz
  6447  0626  2E28               	goto	u418_21
  6448  0627  07B6               	addwf	(___ftadd@f2+1),f
  6449  0628                     u418_21:
  6450  0628  0834               	movf	(___ftadd@f1+2),w
  6451  0629  1103               	clrz
  6452  062A  1803               	skipnc
  6453  062B  0A34               	incf	(___ftadd@f1+2),w
  6454  062C  1903               	skipnz
  6455  062D  2E2F               	goto	u418_22
  6456  062E  07B7               	addwf	(___ftadd@f2+2),f
  6457  062F                     u418_22:
  6458                           
  6459                           	line	141
  6460                           	
  6461  062F                     i1l9673:	
  6462  062F  1FB7               	btfss	(___ftadd@f2+2),(23)&7
  6463  0630  2E32               	goto	u419_21
  6464  0631  2E33               	goto	u419_20
  6465  0632                     u419_21:
  6466  0632  2E47               	goto	i1l9679
  6467  0633                     u419_20:
  6468                           	line	142
  6469                           	
  6470  0633                     i1l9675:	
  6471  0633  30FF               	movlw	0FFh
  6472  0634  06B5               	xorwf	(___ftadd@f2),f
  6473  0635  30FF               	movlw	0FFh
  6474  0636  06B6               	xorwf	(___ftadd@f2+1),f
  6475  0637  30FF               	movlw	0FFh
  6476  0638  06B7               	xorwf	(___ftadd@f2+2),f
  6477                           	line	143
  6478  0639  3001               	movlw	01h
  6479  063A  07B5               	addwf	(___ftadd@f2),f
  6480  063B  3000               	movlw	0
  6481  063C  1803               	skipnc
  6482  063D  3001               movlw 1
  6483  063E  07B6               	addwf	(___ftadd@f2+1),f
  6484  063F  3000               	movlw	0
  6485  0640  1803               	skipnc
  6486  0641  3001               movlw 1
  6487  0642  07B7               	addwf	(___ftadd@f2+2),f
  6488                           	line	144
  6489                           	
  6490  0643                     i1l9677:	
  6491  0643  01BC               	clrf	(___ftadd@sign)
  6492  0644  1403               	bsf	status,0
  6493  0645  0DBC               	rlf	(___ftadd@sign),f
  6494  0646  2E47               	goto	i1l9679
  6495                           	line	145
  6496                           	
  6497  0647                     i1l5917:	
  6498                           	line	146
  6499                           	
  6500  0647                     i1l9679:	
  6501  0647  0835               	movf	(___ftadd@f2),w
  6502  0648  00F0               	movwf	(?___ftpack)
  6503  0649  0836               	movf	(___ftadd@f2+1),w
  6504  064A  00F1               	movwf	(?___ftpack+1)
  6505  064B  0837               	movf	(___ftadd@f2+2),w
  6506  064C  00F2               	movwf	(?___ftpack+2)
  6507  064D  083E               	movf	(___ftadd@exp1),w
  6508  064E  00B8               	movwf	(??___ftadd+0)+0
  6509  064F  0838               	movf	(??___ftadd+0)+0,w
  6510  0650  00F3               	movwf	0+(?___ftpack)+03h
  6511  0651  083C               	movf	(___ftadd@sign),w
  6512  0652  00B9               	movwf	(??___ftadd+1)+0
  6513  0653  0839               	movf	(??___ftadd+1)+0,w
  6514  0654  00F4               	movwf	0+(?___ftpack)+04h
  6515  0655  120A  118A  277F   	fcall	___ftpack
              120A  118A         
  6516  065A  0870               	movf	(0+(?___ftpack)),w
  6517  065B  1283               	bcf	status, 5	;RP0=0, select bank0
  6518  065C  1303               	bcf	status, 6	;RP1=0, select bank0
  6519  065D  00B2               	movwf	(?___ftadd)
  6520  065E  0871               	movf	(1+(?___ftpack)),w
  6521  065F  00B3               	movwf	(?___ftadd+1)
  6522  0660  0872               	movf	(2+(?___ftpack)),w
  6523  0661  00B4               	movwf	(?___ftadd+2)
  6524  0662  2E63               	goto	i1l5892
  6525                           	
  6526  0663                     i1l9681:	
  6527                           	line	148
  6528                           	
  6529  0663                     i1l5892:	
  6530  0663  0008               	return
  6531                           	opt stack 0
  6532                           GLOBAL	__end_of___ftadd
  6533  0664                     	__end_of___ftadd:
  6534 ;; =============== function ___ftadd ends ============
  6535                           
  6536                           	signat	___ftadd,8315
  6537                           	global	_sprintf
  6538                           psect	text776,local,class=CODE,delta=2
  6539                           global __ptext776
  6540  0F00                     __ptext776:
  6541                           
  6542 ;; *************** function _sprintf *****************
  6543 ;; Defined at:
  6544 ;;		line 488 in file "C:\Program Files (x86)\HI-TECH Software\PICC\9.83\lib\doprnt.c"
  6545 ;; Parameters:    Size  Location     Type
  6546 ;;  sp              1    wreg     PTR unsigned char 
  6547 ;;		 -> UpdateDisplay@adcOutput(16), 
  6548 ;;  f               1    6[BANK0 ] PTR const unsigned char 
  6549 ;;		 -> STR_11(15), 
  6550 ;; Auto vars:     Size  Location     Type
  6551 ;;  sp              1   21[BANK0 ] PTR unsigned char 
  6552 ;;		 -> UpdateDisplay@adcOutput(16), 
  6553 ;;  _val            4   17[BANK0 ] struct .
  6554 ;;  c               1   22[BANK0 ] char 
  6555 ;;  prec            1   16[BANK0 ] char 
  6556 ;;  flag            1   15[BANK0 ] unsigned char 
  6557 ;;  ap              1   14[BANK0 ] PTR void [1]
  6558 ;;		 -> ?_sprintf(2), 
  6559 ;; Return value:  Size  Location     Type
  6560 ;;                  2    6[BANK0 ] int 
  6561 ;; Registers used:
  6562 ;;		wreg, fsr0l, fsr0h, status,2, status,0, btemp+1, pclath, cstack
  6563 ;; Tracked objects:
  6564 ;;		On entry : 0/0
  6565 ;;		On exit  : 0/0
  6566 ;;		Unchanged: 0/0
  6567 ;; Data sizes:     COMMON   BANK0   BANK1   BANK3   BANK2
  6568 ;;      Params:         0       5       0       0       0
  6569 ;;      Locals:         0       9       0       0       0
  6570 ;;      Temps:          0       3       0       0       0
  6571 ;;      Totals:         0      17       0       0       0
  6572 ;;Total ram usage:       17 bytes
  6573 ;; Hardware stack levels used:    1
  6574 ;; Hardware stack levels required when called:    1
  6575 ;; This function calls:
  6576 ;;		___lwdiv
  6577 ;;		___lwmod
  6578 ;; This function is called by:
  6579 ;;		_UpdateDisplay
  6580 ;; This function uses a non-reentrant model
  6581 ;;
  6582                           psect	text776
  6583                           	file	"C:\Program Files (x86)\HI-TECH Software\PICC\9.83\sources\doprnt.c"
  6584                           	line	488
  6585                           	global	__size_of_sprintf
  6586  0100                     	__size_of_sprintf	equ	__end_of_sprintf-_sprintf
  6587                           	
  6588  0F00                     _sprintf:	
  6589                           	opt	stack 1
  6590                           ; Regs used in _sprintf: [wreg-fsr0h+status,2+status,0+btemp+1+pclath+cstack]
  6591                           ;sprintf@sp stored from wreg
  6592                           	line	537
  6593  0F00  1283               	bcf	status, 5	;RP0=0, select bank0
  6594  0F01  1303               	bcf	status, 6	;RP1=0, select bank0
  6595  0F02  00B5               	movwf	(sprintf@sp)
  6596                           	
  6597  0F03                     i1l9495:	
  6598  0F03  3027               	movlw	(?_sprintf+01h)&0ffh
  6599  0F04  00AB               	movwf	(??_sprintf+0)+0
  6600  0F05  082B               	movf	(??_sprintf+0)+0,w
  6601  0F06  00AE               	movwf	(sprintf@ap)
  6602                           	line	540
  6603  0F07  2FE6               	goto	i1l9547
  6604                           	
  6605  0F08                     i1l5144:	
  6606                           	line	542
  6607                           	
  6608  0F08                     i1l9497:	
  6609  0F08  0836               	movf	(sprintf@c),w
  6610  0F09  3A25               	xorlw	025h
  6611  0F0A  1903               	skipnz
  6612  0F0B  2F0D               	goto	u371_21
  6613  0F0C  2F0E               	goto	u371_20
  6614  0F0D                     u371_21:
  6615  0F0D  2F1A               	goto	i1l5145
  6616  0F0E                     u371_20:
  6617                           	line	545
  6618                           	
  6619  0F0E                     i1l9499:	
  6620  0F0E  0836               	movf	(sprintf@c),w
  6621  0F0F  00AB               	movwf	(??_sprintf+0)+0
  6622  0F10  0835               	movf	(sprintf@sp),w
  6623  0F11  0084               	movwf	fsr0
  6624  0F12  082B               	movf	(??_sprintf+0)+0,w
  6625  0F13  1383               	bcf	status, 7	;select IRP bank0
  6626  0F14  0080               	movwf	indf
  6627                           	
  6628  0F15                     i1l9501:	
  6629  0F15  3001               	movlw	(01h)
  6630  0F16  00AB               	movwf	(??_sprintf+0)+0
  6631  0F17  082B               	movf	(??_sprintf+0)+0,w
  6632  0F18  07B5               	addwf	(sprintf@sp),f
  6633                           	line	546
  6634  0F19  2FE6               	goto	i1l9547
  6635                           	line	547
  6636                           	
  6637  0F1A                     i1l5145:	
  6638                           	line	552
  6639  0F1A  01AF               	clrf	(sprintf@flag)
  6640                           	line	638
  6641  0F1B  2F21               	goto	i1l9505
  6642                           	line	640
  6643                           	
  6644  0F1C                     i1l5147:	
  6645                           	line	641
  6646  0F1C  2FFA               	goto	i1l9549
  6647                           	line	700
  6648                           	
  6649  0F1D                     i1l5149:	
  6650  0F1D  2F36               	goto	i1l9507
  6651                           	line	701
  6652                           	
  6653  0F1E                     i1l5150:	
  6654                           	line	702
  6655  0F1E  2F36               	goto	i1l9507
  6656                           	line	805
  6657                           	
  6658  0F1F                     i1l5152:	
  6659                           	line	816
  6660  0F1F  2FE6               	goto	i1l9547
  6661                           	line	825
  6662                           	
  6663  0F20                     i1l9503:	
  6664  0F20  2F36               	goto	i1l9507
  6665                           	line	638
  6666                           	
  6667  0F21                     i1l5146:	
  6668                           	
  6669  0F21                     i1l9505:	
  6670  0F21  3001               	movlw	01h
  6671  0F22  07A6               	addwf	(sprintf@f),f
  6672  0F23  30FF               	movlw	-01h
  6673  0F24  0726               	addwf	(sprintf@f),w
  6674  0F25  0084               	movwf	fsr0
  6675  0F26  120A  158A  200A   	fcall	stringdir
              120A  158A         
  6676  0F2B  00B6               	movwf	(sprintf@c)
  6677                           	; Switch size 1, requested type "space"
  6678                           ; Number of cases is 3, Range of values is 0 to 105
  6679                           ; switch strategies available:
  6680                           ; Name         Instructions Cycles
  6681                           ; simple_byte           10     6 (average)
  6682                           ; jumptable            260     6 (fixed)
  6683                           ; rangetable           110     6 (fixed)
  6684                           ; spacedrange          218     9 (fixed)
  6685                           ; locatedrange         106     3 (fixed)
  6686                           ;	Chosen strategy is simple_byte
  6687                           
  6688                           	opt asmopt_off
  6689  0F2C  3A00               	xorlw	0^0	; case 0
  6690  0F2D  1903               	skipnz
  6691  0F2E  2FFA               	goto	i1l9549
  6692  0F2F  3A64               	xorlw	100^0	; case 100
  6693  0F30  1903               	skipnz
  6694  0F31  2F36               	goto	i1l9507
  6695  0F32  3A0D               	xorlw	105^100	; case 105
  6696  0F33  1903               	skipnz
  6697  0F34  2F36               	goto	i1l9507
  6698  0F35  2FE6               	goto	i1l9547
  6699                           	opt asmopt_on
  6700                           
  6701                           	line	825
  6702                           	
  6703  0F36                     i1l5151:	
  6704                           	line	1254
  6705                           	
  6706  0F36                     i1l9507:	
  6707  0F36  082E               	movf	(sprintf@ap),w
  6708  0F37  0084               	movwf	fsr0
  6709  0F38  1383               	bcf	status, 7	;select IRP bank0
  6710  0F39  0800               	movf	indf,w
  6711  0F3A  00B1               	movwf	(sprintf@_val)
  6712  0F3B  0A84               	incf	fsr0,f
  6713  0F3C  0800               	movf	indf,w
  6714  0F3D  00B2               	movwf	(sprintf@_val+1)
  6715                           	
  6716  0F3E                     i1l9509:	
  6717  0F3E  3002               	movlw	(02h)
  6718  0F3F  00AB               	movwf	(??_sprintf+0)+0
  6719  0F40  082B               	movf	(??_sprintf+0)+0,w
  6720  0F41  07AE               	addwf	(sprintf@ap),f
  6721                           	line	1256
  6722                           	
  6723  0F42                     i1l9511:	
  6724  0F42  1FB2               	btfss	(sprintf@_val+1),7
  6725  0F43  2F45               	goto	u372_21
  6726  0F44  2F46               	goto	u372_20
  6727  0F45                     u372_21:
  6728  0F45  2F50               	goto	i1l9517
  6729  0F46                     u372_20:
  6730                           	line	1257
  6731                           	
  6732  0F46                     i1l9513:	
  6733  0F46  3003               	movlw	(03h)
  6734  0F47  00AB               	movwf	(??_sprintf+0)+0
  6735  0F48  082B               	movf	(??_sprintf+0)+0,w
  6736  0F49  04AF               	iorwf	(sprintf@flag),f
  6737                           	line	1258
  6738                           	
  6739  0F4A                     i1l9515:	
  6740  0F4A  09B1               	comf	(sprintf@_val),f
  6741  0F4B  09B2               	comf	(sprintf@_val+1),f
  6742  0F4C  0AB1               	incf	(sprintf@_val),f
  6743  0F4D  1903               	skipnz
  6744  0F4E  0AB2               	incf	(sprintf@_val+1),f
  6745  0F4F  2F50               	goto	i1l9517
  6746                           	line	1259
  6747                           	
  6748  0F50                     i1l5153:	
  6749                           	line	1300
  6750                           	
  6751  0F50                     i1l9517:	
  6752  0F50  01B6               	clrf	(sprintf@c)
  6753  0F51  1403               	bsf	status,0
  6754  0F52  0DB6               	rlf	(sprintf@c),f
  6755                           	
  6756  0F53                     i1l9519:	
  6757  0F53  0836               	movf	(sprintf@c),w
  6758  0F54  3A05               	xorlw	05h
  6759  0F55  1D03               	skipz
  6760  0F56  2F58               	goto	u373_21
  6761  0F57  2F59               	goto	u373_20
  6762  0F58                     u373_21:
  6763  0F58  2F5B               	goto	i1l9523
  6764  0F59                     u373_20:
  6765  0F59  2F83               	goto	i1l9531
  6766                           	
  6767  0F5A                     i1l9521:	
  6768  0F5A  2F83               	goto	i1l9531
  6769                           	line	1301
  6770                           	
  6771  0F5B                     i1l5154:	
  6772                           	
  6773  0F5B                     i1l9523:	
  6774  0F5B  0836               	movf	(sprintf@c),w
  6775  0F5C  00AB               	movwf	(??_sprintf+0)+0
  6776  0F5D  072B               	addwf	(??_sprintf+0)+0,w
  6777  0F5E  3E01               	addlw	low((_dpowers-__stringbase))
  6778  0F5F  0084               	movwf	fsr0
  6779  0F60  120A  158A  200A   	fcall	stringdir
              120A  158A         
  6780  0F65  00AC               	movwf	(??_sprintf+1)+0
  6781  0F66  120A  158A  200A   	fcall	stringdir
              120A  158A         
  6782  0F6B  00AD               	movwf	(??_sprintf+1)+0+1
  6783  0F6C  082D               	movf	1+(??_sprintf+1)+0,w
  6784  0F6D  0232               	subwf	(sprintf@_val+1),w
  6785  0F6E  1D03               	skipz
  6786  0F6F  2F72               	goto	u374_25
  6787  0F70  082C               	movf	0+(??_sprintf+1)+0,w
  6788  0F71  0231               	subwf	(sprintf@_val),w
  6789  0F72                     u374_25:
  6790  0F72  1803               	skipnc
  6791  0F73  2F75               	goto	u374_21
  6792  0F74  2F76               	goto	u374_20
  6793  0F75                     u374_21:
  6794  0F75  2F78               	goto	i1l9527
  6795  0F76                     u374_20:
  6796  0F76  2F83               	goto	i1l9531
  6797                           	line	1302
  6798                           	
  6799  0F77                     i1l9525:	
  6800  0F77  2F83               	goto	i1l9531
  6801                           	
  6802  0F78                     i1l5156:	
  6803                           	line	1300
  6804                           	
  6805  0F78                     i1l9527:	
  6806  0F78  3001               	movlw	(01h)
  6807  0F79  00AB               	movwf	(??_sprintf+0)+0
  6808  0F7A  082B               	movf	(??_sprintf+0)+0,w
  6809  0F7B  07B6               	addwf	(sprintf@c),f
  6810                           	
  6811  0F7C                     i1l9529:	
  6812  0F7C  0836               	movf	(sprintf@c),w
  6813  0F7D  3A05               	xorlw	05h
  6814  0F7E  1D03               	skipz
  6815  0F7F  2F81               	goto	u375_21
  6816  0F80  2F82               	goto	u375_20
  6817  0F81                     u375_21:
  6818  0F81  2F5B               	goto	i1l9523
  6819  0F82                     u375_20:
  6820  0F82  2F83               	goto	i1l9531
  6821                           	
  6822  0F83                     i1l5155:	
  6823                           	line	1433
  6824                           	
  6825  0F83                     i1l9531:	
  6826  0F83  082F               	movf	(sprintf@flag),w
  6827  0F84  3903               	andlw	03h
  6828  0F85  1903               	btfsc	status,2
  6829  0F86  2F88               	goto	u376_21
  6830  0F87  2F89               	goto	u376_20
  6831  0F88                     u376_21:
  6832  0F88  2F95               	goto	i1l9537
  6833  0F89                     u376_20:
  6834                           	line	1434
  6835                           	
  6836  0F89                     i1l9533:	
  6837  0F89  302D               	movlw	(02Dh)
  6838  0F8A  00AB               	movwf	(??_sprintf+0)+0
  6839  0F8B  0835               	movf	(sprintf@sp),w
  6840  0F8C  0084               	movwf	fsr0
  6841  0F8D  082B               	movf	(??_sprintf+0)+0,w
  6842  0F8E  1383               	bcf	status, 7	;select IRP bank0
  6843  0F8F  0080               	movwf	indf
  6844                           	
  6845  0F90                     i1l9535:	
  6846  0F90  3001               	movlw	(01h)
  6847  0F91  00AB               	movwf	(??_sprintf+0)+0
  6848  0F92  082B               	movf	(??_sprintf+0)+0,w
  6849  0F93  07B5               	addwf	(sprintf@sp),f
  6850  0F94  2F95               	goto	i1l9537
  6851                           	
  6852  0F95                     i1l5157:	
  6853                           	line	1467
  6854                           	
  6855  0F95                     i1l9537:	
  6856  0F95  0836               	movf	(sprintf@c),w
  6857  0F96  00AB               	movwf	(??_sprintf+0)+0
  6858  0F97  082B               	movf	(??_sprintf+0)+0,w
  6859  0F98  00B0               	movwf	(sprintf@prec)
  6860                           	line	1469
  6861  0F99  2FDA               	goto	i1l9545
  6862                           	
  6863  0F9A                     i1l5159:	
  6864                           	line	1484
  6865                           	
  6866  0F9A                     i1l9539:	
  6867  0F9A  300A               	movlw	low(0Ah)
  6868  0F9B  00A0               	movwf	(?___lwmod)
  6869  0F9C  3000               	movlw	high(0Ah)
  6870  0F9D  00A1               	movwf	((?___lwmod))+1
  6871  0F9E  0830               	movf	(sprintf@prec),w
  6872  0F9F  00AB               	movwf	(??_sprintf+0)+0
  6873  0FA0  072B               	addwf	(??_sprintf+0)+0,w
  6874  0FA1  3E01               	addlw	low((_dpowers-__stringbase))
  6875  0FA2  0084               	movwf	fsr0
  6876  0FA3  120A  158A  200A   	fcall	stringdir
              120A  158A         
  6877  0FA8  00F6               	movwf	(?___lwdiv)
  6878  0FA9  120A  158A  200A   	fcall	stringdir
              120A  158A         
  6879  0FAE  00F7               	movwf	(?___lwdiv+1)
  6880  0FAF  0832               	movf	(sprintf@_val+1),w
  6881  0FB0  01F9               	clrf	1+(?___lwdiv)+02h
  6882  0FB1  07F9               	addwf	1+(?___lwdiv)+02h
  6883  0FB2  0831               	movf	(sprintf@_val),w
  6884  0FB3  01F8               	clrf	0+(?___lwdiv)+02h
  6885  0FB4  07F8               	addwf	0+(?___lwdiv)+02h
  6886                           
  6887  0FB5  120A  158A  2103   	fcall	___lwdiv
              120A  158A         
  6888  0FBA  0877               	movf	(1+(?___lwdiv)),w
  6889  0FBB  1283               	bcf	status, 5	;RP0=0, select bank0
  6890  0FBC  1303               	bcf	status, 6	;RP1=0, select bank0
  6891  0FBD  01A3               	clrf	1+(?___lwmod)+02h
  6892  0FBE  07A3               	addwf	1+(?___lwmod)+02h
  6893  0FBF  0876               	movf	(0+(?___lwdiv)),w
  6894  0FC0  01A2               	clrf	0+(?___lwmod)+02h
  6895  0FC1  07A2               	addwf	0+(?___lwmod)+02h
  6896                           
  6897  0FC2  120A  158A  20BD   	fcall	___lwmod
              120A  158A         
  6898  0FC7  1283               	bcf	status, 5	;RP0=0, select bank0
  6899  0FC8  1303               	bcf	status, 6	;RP1=0, select bank0
  6900  0FC9  0820               	movf	(0+(?___lwmod)),w
  6901  0FCA  3E30               	addlw	030h
  6902  0FCB  00AC               	movwf	(??_sprintf+1)+0
  6903  0FCC  082C               	movf	(??_sprintf+1)+0,w
  6904  0FCD  00B6               	movwf	(sprintf@c)
  6905                           	line	1516
  6906                           	
  6907  0FCE                     i1l9541:	
  6908  0FCE  0836               	movf	(sprintf@c),w
  6909  0FCF  00AB               	movwf	(??_sprintf+0)+0
  6910  0FD0  0835               	movf	(sprintf@sp),w
  6911  0FD1  0084               	movwf	fsr0
  6912  0FD2  082B               	movf	(??_sprintf+0)+0,w
  6913  0FD3  1383               	bcf	status, 7	;select IRP bank0
  6914  0FD4  0080               	movwf	indf
  6915                           	
  6916  0FD5                     i1l9543:	
  6917  0FD5  3001               	movlw	(01h)
  6918  0FD6  00AB               	movwf	(??_sprintf+0)+0
  6919  0FD7  082B               	movf	(??_sprintf+0)+0,w
  6920  0FD8  07B5               	addwf	(sprintf@sp),f
  6921  0FD9  2FDA               	goto	i1l9545
  6922                           	line	1517
  6923                           	
  6924  0FDA                     i1l5158:	
  6925                           	line	1469
  6926                           	
  6927  0FDA                     i1l9545:	
  6928  0FDA  30FF               	movlw	(-1)
  6929  0FDB  00AB               	movwf	(??_sprintf+0)+0
  6930  0FDC  082B               	movf	(??_sprintf+0)+0,w
  6931  0FDD  07B0               	addwf	(sprintf@prec),f
  6932  0FDE  0830               	movf	((sprintf@prec)),w
  6933  0FDF  3AFF               	xorlw	-1
  6934  0FE0  1D03               	skipz
  6935  0FE1  2FE3               	goto	u377_21
  6936  0FE2  2FE4               	goto	u377_20
  6937  0FE3                     u377_21:
  6938  0FE3  2F9A               	goto	i1l9539
  6939  0FE4                     u377_20:
  6940  0FE4  2FE6               	goto	i1l9547
  6941                           	
  6942  0FE5                     i1l5160:	
  6943  0FE5  2FE6               	goto	i1l9547
  6944                           	line	1525
  6945                           	
  6946  0FE6                     i1l5143:	
  6947                           	line	540
  6948                           	
  6949  0FE6                     i1l9547:	
  6950  0FE6  3001               	movlw	01h
  6951  0FE7  07A6               	addwf	(sprintf@f),f
  6952  0FE8  30FF               	movlw	-01h
  6953  0FE9  0726               	addwf	(sprintf@f),w
  6954  0FEA  0084               	movwf	fsr0
  6955  0FEB  120A  158A  200A   	fcall	stringdir
              120A  158A         
  6956  0FF0  00AB               	movwf	(??_sprintf+0)+0
  6957  0FF1  082B               	movf	(??_sprintf+0)+0,w
  6958  0FF2  00B6               	movwf	(sprintf@c)
  6959  0FF3  08B6               	movf	((sprintf@c)),f
  6960  0FF4  1D03               	skipz
  6961  0FF5  2FF7               	goto	u378_21
  6962  0FF6  2FF8               	goto	u378_20
  6963  0FF7                     u378_21:
  6964  0FF7  2F08               	goto	i1l9497
  6965  0FF8                     u378_20:
  6966  0FF8  2FFA               	goto	i1l9549
  6967                           	
  6968  0FF9                     i1l5161:	
  6969  0FF9  2FFA               	goto	i1l9549
  6970                           	line	1527
  6971                           	
  6972  0FFA                     i1l5148:	
  6973                           	line	1530
  6974                           	
  6975  0FFA                     i1l9549:	
  6976  0FFA  0835               	movf	(sprintf@sp),w
  6977  0FFB  0084               	movwf	fsr0
  6978  0FFC  1383               	bcf	status, 7	;select IRP bank0
  6979  0FFD  0180               	clrf	indf
  6980  0FFE  2FFF               	goto	i1l5162
  6981                           	line	1532
  6982                           	
  6983  0FFF                     i1l9551:	
  6984                           	line	1533
  6985                           ;	Return value of _sprintf is never used
  6986                           	
  6987  0FFF                     i1l5162:	
  6988  0FFF  0008               	return
  6989                           	opt stack 0
  6990                           GLOBAL	__end_of_sprintf
  6991  1000                     	__end_of_sprintf:
  6992 ;; =============== function _sprintf ends ============
  6993                           
  6994                           	signat	_sprintf,4698
  6995                           	global	_ReadButtons
  6996                           psect	text777,local,class=CODE,delta=2
  6997                           global __ptext777
  6998  17CE                     __ptext777:
  6999                           
  7000 ;; *************** function _ReadButtons *****************
  7001 ;; Defined at:
  7002 ;;		line 143 in file "H:\Aldnoah.Zero\trunk\Assignment3\HMI.c"
  7003 ;; Parameters:    Size  Location     Type
  7004 ;;		None
  7005 ;; Auto vars:     Size  Location     Type
  7006 ;;		None
  7007 ;; Return value:  Size  Location     Type
  7008 ;;                  1    wreg      unsigned char 
  7009 ;; Registers used:
  7010 ;;		wreg, status,2, status,0, pclath, cstack
  7011 ;; Tracked objects:
  7012 ;;		On entry : 0/0
  7013 ;;		On exit  : 0/0
  7014 ;;		Unchanged: 0/0
  7015 ;; Data sizes:     COMMON   BANK0   BANK1   BANK3   BANK2
  7016 ;;      Params:         0       0       0       0       0
  7017 ;;      Locals:         0       0       0       0       0
  7018 ;;      Temps:          0       0       0       0       0
  7019 ;;      Totals:         0       0       0       0       0
  7020 ;;Total ram usage:        0 bytes
  7021 ;; Hardware stack levels used:    1
  7022 ;; Hardware stack levels required when called:    1
  7023 ;; This function calls:
  7024 ;;		_Debounce
  7025 ;; This function is called by:
  7026 ;;		_isr1
  7027 ;; This function uses a non-reentrant model
  7028 ;;
  7029                           psect	text777
  7030                           	file	"H:\Aldnoah.Zero\trunk\Assignment3\HMI.c"
  7031                           	line	143
  7032                           	global	__size_of_ReadButtons
  7033  0032                     	__size_of_ReadButtons	equ	__end_of_ReadButtons-_ReadButtons
  7034                           	
  7035  17CE                     _ReadButtons:	
  7036                           	opt	stack 2
  7037                           ; Regs used in _ReadButtons: [wreg+status,2+status,0+pclath+cstack]
  7038                           	line	144
  7039                           	
  7040  17CE                     i1l9183:	
  7041                           ;HMI.c: 144: Debounce();
  7042  17CE  120A  158A  23E3   	fcall	_Debounce
              160A  118A         
  7043                           	line	146
  7044                           	
  7045  17D3                     i1l9185:	
  7046                           ;HMI.c: 146: if(UpPressed)
  7047  17D3  1283               	bcf	status, 5	;RP0=0, select bank0
  7048  17D4  1303               	bcf	status, 6	;RP1=0, select bank0
  7049  17D5  1EEB               	btfss	(_UpPressed/8),(_UpPressed)&7
  7050  17D6  2FD8               	goto	u322_21
  7051  17D7  2FD9               	goto	u322_20
  7052  17D8                     u322_21:
  7053  17D8  2FDD               	goto	i1l5101
  7054  17D9                     u322_20:
  7055                           	line	148
  7056                           	
  7057  17D9                     i1l9187:	
  7058                           ;HMI.c: 147: {
  7059                           ;HMI.c: 148: UpPressed = 0;
  7060  17D9  12EB               	bcf	(_UpPressed/8),(_UpPressed)&7
  7061                           	line	149
  7062                           	
  7063  17DA                     i1l9189:	
  7064                           ;HMI.c: 149: return 1;
  7065  17DA  3001               	movlw	(01h)
  7066  17DB  2FFF               	goto	i1l5102
  7067                           	
  7068  17DC                     i1l9191:	
  7069  17DC  2FFF               	goto	i1l5102
  7070                           	line	151
  7071                           	
  7072  17DD                     i1l5101:	
  7073                           	line	153
  7074                           ;HMI.c: 151: }
  7075                           ;HMI.c: 153: if(DownPressed)
  7076  17DD  1D6A               	btfss	(_DownPressed/8),(_DownPressed)&7
  7077  17DE  2FE0               	goto	u323_21
  7078  17DF  2FE1               	goto	u323_20
  7079  17E0                     u323_21:
  7080  17E0  2FE5               	goto	i1l5103
  7081  17E1                     u323_20:
  7082                           	line	155
  7083                           	
  7084  17E1                     i1l9193:	
  7085                           ;HMI.c: 154: {
  7086                           ;HMI.c: 155: DownPressed = 0;
  7087  17E1  116A               	bcf	(_DownPressed/8),(_DownPressed)&7
  7088                           	line	156
  7089                           	
  7090  17E2                     i1l9195:	
  7091                           ;HMI.c: 156: return 2;
  7092  17E2  3002               	movlw	(02h)
  7093  17E3  2FFF               	goto	i1l5102
  7094                           	
  7095  17E4                     i1l9197:	
  7096  17E4  2FFF               	goto	i1l5102
  7097                           	line	158
  7098                           	
  7099  17E5                     i1l5103:	
  7100                           	line	159
  7101                           ;HMI.c: 158: }
  7102                           ;HMI.c: 159: if(LeftPressed)
  7103  17E5  1E6A               	btfss	(_LeftPressed/8),(_LeftPressed)&7
  7104  17E6  2FE8               	goto	u324_21
  7105  17E7  2FE9               	goto	u324_20
  7106  17E8                     u324_21:
  7107  17E8  2FED               	goto	i1l5104
  7108  17E9                     u324_20:
  7109                           	line	161
  7110                           	
  7111  17E9                     i1l9199:	
  7112                           ;HMI.c: 160: {
  7113                           ;HMI.c: 161: LeftPressed = 0;
  7114  17E9  126A               	bcf	(_LeftPressed/8),(_LeftPressed)&7
  7115                           	line	162
  7116                           	
  7117  17EA                     i1l9201:	
  7118                           ;HMI.c: 162: return 3;
  7119  17EA  3003               	movlw	(03h)
  7120  17EB  2FFF               	goto	i1l5102
  7121                           	
  7122  17EC                     i1l9203:	
  7123  17EC  2FFF               	goto	i1l5102
  7124                           	line	164
  7125                           	
  7126  17ED                     i1l5104:	
  7127                           	line	165
  7128                           ;HMI.c: 164: }
  7129                           ;HMI.c: 165: if(RightPressed)
  7130  17ED  1DEB               	btfss	(_RightPressed/8),(_RightPressed)&7
  7131  17EE  2FF0               	goto	u325_21
  7132  17EF  2FF1               	goto	u325_20
  7133  17F0                     u325_21:
  7134  17F0  2FF5               	goto	i1l5105
  7135  17F1                     u325_20:
  7136                           	line	167
  7137                           	
  7138  17F1                     i1l9205:	
  7139                           ;HMI.c: 166: {
  7140                           ;HMI.c: 167: RightPressed = 0;
  7141  17F1  11EB               	bcf	(_RightPressed/8),(_RightPressed)&7
  7142                           	line	168
  7143                           	
  7144  17F2                     i1l9207:	
  7145                           ;HMI.c: 168: return 4;
  7146  17F2  3004               	movlw	(04h)
  7147  17F3  2FFF               	goto	i1l5102
  7148                           	
  7149  17F4                     i1l9209:	
  7150  17F4  2FFF               	goto	i1l5102
  7151                           	line	170
  7152                           	
  7153  17F5                     i1l5105:	
  7154                           	line	172
  7155                           ;HMI.c: 170: }
  7156                           ;HMI.c: 172: if(CenterPressed)
  7157  17F5  1C6A               	btfss	(_CenterPressed/8),(_CenterPressed)&7
  7158  17F6  2FF8               	goto	u326_21
  7159  17F7  2FF9               	goto	u326_20
  7160  17F8                     u326_21:
  7161  17F8  2FFD               	goto	i1l9217
  7162  17F9                     u326_20:
  7163                           	line	174
  7164                           	
  7165  17F9                     i1l9211:	
  7166                           ;HMI.c: 173: {
  7167                           ;HMI.c: 174: CenterPressed = 0;
  7168  17F9  106A               	bcf	(_CenterPressed/8),(_CenterPressed)&7
  7169                           	line	175
  7170                           	
  7171  17FA                     i1l9213:	
  7172                           ;HMI.c: 175: return 5;
  7173  17FA  3005               	movlw	(05h)
  7174  17FB  2FFF               	goto	i1l5102
  7175                           	
  7176  17FC                     i1l9215:	
  7177  17FC  2FFF               	goto	i1l5102
  7178                           	line	177
  7179                           	
  7180  17FD                     i1l5106:	
  7181                           	line	178
  7182                           	
  7183  17FD                     i1l9217:	
  7184                           ;HMI.c: 177: }
  7185                           ;HMI.c: 178: return 0;
  7186  17FD  3000               	movlw	(0)
  7187  17FE  2FFF               	goto	i1l5102
  7188                           	
  7189  17FF                     i1l9219:	
  7190                           	line	179
  7191                           	
  7192  17FF                     i1l5102:	
  7193  17FF  0008               	return
  7194                           	opt stack 0
  7195                           GLOBAL	__end_of_ReadButtons
  7196  1800                     	__end_of_ReadButtons:
  7197 ;; =============== function _ReadButtons ends ============
  7198                           
  7199                           	signat	_ReadButtons,89
  7200                           	global	_lcd_write_data
  7201                           psect	text778,local,class=CODE,delta=2
  7202                           global __ptext778
  7203  164B                     __ptext778:
  7204                           
  7205 ;; *************** function _lcd_write_data *****************
  7206 ;; Defined at:
  7207 ;;		line 30 in file "E:\Aldnoah.Zero\Assignment3\lcd.c"
  7208 ;; Parameters:    Size  Location     Type
  7209 ;;  databyte        1    wreg     unsigned char 
  7210 ;; Auto vars:     Size  Location     Type
  7211 ;;  databyte        1    2[COMMON] unsigned char 
  7212 ;; Return value:  Size  Location     Type
  7213 ;;		None               void
  7214 ;; Registers used:
  7215 ;;		wreg
  7216 ;; Tracked objects:
  7217 ;;		On entry : 0/0
  7218 ;;		On exit  : 0/0
  7219 ;;		Unchanged: 0/0
  7220 ;; Data sizes:     COMMON   BANK0   BANK1   BANK3   BANK2
  7221 ;;      Params:         0       0       0       0       0
  7222 ;;      Locals:         1       0       0       0       0
  7223 ;;      Temps:          2       0       0       0       0
  7224 ;;      Totals:         3       0       0       0       0
  7225 ;;Total ram usage:        3 bytes
  7226 ;; Hardware stack levels used:    1
  7227 ;; This function calls:
  7228 ;;		Nothing
  7229 ;; This function is called by:
  7230 ;;		_lcd_write_string
  7231 ;;		_lcd_write_2_digit_bcd
  7232 ;;		_lcd_write_3_digit_bcd
  7233 ;; This function uses a non-reentrant model
  7234 ;;
  7235                           psect	text778
  7236                           	file	"E:\Aldnoah.Zero\Assignment3\lcd.c"
  7237                           	line	30
  7238                           	global	__size_of_lcd_write_data
  7239  0013                     	__size_of_lcd_write_data	equ	__end_of_lcd_write_data-_lcd_write_data
  7240                           	
  7241  164B                     _lcd_write_data:	
  7242                           	opt	stack 1
  7243                           ; Regs used in _lcd_write_data: [wreg]
  7244                           ;lcd_write_data@databyte stored from wreg
  7245  164B  00F2               	movwf	(lcd_write_data@databyte)
  7246                           	line	31
  7247                           	
  7248  164C                     i1l9041:	
  7249                           ;lcd.c: 31: RE2 = 0;
  7250  164C  1283               	bcf	status, 5	;RP0=0, select bank0
  7251  164D  1303               	bcf	status, 6	;RP1=0, select bank0
  7252  164E  1109               	bcf	(74/8),(74)&7
  7253                           	line	32
  7254                           ;lcd.c: 32: RE1 = 0;
  7255  164F  1089               	bcf	(73/8),(73)&7
  7256                           	line	33
  7257                           ;lcd.c: 33: RE0 = 1;
  7258  1650  1409               	bsf	(72/8),(72)&7
  7259                           	line	34
  7260                           	
  7261  1651                     i1l9043:	
  7262                           ;lcd.c: 34: PORTD = databyte;
  7263  1651  0872               	movf	(lcd_write_data@databyte),w
  7264  1652  0088               	movwf	(8)	;volatile
  7265                           	line	35
  7266                           	
  7267  1653                     i1l9045:	
  7268                           ;lcd.c: 35: RE2 = 1;
  7269  1653  1509               	bsf	(74/8),(74)&7
  7270                           	line	36
  7271                           	
  7272  1654                     i1l9047:	
  7273                           ;lcd.c: 36: RE2 = 0;
  7274  1654  1109               	bcf	(74/8),(74)&7
  7275                           	line	37
  7276                           ;lcd.c: 37: _delay((unsigned long)((1)*(20000000/4000.0)));
  7277                           	opt asmopt_off
  7278  1655  3007               movlw	7
  7279  1656  00F1               movwf	((??_lcd_write_data+0)+0+1),f
  7280  1657  307D               	movlw	125
  7281  1658  00F0               movwf	((??_lcd_write_data+0)+0),f
  7282  1659                     u489_27:
  7283  1659  0BF0               	decfsz	((??_lcd_write_data+0)+0),f
  7284  165A  2E59               	goto	u489_27
  7285  165B  0BF1               	decfsz	((??_lcd_write_data+0)+0+1),f
  7286  165C  2E59               	goto	u489_27
  7287                           opt asmopt_on
  7288                           
  7289                           	line	38
  7290                           	
  7291  165D                     i1l1396:	
  7292  165D  0008               	return
  7293                           	opt stack 0
  7294                           GLOBAL	__end_of_lcd_write_data
  7295  165E                     	__end_of_lcd_write_data:
  7296 ;; =============== function _lcd_write_data ends ============
  7297                           
  7298                           	signat	_lcd_write_data,4216
  7299                           	global	_adc_read_channel
  7300                           psect	text779,local,class=CODE,delta=2
  7301                           global __ptext779
  7302  087C                     __ptext779:
  7303                           
  7304 ;; *************** function _adc_read_channel *****************
  7305 ;; Defined at:
  7306 ;;		line 5 in file "E:\Aldnoah.Zero\Assignment3\adc.c"
  7307 ;; Parameters:    Size  Location     Type
  7308 ;;  channel         1    wreg     unsigned char 
  7309 ;; Auto vars:     Size  Location     Type
  7310 ;;  channel         1    7[COMMON] unsigned char 
  7311 ;; Return value:  Size  Location     Type
  7312 ;;                  1    wreg      unsigned char 
  7313 ;; Registers used:
  7314 ;;		wreg, fsr0l, fsr0h, status,2, status,0, pclath, cstack
  7315 ;; Tracked objects:
  7316 ;;		On entry : 0/0
  7317 ;;		On exit  : 0/0
  7318 ;;		Unchanged: 0/0
  7319 ;; Data sizes:     COMMON   BANK0   BANK1   BANK3   BANK2
  7320 ;;      Params:         0       0       0       0       0
  7321 ;;      Locals:         1       0       0       0       0
  7322 ;;      Temps:          1       0       0       0       0
  7323 ;;      Totals:         2       0       0       0       0
  7324 ;;Total ram usage:        2 bytes
  7325 ;; Hardware stack levels used:    1
  7326 ;; Hardware stack levels required when called:    1
  7327 ;; This function calls:
  7328 ;;		_adc_read
  7329 ;; This function is called by:
  7330 ;;		_readDistance
  7331 ;; This function uses a non-reentrant model
  7332 ;;
  7333                           psect	text779
  7334                           	file	"E:\Aldnoah.Zero\Assignment3\adc.c"
  7335                           	line	5
  7336                           	global	__size_of_adc_read_channel
  7337  0041                     	__size_of_adc_read_channel	equ	__end_of_adc_read_channel-_adc_read_channel
  7338                           	
  7339  087C                     _adc_read_channel:	
  7340                           	opt	stack 0
  7341                           ; Regs used in _adc_read_channel: [wreg-fsr0h+status,2+status,0+pclath+cstack]
  7342                           ;adc_read_channel@channel stored from wreg
  7343  087C  00F7               	movwf	(adc_read_channel@channel)
  7344                           	line	6
  7345                           	
  7346  087D                     i1l9015:	
  7347                           ;adc.c: 6: switch(channel)
  7348  087D  28A0               	goto	i1l9023
  7349                           	line	8
  7350                           ;adc.c: 7: {
  7351                           ;adc.c: 8: case 0:
  7352                           	
  7353  087E                     i1l690:	
  7354                           	line	9
  7355                           ;adc.c: 9: CHS0 = 0;
  7356  087E  1283               	bcf	status, 5	;RP0=0, select bank0
  7357  087F  1303               	bcf	status, 6	;RP1=0, select bank0
  7358  0880  119F               	bcf	(251/8),(251)&7
  7359                           	line	10
  7360                           ;adc.c: 10: CHS1 = 0;
  7361  0881  121F               	bcf	(252/8),(252)&7
  7362                           	line	11
  7363                           ;adc.c: 11: CHS2 = 0;
  7364  0882  129F               	bcf	(253/8),(253)&7
  7365                           	line	12
  7366                           ;adc.c: 12: break;
  7367  0883  28B1               	goto	i1l9025
  7368                           	line	13
  7369                           ;adc.c: 13: case 1:
  7370                           	
  7371  0884                     i1l692:	
  7372                           	line	14
  7373                           ;adc.c: 14: CHS0 = 1;
  7374  0884  1283               	bcf	status, 5	;RP0=0, select bank0
  7375  0885  1303               	bcf	status, 6	;RP1=0, select bank0
  7376  0886  159F               	bsf	(251/8),(251)&7
  7377                           	line	15
  7378                           ;adc.c: 15: CHS1 = 0;
  7379  0887  121F               	bcf	(252/8),(252)&7
  7380                           	line	16
  7381                           ;adc.c: 16: CHS2 = 0;
  7382  0888  129F               	bcf	(253/8),(253)&7
  7383                           	line	17
  7384                           ;adc.c: 17: break;
  7385  0889  28B1               	goto	i1l9025
  7386                           	line	18
  7387                           ;adc.c: 18: case 2:
  7388                           	
  7389  088A                     i1l693:	
  7390                           	line	19
  7391                           ;adc.c: 19: CHS0 = 0;
  7392  088A  1283               	bcf	status, 5	;RP0=0, select bank0
  7393  088B  1303               	bcf	status, 6	;RP1=0, select bank0
  7394  088C  119F               	bcf	(251/8),(251)&7
  7395                           	line	20
  7396                           ;adc.c: 20: CHS1 = 1;
  7397  088D  161F               	bsf	(252/8),(252)&7
  7398                           	line	21
  7399                           ;adc.c: 21: CHS2 = 0;
  7400  088E  129F               	bcf	(253/8),(253)&7
  7401                           	line	22
  7402                           ;adc.c: 22: break;
  7403  088F  28B1               	goto	i1l9025
  7404                           	line	23
  7405                           ;adc.c: 23: case 3:
  7406                           	
  7407  0890                     i1l694:	
  7408                           	line	24
  7409                           ;adc.c: 24: CHS0 = 1;
  7410  0890  1283               	bcf	status, 5	;RP0=0, select bank0
  7411  0891  1303               	bcf	status, 6	;RP1=0, select bank0
  7412  0892  159F               	bsf	(251/8),(251)&7
  7413                           	line	25
  7414                           ;adc.c: 25: CHS1 = 1;
  7415  0893  161F               	bsf	(252/8),(252)&7
  7416                           	line	26
  7417                           ;adc.c: 26: CHS2 = 0;
  7418  0894  129F               	bcf	(253/8),(253)&7
  7419                           	line	27
  7420                           ;adc.c: 27: break;
  7421  0895  28B1               	goto	i1l9025
  7422                           	line	28
  7423                           ;adc.c: 28: case 4:
  7424                           	
  7425  0896                     i1l695:	
  7426                           	line	29
  7427                           ;adc.c: 29: CHS0 = 0;
  7428  0896  1283               	bcf	status, 5	;RP0=0, select bank0
  7429  0897  1303               	bcf	status, 6	;RP1=0, select bank0
  7430  0898  119F               	bcf	(251/8),(251)&7
  7431                           	line	30
  7432                           ;adc.c: 30: CHS1 = 0;
  7433  0899  121F               	bcf	(252/8),(252)&7
  7434                           	line	31
  7435                           ;adc.c: 31: CHS2 = 1;
  7436  089A  169F               	bsf	(253/8),(253)&7
  7437                           	line	32
  7438                           ;adc.c: 32: break;
  7439  089B  28B1               	goto	i1l9025
  7440                           	line	35
  7441                           ;adc.c: 35: default:
  7442                           	
  7443  089C                     i1l696:	
  7444                           	line	36
  7445                           	
  7446  089C                     i1l9017:	
  7447                           ;adc.c: 36: return 0;
  7448  089C  3000               	movlw	(0)
  7449  089D  28BC               	goto	i1l697
  7450                           	
  7451  089E                     i1l9019:	
  7452  089E  28BC               	goto	i1l697
  7453                           	line	37
  7454                           	
  7455  089F                     i1l9021:	
  7456                           ;adc.c: 37: }
  7457  089F  28B1               	goto	i1l9025
  7458                           	line	6
  7459                           	
  7460  08A0                     i1l689:	
  7461                           	
  7462  08A0                     i1l9023:	
  7463  08A0  0877               	movf	(adc_read_channel@channel),w
  7464                           	; Switch size 1, requested type "space"
  7465                           ; Number of cases is 5, Range of values is 0 to 4
  7466                           ; switch strategies available:
  7467                           ; Name         Instructions Cycles
  7468                           ; simple_byte           16     9 (average)
  7469                           ; direct_byte           23     8 (fixed)
  7470                           ; jumptable            260     6 (fixed)
  7471                           ; rangetable             9     6 (fixed)
  7472                           ; spacedrange           16     9 (fixed)
  7473                           ; locatedrange           5     3 (fixed)
  7474                           ;	Chosen strategy is simple_byte
  7475                           
  7476                           	opt asmopt_off
  7477  08A1  3A00               	xorlw	0^0	; case 0
  7478  08A2  1903               	skipnz
  7479  08A3  287E               	goto	i1l690
  7480  08A4  3A01               	xorlw	1^0	; case 1
  7481  08A5  1903               	skipnz
  7482  08A6  2884               	goto	i1l692
  7483  08A7  3A03               	xorlw	2^1	; case 2
  7484  08A8  1903               	skipnz
  7485  08A9  288A               	goto	i1l693
  7486  08AA  3A01               	xorlw	3^2	; case 3
  7487  08AB  1903               	skipnz
  7488  08AC  2890               	goto	i1l694
  7489  08AD  3A07               	xorlw	4^3	; case 4
  7490  08AE  1903               	skipnz
  7491  08AF  2896               	goto	i1l695
  7492  08B0  289C               	goto	i1l9017
  7493                           	opt asmopt_on
  7494                           
  7495                           	line	37
  7496                           	
  7497  08B1                     i1l691:	
  7498                           	line	39
  7499                           	
  7500  08B1                     i1l9025:	
  7501                           ;adc.c: 39: _delay((unsigned long)((50)*(20000000/4000000.0)));
  7502                           	opt asmopt_off
  7503  08B1  3053               movlw	83
  7504  08B2  00F6               movwf	(??_adc_read_channel+0)+0,f
  7505  08B3                     u490_27:
  7506  08B3  0BF6               decfsz	(??_adc_read_channel+0)+0,f
  7507  08B4  28B3               	goto	u490_27
  7508                           opt asmopt_on
  7509                           
  7510                           	line	41
  7511                           	
  7512  08B5                     i1l9027:	
  7513                           ;adc.c: 41: return adc_read();
  7514  08B5  160A  118A  2700   	fcall	_adc_read
              120A  158A         
  7515  08BA  0870               	movf	(0+(?_adc_read)),w
  7516  08BB  28BC               	goto	i1l697
  7517                           	
  7518  08BC                     i1l9029:	
  7519                           	line	43
  7520                           	
  7521  08BC                     i1l697:	
  7522  08BC  0008               	return
  7523                           	opt stack 0
  7524                           GLOBAL	__end_of_adc_read_channel
  7525  08BD                     	__end_of_adc_read_channel:
  7526 ;; =============== function _adc_read_channel ends ============
  7527                           
  7528                           	signat	_adc_read_channel,4217
  7529                           	global	___awmod
  7530                           psect	text780,local,class=CODE,delta=2
  7531                           global __ptext780
  7532  0A00                     __ptext780:
  7533                           
  7534 ;; *************** function ___awmod *****************
  7535 ;; Defined at:
  7536 ;;		line 5 in file "C:\Program Files (x86)\HI-TECH Software\PICC\9.83\sources\awmod.c"
  7537 ;; Parameters:    Size  Location     Type
  7538 ;;  divisor         2    0[COMMON] int 
  7539 ;;  dividend        2    2[COMMON] int 
  7540 ;; Auto vars:     Size  Location     Type
  7541 ;;  sign            1    6[COMMON] unsigned char 
  7542 ;;  counter         1    5[COMMON] unsigned char 
  7543 ;; Return value:  Size  Location     Type
  7544 ;;                  2    0[COMMON] int 
  7545 ;; Registers used:
  7546 ;;		wreg, status,2, status,0
  7547 ;; Tracked objects:
  7548 ;;		On entry : 0/0
  7549 ;;		On exit  : 0/0
  7550 ;;		Unchanged: 0/0
  7551 ;; Data sizes:     COMMON   BANK0   BANK1   BANK3   BANK2
  7552 ;;      Params:         4       0       0       0       0
  7553 ;;      Locals:         2       0       0       0       0
  7554 ;;      Temps:          1       0       0       0       0
  7555 ;;      Totals:         7       0       0       0       0
  7556 ;;Total ram usage:        7 bytes
  7557 ;; Hardware stack levels used:    1
  7558 ;; This function calls:
  7559 ;;		Nothing
  7560 ;; This function is called by:
  7561 ;;		_UpdateDisplay
  7562 ;; This function uses a non-reentrant model
  7563 ;;
  7564                           psect	text780
  7565                           	file	"C:\Program Files (x86)\HI-TECH Software\PICC\9.83\sources\awmod.c"
  7566                           	line	5
  7567                           	global	__size_of___awmod
  7568  0066                     	__size_of___awmod	equ	__end_of___awmod-___awmod
  7569                           	
  7570  0A00                     ___awmod:	
  7571                           	opt	stack 2
  7572                           ; Regs used in ___awmod: [wreg+status,2+status,0]
  7573                           	line	8
  7574                           	
  7575  0A00                     i1l9903:	
  7576  0A00  01F6               	clrf	(___awmod@sign)
  7577                           	line	9
  7578  0A01  1FF3               	btfss	(___awmod@dividend+1),7
  7579  0A02  2A04               	goto	u471_21
  7580  0A03  2A05               	goto	u471_20
  7581  0A04                     u471_21:
  7582  0A04  2A0E               	goto	i1l9907
  7583  0A05                     u471_20:
  7584                           	line	10
  7585                           	
  7586  0A05                     i1l9905:	
  7587  0A05  09F2               	comf	(___awmod@dividend),f
  7588  0A06  09F3               	comf	(___awmod@dividend+1),f
  7589  0A07  0AF2               	incf	(___awmod@dividend),f
  7590  0A08  1903               	skipnz
  7591  0A09  0AF3               	incf	(___awmod@dividend+1),f
  7592                           	line	11
  7593  0A0A  01F6               	clrf	(___awmod@sign)
  7594  0A0B  1403               	bsf	status,0
  7595  0A0C  0DF6               	rlf	(___awmod@sign),f
  7596  0A0D  2A0E               	goto	i1l9907
  7597                           	line	12
  7598                           	
  7599  0A0E                     i1l6053:	
  7600                           	line	13
  7601                           	
  7602  0A0E                     i1l9907:	
  7603  0A0E  1FF1               	btfss	(___awmod@divisor+1),7
  7604  0A0F  2A11               	goto	u472_21
  7605  0A10  2A12               	goto	u472_20
  7606  0A11                     u472_21:
  7607  0A11  2A18               	goto	i1l9911
  7608  0A12                     u472_20:
  7609                           	line	14
  7610                           	
  7611  0A12                     i1l9909:	
  7612  0A12  09F0               	comf	(___awmod@divisor),f
  7613  0A13  09F1               	comf	(___awmod@divisor+1),f
  7614  0A14  0AF0               	incf	(___awmod@divisor),f
  7615  0A15  1903               	skipnz
  7616  0A16  0AF1               	incf	(___awmod@divisor+1),f
  7617  0A17  2A18               	goto	i1l9911
  7618                           	
  7619  0A18                     i1l6054:	
  7620                           	line	15
  7621                           	
  7622  0A18                     i1l9911:	
  7623  0A18  0871               	movf	(___awmod@divisor+1),w
  7624  0A19  0470               	iorwf	(___awmod@divisor),w
  7625  0A1A  1903               	skipnz
  7626  0A1B  2A1D               	goto	u473_21
  7627  0A1C  2A1E               	goto	u473_20
  7628  0A1D                     u473_21:
  7629  0A1D  2A54               	goto	i1l9929
  7630  0A1E                     u473_20:
  7631                           	line	16
  7632                           	
  7633  0A1E                     i1l9913:	
  7634  0A1E  01F5               	clrf	(___awmod@counter)
  7635  0A1F  1403               	bsf	status,0
  7636  0A20  0DF5               	rlf	(___awmod@counter),f
  7637                           	line	17
  7638  0A21  2A2E               	goto	i1l9919
  7639                           	
  7640  0A22                     i1l6057:	
  7641                           	line	18
  7642                           	
  7643  0A22                     i1l9915:	
  7644  0A22  3001               	movlw	01h
  7645                           	
  7646  0A23                     u474_25:
  7647  0A23  1003               	clrc
  7648  0A24  0DF0               	rlf	(___awmod@divisor),f
  7649  0A25  0DF1               	rlf	(___awmod@divisor+1),f
  7650  0A26  3EFF               	addlw	-1
  7651  0A27  1D03               	skipz
  7652  0A28  2A23               	goto	u474_25
  7653                           	line	19
  7654                           	
  7655  0A29                     i1l9917:	
  7656  0A29  3001               	movlw	(01h)
  7657  0A2A  00F4               	movwf	(??___awmod+0)+0
  7658  0A2B  0874               	movf	(??___awmod+0)+0,w
  7659  0A2C  07F5               	addwf	(___awmod@counter),f
  7660  0A2D  2A2E               	goto	i1l9919
  7661                           	line	20
  7662                           	
  7663  0A2E                     i1l6056:	
  7664                           	line	17
  7665                           	
  7666  0A2E                     i1l9919:	
  7667  0A2E  1FF1               	btfss	(___awmod@divisor+1),(15)&7
  7668  0A2F  2A31               	goto	u475_21
  7669  0A30  2A32               	goto	u475_20
  7670  0A31                     u475_21:
  7671  0A31  2A22               	goto	i1l9915
  7672  0A32                     u475_20:
  7673  0A32  2A34               	goto	i1l9921
  7674                           	
  7675  0A33                     i1l6058:	
  7676  0A33  2A34               	goto	i1l9921
  7677                           	line	21
  7678                           	
  7679  0A34                     i1l6059:	
  7680                           	line	22
  7681                           	
  7682  0A34                     i1l9921:	
  7683  0A34  0871               	movf	(___awmod@divisor+1),w
  7684  0A35  0273               	subwf	(___awmod@dividend+1),w
  7685  0A36  1D03               	skipz
  7686  0A37  2A3A               	goto	u476_25
  7687  0A38  0870               	movf	(___awmod@divisor),w
  7688  0A39  0272               	subwf	(___awmod@dividend),w
  7689  0A3A                     u476_25:
  7690  0A3A  1C03               	skipc
  7691  0A3B  2A3D               	goto	u476_21
  7692  0A3C  2A3E               	goto	u476_20
  7693  0A3D                     u476_21:
  7694  0A3D  2A45               	goto	i1l9925
  7695  0A3E                     u476_20:
  7696                           	line	23
  7697                           	
  7698  0A3E                     i1l9923:	
  7699  0A3E  0870               	movf	(___awmod@divisor),w
  7700  0A3F  02F2               	subwf	(___awmod@dividend),f
  7701  0A40  0871               	movf	(___awmod@divisor+1),w
  7702  0A41  1C03               	skipc
  7703  0A42  03F3               	decf	(___awmod@dividend+1),f
  7704  0A43  02F3               	subwf	(___awmod@dividend+1),f
  7705  0A44  2A45               	goto	i1l9925
  7706                           	
  7707  0A45                     i1l6060:	
  7708                           	line	24
  7709                           	
  7710  0A45                     i1l9925:	
  7711  0A45  3001               	movlw	01h
  7712                           	
  7713  0A46                     u477_25:
  7714  0A46  1003               	clrc
  7715  0A47  0CF1               	rrf	(___awmod@divisor+1),f
  7716  0A48  0CF0               	rrf	(___awmod@divisor),f
  7717  0A49  3EFF               	addlw	-1
  7718  0A4A  1D03               	skipz
  7719  0A4B  2A46               	goto	u477_25
  7720                           	line	25
  7721                           	
  7722  0A4C                     i1l9927:	
  7723  0A4C  3001               	movlw	low(01h)
  7724  0A4D  02F5               	subwf	(___awmod@counter),f
  7725  0A4E  1D03               	btfss	status,2
  7726  0A4F  2A51               	goto	u478_21
  7727  0A50  2A52               	goto	u478_20
  7728  0A51                     u478_21:
  7729  0A51  2A34               	goto	i1l9921
  7730  0A52                     u478_20:
  7731  0A52  2A54               	goto	i1l9929
  7732                           	
  7733  0A53                     i1l6061:	
  7734  0A53  2A54               	goto	i1l9929
  7735                           	line	26
  7736                           	
  7737  0A54                     i1l6055:	
  7738                           	line	27
  7739                           	
  7740  0A54                     i1l9929:	
  7741  0A54  0876               	movf	(___awmod@sign),w
  7742  0A55  1D03               	skipz
  7743  0A56  2A58               	goto	u479_20
  7744  0A57  2A5E               	goto	i1l9933
  7745  0A58                     u479_20:
  7746                           	line	28
  7747                           	
  7748  0A58                     i1l9931:	
  7749  0A58  09F2               	comf	(___awmod@dividend),f
  7750  0A59  09F3               	comf	(___awmod@dividend+1),f
  7751  0A5A  0AF2               	incf	(___awmod@dividend),f
  7752  0A5B  1903               	skipnz
  7753  0A5C  0AF3               	incf	(___awmod@dividend+1),f
  7754  0A5D  2A5E               	goto	i1l9933
  7755                           	
  7756  0A5E                     i1l6062:	
  7757                           	line	29
  7758                           	
  7759  0A5E                     i1l9933:	
  7760  0A5E  0873               	movf	(___awmod@dividend+1),w
  7761  0A5F  01F1               	clrf	(?___awmod+1)
  7762  0A60  07F1               	addwf	(?___awmod+1)
  7763  0A61  0872               	movf	(___awmod@dividend),w
  7764  0A62  01F0               	clrf	(?___awmod)
  7765  0A63  07F0               	addwf	(?___awmod)
  7766                           
  7767  0A64  2A65               	goto	i1l6063
  7768                           	
  7769  0A65                     i1l9935:	
  7770                           	line	30
  7771                           	
  7772  0A65                     i1l6063:	
  7773  0A65  0008               	return
  7774                           	opt stack 0
  7775                           GLOBAL	__end_of___awmod
  7776  0A66                     	__end_of___awmod:
  7777 ;; =============== function ___awmod ends ============
  7778                           
  7779                           	signat	___awmod,8314
  7780                           	global	___ftge
  7781                           psect	text781,local,class=CODE,delta=2
  7782                           global __ptext781
  7783  0ACD                     __ptext781:
  7784                           
  7785 ;; *************** function ___ftge *****************
  7786 ;; Defined at:
  7787 ;;		line 5 in file "C:\Program Files (x86)\HI-TECH Software\PICC\9.83\sources\ftge.c"
  7788 ;; Parameters:    Size  Location     Type
  7789 ;;  ff1             3    8[COMMON] float 
  7790 ;;  ff2             3   11[COMMON] float 
  7791 ;; Auto vars:     Size  Location     Type
  7792 ;;		None
  7793 ;; Return value:  Size  Location     Type
  7794 ;;		None               void
  7795 ;; Registers used:
  7796 ;;		wreg, status,2, status,0
  7797 ;; Tracked objects:
  7798 ;;		On entry : 0/0
  7799 ;;		On exit  : 0/0
  7800 ;;		Unchanged: 0/0
  7801 ;; Data sizes:     COMMON   BANK0   BANK1   BANK3   BANK2
  7802 ;;      Params:         6       0       0       0       0
  7803 ;;      Locals:         0       0       0       0       0
  7804 ;;      Temps:          0       6       0       0       0
  7805 ;;      Totals:         6       6       0       0       0
  7806 ;;Total ram usage:       12 bytes
  7807 ;; Hardware stack levels used:    1
  7808 ;; This function calls:
  7809 ;;		Nothing
  7810 ;; This function is called by:
  7811 ;;		_ADCconvert
  7812 ;; This function uses a non-reentrant model
  7813 ;;
  7814                           psect	text781
  7815                           	file	"C:\Program Files (x86)\HI-TECH Software\PICC\9.83\sources\ftge.c"
  7816                           	line	5
  7817                           	global	__size_of___ftge
  7818  0070                     	__size_of___ftge	equ	__end_of___ftge-___ftge
  7819                           	
  7820  0ACD                     ___ftge:	
  7821                           	opt	stack 1
  7822                           ; Regs used in ___ftge: [wreg+status,2+status,0]
  7823                           	line	6
  7824                           	
  7825  0ACD                     i1l9883:	
  7826  0ACD  1FFA               	btfss	(___ftge@ff1+2),(23)&7
  7827  0ACE  2AD0               	goto	u466_21
  7828  0ACF  2AD1               	goto	u466_20
  7829  0AD0                     u466_21:
  7830  0AD0  2AF9               	goto	i1l9887
  7831  0AD1                     u466_20:
  7832                           	line	7
  7833                           	
  7834  0AD1                     i1l9885:	
  7835  0AD1  3000               	movlw	0
  7836  0AD2  1283               	bcf	status, 5	;RP0=0, select bank0
  7837  0AD3  1303               	bcf	status, 6	;RP1=0, select bank0
  7838  0AD4  00A0               	movwf	((??___ftge+0)+0)
  7839  0AD5  3000               	movlw	0
  7840  0AD6  00A1               	movwf	((??___ftge+0)+0+1)
  7841  0AD7  3080               	movlw	080h
  7842  0AD8  00A2               	movwf	((??___ftge+0)+0+2)
  7843  0AD9  0978               	comf	(___ftge@ff1),w
  7844  0ADA  00A3               	movwf	(??___ftge+3)+0
  7845  0ADB  0979               	comf	(___ftge@ff1+1),w
  7846  0ADC  00A4               	movwf	((??___ftge+3)+0+1)
  7847  0ADD  097A               	comf	(___ftge@ff1+2),w
  7848  0ADE  00A5               	movwf	((??___ftge+3)+0+2)
  7849  0ADF  0AA3               	incf	(??___ftge+3)+0,f
  7850  0AE0  1903               	skipnz
  7851  0AE1  0AA4               	incf	((??___ftge+3)+0+1),f
  7852  0AE2  1903               	skipnz
  7853  0AE3  0AA5               	incf	((??___ftge+3)+0+2),f
  7854  0AE4  0823               	movf	0+(??___ftge+3)+0,w
  7855  0AE5  07A0               	addwf	(??___ftge+0)+0,f
  7856  0AE6  0824               	movf	1+(??___ftge+3)+0,w
  7857  0AE7  1803               	skipnc
  7858  0AE8  0F24               	incfsz	1+(??___ftge+3)+0,w
  7859  0AE9  2AEB               	goto	u467_21
  7860  0AEA  2AEC               	goto	u467_22
  7861  0AEB                     u467_21:
  7862  0AEB  07A1               	addwf	(??___ftge+0)+1,f
  7863                           	
  7864  0AEC                     u467_22:
  7865  0AEC  0825               	movf	2+(??___ftge+3)+0,w
  7866  0AED  1803               	skipnc
  7867  0AEE  0F25               	incfsz	2+(??___ftge+3)+0,w
  7868  0AEF  2AF1               	goto	u467_23
  7869  0AF0  2AF2               	goto	u467_24
  7870  0AF1                     u467_23:
  7871  0AF1  07A2               	addwf	(??___ftge+0)+2,f
  7872                           	
  7873  0AF2                     u467_24:
  7874  0AF2  0820               	movf	0+(??___ftge+0)+0,w
  7875  0AF3  00F8               	movwf	(___ftge@ff1)
  7876  0AF4  0821               	movf	1+(??___ftge+0)+0,w
  7877  0AF5  00F9               	movwf	(___ftge@ff1+1)
  7878  0AF6  0822               	movf	2+(??___ftge+0)+0,w
  7879  0AF7  00FA               	movwf	(___ftge@ff1+2)
  7880  0AF8  2AF9               	goto	i1l9887
  7881                           	
  7882  0AF9                     i1l6012:	
  7883                           	line	8
  7884                           	
  7885  0AF9                     i1l9887:	
  7886  0AF9  1FFD               	btfss	(___ftge@ff2+2),(23)&7
  7887  0AFA  2AFC               	goto	u468_21
  7888  0AFB  2AFD               	goto	u468_20
  7889  0AFC                     u468_21:
  7890  0AFC  2B25               	goto	i1l9891
  7891  0AFD                     u468_20:
  7892                           	line	9
  7893                           	
  7894  0AFD                     i1l9889:	
  7895  0AFD  3000               	movlw	0
  7896  0AFE  1283               	bcf	status, 5	;RP0=0, select bank0
  7897  0AFF  1303               	bcf	status, 6	;RP1=0, select bank0
  7898  0B00  00A0               	movwf	((??___ftge+0)+0)
  7899  0B01  3000               	movlw	0
  7900  0B02  00A1               	movwf	((??___ftge+0)+0+1)
  7901  0B03  3080               	movlw	080h
  7902  0B04  00A2               	movwf	((??___ftge+0)+0+2)
  7903  0B05  097B               	comf	(___ftge@ff2),w
  7904  0B06  00A3               	movwf	(??___ftge+3)+0
  7905  0B07  097C               	comf	(___ftge@ff2+1),w
  7906  0B08  00A4               	movwf	((??___ftge+3)+0+1)
  7907  0B09  097D               	comf	(___ftge@ff2+2),w
  7908  0B0A  00A5               	movwf	((??___ftge+3)+0+2)
  7909  0B0B  0AA3               	incf	(??___ftge+3)+0,f
  7910  0B0C  1903               	skipnz
  7911  0B0D  0AA4               	incf	((??___ftge+3)+0+1),f
  7912  0B0E  1903               	skipnz
  7913  0B0F  0AA5               	incf	((??___ftge+3)+0+2),f
  7914  0B10  0823               	movf	0+(??___ftge+3)+0,w
  7915  0B11  07A0               	addwf	(??___ftge+0)+0,f
  7916  0B12  0824               	movf	1+(??___ftge+3)+0,w
  7917  0B13  1803               	skipnc
  7918  0B14  0F24               	incfsz	1+(??___ftge+3)+0,w
  7919  0B15  2B17               	goto	u469_21
  7920  0B16  2B18               	goto	u469_22
  7921  0B17                     u469_21:
  7922  0B17  07A1               	addwf	(??___ftge+0)+1,f
  7923                           	
  7924  0B18                     u469_22:
  7925  0B18  0825               	movf	2+(??___ftge+3)+0,w
  7926  0B19  1803               	skipnc
  7927  0B1A  0F25               	incfsz	2+(??___ftge+3)+0,w
  7928  0B1B  2B1D               	goto	u469_23
  7929  0B1C  2B1E               	goto	u469_24
  7930  0B1D                     u469_23:
  7931  0B1D  07A2               	addwf	(??___ftge+0)+2,f
  7932                           	
  7933  0B1E                     u469_24:
  7934  0B1E  0820               	movf	0+(??___ftge+0)+0,w
  7935  0B1F  00FB               	movwf	(___ftge@ff2)
  7936  0B20  0821               	movf	1+(??___ftge+0)+0,w
  7937  0B21  00FC               	movwf	(___ftge@ff2+1)
  7938  0B22  0822               	movf	2+(??___ftge+0)+0,w
  7939  0B23  00FD               	movwf	(___ftge@ff2+2)
  7940  0B24  2B25               	goto	i1l9891
  7941                           	
  7942  0B25                     i1l6013:	
  7943                           	line	10
  7944                           	
  7945  0B25                     i1l9891:	
  7946  0B25  3080               	movlw	080h
  7947  0B26  06FA               	xorwf	(___ftge@ff1+2),f
  7948                           	line	11
  7949                           	
  7950  0B27                     i1l9893:	
  7951  0B27  3080               	movlw	080h
  7952  0B28  06FD               	xorwf	(___ftge@ff2+2),f
  7953                           	line	12
  7954                           	
  7955  0B29                     i1l9895:	
  7956  0B29  087D               	movf	(___ftge@ff2+2),w
  7957  0B2A  027A               	subwf	(___ftge@ff1+2),w
  7958  0B2B  1D03               	skipz
  7959  0B2C  2B33               	goto	u470_25
  7960  0B2D  087C               	movf	(___ftge@ff2+1),w
  7961  0B2E  0279               	subwf	(___ftge@ff1+1),w
  7962  0B2F  1D03               	skipz
  7963  0B30  2B33               	goto	u470_25
  7964  0B31  087B               	movf	(___ftge@ff2),w
  7965  0B32  0278               	subwf	(___ftge@ff1),w
  7966  0B33                     u470_25:
  7967  0B33  1803               	skipnc
  7968  0B34  2B36               	goto	u470_21
  7969  0B35  2B37               	goto	u470_20
  7970  0B36                     u470_21:
  7971  0B36  2B39               	goto	i1l9899
  7972  0B37                     u470_20:
  7973                           	
  7974  0B37                     i1l9897:	
  7975  0B37  1003               	clrc
  7976                           	
  7977  0B38  2B3C               	goto	i1l6014
  7978                           	
  7979  0B39                     i1l9007:	
  7980                           	
  7981  0B39                     i1l9899:	
  7982  0B39  1403               	setc
  7983                           	
  7984  0B3A  2B3C               	goto	i1l6014
  7985                           	
  7986  0B3B                     i1l9009:	
  7987  0B3B  2B3C               	goto	i1l6014
  7988                           	
  7989  0B3C                     i1l9901:	
  7990                           	line	13
  7991                           	
  7992  0B3C                     i1l6014:	
  7993  0B3C  0008               	return
  7994                           	opt stack 0
  7995                           GLOBAL	__end_of___ftge
  7996  0B3D                     	__end_of___ftge:
  7997 ;; =============== function ___ftge ends ============
  7998                           
  7999                           	signat	___ftge,8312
  8000                           	global	___ftneg
  8001                           psect	text782,local,class=CODE,delta=2
  8002                           global __ptext782
  8003  163F                     __ptext782:
  8004                           
  8005 ;; *************** function ___ftneg *****************
  8006 ;; Defined at:
  8007 ;;		line 16 in file "C:\Program Files (x86)\HI-TECH Software\PICC\9.83\sources\ftneg.c"
  8008 ;; Parameters:    Size  Location     Type
  8009 ;;  f1              3    8[COMMON] float 
  8010 ;; Auto vars:     Size  Location     Type
  8011 ;;		None
  8012 ;; Return value:  Size  Location     Type
  8013 ;;                  3    8[COMMON] float 
  8014 ;; Registers used:
  8015 ;;		wreg
  8016 ;; Tracked objects:
  8017 ;;		On entry : 0/0
  8018 ;;		On exit  : 0/0
  8019 ;;		Unchanged: 0/0
  8020 ;; Data sizes:     COMMON   BANK0   BANK1   BANK3   BANK2
  8021 ;;      Params:         3       0       0       0       0
  8022 ;;      Locals:         0       0       0       0       0
  8023 ;;      Temps:          0       0       0       0       0
  8024 ;;      Totals:         3       0       0       0       0
  8025 ;;Total ram usage:        3 bytes
  8026 ;; Hardware stack levels used:    1
  8027 ;; This function calls:
  8028 ;;		Nothing
  8029 ;; This function is called by:
  8030 ;;		_ADCconvert
  8031 ;; This function uses a non-reentrant model
  8032 ;;
  8033                           psect	text782
  8034                           	file	"C:\Program Files (x86)\HI-TECH Software\PICC\9.83\sources\ftneg.c"
  8035                           	line	16
  8036                           	global	__size_of___ftneg
  8037  000C                     	__size_of___ftneg	equ	__end_of___ftneg-___ftneg
  8038                           	
  8039  163F                     ___ftneg:	
  8040                           	opt	stack 1
  8041                           ; Regs used in ___ftneg: [wreg]
  8042                           	line	17
  8043                           	
  8044  163F                     i1l9875:	
  8045  163F  087A               	movf	(___ftneg@f1+2),w
  8046  1640  0479               	iorwf	(___ftneg@f1+1),w
  8047  1641  0478               	iorwf	(___ftneg@f1),w
  8048  1642  1903               	skipnz
  8049  1643  2E45               	goto	u465_21
  8050  1644  2E46               	goto	u465_20
  8051  1645                     u465_21:
  8052  1645  2E49               	goto	i1l9879
  8053  1646                     u465_20:
  8054                           	line	18
  8055                           	
  8056  1646                     i1l9877:	
  8057  1646  3080               	movlw	080h
  8058  1647  06FA               	xorwf	(___ftneg@f1+2),f
  8059  1648  2E49               	goto	i1l9879
  8060                           	
  8061  1649                     i1l6008:	
  8062                           	line	19
  8063                           	
  8064  1649                     i1l9879:	
  8065  1649  2E4A               	goto	i1l6009
  8066                           	
  8067  164A                     i1l9881:	
  8068                           	line	20
  8069                           	
  8070  164A                     i1l6009:	
  8071  164A  0008               	return
  8072                           	opt stack 0
  8073                           GLOBAL	__end_of___ftneg
  8074  164B                     	__end_of___ftneg:
  8075 ;; =============== function ___ftneg ends ============
  8076                           
  8077                           	signat	___ftneg,4219
  8078                           	global	___fttol
  8079                           psect	text783,local,class=CODE,delta=2
  8080                           global __ptext783
  8081  0B3D                     __ptext783:
  8082                           
  8083 ;; *************** function ___fttol *****************
  8084 ;; Defined at:
  8085 ;;		line 45 in file "C:\Program Files (x86)\HI-TECH Software\PICC\9.83\sources\fttol.c"
  8086 ;; Parameters:    Size  Location     Type
  8087 ;;  f1              3    0[BANK0 ] float 
  8088 ;; Auto vars:     Size  Location     Type
  8089 ;;  lval            4    9[BANK0 ] unsigned long 
  8090 ;;  exp1            1   13[BANK0 ] unsigned char 
  8091 ;;  sign1           1    8[BANK0 ] unsigned char 
  8092 ;; Return value:  Size  Location     Type
  8093 ;;                  4    0[BANK0 ] long 
  8094 ;; Registers used:
  8095 ;;		wreg, status,2, status,0
  8096 ;; Tracked objects:
  8097 ;;		On entry : 0/0
  8098 ;;		On exit  : 0/0
  8099 ;;		Unchanged: 0/0
  8100 ;; Data sizes:     COMMON   BANK0   BANK1   BANK3   BANK2
  8101 ;;      Params:         0       4       0       0       0
  8102 ;;      Locals:         0       6       0       0       0
  8103 ;;      Temps:          0       4       0       0       0
  8104 ;;      Totals:         0      14       0       0       0
  8105 ;;Total ram usage:       14 bytes
  8106 ;; Hardware stack levels used:    1
  8107 ;; This function calls:
  8108 ;;		Nothing
  8109 ;; This function is called by:
  8110 ;;		_ADCconvert
  8111 ;; This function uses a non-reentrant model
  8112 ;;
  8113                           psect	text783
  8114                           	file	"C:\Program Files (x86)\HI-TECH Software\PICC\9.83\sources\fttol.c"
  8115                           	line	45
  8116                           	global	__size_of___fttol
  8117  00A6                     	__size_of___fttol	equ	__end_of___fttol-___fttol
  8118                           	
  8119  0B3D                     ___fttol:	
  8120                           	opt	stack 1
  8121                           ; Regs used in ___fttol: [wreg+status,2+status,0]
  8122                           	line	49
  8123                           	
  8124  0B3D                     i1l9811:	
  8125  0B3D  1283               	bcf	status, 5	;RP0=0, select bank0
  8126  0B3E  1303               	bcf	status, 6	;RP1=0, select bank0
  8127  0B3F  0820               	movf	(___fttol@f1),w
  8128  0B40  00A4               	movwf	((??___fttol+0)+0)
  8129  0B41  0821               	movf	(___fttol@f1+1),w
  8130  0B42  00A5               	movwf	((??___fttol+0)+0+1)
  8131  0B43  0822               	movf	(___fttol@f1+2),w
  8132  0B44  00A6               	movwf	((??___fttol+0)+0+2)
  8133  0B45  1003               	clrc
  8134  0B46  0D25               	rlf	(??___fttol+0)+1,w
  8135  0B47  0D26               	rlf	(??___fttol+0)+2,w
  8136  0B48  00A7               	movwf	(??___fttol+3)+0
  8137  0B49  0827               	movf	(??___fttol+3)+0,w
  8138  0B4A  00AD               	movwf	(___fttol@exp1)
  8139  0B4B  08AD               	movf	((___fttol@exp1)),f
  8140  0B4C  1D03               	skipz
  8141  0B4D  2B4F               	goto	u453_21
  8142  0B4E  2B50               	goto	u453_20
  8143  0B4F                     u453_21:
  8144  0B4F  2B5A               	goto	i1l9817
  8145  0B50                     u453_20:
  8146                           	line	50
  8147                           	
  8148  0B50                     i1l9813:	
  8149  0B50  3000               	movlw	0
  8150  0B51  00A3               	movwf	(?___fttol+3)
  8151  0B52  3000               	movlw	0
  8152  0B53  00A2               	movwf	(?___fttol+2)
  8153  0B54  3000               	movlw	0
  8154  0B55  00A1               	movwf	(?___fttol+1)
  8155  0B56  3000               	movlw	0
  8156  0B57  00A0               	movwf	(?___fttol)
  8157                           
  8158  0B58  2BE2               	goto	i1l5955
  8159                           	
  8160  0B59                     i1l9815:	
  8161  0B59  2BE2               	goto	i1l5955
  8162                           	
  8163  0B5A                     i1l5954:	
  8164                           	line	51
  8165                           	
  8166  0B5A                     i1l9817:	
  8167  0B5A  0820               	movf	(___fttol@f1),w
  8168  0B5B  00A4               	movwf	((??___fttol+0)+0)
  8169  0B5C  0821               	movf	(___fttol@f1+1),w
  8170  0B5D  00A5               	movwf	((??___fttol+0)+0+1)
  8171  0B5E  0822               	movf	(___fttol@f1+2),w
  8172  0B5F  00A6               	movwf	((??___fttol+0)+0+2)
  8173  0B60  3017               	movlw	017h
  8174  0B61                     u454_25:
  8175  0B61  1003               	clrc
  8176  0B62  0CA6               	rrf	(??___fttol+0)+2,f
  8177  0B63  0CA5               	rrf	(??___fttol+0)+1,f
  8178  0B64  0CA4               	rrf	(??___fttol+0)+0,f
  8179  0B65                     u454_20:
  8180  0B65  3EFF               	addlw	-1
  8181  0B66  1D03               	skipz
  8182  0B67  2B61               	goto	u454_25
  8183  0B68  0824               	movf	0+(??___fttol+0)+0,w
  8184  0B69  00A7               	movwf	(??___fttol+3)+0
  8185  0B6A  0827               	movf	(??___fttol+3)+0,w
  8186  0B6B  00A8               	movwf	(___fttol@sign1)
  8187                           	line	52
  8188                           	
  8189  0B6C                     i1l9819:	
  8190  0B6C  17A1               	bsf	(___fttol@f1)+(15/8),(15)&7
  8191                           	line	53
  8192                           	
  8193  0B6D                     i1l9821:	
  8194  0B6D  30FF               	movlw	0FFh
  8195  0B6E  05A0               	andwf	(___fttol@f1),f
  8196  0B6F  30FF               	movlw	0FFh
  8197  0B70  05A1               	andwf	(___fttol@f1+1),f
  8198  0B71  3000               	movlw	0
  8199  0B72  05A2               	andwf	(___fttol@f1+2),f
  8200                           	line	54
  8201                           	
  8202  0B73                     i1l9823:	
  8203  0B73  0820               	movf	(___fttol@f1),w
  8204  0B74  00A9               	movwf	(___fttol@lval)
  8205  0B75  0821               	movf	(___fttol@f1+1),w
  8206  0B76  00AA               	movwf	((___fttol@lval))+1
  8207  0B77  0822               	movf	(___fttol@f1+2),w
  8208  0B78  00AB               	movwf	((___fttol@lval))+2
  8209  0B79  01AC               	clrf	((___fttol@lval))+3
  8210                           	line	55
  8211                           	
  8212  0B7A                     i1l9825:	
  8213  0B7A  308E               	movlw	low(08Eh)
  8214  0B7B  02AD               	subwf	(___fttol@exp1),f
  8215                           	line	56
  8216                           	
  8217  0B7C                     i1l9827:	
  8218  0B7C  1FAD               	btfss	(___fttol@exp1),7
  8219  0B7D  2B7F               	goto	u455_21
  8220  0B7E  2B80               	goto	u455_20
  8221  0B7F                     u455_21:
  8222  0B7F  2BA5               	goto	i1l9837
  8223  0B80                     u455_20:
  8224                           	line	57
  8225                           	
  8226  0B80                     i1l9829:	
  8227  0B80  082D               	movf	(___fttol@exp1),w
  8228  0B81  3A80               	xorlw	80h
  8229  0B82  3E8F               	addlw	-((-15)^80h)
  8230  0B83  1803               	skipnc
  8231  0B84  2B86               	goto	u456_21
  8232  0B85  2B87               	goto	u456_20
  8233  0B86                     u456_21:
  8234  0B86  2B92               	goto	i1l9835
  8235  0B87                     u456_20:
  8236                           	line	58
  8237                           	
  8238  0B87                     i1l9831:	
  8239  0B87  3000               	movlw	0
  8240  0B88  00A3               	movwf	(?___fttol+3)
  8241  0B89  3000               	movlw	0
  8242  0B8A  00A2               	movwf	(?___fttol+2)
  8243  0B8B  3000               	movlw	0
  8244  0B8C  00A1               	movwf	(?___fttol+1)
  8245  0B8D  3000               	movlw	0
  8246  0B8E  00A0               	movwf	(?___fttol)
  8247                           
  8248  0B8F  2BE2               	goto	i1l5955
  8249                           	
  8250  0B90                     i1l9833:	
  8251  0B90  2BE2               	goto	i1l5955
  8252                           	
  8253  0B91                     i1l5957:	
  8254  0B91  2B92               	goto	i1l9835
  8255                           	line	59
  8256                           	
  8257  0B92                     i1l5958:	
  8258                           	line	60
  8259                           	
  8260  0B92                     i1l9835:	
  8261  0B92  3001               	movlw	01h
  8262  0B93                     u457_25:
  8263  0B93  1003               	clrc
  8264  0B94  0CAC               	rrf	(___fttol@lval+3),f
  8265  0B95  0CAB               	rrf	(___fttol@lval+2),f
  8266  0B96  0CAA               	rrf	(___fttol@lval+1),f
  8267  0B97  0CA9               	rrf	(___fttol@lval),f
  8268  0B98  3EFF               	addlw	-1
  8269  0B99  1D03               	skipz
  8270  0B9A  2B93               	goto	u457_25
  8271                           
  8272                           	line	61
  8273  0B9B  3001               	movlw	(01h)
  8274  0B9C  00A4               	movwf	(??___fttol+0)+0
  8275  0B9D  0824               	movf	(??___fttol+0)+0,w
  8276  0B9E  07AD               	addwf	(___fttol@exp1),f
  8277  0B9F  1D03               	btfss	status,2
  8278  0BA0  2BA2               	goto	u458_21
  8279  0BA1  2BA3               	goto	u458_20
  8280  0BA2                     u458_21:
  8281  0BA2  2B92               	goto	i1l9835
  8282  0BA3                     u458_20:
  8283  0BA3  2BC9               	goto	i1l9847
  8284                           	
  8285  0BA4                     i1l5959:	
  8286                           	line	62
  8287  0BA4  2BC9               	goto	i1l9847
  8288                           	
  8289  0BA5                     i1l5956:	
  8290                           	line	63
  8291                           	
  8292  0BA5                     i1l9837:	
  8293  0BA5  3018               	movlw	(018h)
  8294  0BA6  022D               	subwf	(___fttol@exp1),w
  8295  0BA7  1C03               	skipc
  8296  0BA8  2BAA               	goto	u459_21
  8297  0BA9  2BAB               	goto	u459_20
  8298  0BAA                     u459_21:
  8299  0BAA  2BC2               	goto	i1l9845
  8300  0BAB                     u459_20:
  8301                           	line	64
  8302                           	
  8303  0BAB                     i1l9839:	
  8304  0BAB  3000               	movlw	0
  8305  0BAC  00A3               	movwf	(?___fttol+3)
  8306  0BAD  3000               	movlw	0
  8307  0BAE  00A2               	movwf	(?___fttol+2)
  8308  0BAF  3000               	movlw	0
  8309  0BB0  00A1               	movwf	(?___fttol+1)
  8310  0BB1  3000               	movlw	0
  8311  0BB2  00A0               	movwf	(?___fttol)
  8312                           
  8313  0BB3  2BE2               	goto	i1l5955
  8314                           	
  8315  0BB4                     i1l9841:	
  8316  0BB4  2BE2               	goto	i1l5955
  8317                           	
  8318  0BB5                     i1l5961:	
  8319                           	line	65
  8320  0BB5  2BC2               	goto	i1l9845
  8321                           	
  8322  0BB6                     i1l5963:	
  8323                           	line	66
  8324                           	
  8325  0BB6                     i1l9843:	
  8326  0BB6  3001               	movlw	01h
  8327  0BB7  00A4               	movwf	(??___fttol+0)+0
  8328  0BB8                     u460_25:
  8329  0BB8  1003               	clrc
  8330  0BB9  0DA9               	rlf	(___fttol@lval),f
  8331  0BBA  0DAA               	rlf	(___fttol@lval+1),f
  8332  0BBB  0DAB               	rlf	(___fttol@lval+2),f
  8333  0BBC  0DAC               	rlf	(___fttol@lval+3),f
  8334  0BBD  0BA4               	decfsz	(??___fttol+0)+0
  8335  0BBE  2BB8               	goto	u460_25
  8336                           	line	67
  8337  0BBF  3001               	movlw	low(01h)
  8338  0BC0  02AD               	subwf	(___fttol@exp1),f
  8339  0BC1  2BC2               	goto	i1l9845
  8340                           	line	68
  8341                           	
  8342  0BC2                     i1l5962:	
  8343                           	line	65
  8344                           	
  8345  0BC2                     i1l9845:	
  8346  0BC2  08AD               	movf	(___fttol@exp1),f
  8347  0BC3  1D03               	skipz
  8348  0BC4  2BC6               	goto	u461_21
  8349  0BC5  2BC7               	goto	u461_20
  8350  0BC6                     u461_21:
  8351  0BC6  2BB6               	goto	i1l9843
  8352  0BC7                     u461_20:
  8353  0BC7  2BC9               	goto	i1l9847
  8354                           	
  8355  0BC8                     i1l5964:	
  8356  0BC8  2BC9               	goto	i1l9847
  8357                           	line	69
  8358                           	
  8359  0BC9                     i1l5960:	
  8360                           	line	70
  8361                           	
  8362  0BC9                     i1l9847:	
  8363  0BC9  0828               	movf	(___fttol@sign1),w
  8364  0BCA  1D03               	skipz
  8365  0BCB  2BCD               	goto	u462_20
  8366  0BCC  2BD9               	goto	i1l9851
  8367  0BCD                     u462_20:
  8368                           	line	71
  8369                           	
  8370  0BCD                     i1l9849:	
  8371  0BCD  09A9               	comf	(___fttol@lval),f
  8372  0BCE  09AA               	comf	(___fttol@lval+1),f
  8373  0BCF  09AB               	comf	(___fttol@lval+2),f
  8374  0BD0  09AC               	comf	(___fttol@lval+3),f
  8375  0BD1  0AA9               	incf	(___fttol@lval),f
  8376  0BD2  1903               	skipnz
  8377  0BD3  0AAA               	incf	(___fttol@lval+1),f
  8378  0BD4  1903               	skipnz
  8379  0BD5  0AAB               	incf	(___fttol@lval+2),f
  8380  0BD6  1903               	skipnz
  8381  0BD7  0AAC               	incf	(___fttol@lval+3),f
  8382  0BD8  2BD9               	goto	i1l9851
  8383                           	
  8384  0BD9                     i1l5965:	
  8385                           	line	72
  8386                           	
  8387  0BD9                     i1l9851:	
  8388  0BD9  082C               	movf	(___fttol@lval+3),w
  8389  0BDA  00A3               	movwf	(?___fttol+3)
  8390  0BDB  082B               	movf	(___fttol@lval+2),w
  8391  0BDC  00A2               	movwf	(?___fttol+2)
  8392  0BDD  082A               	movf	(___fttol@lval+1),w
  8393  0BDE  00A1               	movwf	(?___fttol+1)
  8394  0BDF  0829               	movf	(___fttol@lval),w
  8395  0BE0  00A0               	movwf	(?___fttol)
  8396                           
  8397  0BE1  2BE2               	goto	i1l5955
  8398                           	
  8399  0BE2                     i1l9853:	
  8400                           	line	73
  8401                           	
  8402  0BE2                     i1l5955:	
  8403  0BE2  0008               	return
  8404                           	opt stack 0
  8405                           GLOBAL	__end_of___fttol
  8406  0BE3                     	__end_of___fttol:
  8407 ;; =============== function ___fttol ends ============
  8408                           
  8409                           	signat	___fttol,4220
  8410                           	global	___ftpack
  8411                           psect	text784,local,class=CODE,delta=2
  8412                           global __ptext784
  8413  077F                     __ptext784:
  8414                           
  8415 ;; *************** function ___ftpack *****************
  8416 ;; Defined at:
  8417 ;;		line 63 in file "C:\Program Files (x86)\HI-TECH Software\PICC\9.83\sources\float.c"
  8418 ;; Parameters:    Size  Location     Type
  8419 ;;  arg             3    0[COMMON] unsigned um
  8420 ;;  exp             1    3[COMMON] unsigned char 
  8421 ;;  sign            1    4[COMMON] unsigned char 
  8422 ;; Auto vars:     Size  Location     Type
  8423 ;;		None
  8424 ;; Return value:  Size  Location     Type
  8425 ;;                  3    0[COMMON] float 
  8426 ;; Registers used:
  8427 ;;		wreg, status,2, status,0
  8428 ;; Tracked objects:
  8429 ;;		On entry : 0/0
  8430 ;;		On exit  : 0/0
  8431 ;;		Unchanged: 0/0
  8432 ;; Data sizes:     COMMON   BANK0   BANK1   BANK3   BANK2
  8433 ;;      Params:         5       0       0       0       0
  8434 ;;      Locals:         0       0       0       0       0
  8435 ;;      Temps:          3       0       0       0       0
  8436 ;;      Totals:         8       0       0       0       0
  8437 ;;Total ram usage:        8 bytes
  8438 ;; Hardware stack levels used:    1
  8439 ;; This function calls:
  8440 ;;		Nothing
  8441 ;; This function is called by:
  8442 ;;		___ftadd
  8443 ;;		___ftdiv
  8444 ;;		___ftmul
  8445 ;;		___lwtoft
  8446 ;;		___lbtoft
  8447 ;;		___abtoft
  8448 ;;		___awtoft
  8449 ;;		___altoft
  8450 ;;		___lltoft
  8451 ;;		___attoft
  8452 ;;		___lttoft
  8453 ;; This function uses a non-reentrant model
  8454 ;;
  8455                           psect	text784
  8456                           	file	"C:\Program Files (x86)\HI-TECH Software\PICC\9.83\sources\float.c"
  8457                           	line	63
  8458                           	global	__size_of___ftpack
  8459  007B                     	__size_of___ftpack	equ	__end_of___ftpack-___ftpack
  8460                           	
  8461  077F                     ___ftpack:	
  8462                           	opt	stack 0
  8463                           ; Regs used in ___ftpack: [wreg+status,2+status,0]
  8464                           	line	64
  8465                           	
  8466  077F                     i1l9683:	
  8467  077F  0873               	movf	(___ftpack@exp),w
  8468  0780  1D03               	skipz
  8469  0781  2F83               	goto	u420_20
  8470  0782  2F8B               	goto	i1l9687
  8471  0783                     u420_20:
  8472                           	
  8473  0783                     i1l9685:	
  8474  0783  0872               	movf	(___ftpack@arg+2),w
  8475  0784  0471               	iorwf	(___ftpack@arg+1),w
  8476  0785  0470               	iorwf	(___ftpack@arg),w
  8477  0786  1D03               	skipz
  8478  0787  2F89               	goto	u421_21
  8479  0788  2F8A               	goto	u421_20
  8480  0789                     u421_21:
  8481  0789  2FA1               	goto	i1l9693
  8482  078A                     u421_20:
  8483  078A  2F8B               	goto	i1l9687
  8484                           	
  8485  078B                     i1l6179:	
  8486                           	line	65
  8487                           	
  8488  078B                     i1l9687:	
  8489  078B  3000               	movlw	0x0
  8490  078C  00F0               	movwf	(?___ftpack)
  8491  078D  3000               	movlw	0x0
  8492  078E  00F1               	movwf	(?___ftpack+1)
  8493  078F  3000               	movlw	0x0
  8494  0790  00F2               	movwf	(?___ftpack+2)
  8495  0791  2FF9               	goto	i1l6180
  8496                           	
  8497  0792                     i1l9689:	
  8498  0792  2FF9               	goto	i1l6180
  8499                           	
  8500  0793                     i1l6177:	
  8501                           	line	66
  8502  0793  2FA1               	goto	i1l9693
  8503                           	
  8504  0794                     i1l6182:	
  8505                           	line	67
  8506                           	
  8507  0794                     i1l9691:	
  8508  0794  3001               	movlw	(01h)
  8509  0795  00F5               	movwf	(??___ftpack+0)+0
  8510  0796  0875               	movf	(??___ftpack+0)+0,w
  8511  0797  07F3               	addwf	(___ftpack@exp),f
  8512                           	line	68
  8513  0798  3001               	movlw	01h
  8514  0799                     u422_25:
  8515  0799  1003               	clrc
  8516  079A  0CF2               	rrf	(___ftpack@arg+2),f
  8517  079B  0CF1               	rrf	(___ftpack@arg+1),f
  8518  079C  0CF0               	rrf	(___ftpack@arg),f
  8519  079D  3EFF               	addlw	-1
  8520  079E  1D03               	skipz
  8521  079F  2F99               	goto	u422_25
  8522                           
  8523  07A0  2FA1               	goto	i1l9693
  8524                           	line	69
  8525                           	
  8526  07A1                     i1l6181:	
  8527                           	line	66
  8528                           	
  8529  07A1                     i1l9693:	
  8530  07A1  30FE               	movlw	low highword(0FE0000h)
  8531  07A2  0572               	andwf	(___ftpack@arg+2),w
  8532  07A3  1D03               	btfss	status,2
  8533  07A4  2FA6               	goto	u423_21
  8534  07A5  2FA7               	goto	u423_20
  8535  07A6                     u423_21:
  8536  07A6  2F94               	goto	i1l9691
  8537  07A7                     u423_20:
  8538  07A7  2FBF               	goto	i1l6184
  8539                           	
  8540  07A8                     i1l6183:	
  8541                           	line	70
  8542  07A8  2FBF               	goto	i1l6184
  8543                           	
  8544  07A9                     i1l6185:	
  8545                           	line	71
  8546                           	
  8547  07A9                     i1l9695:	
  8548  07A9  3001               	movlw	(01h)
  8549  07AA  00F5               	movwf	(??___ftpack+0)+0
  8550  07AB  0875               	movf	(??___ftpack+0)+0,w
  8551  07AC  07F3               	addwf	(___ftpack@exp),f
  8552                           	line	72
  8553                           	
  8554  07AD                     i1l9697:	
  8555  07AD  3001               	movlw	01h
  8556  07AE  07F0               	addwf	(___ftpack@arg),f
  8557  07AF  3000               	movlw	0
  8558  07B0  1803               	skipnc
  8559  07B1  3001               movlw 1
  8560  07B2  07F1               	addwf	(___ftpack@arg+1),f
  8561  07B3  3000               	movlw	0
  8562  07B4  1803               	skipnc
  8563  07B5  3001               movlw 1
  8564  07B6  07F2               	addwf	(___ftpack@arg+2),f
  8565                           	line	73
  8566                           	
  8567  07B7                     i1l9699:	
  8568  07B7  3001               	movlw	01h
  8569  07B8                     u424_25:
  8570  07B8  1003               	clrc
  8571  07B9  0CF2               	rrf	(___ftpack@arg+2),f
  8572  07BA  0CF1               	rrf	(___ftpack@arg+1),f
  8573  07BB  0CF0               	rrf	(___ftpack@arg),f
  8574  07BC  3EFF               	addlw	-1
  8575  07BD  1D03               	skipz
  8576  07BE  2FB8               	goto	u424_25
  8577                           
  8578                           	line	74
  8579                           	
  8580  07BF                     i1l6184:	
  8581                           	line	70
  8582  07BF  30FF               	movlw	low highword(0FF0000h)
  8583  07C0  0572               	andwf	(___ftpack@arg+2),w
  8584  07C1  1D03               	btfss	status,2
  8585  07C2  2FC4               	goto	u425_21
  8586  07C3  2FC5               	goto	u425_20
  8587  07C4                     u425_21:
  8588  07C4  2FA9               	goto	i1l9695
  8589  07C5                     u425_20:
  8590  07C5  2FD2               	goto	i1l9703
  8591                           	
  8592  07C6                     i1l6186:	
  8593                           	line	75
  8594  07C6  2FD2               	goto	i1l9703
  8595                           	
  8596  07C7                     i1l6188:	
  8597                           	line	76
  8598                           	
  8599  07C7                     i1l9701:	
  8600  07C7  3001               	movlw	low(01h)
  8601  07C8  02F3               	subwf	(___ftpack@exp),f
  8602                           	line	77
  8603  07C9  3001               	movlw	01h
  8604  07CA                     u426_25:
  8605  07CA  1003               	clrc
  8606  07CB  0DF0               	rlf	(___ftpack@arg),f
  8607  07CC  0DF1               	rlf	(___ftpack@arg+1),f
  8608  07CD  0DF2               	rlf	(___ftpack@arg+2),f
  8609  07CE  3EFF               	addlw	-1
  8610  07CF  1D03               	skipz
  8611  07D0  2FCA               	goto	u426_25
  8612  07D1  2FD2               	goto	i1l9703
  8613                           	line	78
  8614                           	
  8615  07D2                     i1l6187:	
  8616                           	line	75
  8617                           	
  8618  07D2                     i1l9703:	
  8619  07D2  1FF1               	btfss	(___ftpack@arg+1),(15)&7
  8620  07D3  2FD5               	goto	u427_21
  8621  07D4  2FD6               	goto	u427_20
  8622  07D5                     u427_21:
  8623  07D5  2FC7               	goto	i1l9701
  8624  07D6                     u427_20:
  8625                           	
  8626  07D6                     i1l6189:	
  8627                           	line	79
  8628  07D6  1873               	btfsc	(___ftpack@exp),(0)&7
  8629  07D7  2FD9               	goto	u428_21
  8630  07D8  2FDA               	goto	u428_20
  8631  07D9                     u428_21:
  8632  07D9  2FE0               	goto	i1l6190
  8633  07DA                     u428_20:
  8634                           	line	80
  8635                           	
  8636  07DA                     i1l9705:	
  8637  07DA  30FF               	movlw	0FFh
  8638  07DB  05F0               	andwf	(___ftpack@arg),f
  8639  07DC  307F               	movlw	07Fh
  8640  07DD  05F1               	andwf	(___ftpack@arg+1),f
  8641  07DE  30FF               	movlw	0FFh
  8642  07DF  05F2               	andwf	(___ftpack@arg+2),f
  8643                           	
  8644  07E0                     i1l6190:	
  8645                           	line	81
  8646  07E0  1003               	clrc
  8647  07E1  0CF3               	rrf	(___ftpack@exp),f
  8648                           
  8649                           	line	82
  8650                           	
  8651  07E2                     i1l9707:	
  8652  07E2  0873               	movf	(___ftpack@exp),w
  8653  07E3  00F5               	movwf	((??___ftpack+0)+0)
  8654  07E4  01F6               	clrf	((??___ftpack+0)+0+1)
  8655  07E5  01F7               	clrf	((??___ftpack+0)+0+2)
  8656  07E6  3010               	movlw	010h
  8657  07E7                     u429_25:
  8658  07E7  1003               	clrc
  8659  07E8  0DF5               	rlf	(??___ftpack+0)+0,f
  8660  07E9  0DF6               	rlf	(??___ftpack+0)+1,f
  8661  07EA  0DF7               	rlf	(??___ftpack+0)+2,f
  8662  07EB                     u429_20:
  8663  07EB  3EFF               	addlw	-1
  8664  07EC  1D03               	skipz
  8665  07ED  2FE7               	goto	u429_25
  8666  07EE  0875               	movf	0+(??___ftpack+0)+0,w
  8667  07EF  04F0               	iorwf	(___ftpack@arg),f
  8668  07F0  0876               	movf	1+(??___ftpack+0)+0,w
  8669  07F1  04F1               	iorwf	(___ftpack@arg+1),f
  8670  07F2  0877               	movf	2+(??___ftpack+0)+0,w
  8671  07F3  04F2               	iorwf	(___ftpack@arg+2),f
  8672                           	line	83
  8673                           	
  8674  07F4                     i1l9709:	
  8675  07F4  0874               	movf	(___ftpack@sign),w
  8676  07F5  1D03               	skipz
  8677  07F6  2FF8               	goto	u430_20
  8678  07F7  2FF9               	goto	i1l6191
  8679  07F8                     u430_20:
  8680                           	line	84
  8681                           	
  8682  07F8                     i1l9711:	
  8683  07F8  17F2               	bsf	(___ftpack@arg)+(23/8),(23)&7
  8684                           	
  8685  07F9                     i1l6191:	
  8686                           	line	85
  8687                           	line	86
  8688                           	
  8689  07F9                     i1l6180:	
  8690  07F9  0008               	return
  8691                           	opt stack 0
  8692                           GLOBAL	__end_of___ftpack
  8693  07FA                     	__end_of___ftpack:
  8694 ;; =============== function ___ftpack ends ============
  8695                           
  8696                           	signat	___ftpack,12411
  8697                           	global	___lwmod
  8698                           psect	text785,local,class=CODE,delta=2
  8699                           global __ptext785
  8700  08BD                     __ptext785:
  8701                           
  8702 ;; *************** function ___lwmod *****************
  8703 ;; Defined at:
  8704 ;;		line 5 in file "C:\Program Files (x86)\HI-TECH Software\PICC\9.83\sources\lwmod.c"
  8705 ;; Parameters:    Size  Location     Type
  8706 ;;  divisor         2    0[BANK0 ] unsigned int 
  8707 ;;  dividend        2    2[BANK0 ] unsigned int 
  8708 ;; Auto vars:     Size  Location     Type
  8709 ;;  counter         1    5[BANK0 ] unsigned char 
  8710 ;; Return value:  Size  Location     Type
  8711 ;;                  2    0[BANK0 ] unsigned int 
  8712 ;; Registers used:
  8713 ;;		wreg, status,2, status,0
  8714 ;; Tracked objects:
  8715 ;;		On entry : 0/0
  8716 ;;		On exit  : 0/0
  8717 ;;		Unchanged: 0/0
  8718 ;; Data sizes:     COMMON   BANK0   BANK1   BANK3   BANK2
  8719 ;;      Params:         0       4       0       0       0
  8720 ;;      Locals:         0       1       0       0       0
  8721 ;;      Temps:          0       1       0       0       0
  8722 ;;      Totals:         0       6       0       0       0
  8723 ;;Total ram usage:        6 bytes
  8724 ;; Hardware stack levels used:    1
  8725 ;; This function calls:
  8726 ;;		Nothing
  8727 ;; This function is called by:
  8728 ;;		_isr1
  8729 ;;		_sprintf
  8730 ;; This function uses a non-reentrant model
  8731 ;;
  8732                           psect	text785
  8733                           	file	"C:\Program Files (x86)\HI-TECH Software\PICC\9.83\sources\lwmod.c"
  8734                           	line	5
  8735                           	global	__size_of___lwmod
  8736  0046                     	__size_of___lwmod	equ	__end_of___lwmod-___lwmod
  8737                           	
  8738  08BD                     ___lwmod:	
  8739                           	opt	stack 1
  8740                           ; Regs used in ___lwmod: [wreg+status,2+status,0]
  8741                           	line	8
  8742                           	
  8743  08BD                     i1l9591:	
  8744  08BD  1283               	bcf	status, 5	;RP0=0, select bank0
  8745  08BE  1303               	bcf	status, 6	;RP1=0, select bank0
  8746  08BF  0821               	movf	(___lwmod@divisor+1),w
  8747  08C0  0420               	iorwf	(___lwmod@divisor),w
  8748  08C1  1903               	skipnz
  8749  08C2  28C4               	goto	u390_21
  8750  08C3  28C5               	goto	u390_20
  8751  08C4                     u390_21:
  8752  08C4  28FB               	goto	i1l9609
  8753  08C5                     u390_20:
  8754                           	line	9
  8755                           	
  8756  08C5                     i1l9593:	
  8757  08C5  01A5               	clrf	(___lwmod@counter)
  8758  08C6  1403               	bsf	status,0
  8759  08C7  0DA5               	rlf	(___lwmod@counter),f
  8760                           	line	10
  8761  08C8  28D5               	goto	i1l9599
  8762                           	
  8763  08C9                     i1l5863:	
  8764                           	line	11
  8765                           	
  8766  08C9                     i1l9595:	
  8767  08C9  3001               	movlw	01h
  8768                           	
  8769  08CA                     u391_25:
  8770  08CA  1003               	clrc
  8771  08CB  0DA0               	rlf	(___lwmod@divisor),f
  8772  08CC  0DA1               	rlf	(___lwmod@divisor+1),f
  8773  08CD  3EFF               	addlw	-1
  8774  08CE  1D03               	skipz
  8775  08CF  28CA               	goto	u391_25
  8776                           	line	12
  8777                           	
  8778  08D0                     i1l9597:	
  8779  08D0  3001               	movlw	(01h)
  8780  08D1  00A4               	movwf	(??___lwmod+0)+0
  8781  08D2  0824               	movf	(??___lwmod+0)+0,w
  8782  08D3  07A5               	addwf	(___lwmod@counter),f
  8783  08D4  28D5               	goto	i1l9599
  8784                           	line	13
  8785                           	
  8786  08D5                     i1l5862:	
  8787                           	line	10
  8788                           	
  8789  08D5                     i1l9599:	
  8790  08D5  1FA1               	btfss	(___lwmod@divisor+1),(15)&7
  8791  08D6  28D8               	goto	u392_21
  8792  08D7  28D9               	goto	u392_20
  8793  08D8                     u392_21:
  8794  08D8  28C9               	goto	i1l9595
  8795  08D9                     u392_20:
  8796  08D9  28DB               	goto	i1l9601
  8797                           	
  8798  08DA                     i1l5864:	
  8799  08DA  28DB               	goto	i1l9601
  8800                           	line	14
  8801                           	
  8802  08DB                     i1l5865:	
  8803                           	line	15
  8804                           	
  8805  08DB                     i1l9601:	
  8806  08DB  0821               	movf	(___lwmod@divisor+1),w
  8807  08DC  0223               	subwf	(___lwmod@dividend+1),w
  8808  08DD  1D03               	skipz
  8809  08DE  28E1               	goto	u393_25
  8810  08DF  0820               	movf	(___lwmod@divisor),w
  8811  08E0  0222               	subwf	(___lwmod@dividend),w
  8812  08E1                     u393_25:
  8813  08E1  1C03               	skipc
  8814  08E2  28E4               	goto	u393_21
  8815  08E3  28E5               	goto	u393_20
  8816  08E4                     u393_21:
  8817  08E4  28EC               	goto	i1l9605
  8818  08E5                     u393_20:
  8819                           	line	16
  8820                           	
  8821  08E5                     i1l9603:	
  8822  08E5  0820               	movf	(___lwmod@divisor),w
  8823  08E6  02A2               	subwf	(___lwmod@dividend),f
  8824  08E7  0821               	movf	(___lwmod@divisor+1),w
  8825  08E8  1C03               	skipc
  8826  08E9  03A3               	decf	(___lwmod@dividend+1),f
  8827  08EA  02A3               	subwf	(___lwmod@dividend+1),f
  8828  08EB  28EC               	goto	i1l9605
  8829                           	
  8830  08EC                     i1l5866:	
  8831                           	line	17
  8832                           	
  8833  08EC                     i1l9605:	
  8834  08EC  3001               	movlw	01h
  8835                           	
  8836  08ED                     u394_25:
  8837  08ED  1003               	clrc
  8838  08EE  0CA1               	rrf	(___lwmod@divisor+1),f
  8839  08EF  0CA0               	rrf	(___lwmod@divisor),f
  8840  08F0  3EFF               	addlw	-1
  8841  08F1  1D03               	skipz
  8842  08F2  28ED               	goto	u394_25
  8843                           	line	18
  8844                           	
  8845  08F3                     i1l9607:	
  8846  08F3  3001               	movlw	low(01h)
  8847  08F4  02A5               	subwf	(___lwmod@counter),f
  8848  08F5  1D03               	btfss	status,2
  8849  08F6  28F8               	goto	u395_21
  8850  08F7  28F9               	goto	u395_20
  8851  08F8                     u395_21:
  8852  08F8  28DB               	goto	i1l9601
  8853  08F9                     u395_20:
  8854  08F9  28FB               	goto	i1l9609
  8855                           	
  8856  08FA                     i1l5867:	
  8857  08FA  28FB               	goto	i1l9609
  8858                           	line	19
  8859                           	
  8860  08FB                     i1l5861:	
  8861                           	line	20
  8862                           	
  8863  08FB                     i1l9609:	
  8864  08FB  0823               	movf	(___lwmod@dividend+1),w
  8865  08FC  01A1               	clrf	(?___lwmod+1)
  8866  08FD  07A1               	addwf	(?___lwmod+1)
  8867  08FE  0822               	movf	(___lwmod@dividend),w
  8868  08FF  01A0               	clrf	(?___lwmod)
  8869  0900  07A0               	addwf	(?___lwmod)
  8870                           
  8871  0901  2902               	goto	i1l5868
  8872                           	
  8873  0902                     i1l9611:	
  8874                           	line	21
  8875                           	
  8876  0902                     i1l5868:	
  8877  0902  0008               	return
  8878                           	opt stack 0
  8879                           GLOBAL	__end_of___lwmod
  8880  0903                     	__end_of___lwmod:
  8881 ;; =============== function ___lwmod ends ============
  8882                           
  8883                           	signat	___lwmod,8314
  8884                           	global	___lwdiv
  8885                           psect	text786,local,class=CODE,delta=2
  8886                           global __ptext786
  8887  0903                     __ptext786:
  8888                           
  8889 ;; *************** function ___lwdiv *****************
  8890 ;; Defined at:
  8891 ;;		line 5 in file "C:\Program Files (x86)\HI-TECH Software\PICC\9.83\sources\lwdiv.c"
  8892 ;; Parameters:    Size  Location     Type
  8893 ;;  divisor         2    6[COMMON] unsigned int 
  8894 ;;  dividend        2    8[COMMON] unsigned int 
  8895 ;; Auto vars:     Size  Location     Type
  8896 ;;  quotient        2   11[COMMON] unsigned int 
  8897 ;;  counter         1   13[COMMON] unsigned char 
  8898 ;; Return value:  Size  Location     Type
  8899 ;;                  2    6[COMMON] unsigned int 
  8900 ;; Registers used:
  8901 ;;		wreg, status,2, status,0
  8902 ;; Tracked objects:
  8903 ;;		On entry : 0/0
  8904 ;;		On exit  : 0/0
  8905 ;;		Unchanged: 0/0
  8906 ;; Data sizes:     COMMON   BANK0   BANK1   BANK3   BANK2
  8907 ;;      Params:         4       0       0       0       0
  8908 ;;      Locals:         3       0       0       0       0
  8909 ;;      Temps:          1       0       0       0       0
  8910 ;;      Totals:         8       0       0       0       0
  8911 ;;Total ram usage:        8 bytes
  8912 ;; Hardware stack levels used:    1
  8913 ;; This function calls:
  8914 ;;		Nothing
  8915 ;; This function is called by:
  8916 ;;		_readAvgDistance
  8917 ;;		_ADCconvert
  8918 ;;		_sprintf
  8919 ;; This function uses a non-reentrant model
  8920 ;;
  8921                           psect	text786
  8922                           	file	"C:\Program Files (x86)\HI-TECH Software\PICC\9.83\sources\lwdiv.c"
  8923                           	line	5
  8924                           	global	__size_of___lwdiv
  8925  004E                     	__size_of___lwdiv	equ	__end_of___lwdiv-___lwdiv
  8926                           	
  8927  0903                     ___lwdiv:	
  8928                           	opt	stack 1
  8929                           ; Regs used in ___lwdiv: [wreg+status,2+status,0]
  8930                           	line	9
  8931                           	
  8932  0903                     i1l9565:	
  8933  0903  01FB               	clrf	(___lwdiv@quotient)
  8934  0904  01FC               	clrf	(___lwdiv@quotient+1)
  8935                           	line	10
  8936                           	
  8937  0905                     i1l9567:	
  8938  0905  0877               	movf	(___lwdiv@divisor+1),w
  8939  0906  0476               	iorwf	(___lwdiv@divisor),w
  8940  0907  1903               	skipnz
  8941  0908  290A               	goto	u383_21
  8942  0909  290B               	goto	u383_20
  8943  090A                     u383_21:
  8944  090A  2949               	goto	i1l9587
  8945  090B                     u383_20:
  8946                           	line	11
  8947                           	
  8948  090B                     i1l9569:	
  8949  090B  01FD               	clrf	(___lwdiv@counter)
  8950  090C  1403               	bsf	status,0
  8951  090D  0DFD               	rlf	(___lwdiv@counter),f
  8952                           	line	12
  8953  090E  291B               	goto	i1l9575
  8954                           	
  8955  090F                     i1l5853:	
  8956                           	line	13
  8957                           	
  8958  090F                     i1l9571:	
  8959  090F  3001               	movlw	01h
  8960                           	
  8961  0910                     u384_25:
  8962  0910  1003               	clrc
  8963  0911  0DF6               	rlf	(___lwdiv@divisor),f
  8964  0912  0DF7               	rlf	(___lwdiv@divisor+1),f
  8965  0913  3EFF               	addlw	-1
  8966  0914  1D03               	skipz
  8967  0915  2910               	goto	u384_25
  8968                           	line	14
  8969                           	
  8970  0916                     i1l9573:	
  8971  0916  3001               	movlw	(01h)
  8972  0917  00FA               	movwf	(??___lwdiv+0)+0
  8973  0918  087A               	movf	(??___lwdiv+0)+0,w
  8974  0919  07FD               	addwf	(___lwdiv@counter),f
  8975  091A  291B               	goto	i1l9575
  8976                           	line	15
  8977                           	
  8978  091B                     i1l5852:	
  8979                           	line	12
  8980                           	
  8981  091B                     i1l9575:	
  8982  091B  1FF7               	btfss	(___lwdiv@divisor+1),(15)&7
  8983  091C  291E               	goto	u385_21
  8984  091D  291F               	goto	u385_20
  8985  091E                     u385_21:
  8986  091E  290F               	goto	i1l9571
  8987  091F                     u385_20:
  8988  091F  2921               	goto	i1l9577
  8989                           	
  8990  0920                     i1l5854:	
  8991  0920  2921               	goto	i1l9577
  8992                           	line	16
  8993                           	
  8994  0921                     i1l5855:	
  8995                           	line	17
  8996                           	
  8997  0921                     i1l9577:	
  8998  0921  3001               	movlw	01h
  8999                           	
  9000  0922                     u386_25:
  9001  0922  1003               	clrc
  9002  0923  0DFB               	rlf	(___lwdiv@quotient),f
  9003  0924  0DFC               	rlf	(___lwdiv@quotient+1),f
  9004  0925  3EFF               	addlw	-1
  9005  0926  1D03               	skipz
  9006  0927  2922               	goto	u386_25
  9007                           	line	18
  9008  0928  0877               	movf	(___lwdiv@divisor+1),w
  9009  0929  0279               	subwf	(___lwdiv@dividend+1),w
  9010  092A  1D03               	skipz
  9011  092B  292E               	goto	u387_25
  9012  092C  0876               	movf	(___lwdiv@divisor),w
  9013  092D  0278               	subwf	(___lwdiv@dividend),w
  9014  092E                     u387_25:
  9015  092E  1C03               	skipc
  9016  092F  2931               	goto	u387_21
  9017  0930  2932               	goto	u387_20
  9018  0931                     u387_21:
  9019  0931  293A               	goto	i1l9583
  9020  0932                     u387_20:
  9021                           	line	19
  9022                           	
  9023  0932                     i1l9579:	
  9024  0932  0876               	movf	(___lwdiv@divisor),w
  9025  0933  02F8               	subwf	(___lwdiv@dividend),f
  9026  0934  0877               	movf	(___lwdiv@divisor+1),w
  9027  0935  1C03               	skipc
  9028  0936  03F9               	decf	(___lwdiv@dividend+1),f
  9029  0937  02F9               	subwf	(___lwdiv@dividend+1),f
  9030                           	line	20
  9031                           	
  9032  0938                     i1l9581:	
  9033  0938  147B               	bsf	(___lwdiv@quotient)+(0/8),(0)&7
  9034  0939  293A               	goto	i1l9583
  9035                           	line	21
  9036                           	
  9037  093A                     i1l5856:	
  9038                           	line	22
  9039                           	
  9040  093A                     i1l9583:	
  9041  093A  3001               	movlw	01h
  9042                           	
  9043  093B                     u388_25:
  9044  093B  1003               	clrc
  9045  093C  0CF7               	rrf	(___lwdiv@divisor+1),f
  9046  093D  0CF6               	rrf	(___lwdiv@divisor),f
  9047  093E  3EFF               	addlw	-1
  9048  093F  1D03               	skipz
  9049  0940  293B               	goto	u388_25
  9050                           	line	23
  9051                           	
  9052  0941                     i1l9585:	
  9053  0941  3001               	movlw	low(01h)
  9054  0942  02FD               	subwf	(___lwdiv@counter),f
  9055  0943  1D03               	btfss	status,2
  9056  0944  2946               	goto	u389_21
  9057  0945  2947               	goto	u389_20
  9058  0946                     u389_21:
  9059  0946  2921               	goto	i1l9577
  9060  0947                     u389_20:
  9061  0947  2949               	goto	i1l9587
  9062                           	
  9063  0948                     i1l5857:	
  9064  0948  2949               	goto	i1l9587
  9065                           	line	24
  9066                           	
  9067  0949                     i1l5851:	
  9068                           	line	25
  9069                           	
  9070  0949                     i1l9587:	
  9071  0949  087C               	movf	(___lwdiv@quotient+1),w
  9072  094A  01F7               	clrf	(?___lwdiv+1)
  9073  094B  07F7               	addwf	(?___lwdiv+1)
  9074  094C  087B               	movf	(___lwdiv@quotient),w
  9075  094D  01F6               	clrf	(?___lwdiv)
  9076  094E  07F6               	addwf	(?___lwdiv)
  9077                           
  9078  094F  2950               	goto	i1l5858
  9079                           	
  9080  0950                     i1l9589:	
  9081                           	line	26
  9082                           	
  9083  0950                     i1l5858:	
  9084  0950  0008               	return
  9085                           	opt stack 0
  9086                           GLOBAL	__end_of___lwdiv
  9087  0951                     	__end_of___lwdiv:
  9088 ;; =============== function ___lwdiv ends ============
  9089                           
  9090                           	signat	___lwdiv,8314
  9091                           	global	___wmul
  9092                           psect	text787,local,class=CODE,delta=2
  9093                           global __ptext787
  9094  174F                     __ptext787:
  9095                           
  9096 ;; *************** function ___wmul *****************
  9097 ;; Defined at:
  9098 ;;		line 3 in file "C:\Program Files (x86)\HI-TECH Software\PICC\9.83\sources\wmul.c"
  9099 ;; Parameters:    Size  Location     Type
  9100 ;;  multiplier      2    0[COMMON] unsigned int 
  9101 ;;  multiplicand    2    2[COMMON] unsigned int 
  9102 ;; Auto vars:     Size  Location     Type
  9103 ;;  product         2    4[COMMON] unsigned int 
  9104 ;; Return value:  Size  Location     Type
  9105 ;;                  2    0[COMMON] unsigned int 
  9106 ;; Registers used:
  9107 ;;		wreg, status,2, status,0
  9108 ;; Tracked objects:
  9109 ;;		On entry : 0/0
  9110 ;;		On exit  : 0/0
  9111 ;;		Unchanged: 0/0
  9112 ;; Data sizes:     COMMON   BANK0   BANK1   BANK3   BANK2
  9113 ;;      Params:         4       0       0       0       0
  9114 ;;      Locals:         2       0       0       0       0
  9115 ;;      Temps:          0       0       0       0       0
  9116 ;;      Totals:         6       0       0       0       0
  9117 ;;Total ram usage:        6 bytes
  9118 ;; Hardware stack levels used:    1
  9119 ;; This function calls:
  9120 ;;		Nothing
  9121 ;; This function is called by:
  9122 ;;		_ADCconvert
  9123 ;; This function uses a non-reentrant model
  9124 ;;
  9125                           psect	text787
  9126                           	file	"C:\Program Files (x86)\HI-TECH Software\PICC\9.83\sources\wmul.c"
  9127                           	line	3
  9128                           	global	__size_of___wmul
  9129  002A                     	__size_of___wmul	equ	__end_of___wmul-___wmul
  9130                           	
  9131  174F                     ___wmul:	
  9132                           	opt	stack 1
  9133                           ; Regs used in ___wmul: [wreg+status,2+status,0]
  9134                           	line	4
  9135                           	
  9136  174F                     i1l9553:	
  9137  174F  01F4               	clrf	(___wmul@product)
  9138  1750  01F5               	clrf	(___wmul@product+1)
  9139  1751  2F52               	goto	i1l9555
  9140                           	line	6
  9141                           	
  9142  1752                     i1l5845:	
  9143                           	line	7
  9144                           	
  9145  1752                     i1l9555:	
  9146  1752  1C70               	btfss	(___wmul@multiplier),(0)&7
  9147  1753  2F55               	goto	u379_21
  9148  1754  2F56               	goto	u379_20
  9149  1755                     u379_21:
  9150  1755  2F5C               	goto	i1l5846
  9151  1756                     u379_20:
  9152                           	line	8
  9153                           	
  9154  1756                     i1l9557:	
  9155  1756  0872               	movf	(___wmul@multiplicand),w
  9156  1757  07F4               	addwf	(___wmul@product),f
  9157  1758  1803               	skipnc
  9158  1759  0AF5               	incf	(___wmul@product+1),f
  9159  175A  0873               	movf	(___wmul@multiplicand+1),w
  9160  175B  07F5               	addwf	(___wmul@product+1),f
  9161                           	
  9162  175C                     i1l5846:	
  9163                           	line	9
  9164  175C  3001               	movlw	01h
  9165                           	
  9166  175D                     u380_25:
  9167  175D  1003               	clrc
  9168  175E  0DF2               	rlf	(___wmul@multiplicand),f
  9169  175F  0DF3               	rlf	(___wmul@multiplicand+1),f
  9170  1760  3EFF               	addlw	-1
  9171  1761  1D03               	skipz
  9172  1762  2F5D               	goto	u380_25
  9173                           	line	10
  9174                           	
  9175  1763                     i1l9559:	
  9176  1763  3001               	movlw	01h
  9177                           	
  9178  1764                     u381_25:
  9179  1764  1003               	clrc
  9180  1765  0CF1               	rrf	(___wmul@multiplier+1),f
  9181  1766  0CF0               	rrf	(___wmul@multiplier),f
  9182  1767  3EFF               	addlw	-1
  9183  1768  1D03               	skipz
  9184  1769  2F64               	goto	u381_25
  9185                           	line	11
  9186  176A  0871               	movf	((___wmul@multiplier+1)),w
  9187  176B  0470               	iorwf	((___wmul@multiplier)),w
  9188  176C  1D03               	skipz
  9189  176D  2F6F               	goto	u382_21
  9190  176E  2F70               	goto	u382_20
  9191  176F                     u382_21:
  9192  176F  2F52               	goto	i1l9555
  9193  1770                     u382_20:
  9194  1770  2F71               	goto	i1l9561
  9195                           	
  9196  1771                     i1l5847:	
  9197                           	line	12
  9198                           	
  9199  1771                     i1l9561:	
  9200  1771  0875               	movf	(___wmul@product+1),w
  9201  1772  01F1               	clrf	(?___wmul+1)
  9202  1773  07F1               	addwf	(?___wmul+1)
  9203  1774  0874               	movf	(___wmul@product),w
  9204  1775  01F0               	clrf	(?___wmul)
  9205  1776  07F0               	addwf	(?___wmul)
  9206                           
  9207  1777  2F78               	goto	i1l5848
  9208                           	
  9209  1778                     i1l9563:	
  9210                           	line	13
  9211                           	
  9212  1778                     i1l5848:	
  9213  1778  0008               	return
  9214                           	opt stack 0
  9215                           GLOBAL	__end_of___wmul
  9216  1779                     	__end_of___wmul:
  9217 ;; =============== function ___wmul ends ============
  9218                           
  9219                           	signat	___wmul,8314
  9220                           	global	_Debounce
  9221                           psect	text788,local,class=CODE,delta=2
  9222                           global __ptext788
  9223  0BE3                     __ptext788:
  9224                           
  9225 ;; *************** function _Debounce *****************
  9226 ;; Defined at:
  9227 ;;		line 63 in file "H:\Aldnoah.Zero\trunk\Assignment3\HMI.c"
  9228 ;; Parameters:    Size  Location     Type
  9229 ;;		None
  9230 ;; Auto vars:     Size  Location     Type
  9231 ;;		None
  9232 ;; Return value:  Size  Location     Type
  9233 ;;		None               void
  9234 ;; Registers used:
  9235 ;;		wreg, status,2, status,0
  9236 ;; Tracked objects:
  9237 ;;		On entry : 0/0
  9238 ;;		On exit  : 0/0
  9239 ;;		Unchanged: 0/0
  9240 ;; Data sizes:     COMMON   BANK0   BANK1   BANK3   BANK2
  9241 ;;      Params:         0       0       0       0       0
  9242 ;;      Locals:         0       0       0       0       0
  9243 ;;      Temps:          1       0       0       0       0
  9244 ;;      Totals:         1       0       0       0       0
  9245 ;;Total ram usage:        1 bytes
  9246 ;; Hardware stack levels used:    1
  9247 ;; This function calls:
  9248 ;;		Nothing
  9249 ;; This function is called by:
  9250 ;;		_ReadButtons
  9251 ;; This function uses a non-reentrant model
  9252 ;;
  9253                           psect	text788
  9254                           	file	"H:\Aldnoah.Zero\trunk\Assignment3\HMI.c"
  9255                           	line	63
  9256                           	global	__size_of_Debounce
  9257  00A8                     	__size_of_Debounce	equ	__end_of_Debounce-_Debounce
  9258                           	
  9259  0BE3                     _Debounce:	
  9260                           	opt	stack 2
  9261                           ; Regs used in _Debounce: [wreg+status,2+status,0]
  9262                           	line	65
  9263                           	
  9264  0BE3                     i1l9453:	
  9265                           ;HMI.c: 65: if(!RB2)
  9266  0BE3  1283               	bcf	status, 5	;RP0=0, select bank0
  9267  0BE4  1303               	bcf	status, 6	;RP1=0, select bank0
  9268  0BE5  1906               	btfsc	(50/8),(50)&7
  9269  0BE6  2BE8               	goto	u356_21
  9270  0BE7  2BE9               	goto	u356_20
  9271  0BE8                     u356_21:
  9272  0BE8  2BFF               	goto	i1l5083
  9273  0BE9                     u356_20:
  9274                           	line	67
  9275                           	
  9276  0BE9                     i1l9455:	
  9277                           ;HMI.c: 66: {
  9278                           ;HMI.c: 67: UpDebounceCount++;
  9279  0BE9  3001               	movlw	(01h)
  9280  0BEA  00F0               	movwf	(??_Debounce+0)+0
  9281  0BEB  0870               	movf	(??_Debounce+0)+0,w
  9282  0BEC  1683               	bsf	status, 5	;RP0=1, select bank1
  9283  0BED  1303               	bcf	status, 6	;RP1=0, select bank1
  9284  0BEE  07DA               	addwf	(_UpDebounceCount)^080h,f	;volatile
  9285                           	line	68
  9286                           	
  9287  0BEF                     i1l9457:	
  9288                           ;HMI.c: 68: if(UpDebounceCount >= 10 & UpReleased)
  9289  0BEF  300A               	movlw	(0Ah)
  9290  0BF0  025A               	subwf	(_UpDebounceCount)^080h,w	;volatile
  9291  0BF1  1C03               	skipc
  9292  0BF2  2BF4               	goto	u357_21
  9293  0BF3  2BF5               	goto	u357_20
  9294  0BF4                     u357_21:
  9295  0BF4  2C05               	goto	i1l5085
  9296  0BF5                     u357_20:
  9297                           	
  9298  0BF5                     i1l9459:	
  9299  0BF5  1283               	bcf	status, 5	;RP0=0, select bank0
  9300  0BF6  1303               	bcf	status, 6	;RP1=0, select bank0
  9301  0BF7  1F6B               	btfss	(_UpReleased/8),(_UpReleased)&7
  9302  0BF8  2BFA               	goto	u358_21
  9303  0BF9  2BFB               	goto	u358_20
  9304  0BFA                     u358_21:
  9305  0BFA  2C05               	goto	i1l5085
  9306  0BFB                     u358_20:
  9307                           	line	70
  9308                           	
  9309  0BFB                     i1l9461:	
  9310                           ;HMI.c: 69: {
  9311                           ;HMI.c: 70: UpPressed = 1;
  9312  0BFB  16EB               	bsf	(_UpPressed/8),(_UpPressed)&7
  9313                           	line	71
  9314                           ;HMI.c: 71: UpReleased = 0;
  9315  0BFC  136B               	bcf	(_UpReleased/8),(_UpReleased)&7
  9316  0BFD  2C05               	goto	i1l5085
  9317                           	line	72
  9318                           	
  9319  0BFE                     i1l5084:	
  9320                           	line	73
  9321                           ;HMI.c: 72: }
  9322                           ;HMI.c: 73: }
  9323  0BFE  2C05               	goto	i1l5085
  9324                           	line	74
  9325                           	
  9326  0BFF                     i1l5083:	
  9327                           	line	76
  9328                           ;HMI.c: 74: else
  9329                           ;HMI.c: 75: {
  9330                           ;HMI.c: 76: UpDebounceCount = 0;
  9331  0BFF  1683               	bsf	status, 5	;RP0=1, select bank1
  9332  0C00  1303               	bcf	status, 6	;RP1=0, select bank1
  9333  0C01  01DA               	clrf	(_UpDebounceCount)^080h	;volatile
  9334                           	line	77
  9335                           ;HMI.c: 77: UpReleased = 1;
  9336  0C02  1283               	bcf	status, 5	;RP0=0, select bank0
  9337  0C03  1303               	bcf	status, 6	;RP1=0, select bank0
  9338  0C04  176B               	bsf	(_UpReleased/8),(_UpReleased)&7
  9339                           	line	78
  9340                           	
  9341  0C05                     i1l5085:	
  9342                           	line	81
  9343                           ;HMI.c: 78: }
  9344                           ;HMI.c: 81: if(!RB3)
  9345  0C05  1283               	bcf	status, 5	;RP0=0, select bank0
  9346  0C06  1986               	btfsc	(51/8),(51)&7
  9347  0C07  2C09               	goto	u359_21
  9348  0C08  2C0A               	goto	u359_20
  9349  0C09                     u359_21:
  9350  0C09  2C20               	goto	i1l5086
  9351  0C0A                     u359_20:
  9352                           	line	83
  9353                           	
  9354  0C0A                     i1l9463:	
  9355                           ;HMI.c: 82: {
  9356                           ;HMI.c: 83: DownDebounceCount++;
  9357  0C0A  3001               	movlw	(01h)
  9358  0C0B  00F0               	movwf	(??_Debounce+0)+0
  9359  0C0C  0870               	movf	(??_Debounce+0)+0,w
  9360  0C0D  1683               	bsf	status, 5	;RP0=1, select bank1
  9361  0C0E  1303               	bcf	status, 6	;RP1=0, select bank1
  9362  0C0F  07D7               	addwf	(_DownDebounceCount)^080h,f	;volatile
  9363                           	line	84
  9364                           	
  9365  0C10                     i1l9465:	
  9366                           ;HMI.c: 84: if(DownDebounceCount >= 10 & DownReleased)
  9367  0C10  300A               	movlw	(0Ah)
  9368  0C11  0257               	subwf	(_DownDebounceCount)^080h,w	;volatile
  9369  0C12  1C03               	skipc
  9370  0C13  2C15               	goto	u360_21
  9371  0C14  2C16               	goto	u360_20
  9372  0C15                     u360_21:
  9373  0C15  2C26               	goto	i1l5088
  9374  0C16                     u360_20:
  9375                           	
  9376  0C16                     i1l9467:	
  9377  0C16  1283               	bcf	status, 5	;RP0=0, select bank0
  9378  0C17  1303               	bcf	status, 6	;RP1=0, select bank0
  9379  0C18  1DEA               	btfss	(_DownReleased/8),(_DownReleased)&7
  9380  0C19  2C1B               	goto	u361_21
  9381  0C1A  2C1C               	goto	u361_20
  9382  0C1B                     u361_21:
  9383  0C1B  2C26               	goto	i1l5088
  9384  0C1C                     u361_20:
  9385                           	line	86
  9386                           	
  9387  0C1C                     i1l9469:	
  9388                           ;HMI.c: 85: {
  9389                           ;HMI.c: 86: DownPressed = 1;
  9390  0C1C  156A               	bsf	(_DownPressed/8),(_DownPressed)&7
  9391                           	line	87
  9392                           ;HMI.c: 87: DownReleased = 0;
  9393  0C1D  11EA               	bcf	(_DownReleased/8),(_DownReleased)&7
  9394  0C1E  2C26               	goto	i1l5088
  9395                           	line	88
  9396                           	
  9397  0C1F                     i1l5087:	
  9398                           	line	89
  9399                           ;HMI.c: 88: }
  9400                           ;HMI.c: 89: }
  9401  0C1F  2C26               	goto	i1l5088
  9402                           	line	90
  9403                           	
  9404  0C20                     i1l5086:	
  9405                           	line	92
  9406                           ;HMI.c: 90: else
  9407                           ;HMI.c: 91: {
  9408                           ;HMI.c: 92: DownDebounceCount = 0;
  9409  0C20  1683               	bsf	status, 5	;RP0=1, select bank1
  9410  0C21  1303               	bcf	status, 6	;RP1=0, select bank1
  9411  0C22  01D7               	clrf	(_DownDebounceCount)^080h	;volatile
  9412                           	line	93
  9413                           ;HMI.c: 93: DownReleased = 1;
  9414  0C23  1283               	bcf	status, 5	;RP0=0, select bank0
  9415  0C24  1303               	bcf	status, 6	;RP1=0, select bank0
  9416  0C25  15EA               	bsf	(_DownReleased/8),(_DownReleased)&7
  9417                           	line	94
  9418                           	
  9419  0C26                     i1l5088:	
  9420                           	line	96
  9421                           ;HMI.c: 94: }
  9422                           ;HMI.c: 96: if(!RB4)
  9423  0C26  1283               	bcf	status, 5	;RP0=0, select bank0
  9424  0C27  1A06               	btfsc	(52/8),(52)&7
  9425  0C28  2C2A               	goto	u362_21
  9426  0C29  2C2B               	goto	u362_20
  9427  0C2A                     u362_21:
  9428  0C2A  2C41               	goto	i1l5089
  9429  0C2B                     u362_20:
  9430                           	line	98
  9431                           	
  9432  0C2B                     i1l9471:	
  9433                           ;HMI.c: 97: {
  9434                           ;HMI.c: 98: LeftDebounceCount++;
  9435  0C2B  3001               	movlw	(01h)
  9436  0C2C  00F0               	movwf	(??_Debounce+0)+0
  9437  0C2D  0870               	movf	(??_Debounce+0)+0,w
  9438  0C2E  1683               	bsf	status, 5	;RP0=1, select bank1
  9439  0C2F  1303               	bcf	status, 6	;RP1=0, select bank1
  9440  0C30  07D8               	addwf	(_LeftDebounceCount)^080h,f	;volatile
  9441                           	line	99
  9442                           	
  9443  0C31                     i1l9473:	
  9444                           ;HMI.c: 99: if(LeftDebounceCount >= 10 & LeftReleased)
  9445  0C31  300A               	movlw	(0Ah)
  9446  0C32  0258               	subwf	(_LeftDebounceCount)^080h,w	;volatile
  9447  0C33  1C03               	skipc
  9448  0C34  2C36               	goto	u363_21
  9449  0C35  2C37               	goto	u363_20
  9450  0C36                     u363_21:
  9451  0C36  2C47               	goto	i1l5091
  9452  0C37                     u363_20:
  9453                           	
  9454  0C37                     i1l9475:	
  9455  0C37  1283               	bcf	status, 5	;RP0=0, select bank0
  9456  0C38  1303               	bcf	status, 6	;RP1=0, select bank0
  9457  0C39  1EEA               	btfss	(_LeftReleased/8),(_LeftReleased)&7
  9458  0C3A  2C3C               	goto	u364_21
  9459  0C3B  2C3D               	goto	u364_20
  9460  0C3C                     u364_21:
  9461  0C3C  2C47               	goto	i1l5091
  9462  0C3D                     u364_20:
  9463                           	line	101
  9464                           	
  9465  0C3D                     i1l9477:	
  9466                           ;HMI.c: 100: {
  9467                           ;HMI.c: 101: LeftPressed = 1;
  9468  0C3D  166A               	bsf	(_LeftPressed/8),(_LeftPressed)&7
  9469                           	line	102
  9470                           ;HMI.c: 102: LeftReleased = 0;
  9471  0C3E  12EA               	bcf	(_LeftReleased/8),(_LeftReleased)&7
  9472  0C3F  2C47               	goto	i1l5091
  9473                           	line	103
  9474                           	
  9475  0C40                     i1l5090:	
  9476                           	line	104
  9477                           ;HMI.c: 103: }
  9478                           ;HMI.c: 104: }
  9479  0C40  2C47               	goto	i1l5091
  9480                           	line	105
  9481                           	
  9482  0C41                     i1l5089:	
  9483                           	line	107
  9484                           ;HMI.c: 105: else
  9485                           ;HMI.c: 106: {
  9486                           ;HMI.c: 107: LeftDebounceCount = 0;
  9487  0C41  1683               	bsf	status, 5	;RP0=1, select bank1
  9488  0C42  1303               	bcf	status, 6	;RP1=0, select bank1
  9489  0C43  01D8               	clrf	(_LeftDebounceCount)^080h	;volatile
  9490                           	line	108
  9491                           ;HMI.c: 108: LeftReleased = 1;
  9492  0C44  1283               	bcf	status, 5	;RP0=0, select bank0
  9493  0C45  1303               	bcf	status, 6	;RP1=0, select bank0
  9494  0C46  16EA               	bsf	(_LeftReleased/8),(_LeftReleased)&7
  9495                           	line	109
  9496                           	
  9497  0C47                     i1l5091:	
  9498                           	line	111
  9499                           ;HMI.c: 109: }
  9500                           ;HMI.c: 111: if(!RB5)
  9501  0C47  1283               	bcf	status, 5	;RP0=0, select bank0
  9502  0C48  1A86               	btfsc	(53/8),(53)&7
  9503  0C49  2C4B               	goto	u365_21
  9504  0C4A  2C4C               	goto	u365_20
  9505  0C4B                     u365_21:
  9506  0C4B  2C62               	goto	i1l5092
  9507  0C4C                     u365_20:
  9508                           	line	113
  9509                           	
  9510  0C4C                     i1l9479:	
  9511                           ;HMI.c: 112: {
  9512                           ;HMI.c: 113: RightDebounceCount++;
  9513  0C4C  3001               	movlw	(01h)
  9514  0C4D  00F0               	movwf	(??_Debounce+0)+0
  9515  0C4E  0870               	movf	(??_Debounce+0)+0,w
  9516  0C4F  1683               	bsf	status, 5	;RP0=1, select bank1
  9517  0C50  1303               	bcf	status, 6	;RP1=0, select bank1
  9518  0C51  07D9               	addwf	(_RightDebounceCount)^080h,f	;volatile
  9519                           	line	114
  9520                           	
  9521  0C52                     i1l9481:	
  9522                           ;HMI.c: 114: if(RightDebounceCount >= 10 & RightReleased)
  9523  0C52  300A               	movlw	(0Ah)
  9524  0C53  0259               	subwf	(_RightDebounceCount)^080h,w	;volatile
  9525  0C54  1C03               	skipc
  9526  0C55  2C57               	goto	u366_21
  9527  0C56  2C58               	goto	u366_20
  9528  0C57                     u366_21:
  9529  0C57  2C68               	goto	i1l5094
  9530  0C58                     u366_20:
  9531                           	
  9532  0C58                     i1l9483:	
  9533  0C58  1283               	bcf	status, 5	;RP0=0, select bank0
  9534  0C59  1303               	bcf	status, 6	;RP1=0, select bank0
  9535  0C5A  1E6B               	btfss	(_RightReleased/8),(_RightReleased)&7
  9536  0C5B  2C5D               	goto	u367_21
  9537  0C5C  2C5E               	goto	u367_20
  9538  0C5D                     u367_21:
  9539  0C5D  2C68               	goto	i1l5094
  9540  0C5E                     u367_20:
  9541                           	line	116
  9542                           	
  9543  0C5E                     i1l9485:	
  9544                           ;HMI.c: 115: {
  9545                           ;HMI.c: 116: RightPressed = 1;
  9546  0C5E  15EB               	bsf	(_RightPressed/8),(_RightPressed)&7
  9547                           	line	117
  9548                           ;HMI.c: 117: RightReleased = 0;
  9549  0C5F  126B               	bcf	(_RightReleased/8),(_RightReleased)&7
  9550  0C60  2C68               	goto	i1l5094
  9551                           	line	118
  9552                           	
  9553  0C61                     i1l5093:	
  9554                           	line	119
  9555                           ;HMI.c: 118: }
  9556                           ;HMI.c: 119: }
  9557  0C61  2C68               	goto	i1l5094
  9558                           	line	120
  9559                           	
  9560  0C62                     i1l5092:	
  9561                           	line	122
  9562                           ;HMI.c: 120: else
  9563                           ;HMI.c: 121: {
  9564                           ;HMI.c: 122: RightDebounceCount = 0;
  9565  0C62  1683               	bsf	status, 5	;RP0=1, select bank1
  9566  0C63  1303               	bcf	status, 6	;RP1=0, select bank1
  9567  0C64  01D9               	clrf	(_RightDebounceCount)^080h	;volatile
  9568                           	line	123
  9569                           ;HMI.c: 123: RightReleased = 1;
  9570  0C65  1283               	bcf	status, 5	;RP0=0, select bank0
  9571  0C66  1303               	bcf	status, 6	;RP1=0, select bank0
  9572  0C67  166B               	bsf	(_RightReleased/8),(_RightReleased)&7
  9573                           	line	124
  9574                           	
  9575  0C68                     i1l5094:	
  9576                           	line	126
  9577                           ;HMI.c: 124: }
  9578                           ;HMI.c: 126: if(!RB6)
  9579  0C68  1283               	bcf	status, 5	;RP0=0, select bank0
  9580  0C69  1B06               	btfsc	(54/8),(54)&7
  9581  0C6A  2C6C               	goto	u368_21
  9582  0C6B  2C6D               	goto	u368_20
  9583  0C6C                     u368_21:
  9584  0C6C  2C83               	goto	i1l5095
  9585  0C6D                     u368_20:
  9586                           	line	128
  9587                           	
  9588  0C6D                     i1l9487:	
  9589                           ;HMI.c: 127: {
  9590                           ;HMI.c: 128: CenterDebounceCount++;
  9591  0C6D  3001               	movlw	(01h)
  9592  0C6E  00F0               	movwf	(??_Debounce+0)+0
  9593  0C6F  0870               	movf	(??_Debounce+0)+0,w
  9594  0C70  1683               	bsf	status, 5	;RP0=1, select bank1
  9595  0C71  1303               	bcf	status, 6	;RP1=0, select bank1
  9596  0C72  07D6               	addwf	(_CenterDebounceCount)^080h,f	;volatile
  9597                           	line	129
  9598                           	
  9599  0C73                     i1l9489:	
  9600                           ;HMI.c: 129: if(CenterDebounceCount >= 10 & CenterReleased)
  9601  0C73  300A               	movlw	(0Ah)
  9602  0C74  0256               	subwf	(_CenterDebounceCount)^080h,w	;volatile
  9603  0C75  1C03               	skipc
  9604  0C76  2C78               	goto	u369_21
  9605  0C77  2C79               	goto	u369_20
  9606  0C78                     u369_21:
  9607  0C78  2C8A               	goto	i1l5098
  9608  0C79                     u369_20:
  9609                           	
  9610  0C79                     i1l9491:	
  9611  0C79  1283               	bcf	status, 5	;RP0=0, select bank0
  9612  0C7A  1303               	bcf	status, 6	;RP1=0, select bank0
  9613  0C7B  1CEA               	btfss	(_CenterReleased/8),(_CenterReleased)&7
  9614  0C7C  2C7E               	goto	u370_21
  9615  0C7D  2C7F               	goto	u370_20
  9616  0C7E                     u370_21:
  9617  0C7E  2C8A               	goto	i1l5098
  9618  0C7F                     u370_20:
  9619                           	line	131
  9620                           	
  9621  0C7F                     i1l9493:	
  9622                           ;HMI.c: 130: {
  9623                           ;HMI.c: 131: CenterPressed = 1;
  9624  0C7F  146A               	bsf	(_CenterPressed/8),(_CenterPressed)&7
  9625                           	line	132
  9626                           ;HMI.c: 132: CenterReleased = 0;
  9627  0C80  10EA               	bcf	(_CenterReleased/8),(_CenterReleased)&7
  9628  0C81  2C8A               	goto	i1l5098
  9629                           	line	133
  9630                           	
  9631  0C82                     i1l5096:	
  9632                           	line	134
  9633                           ;HMI.c: 133: }
  9634                           ;HMI.c: 134: }
  9635  0C82  2C8A               	goto	i1l5098
  9636                           	line	135
  9637                           	
  9638  0C83                     i1l5095:	
  9639                           	line	137
  9640                           ;HMI.c: 135: else
  9641                           ;HMI.c: 136: {
  9642                           ;HMI.c: 137: CenterDebounceCount = 0;
  9643  0C83  1683               	bsf	status, 5	;RP0=1, select bank1
  9644  0C84  1303               	bcf	status, 6	;RP1=0, select bank1
  9645  0C85  01D6               	clrf	(_CenterDebounceCount)^080h	;volatile
  9646                           	line	138
  9647                           ;HMI.c: 138: CenterReleased = 1;
  9648  0C86  1283               	bcf	status, 5	;RP0=0, select bank0
  9649  0C87  1303               	bcf	status, 6	;RP1=0, select bank0
  9650  0C88  14EA               	bsf	(_CenterReleased/8),(_CenterReleased)&7
  9651  0C89  2C8A               	goto	i1l5098
  9652                           	line	139
  9653                           	
  9654  0C8A                     i1l5097:	
  9655                           	line	140
  9656                           	
  9657  0C8A                     i1l5098:	
  9658  0C8A  0008               	return
  9659                           	opt stack 0
  9660                           GLOBAL	__end_of_Debounce
  9661  0C8B                     	__end_of_Debounce:
  9662 ;; =============== function _Debounce ends ============
  9663                           
  9664                           	signat	_Debounce,88
  9665                           	global	_adc_read
  9666                           psect	text789,local,class=CODE,delta=2
  9667                           global __ptext789
  9668  1700                     __ptext789:
  9669                           
  9670 ;; *************** function _adc_read *****************
  9671 ;; Defined at:
  9672 ;;		line 61 in file "E:\Aldnoah.Zero\Assignment3\adc.c"
  9673 ;; Parameters:    Size  Location     Type
  9674 ;;		None
  9675 ;; Auto vars:     Size  Location     Type
  9676 ;;  adc_value       2    4[COMMON] volatile unsigned int 
  9677 ;; Return value:  Size  Location     Type
  9678 ;;                  2    0[COMMON] unsigned int 
  9679 ;; Registers used:
  9680 ;;		wreg, status,2, status,0
  9681 ;; Tracked objects:
  9682 ;;		On entry : 0/0
  9683 ;;		On exit  : 0/0
  9684 ;;		Unchanged: 0/0
  9685 ;; Data sizes:     COMMON   BANK0   BANK1   BANK3   BANK2
  9686 ;;      Params:         2       0       0       0       0
  9687 ;;      Locals:         2       0       0       0       0
  9688 ;;      Temps:          2       0       0       0       0
  9689 ;;      Totals:         6       0       0       0       0
  9690 ;;Total ram usage:        6 bytes
  9691 ;; Hardware stack levels used:    1
  9692 ;; This function calls:
  9693 ;;		Nothing
  9694 ;; This function is called by:
  9695 ;;		_adc_read_channel
  9696 ;; This function uses a non-reentrant model
  9697 ;;
  9698                           psect	text789
  9699                           	file	"E:\Aldnoah.Zero\Assignment3\adc.c"
  9700                           	line	61
  9701                           	global	__size_of_adc_read
  9702  0027                     	__size_of_adc_read	equ	__end_of_adc_read-_adc_read
  9703                           	
  9704  1700                     _adc_read:	
  9705                           	opt	stack 0
  9706                           ; Regs used in _adc_read: [wreg+status,2+status,0]
  9707                           	line	64
  9708                           	
  9709  1700                     i1l9031:	
  9710                           ;adc.c: 62: volatile unsigned int adc_value;
  9711                           ;adc.c: 64: ADRESH = 0;
  9712  1700  1283               	bcf	status, 5	;RP0=0, select bank0
  9713  1701  1303               	bcf	status, 6	;RP1=0, select bank0
  9714  1702  019E               	clrf	(30)	;volatile
  9715                           	line	66
  9716                           	
  9717  1703                     i1l9033:	
  9718                           ;adc.c: 66: GO = 1;
  9719  1703  151F               	bsf	(250/8),(250)&7
  9720                           	line	67
  9721                           ;adc.c: 67: while(GO) continue;
  9722  1704  2F05               	goto	i1l703
  9723                           	
  9724  1705                     i1l704:	
  9725                           	
  9726  1705                     i1l703:	
  9727  1705  191F               	btfsc	(250/8),(250)&7
  9728  1706  2F08               	goto	u301_21
  9729  1707  2F09               	goto	u301_20
  9730  1708                     u301_21:
  9731  1708  2F05               	goto	i1l703
  9732  1709                     u301_20:
  9733                           	
  9734  1709                     i1l705:	
  9735                           	line	68
  9736                           # 68 "E:\Aldnoah.Zero\Assignment3\adc.c"
  9737  1709  0000               nop ;#
  9738                           	line	69
  9739                           # 69 "E:\Aldnoah.Zero\Assignment3\adc.c"
  9740  170A  0000               nop ;#
  9741                           	line	70
  9742                           # 70 "E:\Aldnoah.Zero\Assignment3\adc.c"
  9743  170B  0000               nop ;#
  9744                           psect	text789
  9745                           	line	73
  9746                           	
  9747  170C                     i1l9035:	
  9748                           ;adc.c: 73: adc_value = ADRESH;
  9749  170C  1283               	bcf	status, 5	;RP0=0, select bank0
  9750  170D  1303               	bcf	status, 6	;RP1=0, select bank0
  9751  170E  081E               	movf	(30),w	;volatile
  9752  170F  00F2               	movwf	(??_adc_read+0)+0
  9753  1710  01F3               	clrf	(??_adc_read+0)+0+1
  9754  1711  0872               	movf	0+(??_adc_read+0)+0,w
  9755  1712  00F4               	movwf	(adc_read@adc_value)	;volatile
  9756  1713  0873               	movf	1+(??_adc_read+0)+0,w
  9757  1714  00F5               	movwf	(adc_read@adc_value+1)	;volatile
  9758                           	line	74
  9759                           ;adc.c: 74: adc_value <<= 1;
  9760  1715  3001               	movlw	01h
  9761                           	
  9762  1716                     u302_25:
  9763  1716  1003               	clrc
  9764  1717  0DF4               	rlf	(adc_read@adc_value),f	;volatile
  9765  1718  0DF5               	rlf	(adc_read@adc_value+1),f	;volatile
  9766  1719  3EFF               	addlw	-1
  9767  171A  1D03               	skipz
  9768  171B  2F16               	goto	u302_25
  9769                           	line	75
  9770                           ;adc.c: 75: adc_value |= (ADRESL >> 15);
  9771  171C  1683               	bsf	status, 5	;RP0=1, select bank1
  9772  171D  1303               	bcf	status, 6	;RP1=0, select bank1
  9773  171E  081E               	movf	(158)^080h,w	;volatile
  9774                           	line	78
  9775                           	
  9776  171F                     i1l9037:	
  9777                           ;adc.c: 78: return (adc_value);
  9778  171F  0875               	movf	(adc_read@adc_value+1),w	;volatile
  9779  1720  01F1               	clrf	(?_adc_read+1)
  9780  1721  07F1               	addwf	(?_adc_read+1)
  9781  1722  0874               	movf	(adc_read@adc_value),w	;volatile
  9782  1723  01F0               	clrf	(?_adc_read)
  9783  1724  07F0               	addwf	(?_adc_read)
  9784                           
  9785  1725  2F26               	goto	i1l706
  9786                           	
  9787  1726                     i1l9039:	
  9788                           	line	79
  9789                           	
  9790  1726                     i1l706:	
  9791  1726  0008               	return
  9792                           	opt stack 0
  9793                           GLOBAL	__end_of_adc_read
  9794  1727                     	__end_of_adc_read:
  9795 ;; =============== function _adc_read ends ============
  9796                           
  9797                           	signat	_adc_read,90
  9798                           psect	text790,local,class=CODE,delta=2
  9799                           global __ptext790
  9800  0000                     __ptext790:
  9801                           	global	btemp
  9802  007E                     	btemp set 07Eh
  9803                           
  9804                           	DABS	1,126,2	;btemp
  9805                           	global	wtemp0
  9806  007E                     	wtemp0 set btemp


HI-TECH Software PICC Macro Assembler V9.83 build 10920 
Symbol Table                                                                                   Fri Apr 17 13:14:47 2015

   __end_of_lcd_write_control 087C               ??_UpdateDisplay 0037                             pc 0002  
                          _GO 00FA                            _RD 0C60                            _WR 0C61  
                          fsr 0004           ___wmul@multiplicand 0072                  ___ftadd@exp1 003E  
                ___ftadd@exp2 003D                  ___ftadd@sign 003C                           l700 16AC  
                         _GIE 005F                           _RB0 0030                           _RB1 0031  
                         _RB2 0032                           _RB3 0033                           _RB4 0034  
                         _RB5 0035                           _RE0 0048                           _RB6 0036  
                         _RE1 0049                           _RE2 004A                           _RX9 00C6  
                         _TX9 04C6                           _pos 00D4                           fsr0 0004  
                         indf 0000                  ___awmod@sign 0076               ?_lcd_set_cursor 0070  
                ___ftdiv@cntr 0059                  ___ftdiv@sign 005E                          l1423 17CD  
                        l2180 0AB3                          l2172 0A6C                          l2181 0AC9  
                        l2173 0AB5                          l2182 0ACA                          l2174 0A6D  
                        l2183 0ACA                          l2175 0AC8                          l2176 0A7B  
                        l1393 087B                          l2169 16C4                          l2177 0A89  
                        l2178 0A97                          l2179 0AA5                          l5110 09AA  
                        l5111 09FF                          l5120 09EB                          l5112 09AB  
                        l5121 09CF                          l5113 09AC                          l5122 09D0  
                        l5114 09BB                          l5123 09D1                          l5115 09BC  
                        l5124 09D2                          l5116 09CC                          l5109 09EE  
                        l5125 09D3                          l5117 09CD                          l4350 174E  
                        l5126 09EC                          l5118 09D5                          l5119 09CE  
                        l5127 09FF                          l9221 1727                          l9231 1732  
                        l9223 172A                          l9241 173F                          l9233 1735  
                        l9225 172E                          l9243 1740                          l9235 1738  
                        l9227 172F                          l9251 09B2                          l9245 1741  
                        l9237 173B                          l9229 1731                          l9261 09D5  
                        l9253 09B6                          l9239 173C                          l9263 09ED  
                        l9255 09BC                          l9247 09A9                          l9257 09C9  
                        l9249 09AC                          l9265 09EE                          l9259 09D4  
                        _CHS0 00FB                          _CHS1 00FC                          _CHS2 00FD  
                        STR_1 0829                          STR_2 0830                          STR_3 0837  
                        STR_4 083E                          STR_5 0845                          STR_6 084C  
                        STR_7 0850                          STR_8 0854                          l9991 1699  
                        STR_9 0858                          l9993 169C                          l9995 16A0  
                        l9997 16A4                          l9999 16A8                          _BRGH 04C2  
                        _CREN 00C4                          u3270 09B6                          u3271 09B5  
                        u3280 09C9                          u3281 09C8                          _RCIE 0465  
                        _RCIF 0065                          _OERR 00C1                          u4867 0876  
                        u4877 16AA                          _TMR0 0001                          _SPEN 00C7  
                        _TXIE 0464                          _WREN 0C62                          _TXEN 04C5  
                        _TXIF 0064                          _SYNC 04C4           __size_of_ADCconvert 0509  
                        _Menu 09A6        __end_of_lcd_write_data 165E                          _isr1 0664  
                        _main 0A66                  ___ftpack@arg 0070                          _init 16AD  
                ___ftpack@exp 0073                          btemp 007E                _CenterReleased 0351  
                        start 0012                  ___ftmul@cntr 004D                  ___ftmul@sign 004E  
               ??_ReadButtons 0071                  ___fttol@exp1 002D                  ___fttol@lval 0029  
__size_ofi1_lcd_write_control 0014                         ?_Menu 0070                         l10001 0863  
                       l10003 0868                         l10011 17A7                         l10005 086E  
                       l10021 17B5                         l10013 17AA                         l10007 086F  
                       l10023 17BB                         l10015 17AB                         l10031 16BC  
                       l10025 17C1                         l10017 17AE                         l10009 17A3  
                       l10033 16C0                         l10041 0A6D                         l10027 17C7  
                       l10019 17AF                         l10035 16C2                         l10051 0A85  
                       l10043 0A73                         l10037 16C3                         l10029 16AD  
                       l10061 0A9D                         l10053 0A89                         l10045 0A77  
                       l10071 0AB4                         l10063 0AA1                         l10055 0A8F  
                       l10047 0A7B                         l10039 0A66                         l10065 0AA5  
                       l10057 0A93                         l10049 0A81                         l10073 0AB5  
                       l10067 0AAB                         l10059 0A97                         l10085 09DA  
                       l10069 0AAF                         ?_isr1 0070                         ?_main 0070  
                       ?_init 0070                         _EEADR 010D               __end_of___ftadd 0664  
                       STR_10 085C                         STR_11 081A               __end_of___awmod 0A66  
                       _CARRY 0018               __end_of___ftdiv 0E12               __end_of___ftneg 164B  
             __end_of___ftmul 0F00               __end_of___fttol 0BE3               __end_of___lwdiv 0951  
             __end_of___lwmod 0903                         i1l703 1705                         i1l704 1705  
                       i1l705 1709                         i1l706 1726                         i1l690 087E  
                       i1l691 08B1                         i1l692 0884                         i1l693 088A  
                       i1l694 0890                         i1l695 0896                         i1l696 089C  
                       i1l689 08A0                         i1l697 08BC                         _RCREG 001A  
                       _SPBRG 0099                         _PORTA 0005                         _PORTC 0007  
                       _PORTD 0008                         _PORTE 0009                         _TRISA 0085  
                       _TRISB 0086                         _TRISC 0087                         _TRISD 0088  
                       _TRISE 0089                         _TXREG 0019        lcd_write_data@databyte 0072  
               ___ftpack@sign 0074                         pclath 000A               ?_lcd_write_data 0070  
           ?_adc_read_channel 0070                         status 0003                         wtemp0 007E  
             __end_of_sprintf 1000              __end_of_Debounce 0C8B            ??_adc_read_channel 0076  
            ?_readAvgDistance 0070                  __end_of_Menu 0A00    __size_of_lcd_write_control 001C  
            _shortMenuStrings 00E5                  __end_of_isr1 077F                  __end_of_main 0ACD  
                __end_of_init 16C5                        ??_Menu 00EB                 ?_readDistance 0078  
      readAvgDistance@fullval 0061                        ??_isr1 0065                        ??_main 00EE  
               ___fttol@sign1 0028                        ??_init 00EE           __end_of_ReadButtons 1800  
                      _ADCON0 001F                        _ADCON1 009F                        _ADRESH 001E  
                      _ADRESL 009E                        _EEDATA 010C                        _EECON1 018C  
                      _EECON2 018D              __end_of___ftpack 07FA              __end_of_adc_read 1727  
                      i1l1402 1791                        i1l1403 177A                        i1l1404 17A2  
                      i1l1405 17A2                        i1l2160 0773                        i1l2161 06E7  
                      i1l2162 0708                        i1l2163 0735                        i1l2164 075E  
                      i1l2156 0686                        i1l2165 0772                        i1l2157 0685  
                      i1l2166 0773                        i1l2158 06B3                        i1l2159 06B3  
                      i1l1393 1684                        i1l1396 165D                        i1l5101 17DD  
                      i1l5102 17FF                        i1l5103 17E5                        i1l1399 1633  
                      i1l5104 17ED                        i1l5105 17F5                        i1l5106 17FD  
                      i1l6012 0AF9                        i1l5132 0CFD                        i1l6013 0B25  
                      i1l5133 0D0E                        i1l6014 0B3C                        i1l5150 0F1E  
                      i1l5134 0D49                        i1l5143 0FE6                        i1l5151 0F36  
                      i1l6008 1649                        i1l5160 0FE5                        i1l5152 0F1F  
                      i1l5144 0F08                        i1l6009 164A                        i1l5161 0FF9  
                      i1l5153 0F50                        i1l5145 0F1A                        i1l5090 0C40  
                      i1l5162 0FFF                        i1l5154 0F5B                        i1l5146 0F21  
                      i1l5091 0C47                        i1l5083 0BFF                        i1l5155 0F83  
                      i1l5147 0F1C                        i1l5092 0C62                        i1l5084 0BFE  
                      i1l6060 0A45                        i1l5148 0FFA                        i1l5156 0F78  
                      i1l5093 0C61                        i1l5085 0C05                        i1l6061 0A53  
                      i1l6053 0A0E                        i1l5157 0F95                        i1l5149 0F1D  
                      i1l5094 0C68                        i1l5086 0C20                        i1l6062 0A5E  
                      i1l6054 0A18                        i1l5158 0FDA                        i1l5095 0C83  
                      i1l5087 0C1F                        i1l6063 0A65                        i1l6055 0A54  
                      i1l5159 0F9A                        i1l5096 0C82                        i1l5088 0C26  
                      i1l6056 0A2E                        i1l2880 09A5                        i1l5097 0C8A  
                      i1l5089 0C41                        i1l6057 0A22                        i1l5098 0C8A  
                      i1l6058 0A33                        i1l2890 01EF                        i1l6059 0A34  
                      i1l2883 1698                        i1l2891 051B                        i1l6180 07F9  
                      i1l6068 16DF                        i1l2892 02B9                        i1l6181 07A1  
                      i1l2893 051A                        i1l6190 07E0                        i1l6182 0794  
                      i1l2894 0383                        i1l2886 00DF                        i1l2878 0966  
                      i1l6191 07F9                        i1l6183 07A8                        i1l2887 051D  
                      i1l2895 0519                        i1l2879 0987                        u301_20 1709  
                      i1l6184 07BF                        i1l2896 044D                        i1l2888 018E  
                      u301_21 1708                        i1l6185 07A9                        i1l6177 0793  
                      i1l2889 051C                        i1l2897 0518                        i1l6186 07C6  
                      i1l2898 0517                        i1l6187 07D2                        i1l6179 078B  
                      i1l2899 051D                        i1l6188 07C7                        i1l6189 07D6  
                      i1l9021 089F                        i1l5901 05A6                        i1l9101 0691  
                      i1l5910 05DD                        i1l5902 05A7                        i1l9031 1700  
                      i1l9007 0B39                        i1l9023 08A0                        i1l9015 087D  
                      i1l5911 05DE                        i1l5903 05B5                        i1l9111 06B7  
                      i1l9103 0699                        i1l5912 05EC                        i1l5904 05A8  
                      u310_20 0691                        i1l9033 1703                        i1l9009 0B3B  
                      i1l9017 089C                        i1l9025 08B1                        i1l9041 164C  
                      i1l9201 17EA                        i1l5913 05DF                        i1l5905 05BC  
                      i1l9121 06E7                        i1l9113 06B8                        i1l9105 069F  
                      u310_21 0690                        i1l5914 05F3                        i1l5906 05F4  
                      i1l9035 170C                        i1l5851 0949                        i1l9027 08B5  
                      i1l9019 089E                        i1l9043 1651                        i1l9211 17F9  
                      i1l9203 17EC                        i1l5915 0609                        i1l5907 05F4  
                      i1l9051 162D                        i1l9131 0735                        i1l9123 0706  
                      i1l9115 06C3                        i1l9107 06A7                        i1l5852 091B  
                      i1l5916 061E                        i1l5908 05C4                        i1l9037 171F  
                      u302_25 1716                        i1l5845 1752                        i1l5853 090F  
                      i1l5861 08FB                        i1l9029 08BC                        i1l9045 1653  
                      i1l9213 17FA                        i1l9205 17F1                        i1l5917 0647  
                      i1l5933 0D65                        i1l9053 1779                        i1l9301 02DD  
                      i1l9141 0765                        i1l9133 0754                        i1l9125 0708  
                      i1l9117 06C6                        i1l9109 06AF                        i1l5846 175C  
                      i1l5854 0920                        i1l5862 08D5                        i1l5934 0E11  
                      i1l5950 0ECC                        i1l9039 1726                        i1l5847 1771  
                      i1l5855 0921                        i1l5863 08C9                        i1l9047 1654  
                      i1l9215 17FC                        i1l9207 17F2                        i1l5935 0D7E  
                      i1l5951 0EE3                        i1l5943 0E2D                        i1l9055 177A  
                      i1l9311 044D                        i1l9303 0301                        i1l9151 0973  
                      i1l9143 0951                        i1l9135 0755                        i1l9127 0727  
                      i1l9119 06E5                        i1l5848 1778                        i1l5856 093A  
                      i1l5864 08DA                        i1l5960 0BC9                        i1l5936 0DC4  
                      i1l5944 0EFF                        u303_20 17A1                        u311_20 06AF  
                      i1l5857 0948                        i1l5865 08DB                        i1l5961 0BB5  
                      i1l9217 17FD                        i1l9209 17F4                        i1l5937 0DE6  
                      i1l5945 0E46                        i1l9049 162C                        u303_21 17A0  
                      i1l9057 178A                        i1l9313 0471                        i1l9305 0383  
                      i1l9153 0979                        i1l9145 0957                        i1l9161 0CA2  
                      i1l9137 0759                        i1l9129 0731                        u311_21 06AE  
                      i1l5858 0950                        i1l5866 08EC                        i1l5962 0BC2  
                      i1l5954 0B5A                        i1l5938 0DF5                        i1l5946 0E86  
                      i1l5867 08FA                        i1l5963 0BB6                        i1l5955 0BE2  
                      i1l9219 17FF                        i1l5891 054D                        i1l5947 0E9B  
                      i1l9059 1791                        i1l9315 0495                        i1l9307 03A7  
                      i1l9147 0965                        i1l9155 0987                        i1l9171 0CDD  
                      i1l9163 0CA8                        i1l9139 075E                        i1l9091 0670  
                      i1l5868 0902                        i1l5964 0BC8                        i1l5956 0BA5  
                      i1l5892 0663                        i1l5948 0EB2                        i1l5965 0BD9  
                      i1l5957 0B91                        i1l9501 0F15                        i1l5893 056A  
                      i1l5949 0EB7                        i1l9309 03CB                        i1l9157 09A0  
                      i1l9149 0966                        i1l9181 0D29                        i1l9173 0CEC  
                      i1l9165 0CC8                        i1l9093 0678                        i1l5958 0B92  
                      i1l5959 0BA4                        i1l9191 17DC                        i1l9183 17CE  
                      i1l9511 0F42                        i1l9503 0F20                        i1l5895 0569  
                      i1l9271 1691                        i1l9175 0CFD                        i1l9167 0CCE  
                      i1l9159 0C8B                        i1l9095 067E                        i1l9087 0664  
                      i1l5896 0573                        u400_20 055F                        u320_20 0C95  
                      u312_20 06B7                        i1l9601 08DB                        i1l9193 17E1  
                      i1l9185 17D3                        i1l9521 0F5A                        i1l9513 0F46  
                      i1l9505 0F21                        i1l5897 0578                        u400_21 055E  
                      i1l5889 0555                        i1l9273 1698                        i1l9281 00DF  
                      i1l9177 0D0E                        i1l9169 0CD7                        u312_21 06B6  
                      i1l9089 0668                        i1l9097 0686                        i1l5898 05BD  
                      i1l9611 0902                        i1l9603 08E5                        i1l9195 17E2  
                      i1l9187 17D9                        i1l9531 0F83                        i1l9523 0F5B  
                      i1l9515 0F4A                        i1l9507 0F36                        i1l5899 058D  
                      i1l9291 01BD                        i1l9283 00EA                        i1l9275 0015  
                      i1l9179 0D14                        i1l9099 068B                        i1l9461 0BFB  
                      i1l9453 0BE3                        i1l9605 08EC                        i1l9701 07C7  
                      i1l9197 17E4                        i1l9189 17DA                        i1l9541 0FCE  
                      i1l9533 0F89                        i1l9525 0F77                        i1l9517 0F50  
                      i1l9509 0F3E                        i1l9621 054D                        i1l9613 051E  
                      i1l9269 1685                        i1l9293 01EF                        i1l9285 010C  
                      i1l9277 0039                        i1l9471 0C2B                        i1l9463 0C0A  
                      i1l9455 0BE9                        i1l9607 08F3                        i1l9711 07F8  
                      i1l9703 07D2                        i1l9199 17E9                        i1l9551 0FFF  
                      i1l9543 0FD5                        i1l9535 0F90                        i1l9527 0F78  
                      i1l9519 0F53                        i1l9631 056A                        i1l9623 0554  
                      i1l9615 0538                        i1l9295 0213                        i1l9287 018E  
                      i1l9279 005D                        u401_20 0569                        u321_20 0CEC  
                      u313_20 06E5                        i1l9481 0C52                        i1l9473 0C31  
                      i1l9465 0C10                        i1l9457 0BEF                        i1l9561 1771  
                      i1l9553 174F                        i1l9609 08FB                        i1l9705 07DA  
                      i1l9545 0FDA                        i1l9537 0F95                        i1l9529 0F7C  
                      i1l9641 057F                        i1l9633 056E                        u401_21 0568  
                      i1l9625 0555                        i1l9617 053C                        i1l9721 0D5D  
                      i1l9801 0ECC                        i1l9297 0237                        i1l9289 01B2  
                      u321_21 0CEB                        u313_21 06E4                        i1l9491 0C79  
                      i1l9483 0C58                        i1l9475 0C37                        i1l9467 0C16  
                      i1l9459 0BF5                        i1l9563 1778                        i1l9555 1752  
                      i1l9571 090F                        i1l9707 07E2                        i1l9811 0B3D  
                      i1l9539 0F9A                        i1l9547 0FE6                        i1l9651 05B5  
                      i1l9643 058D                        i1l9635 0572                        i1l9627 0559  
                      i1l9619 0542                        i1l9731 0D7E                        i1l9723 0D64  
                      i1l9803 0ED4                        i1l9299 02B9                        i1l9493 0C7F  
                      i1l9485 0C5E                        i1l9477 0C3D                        i1l9469 0C1C  
                      i1l9557 1756                        i1l9581 0938                        i1l9573 0916  
                      i1l9565 0903                        i1l9709 07F4                        i1l9821 0B6D  
                      i1l9813 0B50                        i1l9901 0B3C                        i1l9549 0FFA  
                      i1l9661 05DF                        i1l9645 0597                        i1l9653 05BD  
                      i1l9637 0577                        i1l9629 055F                        i1l9741 0DB1  
                      i1l9733 0D84                        i1l9725 0D65                        i1l9805 0EDC  
                      u321_25 0CE8                        i1l9487 0C6D                        i1l9479 0C4C  
                      i1l9559 1763                        i1l9583 093A                        i1l9575 091B  
                      i1l9567 0905                        i1l9591 08BD                        i1l9831 0B87  
                      i1l9823 0B73                        i1l9815 0B59                        i1l9911 0A18  
                      i1l9903 0A00                        i1l9495 0F03                        i1l9671 061E  
                      i1l9663 05EC                        i1l9655 05C4                        i1l9647 059D  
                      i1l9639 0579                        i1l9751 0DE4                        i1l9743 0DB8  
                      i1l9735 0D89                        i1l9727 0D76                        i1l9719 0D4A  
                      i1l9807 0EE3                        u322_20 17D9                        u410_20 05C3  
                      u402_20 0572                        u330_20 005D                        u314_20 0706  
                      i1l9489 0C73                        i1l9585 0941                        i1l9577 0921  
                      i1l9569 090B                        i1l9593 08C5                        i1l9841 0BB4  
                      i1l9833 0B90                        i1l9825 0B7A                        i1l9817 0B5A  
                      i1l9921 0A34                        i1l9913 0A1E                        i1l9905 0A05  
                      u322_21 17D8                        i1l9497 0F08                        i1l9681 0663  
                      i1l9673 062F                        i1l9665 05F8                        i1l9657 05CE  
                      u410_21 05C2                        i1l9649 05A8                        u402_21 0571  
                      i1l9753 0DE6                        i1l9745 0DC4                        i1l9737 0D9B  
                      i1l9729 0D7D                        i1l9809 0EFF                        i1l9761 0E12  
                      u330_21 005C                        u314_21 0705                        i1l9579 0932  
                      i1l9587 0949                        i1l9595 08C9                        i1l9691 0794  
                      i1l9683 077F                        i1l9851 0BD9                        i1l9843 0BB6  
                      i1l9835 0B92                        i1l9827 0B7C                        i1l9819 0B6C  
                      i1l9931 0A58                        i1l9923 0A3E                        i1l9915 0A22  
                      i1l9907 0A0E                        i1l9499 0F0E                        i1l9675 0633  
                      i1l9667 0609                        i1l9659 05D4                        i1l9755 0DEE  
                      i1l9747 0DCC                        i1l9739 0DAD                        i1l9771 0E45  
                      i1l9763 0E25                        i1l9589 0950                        i1l9597 08D0  
                      i1l9693 07A1                        i1l9685 0783                        i1l9853 0BE2  
                      i1l9845 0BC2                        i1l9829 0B80                        i1l9837 0BA5  
                      i1l9933 0A5E                        i1l9925 0A45                        i1l9917 0A29  
                      i1l9909 0A12                        i1l9677 0643                        i1l9669 060D  
                      i1l9757 0DF5                        i1l9749 0DDA                        i1l9781 0E7B  
                      i1l9773 0E46                        i1l9765 0E2C                        i1l9599 08D5  
                      i1l9695 07A9                        i1l9687 078B                        i1l9839 0BAB  
                      i1l9847 0BC9                        i1l9935 0A65                        i1l9927 0A4C  
                      i1l9919 0A2E                        i1l9679 0647                        i1l9759 0E11  
                      i1l9791 0EA3                        i1l9783 0E81                        i1l9775 0E73  
                      i1l9767 0E2D                        u323_20 17E1                        u403_20 0577  
                      u331_20 00EA                        u315_20 0727                        u307_20 0668  
                      i1l9697 07AD                        i1l9689 0792                        i1l9849 0BCD  
                      i1l9881 164A                        i1l9929 0A54                        u323_21 17E0  
                      u403_21 0576                        i1l9793 0EAB                        i1l9785 0E86  
                      i1l9777 0E74                        i1l9769 0E3E                        i1l9937 16C5  
                      u331_21 00E9                        u315_21 0726                        u307_21 0667  
                      i1l9699 07B7                        i1l9875 163F                        i1l9891 0B25  
                      i1l9883 0ACD                        i1l9795 0EB2                        i1l9787 0E8A  
                      i1l9779 0E75                        i1l9939 16DF                        i1l9877 1646  
                      i1l9893 0B27                        i1l9885 0AD1                        u411_25 05C5  
                      i1l9797 0EB7                        i1l9789 0E9B                        i1l9879 1649  
                      i1l9895 0B29                        i1l9887 0AF9                        i1l9799 0EBB  
                      i1l9983 1672                        u420_20 0783                        u324_20 17E9  
                      u412_20 05D4                        u404_20 058C                        u340_20 03CB  
                      u332_20 010C                        u316_20 0754                        u308_20 067E  
                      i1l9897 0B37                        i1l9889 0AFD                        u324_21 17E8  
                      u412_21 05D3                        u404_21 058B                        i1l9985 1677  
                      u340_21 03CA                        u332_21 010B                        u316_21 0753  
                      u308_21 067D                        i1l9899 0B39                        i1l9987 1679  
                      i1l9989 167A                        u421_20 078A                        u325_20 17F1  
                      u413_20 05DC                        u341_20 0471                        u333_20 01B2  
                      u317_20 0765                        u309_20 068B                        u421_21 0789  
                      u325_21 17F0                        u413_21 05DB                        u341_21 0470  
                      u333_21 01B1                        u317_21 0764                        u309_21 068A  
                      u405_25 058E                        u430_20 07F8                        u326_20 17F9  
                      u406_20 059D                        u342_20 0495                        u334_20 01BD  
                      u318_20 0964                        u326_21 17F8                        u406_21 059C  
                      u342_21 0494                        u334_21 01BC                        u318_21 0963  
                      u422_25 0799                        u414_25 05E0                        u318_25 0960  
                      u423_20 07A7                        u415_20 05F2                        u407_20 05A5  
                      u431_20 0D5D                        u335_20 0213                        u319_20 0986  
                      u423_21 07A6                        u415_21 05F1                        u407_21 05A4  
                      u431_21 0D5C                        u335_21 0212                        u319_21 0985  
                      u319_25 0982                        u360_20 0C16                        u416_20 05F8  
                      u432_20 0D76                        u440_20 0E3E                        u336_20 0237  
                      u360_21 0C15                        u416_21 05F7                        u432_21 0D75  
                      u440_21 0E3D                        u336_21 0236                        u424_25 07B8  
                      u408_25 05A9                        u361_20 0C1C                        u425_20 07C5  
                      u417_20 060D                        u409_20 05BB                        u433_20 0D94  
                      u441_20 0E56                        u337_20 02DD                        u329_20 0039  
                      u361_21 0C1B                        u425_21 07C4                        u417_21 060C  
                      u409_21 05BA                        u337_21 02DC                        u329_21 0038  
                      u433_25 0D90                        u441_25 0E52                        u370_20 0C7F  
                      u362_20 0C2B                        u434_20 0DA6                        u442_20 0E68  
                      u338_20 0301                        u370_21 0C7E                        u362_21 0C2A  
                      u418_21 0628                        u338_21 0300                        u418_22 062F  
            __end_of___lwtoft 16E0                        u426_25 07CA                        u434_25 0DA2  
                      u450_25 0ECD                        u442_25 0E64                        u363_20 0C37  
                      u427_20 07D6                        u371_20 0F0E                        u419_20 0633  
                      u443_20 0E8A                        u339_20 03A7                        u363_21 0C36  
                      u427_21 07D5                        u371_21 0F0D                        u419_21 0632  
                      u443_21 0E89                        u339_21 03A6                        u435_25 0DC5  
                      u451_25 0ED5                        u364_20 0C3D                        u356_20 0BE9  
                      u428_20 07DA                        u372_20 0F46                        u436_20 0DDA  
                      u452_20 0EE2                        u364_21 0C3C                        u356_21 0BE8  
                      u428_21 07D9                        u372_21 0F45                        u436_21 0DD9  
                      u452_21 0EE1                        u444_21 0E93                        u444_22 0E9A  
                      u380_25 175D                        u460_25 0BB8                        u436_25 0DD6  
                      u365_20 0C4C                        u357_20 0BF5                        u429_20 07EB  
                      u461_20 0BC7                        u453_20 0B50                        u373_20 0F59  
                      u365_21 0C4B                        u357_21 0BF4                        u461_21 0BC6  
                      u453_21 0B4F                        u373_21 0F58                        u381_25 1764  
                      u429_25 07E7                        u437_25 0DE7                        u445_25 0E9C  
                      u366_20 0C58                        u358_20 0BFB                        u382_20 1770  
                      u390_20 08C5                        u462_20 0BCD                        u454_20 0B65  
                      u470_20 0B37                        u374_20 0F76                        u438_20 0DF4  
                      u366_21 0C57                        u358_21 0BFA                        u382_21 176F  
                      u390_21 08C4                        u470_21 0B36                        u374_21 0F75  
                      u438_21 0DF3                        u454_25 0B61                        u470_25 0B33  
                      u374_25 0F72                        u446_25 0EA4                        u367_20 0C5E  
                      u359_20 0C0A                        u383_20 090B                        u455_20 0B80  
                      u471_20 0A05                        u375_20 0F82                        u447_20 0EB1  
                      u439_20 0E25                        u367_21 0C5D                        u359_21 0C09  
                      u383_21 090A                        u455_21 0B7F                        u471_21 0A04  
                      u375_21 0F81                        u447_21 0EB0                        u439_21 0E24  
                      u391_25 08CA                        u368_20 0C6D                        u392_20 08D9  
                      u456_20 0B87                        u472_20 0A12                        u376_20 0F89  
                      u448_20 0EBB                        u368_21 0C6C                        u392_21 08D8  
                      u456_21 0B86                        u472_21 0A11                        u376_21 0F88  
                      u448_21 0EBA                        u384_25 0910                        u369_20 0C79  
                      u385_20 091F                        u393_20 08E5                        u465_20 1646  
                      u473_20 0A1E                        u377_20 0FE4                        u369_21 0C78  
                      u385_21 091E                        u393_21 08E4                        u465_21 1645  
                      u473_21 0A1D                        u377_21 0FE3                        u449_21 0EC4  
                      u449_22 0ECB                        u393_25 08E1                        u457_25 0B93  
                      u458_20 0BA3                        u466_20 0AD1                        u378_20 0FF8  
                      u458_21 0BA2                        u466_21 0AD0                        u378_21 0FF7  
                      u386_25 0922                        u394_25 08ED                        u474_25 0A23  
                      u490_27 08B3                        u379_20 1756                        u387_20 0932  
                      u395_20 08F9                        u459_20 0BAB                        u475_20 0A32  
                      u379_21 1755                        u387_21 0931                        u395_21 08F8  
                      u459_21 0BAA                        u467_21 0AEB                        u475_21 0A31  
                      u467_22 0AEC                        u467_23 0AF1                        u467_24 0AF2  
                      u387_25 092E                        u468_20 0AFD                        u476_20 0A3E  
                      u396_20 053C                        u468_21 0AFC                        u476_21 0A3D  
                      u388_25 093B                        u476_25 0A3A                        u389_20 0947  
                      u397_20 0542                        u389_21 0946                        u469_21 0B17  
                      u397_21 0541                        u469_22 0B18                        u469_23 0B1D  
                      u469_24 0B1E                        u477_25 0A46                        u478_20 0A52  
                      u398_20 054C                        u478_21 0A51                        u398_21 054B  
                      u479_20 0A58                        u399_20 0559                        u488_27 167F  
                      u489_27 1659                        _TMR0IE 005D                        _TMR0IF 005A  
                  _UpReleased 035E              __end_of_lcd_init 17CE                        _adcVal 006C  
                      ___ftge 0ACD               _UpDebounceCount 00DA                        ___wmul 174F  
                   ??___ftadd 0038                     ??___awmod 0074                     ??___ftdiv 0055  
                   ??___ftneg 007B                     ??___ftmul 0045                  ??_ADCconvert 005F  
                   ??___fttol 0024                     ??___lwdiv 007A                     ??___lwmod 0024  
            __end_of_init_adc 16AD                ??_readDistance 007A               ___awmod@divisor 0070  
    __end_of_lcd_write_string 17A3               ___awmod@counter 0075                        _rxfifo 00B0  
                      clrloop 1624                        _txfifo 00C0                        _rxiptr 006E  
                      _rxoptr 00DD                        _txiptr 006F         ___ftmul@f3_as_product 004A  
                      _txoptr 00DF              __end_of_ser_init 174F                        saved_w 007E  
                 _LeftPressed 0354                     ??_sprintf 002B                   _DownPressed 0352  
           lcd_write_string@s 0077            __end_of_ADCconvert 051E                    ___ftadd@f1 0032  
                  ___ftadd@f2 0035                    ___ftge@ff1 0078                    ___ftge@ff2 007B  
                  ___ftdiv@f1 0052                    ___ftdiv@f2 004F                    ___ftdiv@f3 005A  
                  ___ftneg@f1 0078                    ___ftmul@f1 003F                    ___ftmul@f2 0042  
                  ___fttol@f1 0020                __pcstackCOMMON 0070                  __pidataBANK1 1634  
                 _ReadButtons 17CE                    ___lwtoft@c 002E              ??_lcd_set_cursor 0073  
                   ?_Debounce 0070                 _buttonPressed 00DB           i1_lcd_write_control 1671  
                  __pbssBANK0 006C                    __pbssBANK1 00A0             _DownDebounceCount 00D7  
          _RightDebounceCount 00D9                    __pmaintext 0A66                       ?___ftge 0078  
                     ?___wmul 0070                    __pintentry 0004          ?i1_lcd_write_control 0070  
       __end_of_UpdateDisplay 0D4A                     ?___ftpack 0070                     ?_adc_read 0070  
                   ?___lwtoft 002E                    ??_Debounce 0070              ??_lcd_write_data 0070  
                   ?_lcd_init 0070          __end_of_readDistance 1699                     ?_init_adc 0070  
                   ?_ser_init 0070               __size_of___ftge 0070                       ___ftadd 051E  
                     ___awmod 0A00         ??i1_lcd_write_control 0070                       ___ftdiv 0D4A  
                     ___ftneg 163F               __size_of___wmul 002A                       ___ftmul 0E12  
                     ___fttol 0B3D                       ___lwdiv 0903                       ___lwmod 08BD  
   __size_of_adc_read_channel 0041                    ??___ftpack 0075                    ??_adc_read 0072  
                  ??___lwtoft 0031                       _dpowers 0810              ___awmod@dividend 0072  
                     _ser_tmp 00DE                       _sprintf 0F00                    ??_lcd_init 00EE  
        end_of_initialization 16FC                       init_ram 1662                    ??_init_adc 00EB  
                _LeftReleased 0355                    ??_ser_init 00EB                  _DownReleased 0353  
               _RightReleased 035C      __size_of_readAvgDistance 0055             ?_lcd_write_string 0077  
          ??_lcd_write_string 0079             adc_read@adc_value 0074                   ___ftdiv@exp 005D  
                   Menu@input 00EB                   ___ftmul@exp 0049                 _CenterPressed 0350  
                ?_ReadButtons 0070                __end_of___ftge 0B3D                __end_of___wmul 1779  
               __pbitbssBANK0 0350           start_initialization 16E0         __size_of_readDistance 0014  
           __size_of_Debounce 00A8         lcd_set_cursor@address 0073                     _UpPressed 035D  
                    ??___ftge 0020                _RTC_FLAG_250MS 0358                _RTC_FLAG_500MS 0359  
                    ??___wmul 0074                   __pdataBANK1 00E0              _adc_read_channel 087C  
                _readDistance 1685             __size_of___ftpack 007B             __size_of_adc_read 0027  
           ??_readAvgDistance 007E             __size_of___lwtoft 001B                 __pcstackBANK0 0020  
               __pcstackBANK1 00EB             __size_of_lcd_init 002B                   sprintf@_val 0031  
                 sprintf@flag 002F                   sprintf@prec 0030                  _current_step 00EA  
            readAvgDistance@i 0063             __size_of_init_adc 0014              ___lwdiv@dividend 0078  
                    ?___ftadd 0032                      ?___awmod 0070                     __ptext760 0860  
                   __ptext761 1699                     __ptext770 162B                     __ptext762 09A6  
                   __ptext771 1671                     __ptext763 1727                     __ptext780 0A00  
                   __ptext772 16C5                     __ptext764 0664                     __ptext781 0ACD  
                   __ptext773 0E12                     __ptext765 0C8B                     __ptext790 0000  
                   __ptext782 163F                     __ptext774 0D4A                     __ptext766 0951  
                   __ptext758 16AD                     __ptext783 0B3D                     __ptext775 051E  
                   __ptext767 0015                     __ptext759 17A3                     __ptext784 077F  
                   __ptext776 0F00                     __ptext768 1685                     __ptext785 08BD  
                   __ptext777 17CE                     __ptext769 1779                     __ptext786 0903  
                   __ptext778 164B                     __ptext787 174F                     __ptext779 087C  
                   __ptext788 0BE3                     __ptext789 1700                      ?___ftdiv 004F  
                    ?___ftneg 0078                      ?___ftmul 003F             __size_of_ser_init 0028  
                    ?___fttol 0020                      ?___lwdiv 0076                      ?___lwmod 0020  
                   __pstrings 0800           readDistance@fullval 007C              ___lwdiv@quotient 007B  
                    ?_sprintf 0026       __size_of_lcd_set_cursor 0009             interrupt_function 0004  
      __size_of_UpdateDisplay 00BF                ___wmul@product 0074   __end_ofi1_lcd_write_control 1685  
                _RightPressed 035B          __size_of_ReadButtons 0032                   __stringbase 080F  
           ___wmul@multiplier 0070        UpdateDisplay@adcOutput 003B                      _Debounce 0BE3  
           _LeftDebounceCount 00D8     __size_of_lcd_write_string 002A       __size_of_lcd_write_data 0013  
     adc_read_channel@channel 0077                 _RTC_FLAG_10MS 0356                 _RTC_FLAG_50MS 035A  
                   init_fetch 165E                    _ADCconvert 0015              __size_of___ftadd 0146  
            __size_of___awmod 0066              __size_of___ftdiv 00C8              __size_of___ftneg 000C  
            __size_of___ftmul 00EE              __size_of___fttol 00A6              __size_of___lwdiv 004E  
            __size_of___lwmod 0046                      ___ftpack 077F                 _UpdateDisplay 0C8B  
                    _adc_read 1700                      ___lwtoft 16C5               ___lwdiv@divisor 0076  
             ___lwdiv@counter 007D                   _menuStrings 00E0                      _lcd_init 17A3  
                    _distance 00D2              __size_of_sprintf 0100      __end_of_adc_read_channel 08BD  
   lcd_write_control@databyte 00ED                 __size_of_Menu 005A                      _init_adc 1699  
               __size_of_isr1 011B                 __size_of_main 0067                 __size_of_init 0018  
                    clear_ram 1623                      _ser_init 1727               _readAvgDistance 0951  
              ?_UpdateDisplay 0070           _CenterDebounceCount 00D6                  _RTC_FLAG_1MS 0357  
          UpdateDisplay@F1206 00A0                      intlevel1 0000                _lcd_set_cursor 162B  
                   sprintf@ap 002E                     sprintf@sp 0035              ___lwmod@dividend 0022  
                   stringcode 080A                   ?_ADCconvert 0070             _lcd_write_control 0860  
 i1lcd_write_control@databyte 0072            ?_lcd_write_control 0070                    _OPTION_REG 0081  
                    sprintf@c 0036                      sprintf@f 0026               ___lwmod@divisor 0020  
             ___lwmod@counter 0025                      stringdir 080A                      stringtab 0800  
         ??_lcd_write_control 00EB        __end_of_lcd_set_cursor 1634              _lcd_write_string 1779  
           _current_direction 00DC                   _RTC_Counter 00D0       __end_of_readAvgDistance 09A6  
              _lcd_write_data 164B  
