HI-TECH Software C Compiler 

Linker command line:

--edf=C:\Program Files\HI-TECH Software\PICC\9.83\dat\en_msgs.txt -cs \
  -h+Assignment3_AldnoahZero.sym -z -Q16F877A -ol.obj \
  -MAssignment3_AldnoahZero.map -E1 -ACONST=00h-0FFhx32 -ACODE=00h-07FFhx4 \
  -ASTRCODE=00h-01FFFh -AENTRY=00h-0FFhx32 -ASTRING=00h-0FFhx32 \
  -ABANK0=020h-06Fh -ABANK1=0A0h-0EFh -ABANK2=0110h-016Fh \
  -ABANK3=0190h-01EFh -ARAM=020h-06Fh,0A0h-0EFh,0110h-016Fh,0190h-01EFh \
  -AABS1=020h-07Fh,0A0h-0EFh,0110h-016Fh,0190h-01EFh -ACOMMON=070h-07Fh \
  -ASFR0=00h-01Fh -ASFR1=080h-09Fh -ASFR2=0100h-010Fh -ASFR3=0180h-018Fh \
  -preset_vec=00h,intentry=04h,init,end_init -ppowerup=CODE -pfunctab=CODE \
  -ACONFIG=02007h-02007h -pconfig=CONFIG -DCONFIG=2 -AIDLOC=02000h-02003h \
  -pidloc=IDLOC -DIDLOC=2 -AEEDATA=00h-0FFh/02100h -peeprom_data=EEDATA \
  -DEEDATA=2 -DCODE=2 -DSTRCODE=2 -DSTRING=2 -DCONST=2 -DENTRY=2 -k \
  startup.obj Assignment3_AldnoahZero.obj 

Object code version is 3.10

Machine type is 16F877A



                Name                               Link     Load   Length Selector   Space Scale
startup.obj     end_init                             12       12        3        8       0
                reset_vec                             0        0        3        0       0
Assignment3_AldnoahZero.obj
                intentry                              4        4        E        8       0
                config                             2007     2007        1     400E       0
                text1216                            661      661       98        8       0
                text1215                            C63      C63       44     18C6       0
                text1214                            BC8      BC8       30     1790       0
                text1213                            591      591       D0        8       0
                text1212                            AC0      AC0       29     1580       0
                text1211                            B6C      B6C       2E     16D8       0
                text1210                            CED      CED       47     19DA       0
                text1209                            A4B      A4B       14     1496       0
                text1208                            A9F      A9F       21     153E       0
                text1207                            B14      B14       2C     1628       0
                text1206                            D34      D34       50     1A68       0
                text1205                            CA7      CA7       46     194E       0
                text1204                            E8D      E8D       68     1D1A       0
                text1203                            C28      C28       3B     1850       0
                text1202                            A73      A73       16     14E6       0
                text1201                            A5F      A5F       14     14BE       0
                text1200                            A25      A25       13     144A       0
                text1199                            9F9      9F9        D     13F2       0
                text1198                            D84      D84       50     1B08       0
                text1197                            F78      F78       88     1EF0       0
                text1196                            6F9      6F9       88        8       0
                text1195                             15       15      223        8       0
                text1194                            491      491      100        8       0
                text1193                            A13      A13       12     1426       0
                text1192                            9EE      9EE        B     13DC       0
                text1191                            B40      B40       2C     1680       0
                text1190                            AE9      AE9       2B     15D2       0
                text1189                            9DF      9DF        7     13BE       0
                text1188                            A89      A89       16     1512       0
                text1187                            BF8      BF8       30     17F0       0
                text1186                            238      238      14D        8       0
                text1185                            DD4      DD4       55     1BA8       0
                text1184                            E29      E29       64     1C52       0
                text1183                            EF5      EF5       83     1DEA       0
                maintext                            385      385      10C        8       0
                cstackBANK0                          20       20       48       20       1
                cstackCOMMON                         72       72        C       70       1
                inittext                            A38      A38       13     1470       0
                clrtext                             9E6      9E6        8     13CC       0
                bssBANK3                            190      190       10      190       1
                dataBANK1                            E0       E0        D       A0       1
                bssBANK1                             A0       A0       40       A0       1
                bssBANK0                             68       68        7       20       1
                bitbssBANK0                         378       6F        1       20       1     8
                bitbssCOMMON                        380       70        F       70       1     8
                cinit                               B9A      B9A       2E     1734       0
                strings                             781      781       79      F02       0
                idataBANK1                          A06      A06        D     140C       0

TOTAL           Name                               Link     Load   Length     Space
        CLASS   CONST          

        CLASS   CODE           
                end_init                             12       12        3         0
                intentry                              4        4        E         0
                reset_vec                             0        0        3         0
                text1216                            661      661       98         0
                text1215                            C63      C63       44         0
                text1214                            BC8      BC8       30         0
                text1213                            591      591       D0         0
                text1212                            AC0      AC0       29         0
                text1211                            B6C      B6C       2E         0
                text1210                            CED      CED       47         0
                text1209                            A4B      A4B       14         0
                text1208                            A9F      A9F       21         0
                text1207                            B14      B14       2C         0
                text1206                            D34      D34       50         0
                text1205                            CA7      CA7       46         0
                text1204                            E8D      E8D       68         0
                text1203                            C28      C28       3B         0
                text1202                            A73      A73       16         0
                text1201                            A5F      A5F       14         0
                text1200                            A25      A25       13         0
                text1199                            9F9      9F9        D         0
                text1198                            D84      D84       50         0
                text1197                            F78      F78       88         0
                text1196                            6F9      6F9       88         0
                text1195                             15       15      223         0
                text1194                            491      491      100         0
                text1193                            A13      A13       12         0
                text1192                            9EE      9EE        B         0
                text1191                            B40      B40       2C         0
                text1190                            AE9      AE9       2B         0
                text1189                            9DF      9DF        7         0
                text1188                            A89      A89       16         0
                text1187                            BF8      BF8       30         0
                text1186                            238      238      14D         0
                text1185                            DD4      DD4       55         0
                text1184                            E29      E29       64         0
                text1183                            EF5      EF5       83         0
                maintext                            385      385      10C         0
                inittext                            A38      A38       13         0
                clrtext                             9E6      9E6        8         0
                cinit                               B9A      B9A       2E         0
                idataBANK1                          A06      A06        D         0

        CLASS   STRCODE        

        CLASS   ENTRY          

        CLASS   STRING         
                strings                             781      781       79         0

        CLASS   BANK0          
                cstackBANK0                          20       20       48         1
                bssBANK0                             68       68        7         1
                bitbssBANK0                         378       6F        1         1

        CLASS   BANK1          
                dataBANK1                            E0       E0        D         1
                bssBANK1                             A0       A0       40         1

        CLASS   BANK2          

        CLASS   BANK3          
                bssBANK3                            190      190       10         1

        CLASS   RAM            

        CLASS   ABS1           
                abs_s1                               7E       7E        2         1

        CLASS   COMMON         
                cstackCOMMON                         72       72        C         1
                bitbssCOMMON                        380       70        F         1

        CLASS   SFR0           

        CLASS   SFR1           

        CLASS   SFR2           

        CLASS   SFR3           

        CLASS   CONFIG         
                config                             2007     2007        1         0

        CLASS   IDLOC          

        CLASS   EEDATA         



SEGMENTS        Name                           Load    Length   Top    Selector   Space  Class     Delta

                reset_vec                      000000  000003  000003         0       0  CODE        2
                intentry                       000004  00077D  000781         8       0  CODE        2
                cstackBANK0                    000020  000050  000070        20       1  BANK0       1
                bitbssCOMMON                   000070  00000E  00007E        70       1  COMMON      1
                bssBANK1                       0000A0  00004D  0000ED        A0       1  BANK1       1
                bssBANK3                       000190  000010  0001A0       190       1  BANK3       1
                strings                        000781  000079  0007FA       F02       0  STRING      2
                text1189                       0009DF  000007  0009E6      13BE       0  CODE        2
                clrtext                        0009E6  000008  0009EE      13CC       0  CODE        2
                text1192                       0009EE  00000B  0009F9      13DC       0  CODE        2
                text1199                       0009F9  00000D  000A06      13F2       0  CODE        2
                idataBANK1                     000A06  00000D  000A13      140C       0  CODE        2
                text1193                       000A13  000012  000A25      1426       0  CODE        2
                text1200                       000A25  000013  000A38      144A       0  CODE        2
                inittext                       000A38  000013  000A4B      1470       0  CODE        2
                text1209                       000A4B  000014  000A5F      1496       0  CODE        2
                text1201                       000A5F  000014  000A73      14BE       0  CODE        2
                text1202                       000A73  000016  000A89      14E6       0  CODE        2
                text1188                       000A89  000016  000A9F      1512       0  CODE        2
                text1208                       000A9F  000021  000AC0      153E       0  CODE        2
                text1212                       000AC0  000029  000AE9      1580       0  CODE        2
                text1190                       000AE9  00002B  000B14      15D2       0  CODE        2
                text1207                       000B14  00002C  000B40      1628       0  CODE        2
                text1191                       000B40  00002C  000B6C      1680       0  CODE        2
                text1211                       000B6C  00002E  000B9A      16D8       0  CODE        2
                cinit                          000B9A  00002E  000BC8      1734       0  CODE        2
                text1214                       000BC8  000030  000BF8      1790       0  CODE        2
                text1187                       000BF8  000030  000C28      17F0       0  CODE        2
                text1203                       000C28  00003B  000C63      1850       0  CODE        2
                text1215                       000C63  000044  000CA7      18C6       0  CODE        2
                text1205                       000CA7  000046  000CED      194E       0  CODE        2
                text1210                       000CED  000047  000D34      19DA       0  CODE        2
                text1206                       000D34  000050  000D84      1A68       0  CODE        2
                text1198                       000D84  000050  000DD4      1B08       0  CODE        2
                text1185                       000DD4  000055  000E29      1BA8       0  CODE        2
                text1184                       000E29  000064  000E8D      1C52       0  CODE        2
                text1204                       000E8D  000068  000EF5      1D1A       0  CODE        2
                text1183                       000EF5  000083  000F78      1DEA       0  CODE        2
                text1197                       000F78  000088  001000      1EF0       0  CODE        2
                config                         002007  000001  002008      400E       0  CONFIG      2


UNUSED ADDRESS RANGES

        Name                Unused          Largest block    Delta
        BANK1            00ED-00EF              3           1
        BANK2            0110-016F             60           1
        BANK3            01A0-01EF             50           1
        CODE             0003-0003              1           2
                         07FA-09DE              6
                         1000-1FFF            800
        CONST            0003-0003              1           2
                         07FA-09DE            100
                         1000-1FFF            100
        EEDATA           2100-21FF            100           2
        ENTRY            0003-0003              1           2
                         07FA-09DE            100
                         1000-1FFF            100
        IDLOC            2000-2003              4           2
        RAM              00ED-00EF              3           1
                         0110-016F             60
                         01A0-01EF             50
        SFR0             0000-001F             20           1
        SFR1             0080-009F             20           1
        SFR2             0100-010F             10           1
        SFR3             0180-018F             10           1
        STRCODE          0003-0003              1           2
                         07FA-09DE            1E5
                         1000-1FFF           1000
        STRING           0003-0003              1           2
                         07FA-09DE            100
                         1000-1FFF            100

                                  Symbol Table

??_ADCconvert               cstackBANK0  002E
??_Debounce                 cstackCOMMON 0072
??_Menu                     cstackBANK0  0020
??_ReadButtons              cstackCOMMON 0073
??_UpdateDisplay            cstackBANK0  0045
??___awmod                  cstackBANK0  0024
??___lwdiv                  cstackBANK0  002A
??___lwmod                  cstackBANK0  0032
??___wmul                   cstackBANK0  0024
??_adc_read                 cstackBANK0  0022
??_adc_read_channel         cstackBANK0  0026
??_calibrateIR              cstackBANK0  005A
??_init                     cstackBANK0  0023
??_init_adc                 cstackBANK0  0020
??_isr1                     cstackCOMMON 0078
??_lcd_init                 cstackBANK0  0023
??_lcd_set_cursor           cstackBANK0  0023
??_lcd_write_control        cstackBANK0  0020
??_lcd_write_data           cstackBANK0  0020
??_lcd_write_string         cstackBANK0  0029
??_main                     cstackBANK0  0062
??_readAvgDistance          cstackBANK0  0030
??_readDistance             cstackBANK0  002A
??_robo_init                cstackBANK0  0022
??_robotMove                cstackBANK0  0024
??_robotTurn                cstackBANK0  0024
??_robot_distance           cstackBANK0  0023
??_robot_read               cstackBANK0  0022
??_rotate                   cstackBANK0  0026
??_scan360                  cstackBANK0  005C
??_ser_init                 cstackBANK0  0020
??_ser_putch                cstackBANK0  0020
??_spi_transfer             cstackBANK0  0020
??_sprintf                  cstackBANK0  0039
??i1___lwmod                cstackCOMMON 0076
?_ADCconvert                cstackCOMMON 0072
?_Debounce                  cstackCOMMON 0072
?_Menu                      cstackCOMMON 0072
?_ReadButtons               cstackCOMMON 0072
?_UpdateDisplay             cstackCOMMON 0072
?___awmod                   cstackBANK0  0020
?___lwdiv                   cstackBANK0  0026
?___lwmod                   cstackBANK0  002E
?___wmul                    cstackBANK0  0020
?_adc_read                  cstackBANK0  0020
?_adc_read_channel          cstackCOMMON 0072
?_calibrateIR               cstackCOMMON 0072
?_init                      cstackCOMMON 0072
?_init_adc                  cstackCOMMON 0072
?_isr1                      cstackCOMMON 0072
?_lcd_init                  cstackCOMMON 0072
?_lcd_set_cursor            cstackCOMMON 0072
?_lcd_write_control         cstackCOMMON 0072
?_lcd_write_data            cstackCOMMON 0072
?_lcd_write_string          cstackBANK0  0027
?_main                      cstackCOMMON 0072
?_readAvgDistance           cstackCOMMON 0072
?_readDistance              cstackBANK0  0028
?_robo_init                 cstackCOMMON 0072
?_robotMove                 cstackBANK0  0022
?_robotTurn                 cstackBANK0  0022
?_robot_distance            cstackCOMMON 0072
?_robot_read                cstackCOMMON 0072
?_rotate                    cstackBANK0  0023
?_scan360                   cstackBANK0  005A
?_ser_init                  cstackCOMMON 0072
?_ser_putch                 cstackCOMMON 0072
?_spi_transfer              cstackCOMMON 0072
?_sprintf                   cstackBANK0  0034
?i1___lwmod                 cstackCOMMON 0072
AT25256A@CS0                (abs)        0038
AT25256A@CS1                (abs)        0039
Menu@input                  cstackBANK0  0020
UpdateDisplay@F1230         bssBANK3     0190
UpdateDisplay@adcOutput     cstackBANK0  004A
_ADCON0                     (abs)        001F
_ADCON1                     (abs)        009F
_ADCconvert                 text1195     0015
_ADRESH                     (abs)        001E
_ADRESL                     (abs)        009E
_BRGH                       (abs)        04C2
_CARRY                      (abs)        0018
_CHS0                       (abs)        00FB
_CHS1                       (abs)        00FC
_CHS2                       (abs)        00FD
_CREN                       (abs)        00C4
_CenterDebounceCount        bssBANK1     00CE
_CenterPressed              bitbssCOMMON 0380
_CenterReleased             bitbssCOMMON 0381
_Debounce                   text1216     0661
_DistHighByte               bssBANK1     00CF
_DistLowByte                bssBANK1     00D0
_DownDebounceCount          bssBANK1     00D1
_DownPressed                bitbssCOMMON 0382
_DownReleased               bitbssCOMMON 0383
_EEADR                      (abs)        010D
_EECON1                     (abs)        018C
_EECON2                     (abs)        018D
_EEDATA                     (abs)        010C
_GIE                        (abs)        005F
_GO                         (abs)        00FA
_LeftDebounceCount          bssBANK1     00D2
_LeftPressed                bitbssCOMMON 0384
_LeftReleased               bitbssCOMMON 0385
_Menu                       text1210     0CED
_OERR                       (abs)        00C1
_OPTION_REG                 (abs)        0081
_PEIE                       (abs)        005E
_PORTA                      (abs)        0005
_PORTC                      (abs)        0007
_PORTD                      (abs)        0008
_PORTE                      (abs)        0009
_RB0                        (abs)        0030
_RB1                        (abs)        0031
_RB2                        (abs)        0032
_RB3                        (abs)        0033
_RB4                        (abs)        0034
_RB5                        (abs)        0035
_RB6                        (abs)        0036
_RC0                        (abs)        0038
_RC1                        (abs)        0039
_RC2                        (abs)        003A
_RCIE                       (abs)        0465
_RCIF                       (abs)        0065
_RCREG                      (abs)        001A
_RD                         (abs)        0C60
_RE0                        (abs)        0048
_RE1                        (abs)        0049
_RE2                        (abs)        004A
_RTC_Counter                bssBANK0     0068
_RTC_FLAG_10MS              bitbssCOMMON 0386
_RTC_FLAG_1MS               bitbssBANK0  0378
_RTC_FLAG_250MS             bitbssCOMMON 0387
_RTC_FLAG_500MS             bitbssCOMMON 0388
_RTC_FLAG_50MS              bitbssCOMMON 0389
_RX9                        (abs)        00C6
_ReadButtons                text1214     0BC8
_RightDebounceCount         bssBANK1     00D3
_RightPressed               bitbssCOMMON 038A
_RightReleased              bitbssCOMMON 038B
_SCAN_FLAG                  bssBANK1     00D4
_SER_RC_FLAG                bitbssCOMMON 038C
_SPBRG                      (abs)        0099
_SPEN                       (abs)        00C7
_SSPBUF                     (abs)        0013
_SSPCON                     (abs)        0014
_SSPIF                      (abs)        0063
_SSPSTAT                    (abs)        0094
_SYNC                       (abs)        04C4
_TMR0                       (abs)        0001
_TMR0IE                     (abs)        005D
_TMR0IF                     (abs)        005A
_TRISA                      (abs)        0085
_TRISB                      (abs)        0086
_TRISC                      (abs)        0087
_TRISD                      (abs)        0088
_TRISE                      (abs)        0089
_TX9                        (abs)        04C6
_TXEN                       (abs)        04C5
_TXIE                       (abs)        0464
_TXIF                       (abs)        0064
_TXREG                      (abs)        0019
_UpDebounceCount            bssBANK1     00D5
_UpPressed                  bitbssCOMMON 038D
_UpReleased                 bitbssCOMMON 038E
_UpdateDisplay              text1186     0238
_WR                         (abs)        0C61
_WREN                       (abs)        0C62
__Habs1                     abs1         0000
__Hbank0                    bank0        0000
__Hbank1                    bank1        0000
__Hbank2                    bank2        0000
__Hbank3                    bank3        0000
__HbitbssBANK0              bitbssBANK0  0000
__HbitbssCOMMON             bitbssCOMMON 0000
__HbssBANK0                 bssBANK0     0000
__HbssBANK1                 bssBANK1     0000
__HbssBANK3                 bssBANK3     0000
__Hcinit                    cinit        0000
__Hclrtext                  clrtext      0000
__Hcode                     code         0000
__Hcommon                   common       0000
__Hconfig                   config       2008
__HcstackBANK0              cstackBANK0  0000
__HcstackCOMMON             cstackCOMMON 0000
__HdataBANK1                dataBANK1    0000
__Heeprom_data              eeprom_data  0000
__Hend_init                 end_init     0015
__Hfunctab                  functab      0000
__HidataBANK1               idataBANK1   0000
__Hidloc                    idloc        0000
__Hinit                     init         0012
__Hinittext                 inittext     0000
__Hintentry                 intentry     0012
__Hmaintext                 maintext     0000
__Hpowerup                  powerup      0000
__Hram                      ram          0000
__Hreset_vec                reset_vec    0003
__Hsfr0                     sfr0         0000
__Hsfr1                     sfr1         0000
__Hsfr2                     sfr2         0000
__Hsfr3                     sfr3         0000
__Hstrings                  strings      0000
__Htext                     text         0000
__Labs1                     abs1         0000
__Lbank0                    bank0        0000
__Lbank1                    bank1        0000
__Lbank2                    bank2        0000
__Lbank3                    bank3        0000
__LbitbssBANK0              bitbssBANK0  0000
__LbitbssCOMMON             bitbssCOMMON 0000
__LbssBANK0                 bssBANK0     0000
__LbssBANK1                 bssBANK1     0000
__LbssBANK3                 bssBANK3     0000
__Lcinit                    cinit        0000
__Lclrtext                  clrtext      0000
__Lcode                     code         0000
__Lcommon                   common       0000
__Lconfig                   config       2007
__LcstackBANK0              cstackBANK0  0000
__LcstackCOMMON             cstackCOMMON 0000
__LdataBANK1                dataBANK1    0000
__Leeprom_data              eeprom_data  0000
__Lend_init                 end_init     0012
__Lfunctab                  functab      0000
__LidataBANK1               idataBANK1   0000
__Lidloc                    idloc        0000
__Linit                     init         0012
__Linittext                 inittext     0000
__Lintentry                 intentry     0004
__Lmaintext                 maintext     0000
__Lpowerup                  powerup      0000
__Lram                      ram          0000
__Lreset_vec                reset_vec    0000
__Lsfr0                     sfr0         0000
__Lsfr1                     sfr1         0000
__Lsfr2                     sfr2         0000
__Lsfr3                     sfr3         0000
__Lstrings                  strings      0000
__Ltext                     text         0000
__S0                        (abs)        2008
__S1                        (abs)        01A0
__S2                        (abs)        0000
___awmod                    text1204     0E8D
___awmod@counter            cstackBANK0  0025
___awmod@dividend           cstackBANK0  0022
___awmod@divisor            cstackBANK0  0020
___awmod@sign               cstackBANK0  0026
___lwdiv                    text1206     0D34
___lwdiv@counter            cstackBANK0  002D
___lwdiv@dividend           cstackBANK0  0028
___lwdiv@divisor            cstackBANK0  0026
___lwdiv@quotient           cstackBANK0  002B
___lwmod                    text1205     0CA7
___lwmod@counter            cstackBANK0  0033
___lwmod@dividend           cstackBANK0  0030
___lwmod@divisor            cstackBANK0  002E
___wmul                     text1207     0B14
___wmul@multiplicand        cstackBANK0  0022
___wmul@multiplier          cstackBANK0  0020
___wmul@product             cstackBANK0  0024
__end_of_ADCconvert         text1195     0238
__end_of_Debounce           text1216     06F9
__end_of_Menu               text1210     0D34
__end_of_ReadButtons        text1214     0BF8
__end_of_UpdateDisplay      text1186     0385
__end_of___awmod            text1204     0EF5
__end_of___lwdiv            text1206     0D84
__end_of___lwmod            text1205     0CED
__end_of___wmul             text1207     0B40
__end_of_adc_read           text1212     0AE9
__end_of_adc_read_channel   text1203     0C63
__end_of_calibrateIR        text1184     0E8D
__end_of_init               text1187     0C28
__end_of_init_adc           text1202     0A89
__end_of_isr1               text1213     0661
__end_of_lcd_init           text1190     0B14
__end_of_lcd_set_cursor     text1192     09F9
__end_of_lcd_write_control  text1201     0A73
__end_of_lcd_write_data     text1200     0A38
__end_of_lcd_write_string   text1191     0B6C
__end_of_main               maintext     0491
__end_of_readAvgDistance    text1185     0E29
__end_of_readDistance       text1188     0A9F
__end_of_robo_init          text1199     0A06
__end_of_robotMove          text1197     1000
__end_of_robotTurn          text1196     0781
__end_of_robot_distance     text1189     09E6
__end_of_robot_read         text1193     0A25
__end_of_rotate             text1198     0DD4
__end_of_scan360            text1183     0F78
__end_of_ser_init           text1211     0B9A
__end_of_ser_putch          text1208     0AC0
__end_of_spi_transfer       text1209     0A5F
__end_of_sprintf            text1194     0591
__end_ofi1___lwmod          text1215     0CA7
__pbitbssBANK0              bitbssBANK0  0378
__pbitbssCOMMON             bitbssCOMMON 0380
__pbssBANK0                 bssBANK0     0068
__pbssBANK1                 bssBANK1     00A0
__pbssBANK3                 bssBANK3     0190
__pcstackBANK0              cstackBANK0  0020
__pcstackCOMMON             cstackCOMMON 0072
__pdataBANK1                dataBANK1    00E0
__pidataBANK1               idataBANK1   0A06
__pintentry                 intentry     0004
__pmaintext                 maintext     0385
__pstrings                  strings      0781
__ptext1183                 text1183     0EF5
__ptext1184                 text1184     0E29
__ptext1185                 text1185     0DD4
__ptext1186                 text1186     0238
__ptext1187                 text1187     0BF8
__ptext1188                 text1188     0A89
__ptext1189                 text1189     09DF
__ptext1190                 text1190     0AE9
__ptext1191                 text1191     0B40
__ptext1192                 text1192     09EE
__ptext1193                 text1193     0A13
__ptext1194                 text1194     0491
__ptext1195                 text1195     0015
__ptext1196                 text1196     06F9
__ptext1197                 text1197     0F78
__ptext1198                 text1198     0D84
__ptext1199                 text1199     09F9
__ptext1200                 text1200     0A25
__ptext1201                 text1201     0A5F
__ptext1202                 text1202     0A73
__ptext1203                 text1203     0C28
__ptext1204                 text1204     0E8D
__ptext1205                 text1205     0CA7
__ptext1206                 text1206     0D34
__ptext1207                 text1207     0B14
__ptext1208                 text1208     0A9F
__ptext1209                 text1209     0A4B
__ptext1210                 text1210     0CED
__ptext1211                 text1211     0B6C
__ptext1212                 text1212     0AC0
__ptext1213                 text1213     0591
__ptext1214                 text1214     0BC8
__ptext1215                 text1215     0C63
__ptext1216                 text1216     0661
__ptext1217                 text1217     0000
__size_of_ADCconvert        (abs)        0000
__size_of_Debounce          (abs)        0000
__size_of_Menu              (abs)        0000
__size_of_ReadButtons       (abs)        0000
__size_of_UpdateDisplay     (abs)        0000
__size_of___awmod           (abs)        0000
__size_of___lwdiv           (abs)        0000
__size_of___lwmod           (abs)        0000
__size_of___wmul            (abs)        0000
__size_of_adc_read          (abs)        0000
__size_of_adc_read_channel  (abs)        0000
__size_of_calibrateIR       (abs)        0000
__size_of_init              (abs)        0000
__size_of_init_adc          (abs)        0000
__size_of_isr1              (abs)        0000
__size_of_lcd_init          (abs)        0000
__size_of_lcd_set_cursor    (abs)        0000
__size_of_lcd_write_control (abs)        0000
__size_of_lcd_write_data    (abs)        0000
__size_of_lcd_write_string  (abs)        0000
__size_of_main              (abs)        0000
__size_of_readAvgDistance   (abs)        0000
__size_of_readDistance      (abs)        0000
__size_of_robo_init         (abs)        0000
__size_of_robotMove         (abs)        0000
__size_of_robotTurn         (abs)        0000
__size_of_robot_distance    (abs)        0000
__size_of_robot_read        (abs)        0000
__size_of_rotate            (abs)        0000
__size_of_scan360           (abs)        0000
__size_of_ser_init          (abs)        0000
__size_of_ser_putch         (abs)        0000
__size_of_spi_transfer      (abs)        0000
__size_of_sprintf           (abs)        0000
__size_ofi1___lwmod         (abs)        0000
_adcVal                     bssBANK0     006A
_adc_read                   text1212     0AC0
_adc_read_channel           text1203     0C28
_buttonPressed              bssBANK0     006C
_calibrateIR                text1184     0E29
_currentMenu                bssBANK1     00D6
_current_direction          bssBANK1     00D7
_current_step               dataBANK1    00EC
_distTravelled              dataBANK1    00EA
_dist_high                  bssBANK1     00C0
_dist_low                   bssBANK1     00C2
_distance                   bssBANK1     00C4
_dpowers                    strings      0791
_exit                       init         0012
_highByte                   bssBANK1     00D8
_init                       text1187     0BF8
_init_adc                   text1202     0A73
_isr1                       text1213     0591
_lcd_init                   text1190     0AE9
_lcd_set_cursor             text1192     09EE
_lcd_write_control          text1201     0A5F
_lcd_write_data             text1200     0A25
_lcd_write_string           text1191     0B40
_lowByte                    bssBANK1     00D9
_main                       maintext     0385
_menuStrings                dataBANK1    00E0
_pos                        bssBANK1     00C6
_readAvgDistance            text1185     0DD4
_readDistance               text1188     0A89
_robo_init                  text1199     09F9
_robotMove                  text1197     0F78
_robotTurn                  text1196     06F9
_robot_distance             text1189     09DF
_robot_read                 text1193     0A13
_rotate                     text1198     0D84
_rxfifo                     bssBANK1     00A0
_rxiptr                     bssBANK1     00DA
_rxoptr                     bssBANK1     00DB
_scan360                    text1183     0EF5
_ser_init                   text1211     0B6C
_ser_putch                  text1208     0A9F
_ser_tmp                    bssBANK1     00DC
_serialInput                bssBANK1     00DD
_shortMenuStrings           dataBANK1    00E5
_spi_transfer               text1209     0A4B
_sprintf                    text1194     0491
_test                       bssBANK1     00C8
_total                      bssBANK1     00CA
_totalSteps                 bssBANK1     00CC
_turnhighByte               bssBANK1     00DE
_turnlowByte                bssBANK1     00DF
_txfifo                     bssBANK1     00B0
_txiptr                     bssBANK0     006D
_txoptr                     bssBANK0     006E
adc_read@adc_value          cstackBANK0  0024
adc_read_channel@channel    cstackBANK0  0027
btemp                       (abs)        007E
clear_ram                   clrtext      09E6
end_of_initialization       cinit        0BC4
i1___lwmod                  text1215     0C63
i1___lwmod@counter          cstackCOMMON 0077
i1___lwmod@dividend         cstackCOMMON 0074
i1___lwmod@divisor          cstackCOMMON 0072
init_fetch                  inittext     0A38
init_ram                    inittext     0A3C
interrupt_function          intentry     0004
intlevel0                   functab      0000
intlevel1                   functab      0000
intlevel2                   functab      0000
intlevel3                   functab      0000
intlevel4                   functab      0000
intlevel5                   functab      0000
lcd_set_cursor@address      cstackBANK0  0023
lcd_write_control@databyte  cstackBANK0  0022
lcd_write_data@databyte     cstackBANK0  0022
lcd_write_string@s          cstackBANK0  0027
main@choice                 cstackBANK0  0067
main@shortwall              cstackBANK0  0065
readAvgDistance@fullval     cstackBANK0  0030
readAvgDistance@i           cstackBANK0  0032
readDistance@fullval        cstackBANK0  002C
reset_vec                   reset_vec    0000
robotMove@distance          cstackBANK0  0022
robotTurn@distance          cstackBANK0  0022
robot_read@packet           cstackBANK0  0022
rotate@direction            cstackBANK0  0025
rotate@i                    cstackBANK0  0028
rotate@numsteps             cstackBANK0  0023
saved_w                     (abs)        007E
scan360@lowestSteps         cstackBANK0  005E
scan360@lowestVal           cstackBANK0  005C
scan360@steps               cstackBANK0  0060
ser_putch@c                 cstackBANK0  0021
spi_transfer@data           cstackBANK0  0022
spi_transfer@temp           cstackBANK0  0021
sprintf@_val                cstackBANK0  003F
sprintf@ap                  cstackBANK0  003C
sprintf@c                   cstackBANK0  0044
sprintf@f                   cstackBANK0  0034
sprintf@flag                cstackBANK0  003D
sprintf@prec                cstackBANK0  003E
sprintf@sp                  cstackBANK0  0043
start                       init         0012
start_initialization        cinit        0B9A
wtemp0                      (abs)        007E
