HI-TECH Software C Compiler 

Linker command line:

--edf=C:\Program Files\HI-TECH Software\PICC\9.83\dat\en_msgs.txt -cs \
  -h+Assignment3_AldnoahZero.sym -z -Q16F877A -ol.obj \
  -MAssignment3_AldnoahZero.map -E1 -ACONST=00h-0FFhx32 -ACODE=00h-07FFhx4 \
  -ASTRCODE=00h-01FFFh -AENTRY=00h-0FFhx32 -ASTRING=00h-0FFhx32 \
  -ABANK0=020h-06Fh -ABANK1=0A0h-0EFh -ABANK2=0110h-016Fh \
  -ABANK3=0190h-01EFh -ARAM=020h-06Fh,0A0h-0EFh,0110h-016Fh,0190h-01EFh \
  -AABS1=020h-07Fh,0A0h-0EFh,0110h-016Fh,0190h-01EFh -ACOMMON=070h-07Fh \
  -ASFR0=00h-01Fh -ASFR1=080h-09Fh -ASFR2=0100h-010Fh -ASFR3=0180h-018Fh \
  -preset_vec=00h,intentry=04h,init,end_init -ppowerup=CODE -pfunctab=CODE \
  -ACONFIG=02007h-02007h -pconfig=CONFIG -DCONFIG=2 -AIDLOC=02000h-02003h \
  -pidloc=IDLOC -DIDLOC=2 -AEEDATA=00h-0FFh/02100h -peeprom_data=EEDATA \
  -DEEDATA=2 -DCODE=2 -DSTRCODE=2 -DSTRING=2 -DCONST=2 -DENTRY=2 -k \
  startup.obj Assignment3_AldnoahZero.obj 

Object code version is 3.10

Machine type is 16F877A



                Name                               Link     Load   Length Selector   Space Scale
startup.obj     end_init                             12       12        3        8       0
                reset_vec                             0        0        3        0       0
Assignment3_AldnoahZero.obj
                intentry                              4        4        E        8       0
                config                             2007     2007        1     400E       0
                text988                             C7E      C7E       98     18FC       0
                text987                             A48      A48       44     1490       0
                text986                             92F      92F       30     125E       0
                text985                             DBE      DBE       AC     1B7C       0
                text984                            1754     1754       29     2EA8       0
                text983                            172C     172C       28     2E58       0
                text982                             A08      A08       40     1410       0
                text981                            170B     170B       21     2E16       0
                text980                            1687     1687       14     2D0E       0
                text979                            16DB     16DB       17     2DB6       0
                text978                            17A8     17A8       2C     2F50       0
                text977                             B18      B18       50     1630       0
                text976                             A8C      A8C       46     1518       0
                text975                             C16      C16       68     182C       0
                text974                             9CD      9CD       3B     139A       0
                text973                            16AF     16AF       16     2D5E       0
                text972                            169B     169B       14     2D36       0
                text971                            1661     1661       13     2CC2       0
                text970                            16F2     16F2       19     2DE4       0
                text969                             B68      B68       50     16D0       0
                text968                             684      684      100        8       0
                text967                             8AF      8AF       22     115E       0
                text966                             994      994       39     1328       0
                text965                             784      784       74        8       0
                text964                             95F      95F       35     12BE       0
                text963                            1649     1649        B     2C92       0
                text962                            17D4     17D4       2C     2FA8       0
                text961                            177D     177D       2B     2EFA       0
                text960                             3D1      3D1      162        8       0
                text959                            16C5     16C5       16     2D8A       0
                text958                             8D1      8D1       2F     11A2       0
                text957                             E6A      E6A       B1     1CD4       0
                text956                             533      533      151        8       0
                text955                             BB8      BB8       5E     1770       0
                text954                             D16      D16       A8     1A2C       0
                text953                             F1B      F1B       E5     1E36       0
                text952                             22E      22E      1A3        8       0
                text951                             AD2      AD2       46     15A4       0
                maintext                             15       15      219        8       0
                cstackBANK0                          20       20       46       20       1
                cstackCOMMON                         72       72        B       70       1
                inittext                           1674     1674       13     2CE8       0
                clrtext                             7F8      7F8        8        8       0
                bssBANK3                            190      190       20      190       1
                dataBANK1                            D7       D7        D       A0       1
                bssBANK1                             A0       A0       37       A0       1
                bssBANK0                             66       66        A       20       1
                bssCOMMON                            7D       7D        1       70       1
                bitbssCOMMON                        380       70        D       70       1     8
                cinit                               900      900       2F     1200       0
                strings                             800      800       AD     1000       0
                idataBANK1                         1654     1654        D     2CA8       0

TOTAL           Name                               Link     Load   Length     Space
        CLASS   CONST          

        CLASS   CODE           
                end_init                             12       12        3         0
                intentry                              4        4        E         0
                reset_vec                             0        0        3         0
                text988                             C7E      C7E       98         0
                text987                             A48      A48       44         0
                text986                             92F      92F       30         0
                text985                             DBE      DBE       AC         0
                text984                            1754     1754       29         0
                text983                            172C     172C       28         0
                text982                             A08      A08       40         0
                text981                            170B     170B       21         0
                text980                            1687     1687       14         0
                text979                            16DB     16DB       17         0
                text978                            17A8     17A8       2C         0
                text977                             B18      B18       50         0
                text976                             A8C      A8C       46         0
                text975                             C16      C16       68         0
                text974                             9CD      9CD       3B         0
                text973                            16AF     16AF       16         0
                text972                            169B     169B       14         0
                text971                            1661     1661       13         0
                text970                            16F2     16F2       19         0
                text969                             B68      B68       50         0
                text968                             684      684      100         0
                text967                             8AF      8AF       22         0
                text966                             994      994       39         0
                text965                             784      784       74         0
                text964                             95F      95F       35         0
                text963                            1649     1649        B         0
                text962                            17D4     17D4       2C         0
                text961                            177D     177D       2B         0
                text960                             3D1      3D1      162         0
                text959                            16C5     16C5       16         0
                text958                             8D1      8D1       2F         0
                text957                             E6A      E6A       B1         0
                text956                             533      533      151         0
                text955                             BB8      BB8       5E         0
                text954                             D16      D16       A8         0
                text953                             F1B      F1B       E5         0
                text952                             22E      22E      1A3         0
                text951                             AD2      AD2       46         0
                maintext                             15       15      219         0
                inittext                           1674     1674       13         0
                clrtext                             7F8      7F8        8         0
                cinit                               900      900       2F         0
                idataBANK1                         1654     1654        D         0

        CLASS   STRCODE        

        CLASS   ENTRY          

        CLASS   STRING         
                strings                             800      800       AD         0

        CLASS   BANK0          
                cstackBANK0                          20       20       46         1
                bssBANK0                             66       66        A         1

        CLASS   BANK1          
                dataBANK1                            D7       D7        D         1
                bssBANK1                             A0       A0       37         1

        CLASS   BANK2          

        CLASS   BANK3          
                bssBANK3                            190      190       20         1

        CLASS   RAM            

        CLASS   ABS1           
                abs_s1                               7E       7E        2         1

        CLASS   COMMON         
                cstackCOMMON                         72       72        B         1
                bssCOMMON                            7D       7D        1         1
                bitbssCOMMON                        380       70        D         1

        CLASS   SFR0           

        CLASS   SFR1           

        CLASS   SFR2           

        CLASS   SFR3           

        CLASS   CONFIG         
                config                             2007     2007        1         0

        CLASS   IDLOC          

        CLASS   EEDATA         



SEGMENTS        Name                           Load    Length   Top    Selector   Space  Class     Delta

                reset_vec                      000000  000003  000003         0       0  CODE        2
                intentry                       000004  0007FC  000800         8       0  CODE        2
                cstackBANK0                    000020  000050  000070        20       1  BANK0       1
                bitbssCOMMON                   000070  00000E  00007E        70       1  COMMON      1
                bssBANK1                       0000A0  000044  0000E4        A0       1  BANK1       1
                bssBANK3                       000190  000020  0001B0       190       1  BANK3       1
                strings                        000800  0000AD  0008AD      1000       0  STRING      2
                text967                        0008AF  000022  0008D1      115E       0  CODE        2
                text958                        0008D1  00002F  000900      11A2       0  CODE        2
                cinit                          000900  00002F  00092F      1200       0  CODE        2
                text986                        00092F  000030  00095F      125E       0  CODE        2
                text964                        00095F  000035  000994      12BE       0  CODE        2
                text966                        000994  000039  0009CD      1328       0  CODE        2
                text974                        0009CD  00003B  000A08      139A       0  CODE        2
                text982                        000A08  000040  000A48      1410       0  CODE        2
                text987                        000A48  000044  000A8C      1490       0  CODE        2
                text976                        000A8C  000046  000AD2      1518       0  CODE        2
                text951                        000AD2  000046  000B18      15A4       0  CODE        2
                text977                        000B18  000050  000B68      1630       0  CODE        2
                text969                        000B68  000050  000BB8      16D0       0  CODE        2
                text955                        000BB8  00005E  000C16      1770       0  CODE        2
                text975                        000C16  000068  000C7E      182C       0  CODE        2
                text988                        000C7E  000098  000D16      18FC       0  CODE        2
                text954                        000D16  0000A8  000DBE      1A2C       0  CODE        2
                text985                        000DBE  0000AC  000E6A      1B7C       0  CODE        2
                text957                        000E6A  0000B1  000F1B      1CD4       0  CODE        2
                text953                        000F1B  0000E5  001000      1E36       0  CODE        2
                text963                        001649  00000B  001654      2C92       0  CODE        2
                idataBANK1                     001654  00000D  001661      2CA8       0  CODE        2
                text971                        001661  000013  001674      2CC2       0  CODE        2
                inittext                       001674  000013  001687      2CE8       0  CODE        2
                text980                        001687  000014  00169B      2D0E       0  CODE        2
                text972                        00169B  000014  0016AF      2D36       0  CODE        2
                text973                        0016AF  000016  0016C5      2D5E       0  CODE        2
                text959                        0016C5  000016  0016DB      2D8A       0  CODE        2
                text979                        0016DB  000017  0016F2      2DB6       0  CODE        2
                text970                        0016F2  000019  00170B      2DE4       0  CODE        2
                text981                        00170B  000021  00172C      2E16       0  CODE        2
                text983                        00172C  000028  001754      2E58       0  CODE        2
                text984                        001754  000029  00177D      2EA8       0  CODE        2
                text961                        00177D  00002B  0017A8      2EFA       0  CODE        2
                text978                        0017A8  00002C  0017D4      2F50       0  CODE        2
                text962                        0017D4  00002C  001800      2FA8       0  CODE        2
                config                         002007  000001  002008      400E       0  CONFIG      2


UNUSED ADDRESS RANGES

        Name                Unused          Largest block    Delta
        BANK1            00E4-00EF              C           1
        BANK2            0110-016F             60           1
        BANK3            01B0-01EF             40           1
        CODE             0003-0003              1           2
                         08AD-08AE              2
                         1000-1648            649
                         1800-1FFF            800
        CONST            0003-0003              1           2
                         08AD-08AE              2
                         1000-1648            100
                         1800-1FFF            100
        EEDATA           2100-21FF            100           2
        ENTRY            0003-0003              1           2
                         08AD-08AE              2
                         1000-1648            100
                         1800-1FFF            100
        IDLOC            2000-2003              4           2
        RAM              00E4-00EF              C           1
                         0110-016F             60
                         01B0-01EF             40
        SFR0             0000-001F             20           1
        SFR1             0080-009F             20           1
        SFR2             0100-010F             10           1
        SFR3             0180-018F             10           1
        STRCODE          0003-0003              1           2
                         08AD-08AE              2
                         1000-1648            649
                         1800-1FFF            800
        STRING           0003-0003              1           2
                         08AD-08AE              2
                         1000-1648            100
                         1800-1FFF            100

                                  Symbol Table

??_ChargeMode               cstackBANK0  0053
??_Debounce                 cstackCOMMON 0072
??_Menu                     cstackBANK0  0020
??_ReadButtons              cstackCOMMON 0073
??_RobotDrive               cstackBANK0  0026
??_UpdateDisplay            cstackBANK0  003F
??___awmod                  cstackBANK0  0024
??___lwdiv                  cstackBANK0  0024
??___lwmod                  cstackBANK0  002C
??___wmul                   cstackBANK0  0024
??_abs                      cstackBANK0  0028
??_adc_read                 cstackBANK0  0022
??_adc_read_channel         cstackBANK0  0026
??_calibrateIR              cstackBANK0  0053
??_init                     cstackBANK0  0023
??_init_adc                 cstackBANK0  0020
??_isr1                     cstackCOMMON 0078
??_lcd_init                 cstackBANK0  0023
??_lcd_set_cursor           cstackBANK0  0023
??_lcd_write_control        cstackBANK0  0020
??_lcd_write_data           cstackBANK0  0020
??_lcd_write_string         cstackBANK0  0029
??_main                     cstackBANK0  005E
??_readAvgDistance          cstackBANK0  002E
??_readDistance             cstackBANK0  002A
??_robo_init                cstackBANK0  0022
??_robotFollow              cstackBANK0  0059
??_robotMoveSpeed           cstackBANK0  0057
??_robotTurn                cstackBANK0  0024
??_robotTurnSpeed           cstackBANK0  0057
??_robot_read               cstackBANK0  0022
??_rotate                   cstackBANK0  0026
??_ser_getch                cstackBANK0  0020
??_ser_init                 cstackBANK0  0020
??_ser_isrx                 cstackBANK0  0020
??_ser_putch                cstackBANK0  0020
??_spi_transfer             cstackBANK0  0020
??_sprintf                  cstackBANK0  0033
??i1___lwmod                cstackCOMMON 0076
?_ChargeMode                cstackCOMMON 0072
?_Debounce                  cstackCOMMON 0072
?_Menu                      cstackCOMMON 0072
?_ReadButtons               cstackCOMMON 0072
?_RobotDrive                cstackBANK0  0022
?_UpdateDisplay             cstackCOMMON 0072
?___awmod                   cstackBANK0  0020
?___lwdiv                   cstackBANK0  0020
?___lwmod                   cstackBANK0  0028
?___wmul                    cstackBANK0  0020
?_abs                       cstackBANK0  0026
?_adc_read                  cstackBANK0  0020
?_adc_read_channel          cstackCOMMON 0072
?_calibrateIR               cstackCOMMON 0072
?_init                      cstackCOMMON 0072
?_init_adc                  cstackCOMMON 0072
?_isr1                      cstackCOMMON 0072
?_lcd_init                  cstackCOMMON 0072
?_lcd_set_cursor            cstackCOMMON 0072
?_lcd_write_control         cstackCOMMON 0072
?_lcd_write_data            cstackCOMMON 0072
?_lcd_write_string          cstackBANK0  0027
?_main                      cstackCOMMON 0072
?_readAvgDistance           cstackCOMMON 0072
?_readDistance              cstackBANK0  0028
?_robo_init                 cstackCOMMON 0072
?_robotFollow               cstackBANK0  0053
?_robotMoveSpeed            cstackBANK0  0053
?_robotTurn                 cstackBANK0  0022
?_robotTurnSpeed            cstackBANK0  0053
?_robot_read                cstackCOMMON 0072
?_rotate                    cstackBANK0  0023
?_ser_getch                 cstackCOMMON 0072
?_ser_init                  cstackCOMMON 0072
?_ser_isrx                  cstackCOMMON 0072
?_ser_putch                 cstackCOMMON 0072
?_spi_transfer              cstackCOMMON 0072
?_sprintf                   cstackBANK0  002E
?i1___lwmod                 cstackCOMMON 0072
AT25256A@CS0                (abs)        0038
AT25256A@CS1                (abs)        0039
Menu@BTN_input              cstackBANK0  0020
RobotDrive@radius           cstackBANK0  0024
RobotDrive@radiushighByte   cstackBANK0  002A
RobotDrive@radiuslowByte    cstackBANK0  0029
RobotDrive@speed            cstackBANK0  0022
RobotDrive@speedhighByte    cstackBANK0  0028
RobotDrive@speedlowByte     cstackBANK0  0027
UpdateDisplay@F1250         bssBANK3     0190
UpdateDisplay@LCDOutput     cstackBANK0  0043
_ADCON0                     (abs)        001F
_ADCON1                     (abs)        009F
_ADRESH                     (abs)        001E
_ADRESL                     (abs)        009E
_AngleHighByte              bssBANK1     00C6
_AngleLowByte               bssBANK1     00C7
_BRGH                       (abs)        04C2
_BumpSensors                bssBANK0     006A
_CARRY                      (abs)        0018
_CHS0                       (abs)        00FB
_CHS1                       (abs)        00FC
_CHS2                       (abs)        00FD
_CREN                       (abs)        00C4
_CenterDebounceCount        bssBANK1     00C8
_CenterPressed              bitbssCOMMON 0380
_CenterReleased             bitbssCOMMON 0381
_ChargeMode                 text951      0AD2
_CliffSensors               bssBANK1     00C9
_Debounce                   text988      0C7E
_Disp1                      bssBANK1     00B0
_Disp2                      bssBANK1     00B2
_DistHighByte               bssBANK1     00CA
_DistLowByte                bssBANK1     00CB
_DownDebounceCount          bssBANK1     00CC
_DownPressed                bitbssCOMMON 0382
_DownReleased               bitbssCOMMON 0383
_EEADR                      (abs)        010D
_EECON1                     (abs)        018C
_EECON2                     (abs)        018D
_EEDATA                     (abs)        010C
_GIE                        (abs)        005F
_GO                         (abs)        00FA
_IRdistance                 bssBANK1     00B4
_LeftDebounceCount          bssBANK1     00CD
_LeftPressed                bitbssCOMMON 0384
_LeftReleased               bitbssCOMMON 0385
_Menu                       text982      0A08
_OERR                       (abs)        00C1
_OPTION_REG                 (abs)        0081
_PEIE                       (abs)        005E
_PORTA                      (abs)        0005
_PORTD                      (abs)        0008
_PORTE                      (abs)        0009
_RB0                        (abs)        0030
_RB2                        (abs)        0032
_RB3                        (abs)        0033
_RB4                        (abs)        0034
_RB5                        (abs)        0035
_RB6                        (abs)        0036
_RC0                        (abs)        0038
_RC1                        (abs)        0039
_RC2                        (abs)        003A
_RCIE                       (abs)        0465
_RCIF                       (abs)        0065
_RCREG                      (abs)        001A
_RD                         (abs)        0C60
_RE0                        (abs)        0048
_RE1                        (abs)        0049
_RE2                        (abs)        004A
_ROBOTerror                 bssBANK1     00CE
_RTC_Counter                bssBANK1     00B6
_RTC_FLAG_1MS               bitbssCOMMON 0386
_RTC_FLAG_250MS             bitbssCOMMON 0387
_RTC_FLAG_500MS             bitbssCOMMON 0388
_RX9                        (abs)        00C6
_ReadButtons                text986      092F
_RightDebounceCount         bssBANK1     00CF
_RightPressed               bitbssCOMMON 0389
_RightReleased              bitbssCOMMON 038A
_RobotDrive                 text966      0994
_SPBRG                      (abs)        0099
_SPEN                       (abs)        00C7
_SSPBUF                     (abs)        0013
_SSPCON                     (abs)        0014
_SSPIF                      (abs)        0063
_SSPSTAT                    (abs)        0094
_SYNC                       (abs)        04C4
_TMR0                       (abs)        0001
_TMR0IE                     (abs)        005D
_TMR0IF                     (abs)        005A
_TRISA                      (abs)        0085
_TRISB                      (abs)        0086
_TRISC                      (abs)        0087
_TRISD                      (abs)        0088
_TRISE                      (abs)        0089
_TX9                        (abs)        04C6
_TXEN                       (abs)        04C5
_TXIE                       (abs)        0464
_TXIF                       (abs)        0064
_TXREG                      (abs)        0019
_TotalDistTravelled         bssBANK1     00B8
_UpDebounceCount            bssBANK1     00D0
_UpPressed                  bitbssCOMMON 038B
_UpReleased                 bitbssCOMMON 038C
_UpdateDisplay              text956      0533
_VwallSensor                bssBANK0     006B
_WR                         (abs)        0C61
_WREN                       (abs)        0C62
__Habs1                     abs1         0000
__Hbank0                    bank0        0000
__Hbank1                    bank1        0000
__Hbank2                    bank2        0000
__Hbank3                    bank3        0000
__HbitbssCOMMON             bitbssCOMMON 0000
__HbssBANK0                 bssBANK0     0000
__HbssBANK1                 bssBANK1     0000
__HbssBANK3                 bssBANK3     0000
__HbssCOMMON                bssCOMMON    0000
__Hcinit                    cinit        0000
__Hclrtext                  clrtext      0000
__Hcode                     code         0000
__Hcommon                   common       0000
__Hconfig                   config       2008
__HcstackBANK0              cstackBANK0  0000
__HcstackCOMMON             cstackCOMMON 0000
__HdataBANK1                dataBANK1    0000
__Heeprom_data              eeprom_data  0000
__Hend_init                 end_init     0015
__Hfunctab                  functab      0000
__HidataBANK1               idataBANK1   0000
__Hidloc                    idloc        0000
__Hinit                     init         0012
__Hinittext                 inittext     0000
__Hintentry                 intentry     0012
__Hmaintext                 maintext     0000
__Hpowerup                  powerup      0000
__Hram                      ram          0000
__Hreset_vec                reset_vec    0003
__Hsfr0                     sfr0         0000
__Hsfr1                     sfr1         0000
__Hsfr2                     sfr2         0000
__Hsfr3                     sfr3         0000
__Hstrings                  strings      0000
__Htext                     text         0000
__Labs1                     abs1         0000
__Lbank0                    bank0        0000
__Lbank1                    bank1        0000
__Lbank2                    bank2        0000
__Lbank3                    bank3        0000
__LbitbssCOMMON             bitbssCOMMON 0000
__LbssBANK0                 bssBANK0     0000
__LbssBANK1                 bssBANK1     0000
__LbssBANK3                 bssBANK3     0000
__LbssCOMMON                bssCOMMON    0000
__Lcinit                    cinit        0000
__Lclrtext                  clrtext      0000
__Lcode                     code         0000
__Lcommon                   common       0000
__Lconfig                   config       2007
__LcstackBANK0              cstackBANK0  0000
__LcstackCOMMON             cstackCOMMON 0000
__LdataBANK1                dataBANK1    0000
__Leeprom_data              eeprom_data  0000
__Lend_init                 end_init     0012
__Lfunctab                  functab      0000
__LidataBANK1               idataBANK1   0000
__Lidloc                    idloc        0000
__Linit                     init         0012
__Linittext                 inittext     0000
__Lintentry                 intentry     0004
__Lmaintext                 maintext     0000
__Lpowerup                  powerup      0000
__Lram                      ram          0000
__Lreset_vec                reset_vec    0000
__Lsfr0                     sfr0         0000
__Lsfr1                     sfr1         0000
__Lsfr2                     sfr2         0000
__Lsfr3                     sfr3         0000
__Lstrings                  strings      0000
__Ltext                     text         0000
__S0                        (abs)        2008
__S1                        (abs)        01B0
__S2                        (abs)        0000
___awmod                    text975      0C16
___awmod@counter            cstackBANK0  0025
___awmod@dividend           cstackBANK0  0022
___awmod@divisor            cstackBANK0  0020
___awmod@sign               cstackBANK0  0026
___lwdiv                    text977      0B18
___lwdiv@counter            cstackBANK0  0027
___lwdiv@dividend           cstackBANK0  0022
___lwdiv@divisor            cstackBANK0  0020
___lwdiv@quotient           cstackBANK0  0025
___lwmod                    text976      0A8C
___lwmod@counter            cstackBANK0  002D
___lwmod@dividend           cstackBANK0  002A
___lwmod@divisor            cstackBANK0  0028
___wmul                     text978      17A8
___wmul@multiplicand        cstackBANK0  0022
___wmul@multiplier          cstackBANK0  0020
___wmul@product             cstackBANK0  0024
__end_of_ChargeMode         text951      0B18
__end_of_Debounce           text988      0D16
__end_of_Menu               text982      0A48
__end_of_ReadButtons        text986      095F
__end_of_RobotDrive         text966      09CD
__end_of_UpdateDisplay      text956      0684
__end_of___awmod            text975      0C7E
__end_of___lwdiv            text977      0B68
__end_of___lwmod            text976      0AD2
__end_of___wmul             text978      17D4
__end_of_abs                text964      0994
__end_of_adc_read           text984      177D
__end_of_adc_read_channel   text974      0A08
__end_of_calibrateIR        text955      0C16
__end_of_init               text958      0900
__end_of_init_adc           text973      16C5
__end_of_isr1               text985      0E6A
__end_of_lcd_init           text961      17A8
__end_of_lcd_set_cursor     text963      1654
__end_of_lcd_write_control  text972      16AF
__end_of_lcd_write_data     text971      1674
__end_of_lcd_write_string   text962      1800
__end_of_main               maintext     022E
__end_of_readAvgDistance    text957      0F1B
__end_of_readDistance       text959      16DB
__end_of_robo_init          text970      170B
__end_of_robotFollow        text952      03D1
__end_of_robotMoveSpeed     text953      1000
__end_of_robotTurn          text965      07F8
__end_of_robotTurnSpeed     text954      0DBE
__end_of_robot_read         text960      0533
__end_of_rotate             text969      0BB8
__end_of_ser_getch          text967      08D1
__end_of_ser_init           text983      1754
__end_of_ser_isrx           text979      16F2
__end_of_ser_putch          text981      172C
__end_of_spi_transfer       text980      169B
__end_of_sprintf            text968      0784
__end_ofi1___lwmod          text987      0A8C
__pbitbssCOMMON             bitbssCOMMON 0380
__pbssBANK0                 bssBANK0     0066
__pbssBANK1                 bssBANK1     00A0
__pbssBANK3                 bssBANK3     0190
__pbssCOMMON                bssCOMMON    007D
__pcstackBANK0              cstackBANK0  0020
__pcstackCOMMON             cstackCOMMON 0072
__pdataBANK1                dataBANK1    00D7
__pidataBANK1               idataBANK1   1654
__pintentry                 intentry     0004
__pmaintext                 maintext     0015
__pstrings                  strings      0800
__ptext951                  text951      0AD2
__ptext952                  text952      022E
__ptext953                  text953      0F1B
__ptext954                  text954      0D16
__ptext955                  text955      0BB8
__ptext956                  text956      0533
__ptext957                  text957      0E6A
__ptext958                  text958      08D1
__ptext959                  text959      16C5
__ptext960                  text960      03D1
__ptext961                  text961      177D
__ptext962                  text962      17D4
__ptext963                  text963      1649
__ptext964                  text964      095F
__ptext965                  text965      0784
__ptext966                  text966      0994
__ptext967                  text967      08AF
__ptext968                  text968      0684
__ptext969                  text969      0B68
__ptext970                  text970      16F2
__ptext971                  text971      1661
__ptext972                  text972      169B
__ptext973                  text973      16AF
__ptext974                  text974      09CD
__ptext975                  text975      0C16
__ptext976                  text976      0A8C
__ptext977                  text977      0B18
__ptext978                  text978      17A8
__ptext979                  text979      16DB
__ptext980                  text980      1687
__ptext981                  text981      170B
__ptext982                  text982      0A08
__ptext983                  text983      172C
__ptext984                  text984      1754
__ptext985                  text985      0DBE
__ptext986                  text986      092F
__ptext987                  text987      0A48
__ptext988                  text988      0C7E
__ptext989                  text989      0000
__size_of_ChargeMode        (abs)        0000
__size_of_Debounce          (abs)        0000
__size_of_Menu              (abs)        0000
__size_of_ReadButtons       (abs)        0000
__size_of_RobotDrive        (abs)        0000
__size_of_UpdateDisplay     (abs)        0000
__size_of___awmod           (abs)        0000
__size_of___lwdiv           (abs)        0000
__size_of___lwmod           (abs)        0000
__size_of___wmul            (abs)        0000
__size_of_abs               (abs)        0000
__size_of_adc_read          (abs)        0000
__size_of_adc_read_channel  (abs)        0000
__size_of_calibrateIR       (abs)        0000
__size_of_init              (abs)        0000
__size_of_init_adc          (abs)        0000
__size_of_isr1              (abs)        0000
__size_of_lcd_init          (abs)        0000
__size_of_lcd_set_cursor    (abs)        0000
__size_of_lcd_write_control (abs)        0000
__size_of_lcd_write_data    (abs)        0000
__size_of_lcd_write_string  (abs)        0000
__size_of_main              (abs)        0000
__size_of_readAvgDistance   (abs)        0000
__size_of_readDistance      (abs)        0000
__size_of_robo_init         (abs)        0000
__size_of_robotFollow       (abs)        0000
__size_of_robotMoveSpeed    (abs)        0000
__size_of_robotTurn         (abs)        0000
__size_of_robotTurnSpeed    (abs)        0000
__size_of_robot_read        (abs)        0000
__size_of_rotate            (abs)        0000
__size_of_ser_getch         (abs)        0000
__size_of_ser_init          (abs)        0000
__size_of_ser_isrx          (abs)        0000
__size_of_ser_putch         (abs)        0000
__size_of_spi_transfer      (abs)        0000
__size_of_sprintf           (abs)        0000
__size_ofi1___lwmod         (abs)        0000
_abs                        text964      095F
_adcVal                     bssBANK0     0066
_adc_read                   text984      1754
_adc_read_channel           text974      09CD
_angleTurned                bssBANK1     00BA
_buttonPressed              bssCOMMON    007D
_calibrateIR                text955      0BB8
_currentMenu                bssBANK1     00D1
_current_step               dataBANK1    00E3
_distTravelled              bssBANK1     00BC
_dist_high                  bssBANK1     00BE
_dist_low                   bssBANK1     00C0
_dpowers                    strings      0810
_exit                       init         0012
_highByte                   bssBANK1     00D2
_init                       text958      08D1
_init_adc                   text973      16AF
_isr1                       text985      0DBE
_lcd_init                   text961      177D
_lcd_set_cursor             text963      1649
_lcd_write_control          text972      169B
_lcd_write_data             text971      1661
_lcd_write_string           text962      17D4
_lowByte                    bssBANK1     00D3
_main                       maintext     0015
_menuStrings                dataBANK1    00D7
_pos                        bssBANK0     0068
_readAvgDistance            text957      0E6A
_readDistance               text959      16C5
_robo_init                  text970      16F2
_robotFollow                text952      022E
_robotMoveSpeed             text953      0F1B
_robotTurn                  text965      0784
_robotTurnSpeed             text954      0D16
_robot_read                 text960      03D1
_rotate                     text969      0B68
_rxfifo                     bssBANK1     00A0
_rxiptr                     bssBANK0     006C
_rxoptr                     bssBANK0     006D
_ser_getch                  text967      08AF
_ser_init                   text983      172C
_ser_isrx                   text979      16DB
_ser_putch                  text981      170B
_ser_tmp                    bssBANK1     00D4
_shortMenuStrings           dataBANK1    00DD
_spi_transfer               text980      1687
_sprintf                    text968      0684
_total                      bssBANK1     00C2
_totalSteps                 bssBANK1     00C4
_turnhighByte               bssBANK1     00D5
_turnlowByte                bssBANK1     00D6
_txfifo                     bssBANK3     01A0
_txiptr                     bssBANK0     006E
_txoptr                     bssBANK0     006F
abs@v                       cstackBANK0  0026
adc_read@adc_value          cstackBANK0  0024
adc_read_channel@channel    cstackBANK0  0027
btemp                       (abs)        007E
clear_ram                   clrtext      07F8
end_of_initialization       cinit        092B
i1___lwmod                  text987      0A48
i1___lwmod@counter          cstackCOMMON 0077
i1___lwmod@dividend         cstackCOMMON 0074
i1___lwmod@divisor          cstackCOMMON 0072
init_fetch                  inittext     1674
init_ram                    inittext     1678
interrupt_function          intentry     0004
intlevel0                   functab      0000
intlevel1                   functab      0000
intlevel2                   functab      0000
intlevel3                   functab      0000
intlevel4                   functab      0000
intlevel5                   functab      0000
lcd_set_cursor@address      cstackBANK0  0023
lcd_write_control@databyte  cstackBANK0  0022
lcd_write_data@databyte     cstackBANK0  0022
lcd_write_string@s          cstackBANK0  0027
main@a                      cstackBANK0  0063
main@choice                 cstackBANK0  0065
main@shortwall              cstackBANK0  0061
readAvgDistance@fullval     cstackBANK0  0034
readAvgDistance@i           cstackBANK0  0047
readAvgDistance@j           cstackBANK0  0046
readAvgDistance@tempIR      cstackBANK0  0044
readAvgDistance@values      cstackBANK0  0036
readDistance@readVal        cstackBANK0  002C
reset_vec                   reset_vec    0000
robotFollow@AdcTarget       cstackBANK0  0057
robotFollow@distance        cstackBANK0  0053
robotFollow@speed           cstackBANK0  0055
robotFollow@temp1           cstackBANK0  005C
robotMoveSpeed@distance     cstackBANK0  0053
robotMoveSpeed@speed        cstackBANK0  0055
robotMoveSpeed@temp1        cstackBANK0  005A
robotTurn@angle             cstackBANK0  0022
robotTurnSpeed@angle        cstackBANK0  0053
robotTurnSpeed@speed        cstackBANK0  0055
robotTurnSpeed@temp1        cstackBANK0  005A
robot_read@readType         cstackBANK0  0024
rotate@direction            cstackBANK0  0025
rotate@i                    cstackBANK0  0028
rotate@numsteps             cstackBANK0  0023
saved_w                     (abs)        007E
ser_getch@c                 cstackBANK0  0021
ser_putch@c                 cstackBANK0  0021
spi_transfer@data           cstackBANK0  0022
spi_transfer@temp           cstackBANK0  0021
sprintf@_val                cstackBANK0  0039
sprintf@ap                  cstackBANK0  0036
sprintf@c                   cstackBANK0  003E
sprintf@f                   cstackBANK0  002E
sprintf@flag                cstackBANK0  0037
sprintf@prec                cstackBANK0  0038
sprintf@sp                  cstackBANK0  003D
start                       init         0012
start_initialization        cinit        0900
wtemp0                      (abs)        007E
